
whetstone_020.elf:     file format elf32-m68k


Disassembly of section .text.reloc:

00002000 <_reloc>:
    2000:	41fa fffe      	lea %pc@(2000 <_reloc>),%a0
    2004:	43f9 0000 2000 	lea 2000 <_reloc>,%a1
    200a:	203c 0000 20a0 	movel #8352,%d0
    2010:	9089           	subl %a1,%d0
    2012:	e488           	lsrl #2,%d0
    2014:	5380           	subql #1,%d0
    2016:	22d8           	movel %a0@+,%a1@+
    2018:	51c8 fffc      	dbf %d0,2016 <_reloc+0x16>
    201c:	4ef9 0000 2024 	jmp 2024 <_postreloc>

Disassembly of section .text.postreloc:

00002024 <_postreloc>:
	...

00002030 <POSTRELOC>:
    2030:	203c 0001 7eec 	movel #98028,%d0
    2036:	9089           	subl %a1,%d0
    2038:	e488           	lsrl #2,%d0
    203a:	2200           	movel %d0,%d1
    203c:	4841           	swap %d1
    203e:	6002           	bras 2042 <POSTRELOC+0x12>
    2040:	22d8           	movel %a0@+,%a1@+
    2042:	51c8 fffc      	dbf %d0,2040 <POSTRELOC+0x10>
    2046:	51c9 fff8      	dbf %d1,2040 <POSTRELOC+0x10>

0000204a <_enter>:
    204a:	2e78 0414      	moveal 414 <SDB_MEMSIZE>,%sp
    204e:	612e           	bsrs 207e <_bss_init>
    2050:	4eb9 0001 5804 	jsr 15804 <_init>
    2056:	2f3c 0001 5818 	movel #88088,%sp@-
    205c:	4eb9 0000 78f4 	jsr 78f4 <atexit>
    2062:	2ebc 0000 0000 	movel #0,%sp@
    2068:	2f3c 0001 7eec 	movel #98028,%sp@-
    206e:	41f9 0000 21ca 	lea 21ca <main>,%a0
    2074:	4e90           	jsr %a0@
    2076:	2f00           	movel %d0,%sp@-
    2078:	4eb9 0000 790c 	jsr 790c <exit>

0000207e <_bss_init>:
    207e:	203c 0002 de30 	movel #187952,%d0
    2084:	90bc 0001 7eec 	subl #98028,%d0
    208a:	e488           	lsrl #2,%d0
    208c:	41f9 0001 7eec 	lea 17eec <__TMC_END__>,%a0
    2092:	6002           	bras 2096 <_bss_init+0x18>
    2094:	4298           	clrl %a0@+
    2096:	51c8 fffc      	dbf %d0,2094 <_bss_init+0x16>
    209a:	4e75           	rts
    209c:	0000 0000      	orib #0,%d0

Disassembly of section .text:

000020a4 <deregister_tm_clones>:
    20a4:	203c 0001 7eec 	movel #98028,%d0
    20aa:	0c80 0001 7eec 	cmpil #98028,%d0
    20b0:	6716           	beqs 20c8 <deregister_tm_clones+0x24>
    20b2:	41f9 0000 0000 	lea 0 <DUART_MR1A>,%a0
    20b8:	b0fc 0000      	cmpaw #0,%a0
    20bc:	670a           	beqs 20c8 <deregister_tm_clones+0x24>
    20be:	4879 0001 7eec 	pea 17eec <__TMC_END__>
    20c4:	4e90           	jsr %a0@
    20c6:	588f           	addql #4,%sp
    20c8:	4e75           	rts

000020ca <register_tm_clones>:
    20ca:	203c 0001 7eec 	movel #98028,%d0
    20d0:	0480 0001 7eec 	subil #98028,%d0
    20d6:	2200           	movel %d0,%d1
    20d8:	e481           	asrl #2,%d1
    20da:	d080           	addl %d0,%d0
    20dc:	9180           	subxl %d0,%d0
    20de:	4480           	negl %d0
    20e0:	d081           	addl %d1,%d0
    20e2:	e280           	asrl #1,%d0
    20e4:	6718           	beqs 20fe <register_tm_clones+0x34>
    20e6:	41f9 0000 0000 	lea 0 <DUART_MR1A>,%a0
    20ec:	b0fc 0000      	cmpaw #0,%a0
    20f0:	670c           	beqs 20fe <register_tm_clones+0x34>
    20f2:	2f00           	movel %d0,%sp@-
    20f4:	4879 0001 7eec 	pea 17eec <__TMC_END__>
    20fa:	4e90           	jsr %a0@
    20fc:	508f           	addql #8,%sp
    20fe:	4e75           	rts

00002100 <__do_global_dtors_aux>:
    2100:	2f0a           	movel %a2,%sp@-
    2102:	2f02           	movel %d2,%sp@-
    2104:	4a39 0001 7ef0 	tstb 17ef0 <completed.2>
    210a:	665e           	bnes 216a <__do_global_dtors_aux+0x6a>
    210c:	45f9 0001 5168 	lea 15168 <__DTOR_LIST__>,%a2
    2112:	2039 0001 7ef2 	movel 17ef2 <dtor_idx.1>,%d0
    2118:	243c 0001 516c 	movel #86380,%d2
    211e:	0482 0001 5168 	subil #86376,%d2
    2124:	e482           	asrl #2,%d2
    2126:	5382           	subql #1,%d2
    2128:	b480           	cmpl %d0,%d2
    212a:	631c           	blss 2148 <__do_global_dtors_aux+0x48>
    212c:	5280           	addql #1,%d0
    212e:	23c0 0001 7ef2 	movel %d0,17ef2 <dtor_idx.1>
    2134:	d080           	addl %d0,%d0
    2136:	d080           	addl %d0,%d0
    2138:	2072 0800      	moveal %a2@(0,%d0:l),%a0
    213c:	4e90           	jsr %a0@
    213e:	2039 0001 7ef2 	movel 17ef2 <dtor_idx.1>,%d0
    2144:	b480           	cmpl %d0,%d2
    2146:	62e4           	bhis 212c <__do_global_dtors_aux+0x2c>
    2148:	4eba ff5a      	jsr %pc@(20a4 <deregister_tm_clones>)
    214c:	41f9 0000 0000 	lea 0 <DUART_MR1A>,%a0
    2152:	b0fc 0000      	cmpaw #0,%a0
    2156:	670a           	beqs 2162 <__do_global_dtors_aux+0x62>
    2158:	4879 0000 20a0 	pea 20a0 <__EH_FRAME_BEGIN__>
    215e:	4e90           	jsr %a0@
    2160:	588f           	addql #4,%sp
    2162:	13fc 0001 0001 	moveb #1,17ef0 <completed.2>
    2168:	7ef0 
    216a:	241f           	movel %sp@+,%d2
    216c:	245f           	moveal %sp@+,%a2
    216e:	4e75           	rts

00002170 <call___do_global_dtors_aux>:
    2170:	4e75           	rts

00002172 <frame_dummy>:
    2172:	41f9 0000 0000 	lea 0 <DUART_MR1A>,%a0
    2178:	b0fc 0000      	cmpaw #0,%a0
    217c:	6710           	beqs 218e <frame_dummy+0x1c>
    217e:	4879 0001 7ef6 	pea 17ef6 <object.0>
    2184:	4879 0000 20a0 	pea 20a0 <__EH_FRAME_BEGIN__>
    218a:	4e90           	jsr %a0@
    218c:	508f           	addql #8,%sp
    218e:	6000 ff3a      	braw 20ca <register_tm_clones>

00002192 <call_frame_dummy>:
    2192:	4e75           	rts

00002194 <gettimer>:
    2194:	4e56 0000      	linkw %fp,#0
    2198:	307c 040c      	moveaw #1036,%a0
    219c:	2010           	movel %a0@,%d0
    219e:	4e5e           	unlk %fp
    21a0:	4e75           	rts

000021a2 <getduration>:
    21a2:	4e56 0000      	linkw %fp,#0
    21a6:	202e 000c      	movel %fp@(12),%d0
    21aa:	b0ae 0008      	cmpl %fp@(8),%d0
    21ae:	6f0a           	bles 21ba <getduration+0x18>
    21b0:	202e 000c      	movel %fp@(12),%d0
    21b4:	90ae 0008      	subl %fp@(8),%d0
    21b8:	600c           	bras 21c6 <getduration+0x24>
    21ba:	7000           	moveq #0,%d0
    21bc:	4640           	notw %d0
    21be:	90ae 0008      	subl %fp@(8),%d0
    21c2:	d0ae 000c      	addl %fp@(12),%d0
    21c6:	4e5e           	unlk %fp
    21c8:	4e75           	rts

000021ca <main>:
    21ca:	4e56 ff88      	linkw %fp,#-120
    21ce:	f227 e01c      	fmovemx %fp2-%fp4,%sp@-
    21d2:	2f03           	movel %d3,%sp@-
    21d4:	2f02           	movel %d2,%sp@-
    21d6:	700a           	moveq #10,%d0
    21d8:	2d40 ffd4      	movel %d0,%fp@(-44)
    21dc:	42ae ffd0      	clrl %fp@(-48)
    21e0:	4eb9 0000 2194 	jsr 2194 <gettimer>
    21e6:	2d40 ffcc      	movel %d0,%fp@(-52)
    21ea:	23fc 3eff fcb9 	movel #1056963769,17f10 <T>
    21f0:	0001 7f10 
    21f4:	23fc 3fe0 020c 	movel #1071645196,17f14 <T1>
    21fa:	0001 7f14 
    21fe:	23fc 49ba 5e35 	movel #1236950581,17f18 <T1+0x4>
    2204:	0001 7f18 
    2208:	23fc 4000 0000 	movel #1073741824,17f1c <T2>
    220e:	0001 7f1c 
    2212:	42b9 0001 7f20 	clrl 17f20 <T2+0x4>
    2218:	2d6e ffd4 ffc8 	movel %fp@(-44),%fp@(-56)
    221e:	7201           	moveq #1,%d1
    2220:	2d41 ffc4      	movel %d1,%fp@(-60)
    2224:	7401           	moveq #1,%d2
    2226:	2d42 ffd8      	movel %d2,%fp@(-40)
    222a:	42ae ffc0      	clrl %fp@(-64)
    222e:	222e ffc8      	movel %fp@(-56),%d1
    2232:	2001           	movel %d1,%d0
    2234:	d080           	addl %d0,%d0
    2236:	d081           	addl %d1,%d0
    2238:	e588           	lsll #2,%d0
    223a:	2d40 ffbc      	movel %d0,%fp@(-68)
    223e:	222e ffc8      	movel %fp@(-56),%d1
    2242:	2001           	movel %d1,%d0
    2244:	e788           	lsll #3,%d0
    2246:	9081           	subl %d1,%d0
    2248:	d080           	addl %d0,%d0
    224a:	2d40 ffb8      	movel %d0,%fp@(-72)
    224e:	222e ffc8      	movel %fp@(-56),%d1
    2252:	2001           	movel %d1,%d0
    2254:	d080           	addl %d0,%d0
    2256:	d081           	addl %d1,%d0
    2258:	e788           	lsll #3,%d0
    225a:	9081           	subl %d1,%d0
    225c:	2200           	movel %d0,%d1
    225e:	e989           	lsll #4,%d1
    2260:	2401           	movel %d1,%d2
    2262:	9480           	subl %d0,%d2
    2264:	2d42 ffb4      	movel %d2,%fp@(-76)
    2268:	222e ffc8      	movel %fp@(-56),%d1
    226c:	2001           	movel %d1,%d0
    226e:	e788           	lsll #3,%d0
    2270:	9081           	subl %d1,%d0
    2272:	2200           	movel %d0,%d1
    2274:	e989           	lsll #4,%d1
    2276:	9280           	subl %d0,%d1
    2278:	2001           	movel %d1,%d0
    227a:	d080           	addl %d0,%d0
    227c:	2200           	movel %d0,%d1
    227e:	2d41 ffb0      	movel %d1,%fp@(-80)
    2282:	202e ffc8      	movel %fp@(-56),%d0
    2286:	eb88           	lsll #5,%d0
    2288:	2d40 ffac      	movel %d0,%fp@(-84)
    228c:	222e ffc8      	movel %fp@(-56),%d1
    2290:	2001           	movel %d1,%d0
    2292:	e788           	lsll #3,%d0
    2294:	9081           	subl %d1,%d0
    2296:	eb88           	lsll #5,%d0
    2298:	d081           	addl %d1,%d0
    229a:	e588           	lsll #2,%d0
    229c:	2400           	movel %d0,%d2
    229e:	9481           	subl %d1,%d2
    22a0:	2d42 ffa8      	movel %d2,%fp@(-88)
    22a4:	222e ffc8      	movel %fp@(-56),%d1
    22a8:	2001           	movel %d1,%d0
    22aa:	e588           	lsll #2,%d0
    22ac:	d081           	addl %d1,%d0
    22ae:	e588           	lsll #2,%d0
    22b0:	9081           	subl %d1,%d0
    22b2:	e588           	lsll #2,%d0
    22b4:	d081           	addl %d1,%d0
    22b6:	e788           	lsll #3,%d0
    22b8:	2d40 ffa4      	movel %d0,%fp@(-92)
    22bc:	42ae ffa0      	clrl %fp@(-96)
    22c0:	222e ffc8      	movel %fp@(-56),%d1
    22c4:	2001           	movel %d1,%d0
    22c6:	d080           	addl %d0,%d0
    22c8:	d081           	addl %d1,%d0
    22ca:	2200           	movel %d0,%d1
    22cc:	eb89           	lsll #5,%d1
    22ce:	2401           	movel %d1,%d2
    22d0:	9480           	subl %d0,%d2
    22d2:	2d42 ff9c      	movel %d2,%fp@(-100)
    22d6:	2d7c 3f80 0000 	movel #1065353216,%fp@(-8)
    22dc:	fff8 
    22de:	2d7c bf80 0000 	movel #-1082130432,%fp@(-12)
    22e4:	fff4 
    22e6:	2d7c bf80 0000 	movel #-1082130432,%fp@(-16)
    22ec:	fff0 
    22ee:	2d7c bf80 0000 	movel #-1082130432,%fp@(-20)
    22f4:	ffec 
    22f6:	7001           	moveq #1,%d0
    22f8:	2d40 fffc      	movel %d0,%fp@(-4)
    22fc:	6000 00b6      	braw 23b4 <main+0x1ea>
    2300:	f22e 4400 fff8 	fmoves %fp@(-8),%fp0
    2306:	f22e 4422 fff4 	fadds %fp@(-12),%fp0
    230c:	f22e 4422 fff0 	fadds %fp@(-16),%fp0
    2312:	f22e 4428 ffec 	fsubs %fp@(-20),%fp0
    2318:	2039 0001 7f10 	movel 17f10 <T>,%d0
    231e:	f200 0080      	fmovex %fp0,%fp1
    2322:	f200 44a7      	fsglmuls %d0,%fp1
    2326:	f22e 6480 fff8 	fmoves %fp1,%fp@(-8)
    232c:	f22e 4400 fff8 	fmoves %fp@(-8),%fp0
    2332:	f22e 4422 fff4 	fadds %fp@(-12),%fp0
    2338:	f22e 4428 fff0 	fsubs %fp@(-16),%fp0
    233e:	f22e 4422 ffec 	fadds %fp@(-20),%fp0
    2344:	2039 0001 7f10 	movel 17f10 <T>,%d0
    234a:	f200 0200      	fmovex %fp0,%fp4
    234e:	f200 4627      	fsglmuls %d0,%fp4
    2352:	f22e 6600 fff4 	fmoves %fp4,%fp@(-12)
    2358:	f22e 4400 fff8 	fmoves %fp@(-8),%fp0
    235e:	f22e 4428 fff4 	fsubs %fp@(-12),%fp0
    2364:	f22e 4422 fff0 	fadds %fp@(-16),%fp0
    236a:	f22e 4422 ffec 	fadds %fp@(-20),%fp0
    2370:	2039 0001 7f10 	movel 17f10 <T>,%d0
    2376:	f200 0080      	fmovex %fp0,%fp1
    237a:	f200 44a7      	fsglmuls %d0,%fp1
    237e:	f22e 6480 fff0 	fmoves %fp1,%fp@(-16)
    2384:	f22e 4400 fff4 	fmoves %fp@(-12),%fp0
    238a:	f22e 4428 fff8 	fsubs %fp@(-8),%fp0
    2390:	f22e 4422 fff0 	fadds %fp@(-16),%fp0
    2396:	f22e 4422 ffec 	fadds %fp@(-20),%fp0
    239c:	2039 0001 7f10 	movel 17f10 <T>,%d0
    23a2:	f200 0200      	fmovex %fp0,%fp4
    23a6:	f200 4627      	fsglmuls %d0,%fp4
    23aa:	f22e 6600 ffec 	fmoves %fp4,%fp@(-20)
    23b0:	52ae fffc      	addql #1,%fp@(-4)
    23b4:	202e fffc      	movel %fp@(-4),%d0
    23b8:	b0ae ffc0      	cmpl %fp@(-64),%d0
    23bc:	6f00 ff42      	blew 2300 <main+0x136>
    23c0:	23fc 3ff0 0000 	movel #1072693248,17f2c <E1+0x8>
    23c6:	0001 7f2c 
    23ca:	42b9 0001 7f30 	clrl 17f30 <E1+0xc>
    23d0:	23fc bff0 0000 	movel #-1074790400,17f34 <E1+0x10>
    23d6:	0001 7f34 
    23da:	42b9 0001 7f38 	clrl 17f38 <E1+0x14>
    23e0:	23fc bff0 0000 	movel #-1074790400,17f3c <E1+0x18>
    23e6:	0001 7f3c 
    23ea:	42b9 0001 7f40 	clrl 17f40 <E1+0x1c>
    23f0:	23fc bff0 0000 	movel #-1074790400,17f44 <E1+0x20>
    23f6:	0001 7f44 
    23fa:	42b9 0001 7f48 	clrl 17f48 <E1+0x24>
    2400:	7201           	moveq #1,%d1
    2402:	2d41 fffc      	movel %d1,%fp@(-4)
    2406:	6000 010e      	braw 2516 <main+0x34c>
    240a:	f239 5480 0001 	fmoved 17f2c <E1+0x8>,%fp1
    2410:	7f2c 
    2412:	f239 5400 0001 	fmoved 17f34 <E1+0x10>,%fp0
    2418:	7f34 
    241a:	f200 0422      	faddx %fp1,%fp0
    241e:	f239 5480 0001 	fmoved 17f3c <E1+0x18>,%fp1
    2424:	7f3c 
    2426:	f200 0422      	faddx %fp1,%fp0
    242a:	f239 5480 0001 	fmoved 17f44 <E1+0x20>,%fp1
    2430:	7f44 
    2432:	f200 0428      	fsubx %fp1,%fp0
    2436:	2039 0001 7f10 	movel 17f10 <T>,%d0
    243c:	f200 4480      	fmoves %d0,%fp1
    2440:	f200 0423      	fmulx %fp1,%fp0
    2444:	f239 7400 0001 	fmoved %fp0,17f2c <E1+0x8>
    244a:	7f2c 
    244c:	f239 5480 0001 	fmoved 17f2c <E1+0x8>,%fp1
    2452:	7f2c 
    2454:	f239 5400 0001 	fmoved 17f34 <E1+0x10>,%fp0
    245a:	7f34 
    245c:	f200 0422      	faddx %fp1,%fp0
    2460:	f239 5480 0001 	fmoved 17f3c <E1+0x18>,%fp1
    2466:	7f3c 
    2468:	f200 0428      	fsubx %fp1,%fp0
    246c:	f239 5480 0001 	fmoved 17f44 <E1+0x20>,%fp1
    2472:	7f44 
    2474:	f200 0422      	faddx %fp1,%fp0
    2478:	2039 0001 7f10 	movel 17f10 <T>,%d0
    247e:	f200 4480      	fmoves %d0,%fp1
    2482:	f200 0423      	fmulx %fp1,%fp0
    2486:	f239 7400 0001 	fmoved %fp0,17f34 <E1+0x10>
    248c:	7f34 
    248e:	f239 5400 0001 	fmoved 17f2c <E1+0x8>,%fp0
    2494:	7f2c 
    2496:	f239 5480 0001 	fmoved 17f34 <E1+0x10>,%fp1
    249c:	7f34 
    249e:	f200 0428      	fsubx %fp1,%fp0
    24a2:	f239 5480 0001 	fmoved 17f3c <E1+0x18>,%fp1
    24a8:	7f3c 
    24aa:	f200 0422      	faddx %fp1,%fp0
    24ae:	f239 5480 0001 	fmoved 17f44 <E1+0x20>,%fp1
    24b4:	7f44 
    24b6:	f200 0422      	faddx %fp1,%fp0
    24ba:	2039 0001 7f10 	movel 17f10 <T>,%d0
    24c0:	f200 4480      	fmoves %d0,%fp1
    24c4:	f200 0423      	fmulx %fp1,%fp0
    24c8:	f239 7400 0001 	fmoved %fp0,17f3c <E1+0x18>
    24ce:	7f3c 
    24d0:	f239 5400 0001 	fmoved 17f34 <E1+0x10>,%fp0
    24d6:	7f34 
    24d8:	f239 5480 0001 	fmoved 17f2c <E1+0x8>,%fp1
    24de:	7f2c 
    24e0:	f200 0428      	fsubx %fp1,%fp0
    24e4:	f239 5480 0001 	fmoved 17f3c <E1+0x18>,%fp1
    24ea:	7f3c 
    24ec:	f200 0422      	faddx %fp1,%fp0
    24f0:	f239 5480 0001 	fmoved 17f44 <E1+0x20>,%fp1
    24f6:	7f44 
    24f8:	f200 0422      	faddx %fp1,%fp0
    24fc:	2039 0001 7f10 	movel 17f10 <T>,%d0
    2502:	f200 4480      	fmoves %d0,%fp1
    2506:	f200 0423      	fmulx %fp1,%fp0
    250a:	f239 7400 0001 	fmoved %fp0,17f44 <E1+0x20>
    2510:	7f44 
    2512:	52ae fffc      	addql #1,%fp@(-4)
    2516:	242e fffc      	movel %fp@(-4),%d2
    251a:	b4ae ffbc      	cmpl %fp@(-68),%d2
    251e:	6f00 feea      	blew 240a <main+0x240>
    2522:	7001           	moveq #1,%d0
    2524:	2d40 fffc      	movel %d0,%fp@(-4)
    2528:	6012           	bras 253c <main+0x372>
    252a:	4879 0001 7f24 	pea 17f24 <E1>
    2530:	4eb9 0000 2b4c 	jsr 2b4c <PA>
    2536:	588f           	addql #4,%sp
    2538:	52ae fffc      	addql #1,%fp@(-4)
    253c:	222e fffc      	movel %fp@(-4),%d1
    2540:	b2ae ffb8      	cmpl %fp@(-72),%d1
    2544:	6fe4           	bles 252a <main+0x360>
    2546:	7401           	moveq #1,%d2
    2548:	23c2 0001 7f4c 	movel %d2,17f4c <J>
    254e:	7001           	moveq #1,%d0
    2550:	2d40 fffc      	movel %d0,%fp@(-4)
    2554:	6056           	bras 25ac <main+0x3e2>
    2556:	2039 0001 7f4c 	movel 17f4c <J>,%d0
    255c:	7201           	moveq #1,%d1
    255e:	b280           	cmpl %d0,%d1
    2560:	660a           	bnes 256c <main+0x3a2>
    2562:	7402           	moveq #2,%d2
    2564:	23c2 0001 7f4c 	movel %d2,17f4c <J>
    256a:	6008           	bras 2574 <main+0x3aa>
    256c:	7003           	moveq #3,%d0
    256e:	23c0 0001 7f4c 	movel %d0,17f4c <J>
    2574:	2039 0001 7f4c 	movel 17f4c <J>,%d0
    257a:	7202           	moveq #2,%d1
    257c:	b280           	cmpl %d0,%d1
    257e:	6c08           	bges 2588 <main+0x3be>
    2580:	42b9 0001 7f4c 	clrl 17f4c <J>
    2586:	6008           	bras 2590 <main+0x3c6>
    2588:	7401           	moveq #1,%d2
    258a:	23c2 0001 7f4c 	movel %d2,17f4c <J>
    2590:	2039 0001 7f4c 	movel 17f4c <J>,%d0
    2596:	6e0a           	bgts 25a2 <main+0x3d8>
    2598:	7001           	moveq #1,%d0
    259a:	23c0 0001 7f4c 	movel %d0,17f4c <J>
    25a0:	6006           	bras 25a8 <main+0x3de>
    25a2:	42b9 0001 7f4c 	clrl 17f4c <J>
    25a8:	52ae fffc      	addql #1,%fp@(-4)
    25ac:	222e fffc      	movel %fp@(-4),%d1
    25b0:	b2ae ffb4      	cmpl %fp@(-76),%d1
    25b4:	6fa0           	bles 2556 <main+0x38c>
    25b6:	7401           	moveq #1,%d2
    25b8:	23c2 0001 7f4c 	movel %d2,17f4c <J>
    25be:	7002           	moveq #2,%d0
    25c0:	23c0 0001 7f50 	movel %d0,17f50 <K>
    25c6:	7203           	moveq #3,%d1
    25c8:	23c1 0001 7f54 	movel %d1,17f54 <L>
    25ce:	7401           	moveq #1,%d2
    25d0:	2d42 fffc      	movel %d2,%fp@(-4)
    25d4:	6000 00ec      	braw 26c2 <main+0x4f8>
    25d8:	2239 0001 7f50 	movel 17f50 <K>,%d1
    25de:	2039 0001 7f4c 	movel 17f4c <J>,%d0
    25e4:	9280           	subl %d0,%d1
    25e6:	2039 0001 7f4c 	movel 17f4c <J>,%d0
    25ec:	4c01           	.short 0x4c01
    25ee:	0800 2079      	btst #121,%d0
    25f2:	0001 7f54      	orib #84,%d1
    25f6:	2239 0001 7f50 	movel 17f50 <K>,%d1
    25fc:	2408           	movel %a0,%d2
    25fe:	9481           	subl %d1,%d2
    2600:	4c02           	.short 0x4c02
    2602:	0800 23c0      	btst #-64,%d0
    2606:	0001 7f4c      	orib #76,%d1
    260a:	2239 0001 7f54 	movel 17f54 <L>,%d1
    2610:	2039 0001 7f50 	movel 17f50 <K>,%d0
    2616:	4c00           	.short 0x4c00
    2618:	1800           	moveb %d0,%d4
    261a:	2079 0001 7f54 	moveal 17f54 <L>,%a0
    2620:	2039 0001 7f4c 	movel 17f4c <J>,%d0
    2626:	2408           	movel %a0,%d2
    2628:	9480           	subl %d0,%d2
    262a:	2039 0001 7f50 	movel 17f50 <K>,%d0
    2630:	4c02           	.short 0x4c02
    2632:	0800 9280      	btst #-128,%d0
    2636:	23c1 0001 7f50 	movel %d1,17f50 <K>
    263c:	2239 0001 7f54 	movel 17f54 <L>,%d1
    2642:	2039 0001 7f50 	movel 17f50 <K>,%d0
    2648:	9280           	subl %d0,%d1
    264a:	2079 0001 7f50 	moveal 17f50 <K>,%a0
    2650:	2039 0001 7f4c 	movel 17f4c <J>,%d0
    2656:	d088           	addl %a0,%d0
    2658:	4c01           	.short 0x4c01
    265a:	0800 23c0      	btst #-64,%d0
    265e:	0001 7f54      	orib #84,%d1
    2662:	2239 0001 7f4c 	movel 17f4c <J>,%d1
    2668:	2039 0001 7f50 	movel 17f50 <K>,%d0
    266e:	d280           	addl %d0,%d1
    2670:	2039 0001 7f54 	movel 17f54 <L>,%d0
    2676:	d280           	addl %d0,%d1
    2678:	2039 0001 7f54 	movel 17f54 <L>,%d0
    267e:	5380           	subql #1,%d0
    2680:	f201 4000      	fmovel %d1,%fp0
    2684:	f230 7400 0fb0 	fmoved %fp0,@(17f24,%d0:l:8)
    268a:	0001 7f24 
    268e:	2239 0001 7f4c 	movel 17f4c <J>,%d1
    2694:	2039 0001 7f50 	movel 17f50 <K>,%d0
    269a:	4c01           	.short 0x4c01
    269c:	0800 2239      	btst #57,%d0
    26a0:	0001 7f54      	orib #84,%d1
    26a4:	4c01           	.short 0x4c01
    26a6:	0800 2239      	btst #57,%d0
    26aa:	0001 7f50      	orib #80,%d1
    26ae:	5381           	subql #1,%d1
    26b0:	f200 4000      	fmovel %d0,%fp0
    26b4:	f230 7400 1fb0 	fmoved %fp0,@(17f24,%d1:l:8)
    26ba:	0001 7f24 
    26be:	52ae fffc      	addql #1,%fp@(-4)
    26c2:	202e fffc      	movel %fp@(-4),%d0
    26c6:	b0ae ffb0      	cmpl %fp@(-80),%d0
    26ca:	6f00 ff0c      	blew 25d8 <main+0x40e>
    26ce:	2d7c 3fe0 0000 	movel #1071644672,%fp@(-28)
    26d4:	ffe4 
    26d6:	42ae ffe8      	clrl %fp@(-24)
    26da:	2d7c 3fe0 0000 	movel #1071644672,%fp@(-36)
    26e0:	ffdc 
    26e2:	42ae ffe0      	clrl %fp@(-32)
    26e6:	7201           	moveq #1,%d1
    26e8:	2d41 fffc      	movel %d1,%fp@(-4)
    26ec:	6000 0156      	braw 2844 <main+0x67a>
    26f0:	2039 0001 7f10 	movel 17f10 <T>,%d0
    26f6:	f200 4580      	fmoves %d0,%fp3
    26fa:	2f2e ffe8      	movel %fp@(-24),%sp@-
    26fe:	2f2e ffe4      	movel %fp@(-28),%sp@-
    2702:	4eb9 0000 3748 	jsr 3748 <sin>
    2708:	508f           	addql #8,%sp
    270a:	f200 0080      	fmovex %fp0,%fp1
    270e:	f239 5400 0001 	fmoved 17f1c <T2>,%fp0
    2714:	7f1c 
    2716:	f200 0500      	fmovex %fp1,%fp2
    271a:	f200 0123      	fmulx %fp0,%fp2
    271e:	2f2e ffe8      	movel %fp@(-24),%sp@-
    2722:	2f2e ffe4      	movel %fp@(-28),%sp@-
    2726:	4eb9 0000 35fc 	jsr 35fc <cos>
    272c:	508f           	addql #8,%sp
    272e:	f200 0123      	fmulx %fp0,%fp2
    2732:	f22e 5400 ffe4 	fmoved %fp@(-28),%fp0
    2738:	f22e 5422 ffdc 	faddd %fp@(-36),%fp0
    273e:	f227 7400      	fmoved %fp0,%sp@-
    2742:	4eb9 0000 35fc 	jsr 35fc <cos>
    2748:	508f           	addql #8,%sp
    274a:	f200 0200      	fmovex %fp0,%fp4
    274e:	f22e 5400 ffe4 	fmoved %fp@(-28),%fp0
    2754:	f22e 5428 ffdc 	fsubd %fp@(-36),%fp0
    275a:	f227 7400      	fmoved %fp0,%sp@-
    275e:	4eb9 0000 35fc 	jsr 35fc <cos>
    2764:	508f           	addql #8,%sp
    2766:	f200 1022      	faddx %fp4,%fp0
    276a:	f200 0080      	fmovex %fp0,%fp1
    276e:	f200 5e32      	fmovecrx #50,%fp4
    2772:	f200 10a8      	fsubx %fp4,%fp1
    2776:	f200 0800      	fmovex %fp2,%fp0
    277a:	f200 0420      	fdivx %fp1,%fp0
    277e:	f227 7400      	fmoved %fp0,%sp@-
    2782:	4eb9 0000 2f94 	jsr 2f94 <atan>
    2788:	508f           	addql #8,%sp
    278a:	f200 0c80      	fmovex %fp3,%fp1
    278e:	f200 00a3      	fmulx %fp0,%fp1
    2792:	f22e 7480 ffe4 	fmoved %fp1,%fp@(-28)
    2798:	2039 0001 7f10 	movel 17f10 <T>,%d0
    279e:	f200 4580      	fmoves %d0,%fp3
    27a2:	2f2e ffe0      	movel %fp@(-32),%sp@-
    27a6:	2f2e ffdc      	movel %fp@(-36),%sp@-
    27aa:	4eb9 0000 3748 	jsr 3748 <sin>
    27b0:	508f           	addql #8,%sp
    27b2:	f200 0080      	fmovex %fp0,%fp1
    27b6:	f239 5400 0001 	fmoved 17f1c <T2>,%fp0
    27bc:	7f1c 
    27be:	f200 0500      	fmovex %fp1,%fp2
    27c2:	f200 0123      	fmulx %fp0,%fp2
    27c6:	2f2e ffe0      	movel %fp@(-32),%sp@-
    27ca:	2f2e ffdc      	movel %fp@(-36),%sp@-
    27ce:	4eb9 0000 35fc 	jsr 35fc <cos>
    27d4:	508f           	addql #8,%sp
    27d6:	f200 0123      	fmulx %fp0,%fp2
    27da:	f22e 5400 ffe4 	fmoved %fp@(-28),%fp0
    27e0:	f22e 5422 ffdc 	faddd %fp@(-36),%fp0
    27e6:	f227 7400      	fmoved %fp0,%sp@-
    27ea:	4eb9 0000 35fc 	jsr 35fc <cos>
    27f0:	508f           	addql #8,%sp
    27f2:	f200 0200      	fmovex %fp0,%fp4
    27f6:	f22e 5400 ffe4 	fmoved %fp@(-28),%fp0
    27fc:	f22e 5428 ffdc 	fsubd %fp@(-36),%fp0
    2802:	f227 7400      	fmoved %fp0,%sp@-
    2806:	4eb9 0000 35fc 	jsr 35fc <cos>
    280c:	508f           	addql #8,%sp
    280e:	f200 1022      	faddx %fp4,%fp0
    2812:	f200 0080      	fmovex %fp0,%fp1
    2816:	f200 5e32      	fmovecrx #50,%fp4
    281a:	f200 10a8      	fsubx %fp4,%fp1
    281e:	f200 0800      	fmovex %fp2,%fp0
    2822:	f200 0420      	fdivx %fp1,%fp0
    2826:	f227 7400      	fmoved %fp0,%sp@-
    282a:	4eb9 0000 2f94 	jsr 2f94 <atan>
    2830:	508f           	addql #8,%sp
    2832:	f200 0c80      	fmovex %fp3,%fp1
    2836:	f200 00a3      	fmulx %fp0,%fp1
    283a:	f22e 7480 ffdc 	fmoved %fp1,%fp@(-36)
    2840:	52ae fffc      	addql #1,%fp@(-4)
    2844:	202e fffc      	movel %fp@(-4),%d0
    2848:	b0ae ffac      	cmpl %fp@(-84),%d0
    284c:	6f00 fea2      	blew 26f0 <main+0x526>
    2850:	2d7c 3ff0 0000 	movel #1072693248,%fp@(-28)
    2856:	ffe4 
    2858:	42ae ffe8      	clrl %fp@(-24)
    285c:	2d7c 3ff0 0000 	movel #1072693248,%fp@(-36)
    2862:	ffdc 
    2864:	42ae ffe0      	clrl %fp@(-32)
    2868:	2d7c 3ff0 0000 	movel #1072693248,%fp@(-120)
    286e:	ff88 
    2870:	42ae ff8c      	clrl %fp@(-116)
    2874:	7201           	moveq #1,%d1
    2876:	2d41 fffc      	movel %d1,%fp@(-4)
    287a:	6024           	bras 28a0 <main+0x6d6>
    287c:	41ee ff88      	lea %fp@(-120),%a0
    2880:	2f08           	movel %a0,%sp@-
    2882:	2f2e ffe0      	movel %fp@(-32),%sp@-
    2886:	2f2e ffdc      	movel %fp@(-36),%sp@-
    288a:	2f2e ffe8      	movel %fp@(-24),%sp@-
    288e:	2f2e ffe4      	movel %fp@(-28),%sp@-
    2892:	4eb9 0000 2d30 	jsr 2d30 <P3>
    2898:	4fef 0014      	lea %sp@(20),%sp
    289c:	52ae fffc      	addql #1,%fp@(-4)
    28a0:	242e fffc      	movel %fp@(-4),%d2
    28a4:	b4ae ffa8      	cmpl %fp@(-88),%d2
    28a8:	6fd2           	bles 287c <main+0x6b2>
    28aa:	7001           	moveq #1,%d0
    28ac:	23c0 0001 7f4c 	movel %d0,17f4c <J>
    28b2:	7202           	moveq #2,%d1
    28b4:	23c1 0001 7f50 	movel %d1,17f50 <K>
    28ba:	7403           	moveq #3,%d2
    28bc:	23c2 0001 7f54 	movel %d2,17f54 <L>
    28c2:	23fc 3ff0 0000 	movel #1072693248,17f2c <E1+0x8>
    28c8:	0001 7f2c 
    28cc:	42b9 0001 7f30 	clrl 17f30 <E1+0xc>
    28d2:	23fc 4000 0000 	movel #1073741824,17f34 <E1+0x10>
    28d8:	0001 7f34 
    28dc:	42b9 0001 7f38 	clrl 17f38 <E1+0x14>
    28e2:	23fc 4008 0000 	movel #1074266112,17f3c <E1+0x18>
    28e8:	0001 7f3c 
    28ec:	42b9 0001 7f40 	clrl 17f40 <E1+0x1c>
    28f2:	7001           	moveq #1,%d0
    28f4:	2d40 fffc      	movel %d0,%fp@(-4)
    28f8:	600a           	bras 2904 <main+0x73a>
    28fa:	4eb9 0000 2cc6 	jsr 2cc6 <P0>
    2900:	52ae fffc      	addql #1,%fp@(-4)
    2904:	222e fffc      	movel %fp@(-4),%d1
    2908:	b2ae ffa4      	cmpl %fp@(-92),%d1
    290c:	6fec           	bles 28fa <main+0x730>
    290e:	7402           	moveq #2,%d2
    2910:	23c2 0001 7f4c 	movel %d2,17f4c <J>
    2916:	7003           	moveq #3,%d0
    2918:	23c0 0001 7f50 	movel %d0,17f50 <K>
    291e:	7201           	moveq #1,%d1
    2920:	2d41 fffc      	movel %d1,%fp@(-4)
    2924:	605c           	bras 2982 <main+0x7b8>
    2926:	2239 0001 7f4c 	movel 17f4c <J>,%d1
    292c:	2039 0001 7f50 	movel 17f50 <K>,%d0
    2932:	d081           	addl %d1,%d0
    2934:	23c0 0001 7f4c 	movel %d0,17f4c <J>
    293a:	2239 0001 7f4c 	movel 17f4c <J>,%d1
    2940:	2039 0001 7f50 	movel 17f50 <K>,%d0
    2946:	d081           	addl %d1,%d0
    2948:	23c0 0001 7f50 	movel %d0,17f50 <K>
    294e:	2239 0001 7f50 	movel 17f50 <K>,%d1
    2954:	2039 0001 7f4c 	movel 17f4c <J>,%d0
    295a:	9280           	subl %d0,%d1
    295c:	23c1 0001 7f4c 	movel %d1,17f4c <J>
    2962:	2239 0001 7f50 	movel 17f50 <K>,%d1
    2968:	2039 0001 7f4c 	movel 17f4c <J>,%d0
    296e:	9280           	subl %d0,%d1
    2970:	2039 0001 7f4c 	movel 17f4c <J>,%d0
    2976:	9280           	subl %d0,%d1
    2978:	23c1 0001 7f50 	movel %d1,17f50 <K>
    297e:	52ae fffc      	addql #1,%fp@(-4)
    2982:	242e fffc      	movel %fp@(-4),%d2
    2986:	b4ae ffa0      	cmpl %fp@(-96),%d2
    298a:	6f9a           	bles 2926 <main+0x75c>
    298c:	2d7c 3fe8 0000 	movel #1072168960,%fp@(-28)
    2992:	ffe4 
    2994:	42ae ffe8      	clrl %fp@(-24)
    2998:	7001           	moveq #1,%d0
    299a:	2d40 fffc      	movel %d0,%fp@(-4)
    299e:	603e           	bras 29de <main+0x814>
    29a0:	2f2e ffe8      	movel %fp@(-24),%sp@-
    29a4:	2f2e ffe4      	movel %fp@(-28),%sp@-
    29a8:	4eb9 0000 2e70 	jsr 2e70 <log>
    29ae:	508f           	addql #8,%sp
    29b0:	f239 5480 0001 	fmoved 17f14 <T1>,%fp1
    29b6:	7f14 
    29b8:	f200 0420      	fdivx %fp1,%fp0
    29bc:	f227 7400      	fmoved %fp0,%sp@-
    29c0:	4eb9 0000 2dc4 	jsr 2dc4 <exp>
    29c6:	508f           	addql #8,%sp
    29c8:	f227 7400      	fmoved %fp0,%sp@-
    29cc:	4eb9 0000 2f10 	jsr 2f10 <sqrt>
    29d2:	508f           	addql #8,%sp
    29d4:	f22e 7400 ffe4 	fmoved %fp0,%fp@(-28)
    29da:	52ae fffc      	addql #1,%fp@(-4)
    29de:	222e fffc      	movel %fp@(-4),%d1
    29e2:	b2ae ff9c      	cmpl %fp@(-100),%d1
    29e6:	6fb8           	bles 29a0 <main+0x7d6>
    29e8:	52ae ffd8      	addql #1,%fp@(-40)
    29ec:	242e ffd8      	movel %fp@(-40),%d2
    29f0:	b4ae ffc4      	cmpl %fp@(-60),%d2
    29f4:	6e04           	bgts 29fa <main+0x830>
    29f6:	6000 f832      	braw 222a <main+0x60>
    29fa:	4eb9 0000 2194 	jsr 2194 <gettimer>
    2a00:	2d40 ff98      	movel %d0,%fp@(-104)
    2a04:	2f2e ff98      	movel %fp@(-104),%sp@-
    2a08:	2f2e ffcc      	movel %fp@(-52),%sp@-
    2a0c:	4eb9 0000 21a2 	jsr 21a2 <getduration>
    2a12:	508f           	addql #8,%sp
    2a14:	2d40 ff94      	movel %d0,%fp@(-108)
    2a18:	4878 000a      	pea a <DUART_IMR>
    2a1c:	4eb9 0000 799a 	jsr 799a <putchar>
    2a22:	588f           	addql #4,%sp
    2a24:	7064           	moveq #100,%d0
    2a26:	b0ae ff94      	cmpl %fp@(-108),%d0
    2a2a:	6d14           	blts 2a40 <main+0x876>
    2a2c:	4879 0001 5170 	pea 15170 <_dtors_end>
    2a32:	4eb9 0000 7a68 	jsr 7a68 <puts>
    2a38:	588f           	addql #4,%sp
    2a3a:	7001           	moveq #1,%d0
    2a3c:	6000 00fc      	braw 2b3a <main+0x970>
    2a40:	242e ff94      	movel %fp@(-108),%d2
    2a44:	2202           	movel %d2,%d1
    2a46:	4c3c           	.short 0x4c3c
    2a48:	1c00           	moveb %d0,%d6
    2a4a:	51eb 851f      	sf %a3@(-31457)
    2a4e:	2200           	movel %d0,%d1
    2a50:	ea81           	asrl #5,%d1
    2a52:	2002           	movel %d2,%d0
    2a54:	d080           	addl %d0,%d0
    2a56:	9180           	subxl %d0,%d0
    2a58:	9280           	subl %d0,%d1
    2a5a:	2001           	movel %d1,%d0
    2a5c:	d080           	addl %d0,%d0
    2a5e:	d081           	addl %d1,%d0
    2a60:	e788           	lsll #3,%d0
    2a62:	d081           	addl %d1,%d0
    2a64:	e588           	lsll #2,%d0
    2a66:	2202           	movel %d2,%d1
    2a68:	9280           	subl %d0,%d1
    2a6a:	202e ff94      	movel %fp@(-108),%d0
    2a6e:	2600           	movel %d0,%d3
    2a70:	4c3c           	.short 0x4c3c
    2a72:	3c02           	movew %d2,%d6
    2a74:	51eb 851f      	sf %a3@(-31457)
    2a78:	ea82           	asrl #5,%d2
    2a7a:	d080           	addl %d0,%d0
    2a7c:	9180           	subxl %d0,%d0
    2a7e:	2042           	moveal %d2,%a0
    2a80:	91c0           	subal %d0,%a0
    2a82:	2f01           	movel %d1,%sp@-
    2a84:	2f08           	movel %a0,%sp@-
    2a86:	2f2e ffc4      	movel %fp@(-60),%sp@-
    2a8a:	2f2e ffc8      	movel %fp@(-56),%sp@-
    2a8e:	4879 0001 519f 	pea 1519f <_dtors_end+0x2f>
    2a94:	4eb9 0000 7958 	jsr 7958 <printf>
    2a9a:	4fef 0014      	lea %sp@(20),%sp
    2a9e:	f22e 4000 ffc8 	fmovel %fp@(-56),%fp0
    2aa4:	f200 5cb4      	fmovecrx #52,%fp1
    2aa8:	f200 00a3      	fmulx %fp0,%fp1
    2aac:	f22e 4000 ffc4 	fmovel %fp@(-60),%fp0
    2ab2:	f200 0423      	fmulx %fp1,%fp0
    2ab6:	202e ff94      	movel %fp@(-108),%d0
    2aba:	2400           	movel %d0,%d2
    2abc:	4c3c           	.short 0x4c3c
    2abe:	2c01           	movel %d1,%d6
    2ac0:	51eb 851f      	sf %a3@(-31457)
    2ac4:	ea81           	asrl #5,%d1
    2ac6:	d080           	addl %d0,%d0
    2ac8:	9180           	subxl %d0,%d0
    2aca:	9280           	subl %d0,%d1
    2acc:	f201 4080      	fmovel %d1,%fp1
    2ad0:	f200 0420      	fdivx %fp1,%fp0
    2ad4:	f22e 6400 ff90 	fmoves %fp0,%fp@(-112)
    2ada:	f22e 4400 ff90 	fmoves %fp@(-112),%fp0
    2ae0:	f23c 4438 447a 	fcmps #0e1000,%fp0
    2ae6:	0000 
    2ae8:	f29c 002a      	fbnge 2b14 <main+0x94a>
    2aec:	f22e 4400 ff90 	fmoves %fp@(-112),%fp0
    2af2:	f23c 5420 408f 	fdivd #0e1000,%fp0
    2af8:	4000 0000 0000 
    2afe:	f227 7400      	fmoved %fp0,%sp@-
    2b02:	4879 0001 51d3 	pea 151d3 <_dtors_end+0x63>
    2b08:	4eb9 0000 7958 	jsr 7958 <printf>
    2b0e:	4fef 000c      	lea %sp@(12),%sp
    2b12:	601a           	bras 2b2e <main+0x964>
    2b14:	f22e 4400 ff90 	fmoves %fp@(-112),%fp0
    2b1a:	f227 7400      	fmoved %fp0,%sp@-
    2b1e:	4879 0001 5207 	pea 15207 <_dtors_end+0x97>
    2b24:	4eb9 0000 7958 	jsr 7958 <printf>
    2b2a:	4fef 000c      	lea %sp@(12),%sp
    2b2e:	4aae ffd0      	tstl %fp@(-48)
    2b32:	6704           	beqs 2b38 <main+0x96e>
    2b34:	6000 f6aa      	braw 21e0 <main+0x16>
    2b38:	4280           	clrl %d0
    2b3a:	242e ff5c      	movel %fp@(-164),%d2
    2b3e:	262e ff60      	movel %fp@(-160),%d3
    2b42:	f22e d038 ff64 	fmovemx %fp@(-156),%fp2-%fp4
    2b48:	4e5e           	unlk %fp
    2b4a:	4e75           	rts

00002b4c <PA>:
    2b4c:	4e56 0000      	linkw %fp,#0
    2b50:	42b9 0001 7f4c 	clrl 17f4c <J>
    2b56:	206e 0008      	moveal %fp@(8),%a0
    2b5a:	5088           	addql #8,%a0
    2b5c:	f210 5480      	fmoved %a0@,%fp1
    2b60:	307c 0010      	moveaw #16,%a0
    2b64:	d1ee 0008      	addal %fp@(8),%a0
    2b68:	f210 5400      	fmoved %a0@,%fp0
    2b6c:	f200 0422      	faddx %fp1,%fp0
    2b70:	307c 0018      	moveaw #24,%a0
    2b74:	d1ee 0008      	addal %fp@(8),%a0
    2b78:	f210 5480      	fmoved %a0@,%fp1
    2b7c:	f200 0422      	faddx %fp1,%fp0
    2b80:	307c 0020      	moveaw #32,%a0
    2b84:	d1ee 0008      	addal %fp@(8),%a0
    2b88:	f210 5480      	fmoved %a0@,%fp1
    2b8c:	f200 0428      	fsubx %fp1,%fp0
    2b90:	2039 0001 7f10 	movel 17f10 <T>,%d0
    2b96:	f200 4480      	fmoves %d0,%fp1
    2b9a:	206e 0008      	moveal %fp@(8),%a0
    2b9e:	5088           	addql #8,%a0
    2ba0:	f200 0423      	fmulx %fp1,%fp0
    2ba4:	f210 7400      	fmoved %fp0,%a0@
    2ba8:	206e 0008      	moveal %fp@(8),%a0
    2bac:	5088           	addql #8,%a0
    2bae:	f210 5480      	fmoved %a0@,%fp1
    2bb2:	307c 0010      	moveaw #16,%a0
    2bb6:	d1ee 0008      	addal %fp@(8),%a0
    2bba:	f210 5400      	fmoved %a0@,%fp0
    2bbe:	f200 0422      	faddx %fp1,%fp0
    2bc2:	307c 0018      	moveaw #24,%a0
    2bc6:	d1ee 0008      	addal %fp@(8),%a0
    2bca:	f210 5480      	fmoved %a0@,%fp1
    2bce:	f200 0428      	fsubx %fp1,%fp0
    2bd2:	307c 0020      	moveaw #32,%a0
    2bd6:	d1ee 0008      	addal %fp@(8),%a0
    2bda:	f210 5480      	fmoved %a0@,%fp1
    2bde:	f200 0422      	faddx %fp1,%fp0
    2be2:	2039 0001 7f10 	movel 17f10 <T>,%d0
    2be8:	f200 4480      	fmoves %d0,%fp1
    2bec:	307c 0010      	moveaw #16,%a0
    2bf0:	d1ee 0008      	addal %fp@(8),%a0
    2bf4:	f200 0423      	fmulx %fp1,%fp0
    2bf8:	f210 7400      	fmoved %fp0,%a0@
    2bfc:	206e 0008      	moveal %fp@(8),%a0
    2c00:	5088           	addql #8,%a0
    2c02:	f210 5400      	fmoved %a0@,%fp0
    2c06:	307c 0010      	moveaw #16,%a0
    2c0a:	d1ee 0008      	addal %fp@(8),%a0
    2c0e:	f210 5480      	fmoved %a0@,%fp1
    2c12:	f200 0428      	fsubx %fp1,%fp0
    2c16:	307c 0018      	moveaw #24,%a0
    2c1a:	d1ee 0008      	addal %fp@(8),%a0
    2c1e:	f210 5480      	fmoved %a0@,%fp1
    2c22:	f200 0422      	faddx %fp1,%fp0
    2c26:	307c 0020      	moveaw #32,%a0
    2c2a:	d1ee 0008      	addal %fp@(8),%a0
    2c2e:	f210 5480      	fmoved %a0@,%fp1
    2c32:	f200 0422      	faddx %fp1,%fp0
    2c36:	2039 0001 7f10 	movel 17f10 <T>,%d0
    2c3c:	f200 4480      	fmoves %d0,%fp1
    2c40:	307c 0018      	moveaw #24,%a0
    2c44:	d1ee 0008      	addal %fp@(8),%a0
    2c48:	f200 0423      	fmulx %fp1,%fp0
    2c4c:	f210 7400      	fmoved %fp0,%a0@
    2c50:	307c 0010      	moveaw #16,%a0
    2c54:	d1ee 0008      	addal %fp@(8),%a0
    2c58:	f210 5400      	fmoved %a0@,%fp0
    2c5c:	206e 0008      	moveal %fp@(8),%a0
    2c60:	5088           	addql #8,%a0
    2c62:	f210 5480      	fmoved %a0@,%fp1
    2c66:	f200 0428      	fsubx %fp1,%fp0
    2c6a:	307c 0018      	moveaw #24,%a0
    2c6e:	d1ee 0008      	addal %fp@(8),%a0
    2c72:	f210 5480      	fmoved %a0@,%fp1
    2c76:	f200 0422      	faddx %fp1,%fp0
    2c7a:	307c 0020      	moveaw #32,%a0
    2c7e:	d1ee 0008      	addal %fp@(8),%a0
    2c82:	f210 5480      	fmoved %a0@,%fp1
    2c86:	f200 0422      	faddx %fp1,%fp0
    2c8a:	f239 5480 0001 	fmoved 17f1c <T2>,%fp1
    2c90:	7f1c 
    2c92:	307c 0020      	moveaw #32,%a0
    2c96:	d1ee 0008      	addal %fp@(8),%a0
    2c9a:	f200 0420      	fdivx %fp1,%fp0
    2c9e:	f210 7400      	fmoved %fp0,%a0@
    2ca2:	2039 0001 7f4c 	movel 17f4c <J>,%d0
    2ca8:	5280           	addql #1,%d0
    2caa:	23c0 0001 7f4c 	movel %d0,17f4c <J>
    2cb0:	2039 0001 7f4c 	movel 17f4c <J>,%d0
    2cb6:	7205           	moveq #5,%d1
    2cb8:	b280           	cmpl %d0,%d1
    2cba:	6d04           	blts 2cc0 <PA+0x174>
    2cbc:	6000 fe98      	braw 2b56 <PA+0xa>
    2cc0:	4e71           	nop
    2cc2:	4e5e           	unlk %fp
    2cc4:	4e75           	rts

00002cc6 <P0>:
    2cc6:	4e56 0000      	linkw %fp,#0
    2cca:	2239 0001 7f50 	movel 17f50 <K>,%d1
    2cd0:	2039 0001 7f4c 	movel 17f4c <J>,%d0
    2cd6:	f230 5400 1fb0 	fmoved @(17f24,%d1:l:8),%fp0
    2cdc:	0001 7f24 
    2ce0:	f230 7400 0fb0 	fmoved %fp0,@(17f24,%d0:l:8)
    2ce6:	0001 7f24 
    2cea:	2239 0001 7f54 	movel 17f54 <L>,%d1
    2cf0:	2039 0001 7f50 	movel 17f50 <K>,%d0
    2cf6:	f230 5400 1fb0 	fmoved @(17f24,%d1:l:8),%fp0
    2cfc:	0001 7f24 
    2d00:	f230 7400 0fb0 	fmoved %fp0,@(17f24,%d0:l:8)
    2d06:	0001 7f24 
    2d0a:	2239 0001 7f4c 	movel 17f4c <J>,%d1
    2d10:	2039 0001 7f54 	movel 17f54 <L>,%d0
    2d16:	f230 5400 1fb0 	fmoved @(17f24,%d1:l:8),%fp0
    2d1c:	0001 7f24 
    2d20:	f230 7400 0fb0 	fmoved %fp0,@(17f24,%d0:l:8)
    2d26:	0001 7f24 
    2d2a:	4e71           	nop
    2d2c:	4e5e           	unlk %fp
    2d2e:	4e75           	rts

00002d30 <P3>:
    2d30:	4e56 fff0      	linkw %fp,#-16
    2d34:	f227 e004      	fmovemx %fp2,%sp@-
    2d38:	2d6e 0008 fff8 	movel %fp@(8),%fp@(-8)
    2d3e:	2d6e 000c fffc 	movel %fp@(12),%fp@(-4)
    2d44:	2d6e 0010 fff0 	movel %fp@(16),%fp@(-16)
    2d4a:	2d6e 0014 fff4 	movel %fp@(20),%fp@(-12)
    2d50:	2039 0001 7f10 	movel 17f10 <T>,%d0
    2d56:	f200 4480      	fmoves %d0,%fp1
    2d5a:	f22e 5400 fff8 	fmoved %fp@(-8),%fp0
    2d60:	f22e 5422 fff0 	faddd %fp@(-16),%fp0
    2d66:	f200 0500      	fmovex %fp1,%fp2
    2d6a:	f200 0123      	fmulx %fp0,%fp2
    2d6e:	f22e 7500 fff8 	fmoved %fp2,%fp@(-8)
    2d74:	2039 0001 7f10 	movel 17f10 <T>,%d0
    2d7a:	f200 4480      	fmoves %d0,%fp1
    2d7e:	f22e 5400 fff8 	fmoved %fp@(-8),%fp0
    2d84:	f22e 5422 fff0 	faddd %fp@(-16),%fp0
    2d8a:	f200 0500      	fmovex %fp1,%fp2
    2d8e:	f200 0123      	fmulx %fp0,%fp2
    2d92:	f22e 7500 fff0 	fmoved %fp2,%fp@(-16)
    2d98:	f22e 5400 fff8 	fmoved %fp@(-8),%fp0
    2d9e:	f22e 5422 fff0 	faddd %fp@(-16),%fp0
    2da4:	f239 5480 0001 	fmoved 17f1c <T2>,%fp1
    2daa:	7f1c 
    2dac:	f200 0420      	fdivx %fp1,%fp0
    2db0:	206e 0018      	moveal %fp@(24),%a0
    2db4:	f210 7400      	fmoved %fp0,%a0@
    2db8:	4e71           	nop
    2dba:	f21f d020      	fmovemx %sp@+,%fp2
    2dbe:	4e5e           	unlk %fp
    2dc0:	4e75           	rts
	...

00002dc4 <exp>:
    2dc4:	48e7 3c00      	moveml %d2-%d5,%sp@-
    2dc8:	282f 0014      	movel %sp@(20),%d4
    2dcc:	2a2f 0018      	movel %sp@(24),%d5
    2dd0:	2f05           	movel %d5,%sp@-
    2dd2:	2f04           	movel %d4,%sp@-
    2dd4:	4eb9 0000 3868 	jsr 3868 <__ieee754_exp>
    2dda:	2600           	movel %d0,%d3
    2ddc:	2401           	movel %d1,%d2
    2dde:	2f05           	movel %d5,%sp@-
    2de0:	2f04           	movel %d4,%sp@-
    2de2:	4eb9 0000 3730 	jsr 3730 <finite>
    2de8:	4fef 0010      	lea %sp@(16),%sp
    2dec:	4a80           	tstl %d0
    2dee:	673c           	beqs 2e2c <exp+0x68>
    2df0:	2f3c fefa 39ef 	movel #-17155601,%sp@-
    2df6:	2f3c 4086 2e42 	movel #1082535490,%sp@-
    2dfc:	2f05           	movel %d5,%sp@-
    2dfe:	2f04           	movel %d4,%sp@-
    2e00:	4eb9 0000 72dc 	jsr 72dc <__gtdf2>
    2e06:	4fef 0010      	lea %sp@(16),%sp
    2e0a:	4a80           	tstl %d0
    2e0c:	6e28           	bgts 2e36 <exp+0x72>
    2e0e:	2f3c d52d 3051 	movel #-718458799,%sp@-
    2e14:	2f3c c087 4910 	movel #-1064875760,%sp@-
    2e1a:	2f05           	movel %d5,%sp@-
    2e1c:	2f04           	movel %d4,%sp@-
    2e1e:	4eb9 0000 7324 	jsr 7324 <__ltdf2>
    2e24:	4fef 0010      	lea %sp@(16),%sp
    2e28:	4a80           	tstl %d0
    2e2a:	6d28           	blts 2e54 <exp+0x90>
    2e2c:	2003           	movel %d3,%d0
    2e2e:	2202           	movel %d2,%d1
    2e30:	4cdf 003c      	moveml %sp@+,%d2-%d5
    2e34:	4e75           	rts
    2e36:	4eb9 0000 8494 	jsr 8494 <__errno>
    2e3c:	7222           	moveq #34,%d1
    2e3e:	2040           	moveal %d0,%a0
    2e40:	2081           	movel %d1,%a0@
    2e42:	263c 7ff0 0000 	movel #2146435072,%d3
    2e48:	7400           	moveq #0,%d2
    2e4a:	2003           	movel %d3,%d0
    2e4c:	2202           	movel %d2,%d1
    2e4e:	4cdf 003c      	moveml %sp@+,%d2-%d5
    2e52:	4e75           	rts
    2e54:	4eb9 0000 8494 	jsr 8494 <__errno>
    2e5a:	7222           	moveq #34,%d1
    2e5c:	2040           	moveal %d0,%a0
    2e5e:	2081           	movel %d1,%a0@
    2e60:	7600           	moveq #0,%d3
    2e62:	7400           	moveq #0,%d2
    2e64:	2003           	movel %d3,%d0
    2e66:	2202           	movel %d2,%d1
    2e68:	4cdf 003c      	moveml %sp@+,%d2-%d5
    2e6c:	4e75           	rts
	...

00002e70 <log>:
    2e70:	48e7 3f00      	moveml %d2-%d7,%sp@-
    2e74:	242f 001c      	movel %sp@(28),%d2
    2e78:	262f 0020      	movel %sp@(32),%d3
    2e7c:	2f03           	movel %d3,%sp@-
    2e7e:	2f02           	movel %d2,%sp@-
    2e80:	4eb9 0000 3de8 	jsr 3de8 <__ieee754_log>
    2e86:	2a00           	movel %d0,%d5
    2e88:	2801           	movel %d1,%d4
    2e8a:	588f           	addql #4,%sp
    2e8c:	2e83           	movel %d3,%sp@
    2e8e:	2f02           	movel %d2,%sp@-
    2e90:	2f03           	movel %d3,%sp@-
    2e92:	2f02           	movel %d2,%sp@-
    2e94:	4eb9 0000 7442 	jsr 7442 <__unorddf2>
    2e9a:	4fef 0010      	lea %sp@(16),%sp
    2e9e:	4a80           	tstl %d0
    2ea0:	6644           	bnes 2ee6 <log+0x76>
    2ea2:	4286           	clrl %d6
    2ea4:	4287           	clrl %d7
    2ea6:	2f07           	movel %d7,%sp@-
    2ea8:	2f06           	movel %d6,%sp@-
    2eaa:	2f03           	movel %d3,%sp@-
    2eac:	2f02           	movel %d2,%sp@-
    2eae:	4eb9 0000 72dc 	jsr 72dc <__gtdf2>
    2eb4:	4fef 0010      	lea %sp@(16),%sp
    2eb8:	4a80           	tstl %d0
    2eba:	6e2a           	bgts 2ee6 <log+0x76>
    2ebc:	2f07           	movel %d7,%sp@-
    2ebe:	2f06           	movel %d6,%sp@-
    2ec0:	2f03           	movel %d3,%sp@-
    2ec2:	2f02           	movel %d2,%sp@-
    2ec4:	4eb9 0000 72b8 	jsr 72b8 <__eqdf2>
    2eca:	4fef 0010      	lea %sp@(16),%sp
    2ece:	4a80           	tstl %d0
    2ed0:	661e           	bnes 2ef0 <log+0x80>
    2ed2:	4eb9 0000 8494 	jsr 8494 <__errno>
    2ed8:	7222           	moveq #34,%d1
    2eda:	2040           	moveal %d0,%a0
    2edc:	2081           	movel %d1,%a0@
    2ede:	2a3c fff0 0000 	movel #-1048576,%d5
    2ee4:	7800           	moveq #0,%d4
    2ee6:	2005           	movel %d5,%d0
    2ee8:	2204           	movel %d4,%d1
    2eea:	4cdf 00fc      	moveml %sp@+,%d2-%d7
    2eee:	4e75           	rts
    2ef0:	4eb9 0000 8494 	jsr 8494 <__errno>
    2ef6:	7221           	moveq #33,%d1
    2ef8:	2040           	moveal %d0,%a0
    2efa:	2081           	movel %d1,%a0@
    2efc:	2f7c 0001 532a 	movel #86826,%sp@(28)
    2f02:	001c 
    2f04:	4cdf 00fc      	moveml %sp@+,%d2-%d7
    2f08:	4ef9 0000 3ddc 	jmp 3ddc <nan>
	...

00002f10 <sqrt>:
    2f10:	48e7 3f00      	moveml %d2-%d7,%sp@-
    2f14:	242f 001c      	movel %sp@(28),%d2
    2f18:	262f 0020      	movel %sp@(32),%d3
    2f1c:	2f03           	movel %d3,%sp@-
    2f1e:	2f02           	movel %d2,%sp@-
    2f20:	4eb9 0000 4b94 	jsr 4b94 <__ieee754_sqrt>
    2f26:	2a00           	movel %d0,%d5
    2f28:	2801           	movel %d1,%d4
    2f2a:	588f           	addql #4,%sp
    2f2c:	2e83           	movel %d3,%sp@
    2f2e:	2f02           	movel %d2,%sp@-
    2f30:	2f03           	movel %d3,%sp@-
    2f32:	2f02           	movel %d2,%sp@-
    2f34:	4eb9 0000 7442 	jsr 7442 <__unorddf2>
    2f3a:	4fef 0010      	lea %sp@(16),%sp
    2f3e:	4a80           	tstl %d0
    2f40:	661a           	bnes 2f5c <sqrt+0x4c>
    2f42:	4286           	clrl %d6
    2f44:	4287           	clrl %d7
    2f46:	2f07           	movel %d7,%sp@-
    2f48:	2f06           	movel %d6,%sp@-
    2f4a:	2f03           	movel %d3,%sp@-
    2f4c:	2f02           	movel %d2,%sp@-
    2f4e:	4eb9 0000 7324 	jsr 7324 <__ltdf2>
    2f54:	4fef 0010      	lea %sp@(16),%sp
    2f58:	4a80           	tstl %d0
    2f5a:	6d0a           	blts 2f66 <sqrt+0x56>
    2f5c:	2005           	movel %d5,%d0
    2f5e:	2204           	movel %d4,%d1
    2f60:	4cdf 00fc      	moveml %sp@+,%d2-%d7
    2f64:	4e75           	rts
    2f66:	4eb9 0000 8494 	jsr 8494 <__errno>
    2f6c:	7221           	moveq #33,%d1
    2f6e:	2040           	moveal %d0,%a0
    2f70:	2081           	movel %d1,%a0@
    2f72:	2f07           	movel %d7,%sp@-
    2f74:	2f06           	movel %d6,%sp@-
    2f76:	2f07           	movel %d7,%sp@-
    2f78:	2f06           	movel %d6,%sp@-
    2f7a:	4eb9 0000 6e20 	jsr 6e20 <__divdf3>
    2f80:	4fef 0010      	lea %sp@(16),%sp
    2f84:	2a00           	movel %d0,%d5
    2f86:	2801           	movel %d1,%d4
    2f88:	2005           	movel %d5,%d0
    2f8a:	2204           	movel %d4,%d1
    2f8c:	4cdf 00fc      	moveml %sp@+,%d2-%d7
    2f90:	4e75           	rts
	...

00002f94 <atan>:
    2f94:	48e7 3f3e      	moveml %d2-%d7/%a2-%fp,%sp@-
    2f98:	242f 0030      	movel %sp@(48),%d2
    2f9c:	262f 0034      	movel %sp@(52),%d3
    2fa0:	2642           	moveal %d2,%a3
    2fa2:	2c02           	movel %d2,%d6
    2fa4:	0886 001f      	bclr #31,%d6
    2fa8:	0c86 440f ffff 	cmpil #1141899263,%d6
    2fae:	6346           	blss 2ff6 <atan+0x62>
    2fb0:	0c86 7ff0 0000 	cmpil #2146435072,%d6
    2fb6:	6222           	bhis 2fda <atan+0x46>
    2fb8:	671c           	beqs 2fd6 <atan+0x42>
    2fba:	b6fc 0000      	cmpaw #0,%a3
    2fbe:	6f00 0496      	blew 3456 <atan+0x4c2>
    2fc2:	207c 3ff9 21fb 	moveal #1073291771,%a0
    2fc8:	223c 5444 2d18 	movel #1413754136,%d1
    2fce:	2008           	movel %a0,%d0
    2fd0:	4cdf 7cfc      	moveml %sp@+,%d2-%d7/%a2-%fp
    2fd4:	4e75           	rts
    2fd6:	4a83           	tstl %d3
    2fd8:	67e0           	beqs 2fba <atan+0x26>
    2fda:	2f03           	movel %d3,%sp@-
    2fdc:	2f02           	movel %d2,%sp@-
    2fde:	2f03           	movel %d3,%sp@-
    2fe0:	2f02           	movel %d2,%sp@-
    2fe2:	4eb9 0000 68dc 	jsr 68dc <__adddf3>
    2fe8:	4fef 0010      	lea %sp@(16),%sp
    2fec:	2040           	moveal %d0,%a0
    2fee:	2008           	movel %a0,%d0
    2ff0:	4cdf 7cfc      	moveml %sp@+,%d2-%d7/%a2-%fp
    2ff4:	4e75           	rts
    2ff6:	0c86 3fdb ffff 	cmpil #1071382527,%d6
    2ffc:	6200 046c      	bhiw 346a <atan+0x4d6>
    3000:	0c86 3e1f ffff 	cmpil #1042284543,%d6
    3006:	6200 0262      	bhiw 326a <atan+0x2d6>
    300a:	49f9 0000 68dc 	lea 68dc <__adddf3>,%a4
    3010:	2f3c 8800 759c 	movel #-2013235812,%sp@-
    3016:	2f3c 7e37 e43c 	movel #2117592124,%sp@-
    301c:	2f03           	movel %d3,%sp@-
    301e:	2f02           	movel %d2,%sp@-
    3020:	4e94           	jsr %a4@
    3022:	4fef 000c      	lea %sp@(12),%sp
    3026:	4297           	clrl %sp@
    3028:	2f3c 3ff0 0000 	movel #1072693248,%sp@-
    302e:	2f01           	movel %d1,%sp@-
    3030:	2f00           	movel %d0,%sp@-
    3032:	4eb9 0000 72dc 	jsr 72dc <__gtdf2>
    3038:	4fef 0010      	lea %sp@(16),%sp
    303c:	4a80           	tstl %d0
    303e:	6e00 0522      	bgtw 3562 <atan+0x5ce>
    3042:	3c7c ffff      	moveaw #-1,%fp
    3046:	4bf9 0000 68d6 	lea 68d6 <__subdf3>,%a5
    304c:	45f9 0000 6c72 	lea 6c72 <__muldf3>,%a2
    3052:	2f03           	movel %d3,%sp@-
    3054:	2f02           	movel %d2,%sp@-
    3056:	2f03           	movel %d3,%sp@-
    3058:	2f02           	movel %d2,%sp@-
    305a:	4e92           	jsr %a2@
    305c:	4fef 0010      	lea %sp@(16),%sp
    3060:	2c00           	movel %d0,%d6
    3062:	2e01           	movel %d1,%d7
    3064:	2f01           	movel %d1,%sp@-
    3066:	2f06           	movel %d6,%sp@-
    3068:	2f01           	movel %d1,%sp@-
    306a:	2f06           	movel %d6,%sp@-
    306c:	4e92           	jsr %a2@
    306e:	4fef 0010      	lea %sp@(16),%sp
    3072:	2800           	movel %d0,%d4
    3074:	2a01           	movel %d1,%d5
    3076:	2f3c e322 da11 	movel #-484255215,%sp@-
    307c:	2f3c 3f90 ad3a 	movel #1066446138,%sp@-
    3082:	2f01           	movel %d1,%sp@-
    3084:	2f04           	movel %d4,%sp@-
    3086:	4e92           	jsr %a2@
    3088:	4fef 000c      	lea %sp@(12),%sp
    308c:	2ebc 2476 0deb 	movel #611716587,%sp@
    3092:	2f3c 3fa9 7b4b 	movel #1068071755,%sp@-
    3098:	2f01           	movel %d1,%sp@-
    309a:	2f00           	movel %d0,%sp@-
    309c:	4e94           	jsr %a4@
    309e:	4fef 000c      	lea %sp@(12),%sp
    30a2:	2e85           	movel %d5,%sp@
    30a4:	2f04           	movel %d4,%sp@-
    30a6:	2f01           	movel %d1,%sp@-
    30a8:	2f00           	movel %d0,%sp@-
    30aa:	4e92           	jsr %a2@
    30ac:	4fef 000c      	lea %sp@(12),%sp
    30b0:	2ebc a0d0 3d51 	movel #-1596965551,%sp@
    30b6:	2f3c 3fb1 0d66 	movel #1068567910,%sp@-
    30bc:	2f01           	movel %d1,%sp@-
    30be:	2f00           	movel %d0,%sp@-
    30c0:	4e94           	jsr %a4@
    30c2:	4fef 000c      	lea %sp@(12),%sp
    30c6:	2e85           	movel %d5,%sp@
    30c8:	2f04           	movel %d4,%sp@-
    30ca:	2f01           	movel %d1,%sp@-
    30cc:	2f00           	movel %d0,%sp@-
    30ce:	4e92           	jsr %a2@
    30d0:	4fef 000c      	lea %sp@(12),%sp
    30d4:	2ebc c54c 206e 	movel #-984866706,%sp@
    30da:	2f3c 3fb7 45cd 	movel #1068975565,%sp@-
    30e0:	2f01           	movel %d1,%sp@-
    30e2:	2f00           	movel %d0,%sp@-
    30e4:	4e94           	jsr %a4@
    30e6:	4fef 000c      	lea %sp@(12),%sp
    30ea:	2e85           	movel %d5,%sp@
    30ec:	2f04           	movel %d4,%sp@-
    30ee:	2f01           	movel %d1,%sp@-
    30f0:	2f00           	movel %d0,%sp@-
    30f2:	4e92           	jsr %a2@
    30f4:	4fef 000c      	lea %sp@(12),%sp
    30f8:	2ebc 9200 83ff 	movel #-1845459969,%sp@
    30fe:	2f3c 3fc2 4924 	movel #1069697316,%sp@-
    3104:	2f01           	movel %d1,%sp@-
    3106:	2f00           	movel %d0,%sp@-
    3108:	4e94           	jsr %a4@
    310a:	4fef 000c      	lea %sp@(12),%sp
    310e:	2e85           	movel %d5,%sp@
    3110:	2f04           	movel %d4,%sp@-
    3112:	2f01           	movel %d1,%sp@-
    3114:	2f00           	movel %d0,%sp@-
    3116:	4e92           	jsr %a2@
    3118:	4fef 000c      	lea %sp@(12),%sp
    311c:	2ebc 5555 550d 	movel #1431655693,%sp@
    3122:	2f3c 3fd5 5555 	movel #1070945621,%sp@-
    3128:	2f01           	movel %d1,%sp@-
    312a:	2f00           	movel %d0,%sp@-
    312c:	4e94           	jsr %a4@
    312e:	4fef 000c      	lea %sp@(12),%sp
    3132:	2e87           	movel %d7,%sp@
    3134:	2f06           	movel %d6,%sp@-
    3136:	2f01           	movel %d1,%sp@-
    3138:	2f00           	movel %d0,%sp@-
    313a:	4e92           	jsr %a2@
    313c:	4fef 0010      	lea %sp@(16),%sp
    3140:	2c00           	movel %d0,%d6
    3142:	2e01           	movel %d1,%d7
    3144:	2f3c 2c6a 6c2f 	movel #745172015,%sp@-
    314a:	2f3c bfa2 b444 	movel #-1079856060,%sp@-
    3150:	2f05           	movel %d5,%sp@-
    3152:	2f04           	movel %d4,%sp@-
    3154:	4e92           	jsr %a2@
    3156:	4fef 000c      	lea %sp@(12),%sp
    315a:	2ebc 52de fd9a 	movel #1390345626,%sp@
    3160:	2f3c 3fad de2d 	movel #1068359213,%sp@-
    3166:	2f01           	movel %d1,%sp@-
    3168:	2f00           	movel %d0,%sp@-
    316a:	4e95           	jsr %a5@
    316c:	4fef 000c      	lea %sp@(12),%sp
    3170:	2e85           	movel %d5,%sp@
    3172:	2f04           	movel %d4,%sp@-
    3174:	2f01           	movel %d1,%sp@-
    3176:	2f00           	movel %d0,%sp@-
    3178:	4e92           	jsr %a2@
    317a:	4fef 000c      	lea %sp@(12),%sp
    317e:	2ebc af74 9a6d 	movel #-1351312787,%sp@
    3184:	2f3c 3fb3 b0f2 	movel #1068740850,%sp@-
    318a:	2f01           	movel %d1,%sp@-
    318c:	2f00           	movel %d0,%sp@-
    318e:	4e95           	jsr %a5@
    3190:	4fef 000c      	lea %sp@(12),%sp
    3194:	2e85           	movel %d5,%sp@
    3196:	2f04           	movel %d4,%sp@-
    3198:	2f01           	movel %d1,%sp@-
    319a:	2f00           	movel %d0,%sp@-
    319c:	4e92           	jsr %a2@
    319e:	4fef 000c      	lea %sp@(12),%sp
    31a2:	2ebc fe23 1671 	movel #-31254927,%sp@
    31a8:	2f3c 3fbc 71c6 	movel #1069314502,%sp@-
    31ae:	2f01           	movel %d1,%sp@-
    31b0:	2f00           	movel %d0,%sp@-
    31b2:	4e95           	jsr %a5@
    31b4:	4fef 000c      	lea %sp@(12),%sp
    31b8:	2e85           	movel %d5,%sp@
    31ba:	2f04           	movel %d4,%sp@-
    31bc:	2f01           	movel %d1,%sp@-
    31be:	2f00           	movel %d0,%sp@-
    31c0:	4e92           	jsr %a2@
    31c2:	4fef 000c      	lea %sp@(12),%sp
    31c6:	2ebc 9998 ebc4 	movel #-1718031420,%sp@
    31cc:	2f3c 3fc9 9999 	movel #1070176665,%sp@-
    31d2:	2f01           	movel %d1,%sp@-
    31d4:	2f00           	movel %d0,%sp@-
    31d6:	4e95           	jsr %a5@
    31d8:	4fef 000c      	lea %sp@(12),%sp
    31dc:	2e85           	movel %d5,%sp@
    31de:	2f04           	movel %d4,%sp@-
    31e0:	2f01           	movel %d1,%sp@-
    31e2:	2f00           	movel %d0,%sp@-
    31e4:	4e92           	jsr %a2@
    31e6:	4fef 000c      	lea %sp@(12),%sp
    31ea:	2e81           	movel %d1,%sp@
    31ec:	2f00           	movel %d0,%sp@-
    31ee:	2f07           	movel %d7,%sp@-
    31f0:	2f06           	movel %d6,%sp@-
    31f2:	4e94           	jsr %a4@
    31f4:	4fef 000c      	lea %sp@(12),%sp
    31f8:	2e83           	movel %d3,%sp@
    31fa:	2f02           	movel %d2,%sp@-
    31fc:	2f01           	movel %d1,%sp@-
    31fe:	2f00           	movel %d0,%sp@-
    3200:	4e92           	jsr %a2@
    3202:	4fef 0010      	lea %sp@(16),%sp
    3206:	2040           	moveal %d0,%a0
    3208:	70ff           	moveq #-1,%d0
    320a:	b08e           	cmpl %fp,%d0
    320c:	6700 0230      	beqw 343e <atan+0x4aa>
    3210:	280e           	movel %fp,%d4
    3212:	e78c           	lsll #3,%d4
    3214:	45f9 0001 5344 	lea 15344 <atanlo>,%a2
    321a:	2f32 4804      	movel %a2@(4,%d4:l),%sp@-
    321e:	2f32 4800      	movel %a2@(0,%d4:l),%sp@-
    3222:	2f01           	movel %d1,%sp@-
    3224:	2f08           	movel %a0,%sp@-
    3226:	4e95           	jsr %a5@
    3228:	4fef 000c      	lea %sp@(12),%sp
    322c:	2e83           	movel %d3,%sp@
    322e:	2f02           	movel %d2,%sp@-
    3230:	2f01           	movel %d1,%sp@-
    3232:	2f00           	movel %d0,%sp@-
    3234:	4e95           	jsr %a5@
    3236:	4fef 000c      	lea %sp@(12),%sp
    323a:	2e81           	movel %d1,%sp@
    323c:	2f00           	movel %d0,%sp@-
    323e:	41f9 0001 5364 	lea 15364 <atanhi>,%a0
    3244:	2f30 4804      	movel %a0@(4,%d4:l),%sp@-
    3248:	2f30 4800      	movel %a0@(0,%d4:l),%sp@-
    324c:	4e95           	jsr %a5@
    324e:	4fef 0010      	lea %sp@(16),%sp
    3252:	2040           	moveal %d0,%a0
    3254:	b6fc 0000      	cmpaw #0,%a3
    3258:	6c00 fd74      	bgew 2fce <atan+0x3a>
    325c:	d1fc 8000 0000 	addal #-2147483648,%a0
    3262:	2008           	movel %a0,%d0
    3264:	4cdf 7cfc      	moveml %sp@+,%d2-%d7/%a2-%fp
    3268:	4e75           	rts
    326a:	3c7c ffff      	moveaw #-1,%fp
    326e:	49f9 0000 68dc 	lea 68dc <__adddf3>,%a4
    3274:	4bf9 0000 68d6 	lea 68d6 <__subdf3>,%a5
    327a:	45f9 0000 6c72 	lea 6c72 <__muldf3>,%a2
    3280:	2f03           	movel %d3,%sp@-
    3282:	2f02           	movel %d2,%sp@-
    3284:	2f03           	movel %d3,%sp@-
    3286:	2f02           	movel %d2,%sp@-
    3288:	4e92           	jsr %a2@
    328a:	4fef 0010      	lea %sp@(16),%sp
    328e:	2c00           	movel %d0,%d6
    3290:	2e01           	movel %d1,%d7
    3292:	2f01           	movel %d1,%sp@-
    3294:	2f06           	movel %d6,%sp@-
    3296:	2f01           	movel %d1,%sp@-
    3298:	2f06           	movel %d6,%sp@-
    329a:	4e92           	jsr %a2@
    329c:	4fef 0010      	lea %sp@(16),%sp
    32a0:	2800           	movel %d0,%d4
    32a2:	2a01           	movel %d1,%d5
    32a4:	2f3c e322 da11 	movel #-484255215,%sp@-
    32aa:	2f3c 3f90 ad3a 	movel #1066446138,%sp@-
    32b0:	2f01           	movel %d1,%sp@-
    32b2:	2f04           	movel %d4,%sp@-
    32b4:	4e92           	jsr %a2@
    32b6:	4fef 000c      	lea %sp@(12),%sp
    32ba:	2ebc 2476 0deb 	movel #611716587,%sp@
    32c0:	2f3c 3fa9 7b4b 	movel #1068071755,%sp@-
    32c6:	2f01           	movel %d1,%sp@-
    32c8:	2f00           	movel %d0,%sp@-
    32ca:	4e94           	jsr %a4@
    32cc:	4fef 000c      	lea %sp@(12),%sp
    32d0:	2e85           	movel %d5,%sp@
    32d2:	2f04           	movel %d4,%sp@-
    32d4:	2f01           	movel %d1,%sp@-
    32d6:	2f00           	movel %d0,%sp@-
    32d8:	4e92           	jsr %a2@
    32da:	4fef 000c      	lea %sp@(12),%sp
    32de:	2ebc a0d0 3d51 	movel #-1596965551,%sp@
    32e4:	2f3c 3fb1 0d66 	movel #1068567910,%sp@-
    32ea:	2f01           	movel %d1,%sp@-
    32ec:	2f00           	movel %d0,%sp@-
    32ee:	4e94           	jsr %a4@
    32f0:	4fef 000c      	lea %sp@(12),%sp
    32f4:	2e85           	movel %d5,%sp@
    32f6:	2f04           	movel %d4,%sp@-
    32f8:	2f01           	movel %d1,%sp@-
    32fa:	2f00           	movel %d0,%sp@-
    32fc:	4e92           	jsr %a2@
    32fe:	4fef 000c      	lea %sp@(12),%sp
    3302:	2ebc c54c 206e 	movel #-984866706,%sp@
    3308:	2f3c 3fb7 45cd 	movel #1068975565,%sp@-
    330e:	2f01           	movel %d1,%sp@-
    3310:	2f00           	movel %d0,%sp@-
    3312:	4e94           	jsr %a4@
    3314:	4fef 000c      	lea %sp@(12),%sp
    3318:	2e85           	movel %d5,%sp@
    331a:	2f04           	movel %d4,%sp@-
    331c:	2f01           	movel %d1,%sp@-
    331e:	2f00           	movel %d0,%sp@-
    3320:	4e92           	jsr %a2@
    3322:	4fef 000c      	lea %sp@(12),%sp
    3326:	2ebc 9200 83ff 	movel #-1845459969,%sp@
    332c:	2f3c 3fc2 4924 	movel #1069697316,%sp@-
    3332:	2f01           	movel %d1,%sp@-
    3334:	2f00           	movel %d0,%sp@-
    3336:	4e94           	jsr %a4@
    3338:	4fef 000c      	lea %sp@(12),%sp
    333c:	2e85           	movel %d5,%sp@
    333e:	2f04           	movel %d4,%sp@-
    3340:	2f01           	movel %d1,%sp@-
    3342:	2f00           	movel %d0,%sp@-
    3344:	4e92           	jsr %a2@
    3346:	4fef 000c      	lea %sp@(12),%sp
    334a:	2ebc 5555 550d 	movel #1431655693,%sp@
    3350:	2f3c 3fd5 5555 	movel #1070945621,%sp@-
    3356:	2f01           	movel %d1,%sp@-
    3358:	2f00           	movel %d0,%sp@-
    335a:	4e94           	jsr %a4@
    335c:	4fef 000c      	lea %sp@(12),%sp
    3360:	2e87           	movel %d7,%sp@
    3362:	2f06           	movel %d6,%sp@-
    3364:	2f01           	movel %d1,%sp@-
    3366:	2f00           	movel %d0,%sp@-
    3368:	4e92           	jsr %a2@
    336a:	4fef 0010      	lea %sp@(16),%sp
    336e:	2c00           	movel %d0,%d6
    3370:	2e01           	movel %d1,%d7
    3372:	2f3c 2c6a 6c2f 	movel #745172015,%sp@-
    3378:	2f3c bfa2 b444 	movel #-1079856060,%sp@-
    337e:	2f05           	movel %d5,%sp@-
    3380:	2f04           	movel %d4,%sp@-
    3382:	4e92           	jsr %a2@
    3384:	4fef 000c      	lea %sp@(12),%sp
    3388:	2ebc 52de fd9a 	movel #1390345626,%sp@
    338e:	2f3c 3fad de2d 	movel #1068359213,%sp@-
    3394:	2f01           	movel %d1,%sp@-
    3396:	2f00           	movel %d0,%sp@-
    3398:	4e95           	jsr %a5@
    339a:	4fef 000c      	lea %sp@(12),%sp
    339e:	2e85           	movel %d5,%sp@
    33a0:	2f04           	movel %d4,%sp@-
    33a2:	2f01           	movel %d1,%sp@-
    33a4:	2f00           	movel %d0,%sp@-
    33a6:	4e92           	jsr %a2@
    33a8:	4fef 000c      	lea %sp@(12),%sp
    33ac:	2ebc af74 9a6d 	movel #-1351312787,%sp@
    33b2:	2f3c 3fb3 b0f2 	movel #1068740850,%sp@-
    33b8:	2f01           	movel %d1,%sp@-
    33ba:	2f00           	movel %d0,%sp@-
    33bc:	4e95           	jsr %a5@
    33be:	4fef 000c      	lea %sp@(12),%sp
    33c2:	2e85           	movel %d5,%sp@
    33c4:	2f04           	movel %d4,%sp@-
    33c6:	2f01           	movel %d1,%sp@-
    33c8:	2f00           	movel %d0,%sp@-
    33ca:	4e92           	jsr %a2@
    33cc:	4fef 000c      	lea %sp@(12),%sp
    33d0:	2ebc fe23 1671 	movel #-31254927,%sp@
    33d6:	2f3c 3fbc 71c6 	movel #1069314502,%sp@-
    33dc:	2f01           	movel %d1,%sp@-
    33de:	2f00           	movel %d0,%sp@-
    33e0:	4e95           	jsr %a5@
    33e2:	4fef 000c      	lea %sp@(12),%sp
    33e6:	2e85           	movel %d5,%sp@
    33e8:	2f04           	movel %d4,%sp@-
    33ea:	2f01           	movel %d1,%sp@-
    33ec:	2f00           	movel %d0,%sp@-
    33ee:	4e92           	jsr %a2@
    33f0:	4fef 000c      	lea %sp@(12),%sp
    33f4:	2ebc 9998 ebc4 	movel #-1718031420,%sp@
    33fa:	2f3c 3fc9 9999 	movel #1070176665,%sp@-
    3400:	2f01           	movel %d1,%sp@-
    3402:	2f00           	movel %d0,%sp@-
    3404:	4e95           	jsr %a5@
    3406:	4fef 000c      	lea %sp@(12),%sp
    340a:	2e85           	movel %d5,%sp@
    340c:	2f04           	movel %d4,%sp@-
    340e:	2f01           	movel %d1,%sp@-
    3410:	2f00           	movel %d0,%sp@-
    3412:	4e92           	jsr %a2@
    3414:	4fef 000c      	lea %sp@(12),%sp
    3418:	2e81           	movel %d1,%sp@
    341a:	2f00           	movel %d0,%sp@-
    341c:	2f07           	movel %d7,%sp@-
    341e:	2f06           	movel %d6,%sp@-
    3420:	4e94           	jsr %a4@
    3422:	4fef 000c      	lea %sp@(12),%sp
    3426:	2e83           	movel %d3,%sp@
    3428:	2f02           	movel %d2,%sp@-
    342a:	2f01           	movel %d1,%sp@-
    342c:	2f00           	movel %d0,%sp@-
    342e:	4e92           	jsr %a2@
    3430:	4fef 0010      	lea %sp@(16),%sp
    3434:	2040           	moveal %d0,%a0
    3436:	70ff           	moveq #-1,%d0
    3438:	b08e           	cmpl %fp,%d0
    343a:	6600 fdd4      	bnew 3210 <atan+0x27c>
    343e:	2f01           	movel %d1,%sp@-
    3440:	2f08           	movel %a0,%sp@-
    3442:	2f03           	movel %d3,%sp@-
    3444:	2f02           	movel %d2,%sp@-
    3446:	4e95           	jsr %a5@
    3448:	4fef 0010      	lea %sp@(16),%sp
    344c:	2040           	moveal %d0,%a0
    344e:	2008           	movel %a0,%d0
    3450:	4cdf 7cfc      	moveml %sp@+,%d2-%d7/%a2-%fp
    3454:	4e75           	rts
    3456:	207c bff9 21fb 	moveal #-1074191877,%a0
    345c:	223c 5444 2d18 	movel #1413754136,%d1
    3462:	2008           	movel %a0,%d0
    3464:	4cdf 7cfc      	moveml %sp@+,%d2-%d7/%a2-%fp
    3468:	4e75           	rts
    346a:	2f03           	movel %d3,%sp@-
    346c:	2f02           	movel %d2,%sp@-
    346e:	4eb9 0000 3718 	jsr 3718 <fabs>
    3474:	2800           	movel %d0,%d4
    3476:	2a01           	movel %d1,%d5
    3478:	508f           	addql #8,%sp
    347a:	0c86 3ff2 ffff 	cmpil #1072889855,%d6
    3480:	626e           	bhis 34f0 <atan+0x55c>
    3482:	0c86 3fe5 ffff 	cmpil #1072037887,%d6
    3488:	6200 0118      	bhiw 35a2 <atan+0x60e>
    348c:	49f9 0000 68dc 	lea 68dc <__adddf3>,%a4
    3492:	2f01           	movel %d1,%sp@-
    3494:	2f04           	movel %d4,%sp@-
    3496:	2f01           	movel %d1,%sp@-
    3498:	2f04           	movel %d4,%sp@-
    349a:	4e94           	jsr %a4@
    349c:	4fef 0010      	lea %sp@(16),%sp
    34a0:	4bf9 0000 68d6 	lea 68d6 <__subdf3>,%a5
    34a6:	42a7           	clrl %sp@-
    34a8:	2f3c 3ff0 0000 	movel #1072693248,%sp@-
    34ae:	2f01           	movel %d1,%sp@-
    34b0:	2f00           	movel %d0,%sp@-
    34b2:	4e95           	jsr %a5@
    34b4:	4fef 0010      	lea %sp@(16),%sp
    34b8:	2400           	movel %d0,%d2
    34ba:	2601           	movel %d1,%d3
    34bc:	42a7           	clrl %sp@-
    34be:	2f3c 4000 0000 	movel #1073741824,%sp@-
    34c4:	2f05           	movel %d5,%sp@-
    34c6:	2f04           	movel %d4,%sp@-
    34c8:	4e94           	jsr %a4@
    34ca:	4fef 000c      	lea %sp@(12),%sp
    34ce:	2e81           	movel %d1,%sp@
    34d0:	2f00           	movel %d0,%sp@-
    34d2:	2f03           	movel %d3,%sp@-
    34d4:	2f02           	movel %d2,%sp@-
    34d6:	4eb9 0000 6e20 	jsr 6e20 <__divdf3>
    34dc:	4fef 0010      	lea %sp@(16),%sp
    34e0:	2400           	movel %d0,%d2
    34e2:	2601           	movel %d1,%d3
    34e4:	9dce           	subal %fp,%fp
    34e6:	45f9 0000 6c72 	lea 6c72 <__muldf3>,%a2
    34ec:	6000 fb64      	braw 3052 <atan+0xbe>
    34f0:	0c86 4003 7fff 	cmpil #1073971199,%d6
    34f6:	6276           	bhis 356e <atan+0x5da>
    34f8:	4bf9 0000 68d6 	lea 68d6 <__subdf3>,%a5
    34fe:	42a7           	clrl %sp@-
    3500:	2f3c 3ff8 0000 	movel #1073217536,%sp@-
    3506:	2f01           	movel %d1,%sp@-
    3508:	2f04           	movel %d4,%sp@-
    350a:	4e95           	jsr %a5@
    350c:	4fef 0010      	lea %sp@(16),%sp
    3510:	2400           	movel %d0,%d2
    3512:	2601           	movel %d1,%d3
    3514:	45f9 0000 6c72 	lea 6c72 <__muldf3>,%a2
    351a:	42a7           	clrl %sp@-
    351c:	2f3c 3ff8 0000 	movel #1073217536,%sp@-
    3522:	2f05           	movel %d5,%sp@-
    3524:	2f04           	movel %d4,%sp@-
    3526:	4e92           	jsr %a2@
    3528:	4fef 0010      	lea %sp@(16),%sp
    352c:	49f9 0000 68dc 	lea 68dc <__adddf3>,%a4
    3532:	42a7           	clrl %sp@-
    3534:	2f3c 3ff0 0000 	movel #1072693248,%sp@-
    353a:	2f01           	movel %d1,%sp@-
    353c:	2f00           	movel %d0,%sp@-
    353e:	4e94           	jsr %a4@
    3540:	4fef 000c      	lea %sp@(12),%sp
    3544:	2e81           	movel %d1,%sp@
    3546:	2f00           	movel %d0,%sp@-
    3548:	2f03           	movel %d3,%sp@-
    354a:	2f02           	movel %d2,%sp@-
    354c:	4eb9 0000 6e20 	jsr 6e20 <__divdf3>
    3552:	4fef 0010      	lea %sp@(16),%sp
    3556:	2400           	movel %d0,%d2
    3558:	2601           	movel %d1,%d3
    355a:	3c7c 0002      	moveaw #2,%fp
    355e:	6000 faf2      	braw 3052 <atan+0xbe>
    3562:	2042           	moveal %d2,%a0
    3564:	2203           	movel %d3,%d1
    3566:	2008           	movel %a0,%d0
    3568:	4cdf 7cfc      	moveml %sp@+,%d2-%d7/%a2-%fp
    356c:	4e75           	rts
    356e:	2f01           	movel %d1,%sp@-
    3570:	2f04           	movel %d4,%sp@-
    3572:	42a7           	clrl %sp@-
    3574:	2f3c bff0 0000 	movel #-1074790400,%sp@-
    357a:	4eb9 0000 6e20 	jsr 6e20 <__divdf3>
    3580:	4fef 0010      	lea %sp@(16),%sp
    3584:	2400           	movel %d0,%d2
    3586:	2601           	movel %d1,%d3
    3588:	3c7c 0003      	moveaw #3,%fp
    358c:	49f9 0000 68dc 	lea 68dc <__adddf3>,%a4
    3592:	4bf9 0000 68d6 	lea 68d6 <__subdf3>,%a5
    3598:	45f9 0000 6c72 	lea 6c72 <__muldf3>,%a2
    359e:	6000 fab2      	braw 3052 <atan+0xbe>
    35a2:	4bf9 0000 68d6 	lea 68d6 <__subdf3>,%a5
    35a8:	42a7           	clrl %sp@-
    35aa:	2f3c 3ff0 0000 	movel #1072693248,%sp@-
    35b0:	2f01           	movel %d1,%sp@-
    35b2:	2f04           	movel %d4,%sp@-
    35b4:	4e95           	jsr %a5@
    35b6:	4fef 0010      	lea %sp@(16),%sp
    35ba:	2400           	movel %d0,%d2
    35bc:	2601           	movel %d1,%d3
    35be:	49f9 0000 68dc 	lea 68dc <__adddf3>,%a4
    35c4:	42a7           	clrl %sp@-
    35c6:	2f3c 3ff0 0000 	movel #1072693248,%sp@-
    35cc:	2f05           	movel %d5,%sp@-
    35ce:	2f04           	movel %d4,%sp@-
    35d0:	4e94           	jsr %a4@
    35d2:	4fef 000c      	lea %sp@(12),%sp
    35d6:	2e81           	movel %d1,%sp@
    35d8:	2f00           	movel %d0,%sp@-
    35da:	2f03           	movel %d3,%sp@-
    35dc:	2f02           	movel %d2,%sp@-
    35de:	4eb9 0000 6e20 	jsr 6e20 <__divdf3>
    35e4:	4fef 0010      	lea %sp@(16),%sp
    35e8:	2400           	movel %d0,%d2
    35ea:	2601           	movel %d1,%d3
    35ec:	3c7c 0001      	moveaw #1,%fp
    35f0:	45f9 0000 6c72 	lea 6c72 <__muldf3>,%a2
    35f6:	6000 fa5a      	braw 3052 <atan+0xbe>
	...

000035fc <cos>:
    35fc:	4e56 fff0      	linkw %fp,#-16
    3600:	2f02           	movel %d2,%sp@-
    3602:	202e 0008      	movel %fp@(8),%d0
    3606:	222e 000c      	movel %fp@(12),%d1
    360a:	2400           	movel %d0,%d2
    360c:	0882 001f      	bclr #31,%d2
    3610:	0c82 3fe9 21fb 	cmpil #1072243195,%d2
    3616:	636c           	blss 3684 <cos+0x88>
    3618:	0c82 7fef ffff 	cmpil #2146435071,%d2
    361e:	631a           	blss 363a <cos+0x3e>
    3620:	2f01           	movel %d1,%sp@-
    3622:	2f00           	movel %d0,%sp@-
    3624:	2f01           	movel %d1,%sp@-
    3626:	2f00           	movel %d0,%sp@-
    3628:	4eb9 0000 68d6 	jsr 68d6 <__subdf3>
    362e:	4fef 0010      	lea %sp@(16),%sp
    3632:	242e ffec      	movel %fp@(-20),%d2
    3636:	4e5e           	unlk %fp
    3638:	4e75           	rts
    363a:	486e fff0      	pea %fp@(-16)
    363e:	2f01           	movel %d1,%sp@-
    3640:	2f00           	movel %d0,%sp@-
    3642:	4eb9 0000 4434 	jsr 4434 <__ieee754_rem_pio2>
    3648:	7203           	moveq #3,%d1
    364a:	c081           	andl %d1,%d0
    364c:	4fef 000c      	lea %sp@(12),%sp
    3650:	7201           	moveq #1,%d1
    3652:	b280           	cmpl %d0,%d1
    3654:	6770           	beqs 36c6 <cos+0xca>
    3656:	7202           	moveq #2,%d1
    3658:	b280           	cmpl %d0,%d1
    365a:	6742           	beqs 369e <cos+0xa2>
    365c:	4a80           	tstl %d0
    365e:	6600 0092      	bnew 36f2 <cos+0xf6>
    3662:	2f2e fffc      	movel %fp@(-4),%sp@-
    3666:	2f2e fff8      	movel %fp@(-8),%sp@-
    366a:	2f2e fff4      	movel %fp@(-12),%sp@-
    366e:	2f2e fff0      	movel %fp@(-16),%sp@-
    3672:	4eb9 0000 5e74 	jsr 5e74 <__kernel_cos>
    3678:	4fef 0010      	lea %sp@(16),%sp
    367c:	242e ffec      	movel %fp@(-20),%d2
    3680:	4e5e           	unlk %fp
    3682:	4e75           	rts
    3684:	42a7           	clrl %sp@-
    3686:	42a7           	clrl %sp@-
    3688:	2f01           	movel %d1,%sp@-
    368a:	2f00           	movel %d0,%sp@-
    368c:	4eb9 0000 5e74 	jsr 5e74 <__kernel_cos>
    3692:	4fef 0010      	lea %sp@(16),%sp
    3696:	242e ffec      	movel %fp@(-20),%d2
    369a:	4e5e           	unlk %fp
    369c:	4e75           	rts
    369e:	2f2e fffc      	movel %fp@(-4),%sp@-
    36a2:	2f2e fff8      	movel %fp@(-8),%sp@-
    36a6:	2f2e fff4      	movel %fp@(-12),%sp@-
    36aa:	2f2e fff0      	movel %fp@(-16),%sp@-
    36ae:	4eb9 0000 5e74 	jsr 5e74 <__kernel_cos>
    36b4:	0680 8000 0000 	addil #-2147483648,%d0
    36ba:	4fef 0010      	lea %sp@(16),%sp
    36be:	242e ffec      	movel %fp@(-20),%d2
    36c2:	4e5e           	unlk %fp
    36c4:	4e75           	rts
    36c6:	4878 0001      	pea 1 <ADD>
    36ca:	2f2e fffc      	movel %fp@(-4),%sp@-
    36ce:	2f2e fff8      	movel %fp@(-8),%sp@-
    36d2:	2f2e fff4      	movel %fp@(-12),%sp@-
    36d6:	2f2e fff0      	movel %fp@(-16),%sp@-
    36da:	4eb9 0000 6270 	jsr 6270 <__kernel_sin>
    36e0:	0680 8000 0000 	addil #-2147483648,%d0
    36e6:	4fef 0014      	lea %sp@(20),%sp
    36ea:	242e ffec      	movel %fp@(-20),%d2
    36ee:	4e5e           	unlk %fp
    36f0:	4e75           	rts
    36f2:	4878 0001      	pea 1 <ADD>
    36f6:	2f2e fffc      	movel %fp@(-4),%sp@-
    36fa:	2f2e fff8      	movel %fp@(-8),%sp@-
    36fe:	2f2e fff4      	movel %fp@(-12),%sp@-
    3702:	2f2e fff0      	movel %fp@(-16),%sp@-
    3706:	4eb9 0000 6270 	jsr 6270 <__kernel_sin>
    370c:	4fef 0014      	lea %sp@(20),%sp
    3710:	242e ffec      	movel %fp@(-20),%d2
    3714:	4e5e           	unlk %fp
    3716:	4e75           	rts

00003718 <fabs>:
    3718:	2f02           	movel %d2,%sp@-
    371a:	242f 0008      	movel %sp@(8),%d2
    371e:	0882 001f      	bclr #31,%d2
    3722:	206f 000c      	moveal %sp@(12),%a0
    3726:	2002           	movel %d2,%d0
    3728:	2208           	movel %a0,%d1
    372a:	241f           	movel %sp@+,%d2
    372c:	4e75           	rts
	...

00003730 <finite>:
    3730:	202f 0004      	movel %sp@(4),%d0
    3734:	0880 001f      	bclr #31,%d0
    3738:	0680 8010 0000 	addil #-2146435072,%d0
    373e:	d080           	addl %d0,%d0
    3740:	9180           	subxl %d0,%d0
    3742:	4480           	negl %d0
    3744:	4e75           	rts
	...

00003748 <sin>:
    3748:	4e56 fff0      	linkw %fp,#-16
    374c:	2f02           	movel %d2,%sp@-
    374e:	202e 0008      	movel %fp@(8),%d0
    3752:	222e 000c      	movel %fp@(12),%d1
    3756:	2400           	movel %d0,%d2
    3758:	0882 001f      	bclr #31,%d2
    375c:	0c82 3fe9 21fb 	cmpil #1072243195,%d2
    3762:	6370           	blss 37d4 <sin+0x8c>
    3764:	0c82 7fef ffff 	cmpil #2146435071,%d2
    376a:	631a           	blss 3786 <sin+0x3e>
    376c:	2f01           	movel %d1,%sp@-
    376e:	2f00           	movel %d0,%sp@-
    3770:	2f01           	movel %d1,%sp@-
    3772:	2f00           	movel %d0,%sp@-
    3774:	4eb9 0000 68d6 	jsr 68d6 <__subdf3>
    377a:	4fef 0010      	lea %sp@(16),%sp
    377e:	242e ffec      	movel %fp@(-20),%d2
    3782:	4e5e           	unlk %fp
    3784:	4e75           	rts
    3786:	486e fff0      	pea %fp@(-16)
    378a:	2f01           	movel %d1,%sp@-
    378c:	2f00           	movel %d0,%sp@-
    378e:	4eb9 0000 4434 	jsr 4434 <__ieee754_rem_pio2>
    3794:	7203           	moveq #3,%d1
    3796:	c081           	andl %d1,%d0
    3798:	4fef 000c      	lea %sp@(12),%sp
    379c:	7201           	moveq #1,%d1
    379e:	b280           	cmpl %d0,%d1
    37a0:	677a           	beqs 381c <sin+0xd4>
    37a2:	7202           	moveq #2,%d1
    37a4:	b280           	cmpl %d0,%d1
    37a6:	6748           	beqs 37f0 <sin+0xa8>
    37a8:	4a80           	tstl %d0
    37aa:	6600 0092      	bnew 383e <sin+0xf6>
    37ae:	4878 0001      	pea 1 <ADD>
    37b2:	2f2e fffc      	movel %fp@(-4),%sp@-
    37b6:	2f2e fff8      	movel %fp@(-8),%sp@-
    37ba:	2f2e fff4      	movel %fp@(-12),%sp@-
    37be:	2f2e fff0      	movel %fp@(-16),%sp@-
    37c2:	4eb9 0000 6270 	jsr 6270 <__kernel_sin>
    37c8:	4fef 0014      	lea %sp@(20),%sp
    37cc:	242e ffec      	movel %fp@(-20),%d2
    37d0:	4e5e           	unlk %fp
    37d2:	4e75           	rts
    37d4:	42a7           	clrl %sp@-
    37d6:	42a7           	clrl %sp@-
    37d8:	42a7           	clrl %sp@-
    37da:	2f01           	movel %d1,%sp@-
    37dc:	2f00           	movel %d0,%sp@-
    37de:	4eb9 0000 6270 	jsr 6270 <__kernel_sin>
    37e4:	4fef 0014      	lea %sp@(20),%sp
    37e8:	242e ffec      	movel %fp@(-20),%d2
    37ec:	4e5e           	unlk %fp
    37ee:	4e75           	rts
    37f0:	4878 0001      	pea 1 <ADD>
    37f4:	2f2e fffc      	movel %fp@(-4),%sp@-
    37f8:	2f2e fff8      	movel %fp@(-8),%sp@-
    37fc:	2f2e fff4      	movel %fp@(-12),%sp@-
    3800:	2f2e fff0      	movel %fp@(-16),%sp@-
    3804:	4eb9 0000 6270 	jsr 6270 <__kernel_sin>
    380a:	0680 8000 0000 	addil #-2147483648,%d0
    3810:	4fef 0014      	lea %sp@(20),%sp
    3814:	242e ffec      	movel %fp@(-20),%d2
    3818:	4e5e           	unlk %fp
    381a:	4e75           	rts
    381c:	2f2e fffc      	movel %fp@(-4),%sp@-
    3820:	2f2e fff8      	movel %fp@(-8),%sp@-
    3824:	2f2e fff4      	movel %fp@(-12),%sp@-
    3828:	2f2e fff0      	movel %fp@(-16),%sp@-
    382c:	4eb9 0000 5e74 	jsr 5e74 <__kernel_cos>
    3832:	4fef 0010      	lea %sp@(16),%sp
    3836:	242e ffec      	movel %fp@(-20),%d2
    383a:	4e5e           	unlk %fp
    383c:	4e75           	rts
    383e:	2f2e fffc      	movel %fp@(-4),%sp@-
    3842:	2f2e fff8      	movel %fp@(-8),%sp@-
    3846:	2f2e fff4      	movel %fp@(-12),%sp@-
    384a:	2f2e fff0      	movel %fp@(-16),%sp@-
    384e:	4eb9 0000 5e74 	jsr 5e74 <__kernel_cos>
    3854:	0680 8000 0000 	addil #-2147483648,%d0
    385a:	4fef 0010      	lea %sp@(16),%sp
    385e:	242e ffec      	movel %fp@(-20),%d2
    3862:	4e5e           	unlk %fp
    3864:	4e75           	rts
	...

00003868 <__ieee754_exp>:
    3868:	4fef ffe8      	lea %sp@(-24),%sp
    386c:	48e7 3e3c      	moveml %d2-%d6/%a2-%a5,%sp@-
    3870:	242f 0040      	movel %sp@(64),%d2
    3874:	262f 0044      	movel %sp@(68),%d3
    3878:	2202           	movel %d2,%d1
    387a:	2802           	movel %d2,%d4
    387c:	d884           	addl %d4,%d4
    387e:	9984           	subxl %d4,%d4
    3880:	4484           	negl %d4
    3882:	2002           	movel %d2,%d0
    3884:	0880 001f      	bclr #31,%d0
    3888:	0c80 4086 2e41 	cmpil #1082535489,%d0
    388e:	632e           	blss 38be <__ieee754_exp+0x56>
    3890:	0c80 7fef ffff 	cmpil #2146435071,%d0
    3896:	6300 0096      	blsw 392e <__ieee754_exp+0xc6>
    389a:	0281 000f ffff 	andil #1048575,%d1
    38a0:	8283           	orl %d3,%d1
    38a2:	6600 04aa      	bnew 3d4e <__ieee754_exp+0x4e6>
    38a6:	4a84           	tstl %d4
    38a8:	6600 050e      	bnew 3db8 <__ieee754_exp+0x550>
    38ac:	2242           	moveal %d2,%a1
    38ae:	2043           	moveal %d3,%a0
    38b0:	2009           	movel %a1,%d0
    38b2:	2208           	movel %a0,%d1
    38b4:	4cdf 3c7c      	moveml %sp@+,%d2-%d6/%a2-%a5
    38b8:	4fef 0018      	lea %sp@(24),%sp
    38bc:	4e75           	rts
    38be:	0c80 3fd6 2e42 	cmpil #1071001154,%d0
    38c4:	6200 0426      	bhiw 3cec <__ieee754_exp+0x484>
    38c8:	49f9 0000 68dc 	lea 68dc <__adddf3>,%a4
    38ce:	0c80 3def ffff 	cmpil #1039138815,%d0
    38d4:	6200 02c8      	bhiw 3b9e <__ieee754_exp+0x336>
    38d8:	2f3c 8800 759c 	movel #-2013235812,%sp@-
    38de:	2f3c 7e37 e43c 	movel #2117592124,%sp@-
    38e4:	2f03           	movel %d3,%sp@-
    38e6:	2f02           	movel %d2,%sp@-
    38e8:	4e94           	jsr %a4@
    38ea:	4fef 0010      	lea %sp@(16),%sp
    38ee:	283c 3ff0 0000 	movel #1072693248,%d4
    38f4:	4285           	clrl %d5
    38f6:	2f05           	movel %d5,%sp@-
    38f8:	2f04           	movel %d4,%sp@-
    38fa:	2f01           	movel %d1,%sp@-
    38fc:	2f00           	movel %d0,%sp@-
    38fe:	4eb9 0000 72dc 	jsr 72dc <__gtdf2>
    3904:	4fef 0010      	lea %sp@(16),%sp
    3908:	4a80           	tstl %d0
    390a:	6f00 0292      	blew 3b9e <__ieee754_exp+0x336>
    390e:	2f05           	movel %d5,%sp@-
    3910:	2f04           	movel %d4,%sp@-
    3912:	2f03           	movel %d3,%sp@-
    3914:	2f02           	movel %d2,%sp@-
    3916:	4e94           	jsr %a4@
    3918:	4fef 0010      	lea %sp@(16),%sp
    391c:	2240           	moveal %d0,%a1
    391e:	2041           	moveal %d1,%a0
    3920:	2009           	movel %a1,%d0
    3922:	2208           	movel %a0,%d1
    3924:	4cdf 3c7c      	moveml %sp@+,%d2-%d6/%a2-%a5
    3928:	4fef 0018      	lea %sp@(24),%sp
    392c:	4e75           	rts
    392e:	2f3c fefa 39ef 	movel #-17155601,%sp@-
    3934:	2f3c 4086 2e42 	movel #1082535490,%sp@-
    393a:	2f03           	movel %d3,%sp@-
    393c:	2f02           	movel %d2,%sp@-
    393e:	4eb9 0000 72dc 	jsr 72dc <__gtdf2>
    3944:	4fef 0010      	lea %sp@(16),%sp
    3948:	4a80           	tstl %d0
    394a:	6e00 0426      	bgtw 3d72 <__ieee754_exp+0x50a>
    394e:	2f3c d52d 3051 	movel #-718458799,%sp@-
    3954:	2f3c c087 4910 	movel #-1064875760,%sp@-
    395a:	2f03           	movel %d3,%sp@-
    395c:	2f02           	movel %d2,%sp@-
    395e:	4eb9 0000 7324 	jsr 7324 <__ltdf2>
    3964:	4fef 0010      	lea %sp@(16),%sp
    3968:	4a80           	tstl %d0
    396a:	6d00 045e      	bltw 3dca <__ieee754_exp+0x562>
    396e:	e78c           	lsll #3,%d4
    3970:	45f9 0000 6c72 	lea 6c72 <__muldf3>,%a2
    3976:	2f3c 652b 82fe 	movel #1697350398,%sp@-
    397c:	2f3c 3ff7 1547 	movel #1073157447,%sp@-
    3982:	2f03           	movel %d3,%sp@-
    3984:	2f02           	movel %d2,%sp@-
    3986:	4e92           	jsr %a2@
    3988:	4fef 0010      	lea %sp@(16),%sp
    398c:	49f9 0000 68dc 	lea 68dc <__adddf3>,%a4
    3992:	41f9 0001 53a4 	lea 153a4 <halF>,%a0
    3998:	2f30 4804      	movel %a0@(4,%d4:l),%sp@-
    399c:	2f30 4800      	movel %a0@(0,%d4:l),%sp@-
    39a0:	2f01           	movel %d1,%sp@-
    39a2:	2f00           	movel %d0,%sp@-
    39a4:	4e94           	jsr %a4@
    39a6:	4fef 000c      	lea %sp@(12),%sp
    39aa:	2e81           	movel %d1,%sp@
    39ac:	2f00           	movel %d0,%sp@-
    39ae:	4eb9 0000 7772 	jsr 7772 <__fixdfsi>
    39b4:	508f           	addql #8,%sp
    39b6:	2c00           	movel %d0,%d6
    39b8:	2f00           	movel %d0,%sp@-
    39ba:	4eb9 0000 7528 	jsr 7528 <__floatsidf>
    39c0:	2800           	movel %d0,%d4
    39c2:	2a01           	movel %d1,%d5
    39c4:	2ebc fee0 0000 	movel #-18874368,%sp@
    39ca:	2f3c 3fe6 2e42 	movel #1072049730,%sp@-
    39d0:	2f01           	movel %d1,%sp@-
    39d2:	2f04           	movel %d4,%sp@-
    39d4:	4e92           	jsr %a2@
    39d6:	4fef 0010      	lea %sp@(16),%sp
    39da:	47f9 0000 68d6 	lea 68d6 <__subdf3>,%a3
    39e0:	2f01           	movel %d1,%sp@-
    39e2:	2f00           	movel %d0,%sp@-
    39e4:	2f03           	movel %d3,%sp@-
    39e6:	2f02           	movel %d2,%sp@-
    39e8:	4e93           	jsr %a3@
    39ea:	4fef 0010      	lea %sp@(16),%sp
    39ee:	2040           	moveal %d0,%a0
    39f0:	2241           	moveal %d1,%a1
    39f2:	2f48 0024      	movel %a0,%sp@(36)
    39f6:	2f49 0028      	movel %a1,%sp@(40)
    39fa:	2f3c 3579 3c76 	movel #897137782,%sp@-
    3a00:	2f3c 3dea 39ef 	movel #1038760431,%sp@-
    3a06:	2f05           	movel %d5,%sp@-
    3a08:	2f04           	movel %d4,%sp@-
    3a0a:	4e92           	jsr %a2@
    3a0c:	4fef 0010      	lea %sp@(16),%sp
    3a10:	2040           	moveal %d0,%a0
    3a12:	2241           	moveal %d1,%a1
    3a14:	2f48 002c      	movel %a0,%sp@(44)
    3a18:	2f49 0030      	movel %a1,%sp@(48)
    3a1c:	2f2f 0030      	movel %sp@(48),%sp@-
    3a20:	2f2f 0030      	movel %sp@(48),%sp@-
    3a24:	2f2f 0030      	movel %sp@(48),%sp@-
    3a28:	2f2f 0030      	movel %sp@(48),%sp@-
    3a2c:	4e93           	jsr %a3@
    3a2e:	4fef 0010      	lea %sp@(16),%sp
    3a32:	2400           	movel %d0,%d2
    3a34:	2601           	movel %d1,%d3
    3a36:	2f01           	movel %d1,%sp@-
    3a38:	2f02           	movel %d2,%sp@-
    3a3a:	2f01           	movel %d1,%sp@-
    3a3c:	2f02           	movel %d2,%sp@-
    3a3e:	4e92           	jsr %a2@
    3a40:	4fef 0010      	lea %sp@(16),%sp
    3a44:	2800           	movel %d0,%d4
    3a46:	2a01           	movel %d1,%d5
    3a48:	2f3c 72be a4d0 	movel #1925096656,%sp@-
    3a4e:	2f3c 3e66 3769 	movel #1046886249,%sp@-
    3a54:	2f01           	movel %d1,%sp@-
    3a56:	2f04           	movel %d4,%sp@-
    3a58:	4e92           	jsr %a2@
    3a5a:	4fef 000c      	lea %sp@(12),%sp
    3a5e:	2ebc c5d2 6bf1 	movel #-976065551,%sp@
    3a64:	2f3c 3ebb bd41 	movel #1052491073,%sp@-
    3a6a:	2f01           	movel %d1,%sp@-
    3a6c:	2f00           	movel %d0,%sp@-
    3a6e:	4e93           	jsr %a3@
    3a70:	4fef 000c      	lea %sp@(12),%sp
    3a74:	2e85           	movel %d5,%sp@
    3a76:	2f04           	movel %d4,%sp@-
    3a78:	2f01           	movel %d1,%sp@-
    3a7a:	2f00           	movel %d0,%sp@-
    3a7c:	4e92           	jsr %a2@
    3a7e:	4fef 000c      	lea %sp@(12),%sp
    3a82:	2ebc af25 de2c 	movel #-1356472788,%sp@
    3a88:	2f3c 3f11 566a 	movel #1058100842,%sp@-
    3a8e:	2f01           	movel %d1,%sp@-
    3a90:	2f00           	movel %d0,%sp@-
    3a92:	4e94           	jsr %a4@
    3a94:	4fef 000c      	lea %sp@(12),%sp
    3a98:	2e85           	movel %d5,%sp@
    3a9a:	2f04           	movel %d4,%sp@-
    3a9c:	2f01           	movel %d1,%sp@-
    3a9e:	2f00           	movel %d0,%sp@-
    3aa0:	4e92           	jsr %a2@
    3aa2:	4fef 000c      	lea %sp@(12),%sp
    3aa6:	2ebc 16be bd93 	movel #381599123,%sp@
    3aac:	2f3c 3f66 c16c 	movel #1063698796,%sp@-
    3ab2:	2f01           	movel %d1,%sp@-
    3ab4:	2f00           	movel %d0,%sp@-
    3ab6:	4e93           	jsr %a3@
    3ab8:	4fef 000c      	lea %sp@(12),%sp
    3abc:	2e85           	movel %d5,%sp@
    3abe:	2f04           	movel %d4,%sp@-
    3ac0:	2f01           	movel %d1,%sp@-
    3ac2:	2f00           	movel %d0,%sp@-
    3ac4:	4e92           	jsr %a2@
    3ac6:	4fef 000c      	lea %sp@(12),%sp
    3aca:	2ebc 5555 553e 	movel #1431655742,%sp@
    3ad0:	2f3c 3fc5 5555 	movel #1069897045,%sp@-
    3ad6:	2f01           	movel %d1,%sp@-
    3ad8:	2f00           	movel %d0,%sp@-
    3ada:	4e94           	jsr %a4@
    3adc:	4fef 000c      	lea %sp@(12),%sp
    3ae0:	2e85           	movel %d5,%sp@
    3ae2:	2f04           	movel %d4,%sp@-
    3ae4:	2f01           	movel %d1,%sp@-
    3ae6:	2f00           	movel %d0,%sp@-
    3ae8:	4e92           	jsr %a2@
    3aea:	4fef 000c      	lea %sp@(12),%sp
    3aee:	2e81           	movel %d1,%sp@
    3af0:	2f00           	movel %d0,%sp@-
    3af2:	2f03           	movel %d3,%sp@-
    3af4:	2f02           	movel %d2,%sp@-
    3af6:	4e93           	jsr %a3@
    3af8:	4fef 0010      	lea %sp@(16),%sp
    3afc:	2840           	moveal %d0,%a4
    3afe:	2a41           	moveal %d1,%a5
    3b00:	2f4c 0034      	movel %a4,%sp@(52)
    3b04:	2f4d 0038      	movel %a5,%sp@(56)
    3b08:	2f01           	movel %d1,%sp@-
    3b0a:	2f0c           	movel %a4,%sp@-
    3b0c:	2f03           	movel %d3,%sp@-
    3b0e:	2f02           	movel %d2,%sp@-
    3b10:	4e92           	jsr %a2@
    3b12:	4fef 0010      	lea %sp@(16),%sp
    3b16:	2800           	movel %d0,%d4
    3b18:	2a01           	movel %d1,%d5
    3b1a:	4a86           	tstl %d6
    3b1c:	6700 015e      	beqw 3c7c <__ieee754_exp+0x414>
    3b20:	2f0d           	movel %a5,%sp@-
    3b22:	2f0c           	movel %a4,%sp@-
    3b24:	42a7           	clrl %sp@-
    3b26:	2f3c 4000 0000 	movel #1073741824,%sp@-
    3b2c:	4e93           	jsr %a3@
    3b2e:	4fef 000c      	lea %sp@(12),%sp
    3b32:	2e81           	movel %d1,%sp@
    3b34:	2f00           	movel %d0,%sp@-
    3b36:	2f05           	movel %d5,%sp@-
    3b38:	2f04           	movel %d4,%sp@-
    3b3a:	4eb9 0000 6e20 	jsr 6e20 <__divdf3>
    3b40:	4fef 000c      	lea %sp@(12),%sp
    3b44:	2e81           	movel %d1,%sp@
    3b46:	2f00           	movel %d0,%sp@-
    3b48:	2f2f 0038      	movel %sp@(56),%sp@-
    3b4c:	2f2f 0038      	movel %sp@(56),%sp@-
    3b50:	4e93           	jsr %a3@
    3b52:	4fef 0010      	lea %sp@(16),%sp
    3b56:	2f2f 0028      	movel %sp@(40),%sp@-
    3b5a:	2f2f 0028      	movel %sp@(40),%sp@-
    3b5e:	2f01           	movel %d1,%sp@-
    3b60:	2f00           	movel %d0,%sp@-
    3b62:	4e93           	jsr %a3@
    3b64:	4fef 000c      	lea %sp@(12),%sp
    3b68:	2e81           	movel %d1,%sp@
    3b6a:	2f00           	movel %d0,%sp@-
    3b6c:	42a7           	clrl %sp@-
    3b6e:	2f3c 3ff0 0000 	movel #1072693248,%sp@-
    3b74:	4e93           	jsr %a3@
    3b76:	4fef 0010      	lea %sp@(16),%sp
    3b7a:	0c86 ffff fc03 	cmpil #-1021,%d6
    3b80:	6d00 0202      	bltw 3d84 <__ieee754_exp+0x51c>
    3b84:	e94e           	lslw #4,%d6
    3b86:	4846           	swap %d6
    3b88:	4246           	clrw %d6
    3b8a:	2246           	moveal %d6,%a1
    3b8c:	d3c0           	addal %d0,%a1
    3b8e:	2041           	moveal %d1,%a0
    3b90:	2009           	movel %a1,%d0
    3b92:	2208           	movel %a0,%d1
    3b94:	4cdf 3c7c      	moveml %sp@+,%d2-%d6/%a2-%a5
    3b98:	4fef 0018      	lea %sp@(24),%sp
    3b9c:	4e75           	rts
    3b9e:	45f9 0000 6c72 	lea 6c72 <__muldf3>,%a2
    3ba4:	2f03           	movel %d3,%sp@-
    3ba6:	2f02           	movel %d2,%sp@-
    3ba8:	2f03           	movel %d3,%sp@-
    3baa:	2f02           	movel %d2,%sp@-
    3bac:	4e92           	jsr %a2@
    3bae:	4fef 0010      	lea %sp@(16),%sp
    3bb2:	2800           	movel %d0,%d4
    3bb4:	2a01           	movel %d1,%d5
    3bb6:	2f3c 72be a4d0 	movel #1925096656,%sp@-
    3bbc:	2f3c 3e66 3769 	movel #1046886249,%sp@-
    3bc2:	2f01           	movel %d1,%sp@-
    3bc4:	2f04           	movel %d4,%sp@-
    3bc6:	4e92           	jsr %a2@
    3bc8:	4fef 0010      	lea %sp@(16),%sp
    3bcc:	47f9 0000 68d6 	lea 68d6 <__subdf3>,%a3
    3bd2:	2f3c c5d2 6bf1 	movel #-976065551,%sp@-
    3bd8:	2f3c 3ebb bd41 	movel #1052491073,%sp@-
    3bde:	2f01           	movel %d1,%sp@-
    3be0:	2f00           	movel %d0,%sp@-
    3be2:	4e93           	jsr %a3@
    3be4:	4fef 000c      	lea %sp@(12),%sp
    3be8:	2e85           	movel %d5,%sp@
    3bea:	2f04           	movel %d4,%sp@-
    3bec:	2f01           	movel %d1,%sp@-
    3bee:	2f00           	movel %d0,%sp@-
    3bf0:	4e92           	jsr %a2@
    3bf2:	4fef 000c      	lea %sp@(12),%sp
    3bf6:	2ebc af25 de2c 	movel #-1356472788,%sp@
    3bfc:	2f3c 3f11 566a 	movel #1058100842,%sp@-
    3c02:	2f01           	movel %d1,%sp@-
    3c04:	2f00           	movel %d0,%sp@-
    3c06:	4e94           	jsr %a4@
    3c08:	4fef 000c      	lea %sp@(12),%sp
    3c0c:	2e85           	movel %d5,%sp@
    3c0e:	2f04           	movel %d4,%sp@-
    3c10:	2f01           	movel %d1,%sp@-
    3c12:	2f00           	movel %d0,%sp@-
    3c14:	4e92           	jsr %a2@
    3c16:	4fef 000c      	lea %sp@(12),%sp
    3c1a:	2ebc 16be bd93 	movel #381599123,%sp@
    3c20:	2f3c 3f66 c16c 	movel #1063698796,%sp@-
    3c26:	2f01           	movel %d1,%sp@-
    3c28:	2f00           	movel %d0,%sp@-
    3c2a:	4e93           	jsr %a3@
    3c2c:	4fef 000c      	lea %sp@(12),%sp
    3c30:	2e85           	movel %d5,%sp@
    3c32:	2f04           	movel %d4,%sp@-
    3c34:	2f01           	movel %d1,%sp@-
    3c36:	2f00           	movel %d0,%sp@-
    3c38:	4e92           	jsr %a2@
    3c3a:	4fef 000c      	lea %sp@(12),%sp
    3c3e:	2ebc 5555 553e 	movel #1431655742,%sp@
    3c44:	2f3c 3fc5 5555 	movel #1069897045,%sp@-
    3c4a:	2f01           	movel %d1,%sp@-
    3c4c:	2f00           	movel %d0,%sp@-
    3c4e:	4e94           	jsr %a4@
    3c50:	4fef 000c      	lea %sp@(12),%sp
    3c54:	2e85           	movel %d5,%sp@
    3c56:	2f04           	movel %d4,%sp@-
    3c58:	2f01           	movel %d1,%sp@-
    3c5a:	2f00           	movel %d0,%sp@-
    3c5c:	4e92           	jsr %a2@
    3c5e:	4fef 000c      	lea %sp@(12),%sp
    3c62:	2e81           	movel %d1,%sp@
    3c64:	2f00           	movel %d0,%sp@-
    3c66:	2f03           	movel %d3,%sp@-
    3c68:	2f02           	movel %d2,%sp@-
    3c6a:	4e93           	jsr %a3@
    3c6c:	4fef 0010      	lea %sp@(16),%sp
    3c70:	2040           	moveal %d0,%a0
    3c72:	2241           	moveal %d1,%a1
    3c74:	2f48 0034      	movel %a0,%sp@(52)
    3c78:	2f49 0038      	movel %a1,%sp@(56)
    3c7c:	2f2f 0038      	movel %sp@(56),%sp@-
    3c80:	2f2f 0038      	movel %sp@(56),%sp@-
    3c84:	2f03           	movel %d3,%sp@-
    3c86:	2f02           	movel %d2,%sp@-
    3c88:	4e92           	jsr %a2@
    3c8a:	4fef 0010      	lea %sp@(16),%sp
    3c8e:	2800           	movel %d0,%d4
    3c90:	2a01           	movel %d1,%d5
    3c92:	42a7           	clrl %sp@-
    3c94:	2f3c 4000 0000 	movel #1073741824,%sp@-
    3c9a:	2f2f 0040      	movel %sp@(64),%sp@-
    3c9e:	2f2f 0040      	movel %sp@(64),%sp@-
    3ca2:	4e93           	jsr %a3@
    3ca4:	4fef 000c      	lea %sp@(12),%sp
    3ca8:	2e81           	movel %d1,%sp@
    3caa:	2f00           	movel %d0,%sp@-
    3cac:	2f05           	movel %d5,%sp@-
    3cae:	2f04           	movel %d4,%sp@-
    3cb0:	4eb9 0000 6e20 	jsr 6e20 <__divdf3>
    3cb6:	4fef 000c      	lea %sp@(12),%sp
    3cba:	2e83           	movel %d3,%sp@
    3cbc:	2f02           	movel %d2,%sp@-
    3cbe:	2f01           	movel %d1,%sp@-
    3cc0:	2f00           	movel %d0,%sp@-
    3cc2:	4e93           	jsr %a3@
    3cc4:	4fef 000c      	lea %sp@(12),%sp
    3cc8:	2e81           	movel %d1,%sp@
    3cca:	2f00           	movel %d0,%sp@-
    3ccc:	42a7           	clrl %sp@-
    3cce:	2f3c 3ff0 0000 	movel #1072693248,%sp@-
    3cd4:	4e93           	jsr %a3@
    3cd6:	4fef 0010      	lea %sp@(16),%sp
    3cda:	2240           	moveal %d0,%a1
    3cdc:	2041           	moveal %d1,%a0
    3cde:	2009           	movel %a1,%d0
    3ce0:	2208           	movel %a0,%d1
    3ce2:	4cdf 3c7c      	moveml %sp@+,%d2-%d6/%a2-%a5
    3ce6:	4fef 0018      	lea %sp@(24),%sp
    3cea:	4e75           	rts
    3cec:	0c80 3ff0 a2b1 	cmpil #1072734897,%d0
    3cf2:	6200 fc7a      	bhiw 396e <__ieee754_exp+0x106>
    3cf6:	2a04           	movel %d4,%d5
    3cf8:	e78d           	lsll #3,%d5
    3cfa:	47f9 0000 68d6 	lea 68d6 <__subdf3>,%a3
    3d00:	41f9 0001 5394 	lea 15394 <ln2HI>,%a0
    3d06:	2f30 5804      	movel %a0@(4,%d5:l),%sp@-
    3d0a:	2f30 5800      	movel %a0@(0,%d5:l),%sp@-
    3d0e:	2f03           	movel %d3,%sp@-
    3d10:	2f02           	movel %d2,%sp@-
    3d12:	4e93           	jsr %a3@
    3d14:	4fef 0010      	lea %sp@(16),%sp
    3d18:	2040           	moveal %d0,%a0
    3d1a:	2241           	moveal %d1,%a1
    3d1c:	2f48 0024      	movel %a0,%sp@(36)
    3d20:	2f49 0028      	movel %a1,%sp@(40)
    3d24:	41f9 0001 5384 	lea 15384 <ln2LO>,%a0
    3d2a:	2f70 5800 002c 	movel %a0@(0,%d5:l),%sp@(44)
    3d30:	2f70 5804 0030 	movel %a0@(4,%d5:l),%sp@(48)
    3d36:	2c04           	movel %d4,%d6
    3d38:	0a46 0001      	eoriw #1,%d6
    3d3c:	9c84           	subl %d4,%d6
    3d3e:	49f9 0000 68dc 	lea 68dc <__adddf3>,%a4
    3d44:	45f9 0000 6c72 	lea 6c72 <__muldf3>,%a2
    3d4a:	6000 fcd0      	braw 3a1c <__ieee754_exp+0x1b4>
    3d4e:	2f03           	movel %d3,%sp@-
    3d50:	2f02           	movel %d2,%sp@-
    3d52:	2f03           	movel %d3,%sp@-
    3d54:	2f02           	movel %d2,%sp@-
    3d56:	4eb9 0000 68dc 	jsr 68dc <__adddf3>
    3d5c:	4fef 0010      	lea %sp@(16),%sp
    3d60:	2240           	moveal %d0,%a1
    3d62:	2041           	moveal %d1,%a0
    3d64:	2009           	movel %a1,%d0
    3d66:	2208           	movel %a0,%d1
    3d68:	4cdf 3c7c      	moveml %sp@+,%d2-%d6/%a2-%a5
    3d6c:	4fef 0018      	lea %sp@(24),%sp
    3d70:	4e75           	rts
    3d72:	42af 0040      	clrl %sp@(64)
    3d76:	4cdf 3c7c      	moveml %sp@+,%d2-%d6/%a2-%a5
    3d7a:	4fef 0018      	lea %sp@(24),%sp
    3d7e:	4ef9 0000 500e 	jmp 500e <__math_oflow>
    3d84:	0686 0000 03e8 	addil #1000,%d6
    3d8a:	e94e           	lslw #4,%d6
    3d8c:	4846           	swap %d6
    3d8e:	4246           	clrw %d6
    3d90:	2046           	moveal %d6,%a0
    3d92:	d1c0           	addal %d0,%a0
    3d94:	42a7           	clrl %sp@-
    3d96:	2f3c 0170 0000 	movel #24117248,%sp@-
    3d9c:	2f01           	movel %d1,%sp@-
    3d9e:	2f08           	movel %a0,%sp@-
    3da0:	4e92           	jsr %a2@
    3da2:	4fef 0010      	lea %sp@(16),%sp
    3da6:	2240           	moveal %d0,%a1
    3da8:	2041           	moveal %d1,%a0
    3daa:	2009           	movel %a1,%d0
    3dac:	2208           	movel %a0,%d1
    3dae:	4cdf 3c7c      	moveml %sp@+,%d2-%d6/%a2-%a5
    3db2:	4fef 0018      	lea %sp@(24),%sp
    3db6:	4e75           	rts
    3db8:	93c9           	subal %a1,%a1
    3dba:	91c8           	subal %a0,%a0
    3dbc:	2009           	movel %a1,%d0
    3dbe:	2208           	movel %a0,%d1
    3dc0:	4cdf 3c7c      	moveml %sp@+,%d2-%d6/%a2-%a5
    3dc4:	4fef 0018      	lea %sp@(24),%sp
    3dc8:	4e75           	rts
    3dca:	42af 0040      	clrl %sp@(64)
    3dce:	4cdf 3c7c      	moveml %sp@+,%d2-%d6/%a2-%a5
    3dd2:	4fef 0018      	lea %sp@(24),%sp
    3dd6:	4ef9 0000 4fde 	jmp 4fde <__math_uflow>

00003ddc <nan>:
    3ddc:	203c 7fff ffff 	movel #2147483647,%d0
    3de2:	72ff           	moveq #-1,%d1
    3de4:	4e75           	rts
	...

00003de8 <__ieee754_log>:
    3de8:	4fef ffe4      	lea %sp@(-28),%sp
    3dec:	48e7 3f3e      	moveml %d2-%d7/%a2-%fp,%sp@-
    3df0:	202f 004c      	movel %sp@(76),%d0
    3df4:	222f 0050      	movel %sp@(80),%d1
    3df8:	2040           	moveal %d0,%a0
    3dfa:	2e00           	movel %d0,%d7
    3dfc:	b1fc 0010 0000 	cmpal #1048576,%a0
    3e02:	6c00 0132      	bgew 3f36 <__ieee754_log+0x14e>
    3e06:	2400           	movel %d0,%d2
    3e08:	0882 001f      	bclr #31,%d2
    3e0c:	8481           	orl %d1,%d2
    3e0e:	6700 0376      	beqw 4186 <__ieee754_log+0x39e>
    3e12:	b0fc 0000      	cmpaw #0,%a0
    3e16:	6d00 0454      	bltw 426c <__ieee754_log+0x484>
    3e1a:	42a7           	clrl %sp@-
    3e1c:	2f3c 4350 0000 	movel #1129316352,%sp@-
    3e22:	2f01           	movel %d1,%sp@-
    3e24:	2f00           	movel %d0,%sp@-
    3e26:	4eb9 0000 6c72 	jsr 6c72 <__muldf3>
    3e2c:	4fef 0010      	lea %sp@(16),%sp
    3e30:	2040           	moveal %d0,%a0
    3e32:	2241           	moveal %d1,%a1
    3e34:	2008           	movel %a0,%d0
    3e36:	2209           	movel %a1,%d1
    3e38:	2e00           	movel %d0,%d7
    3e3a:	307c ffca      	moveaw #-54,%a0
    3e3e:	0c87 7fef ffff 	cmpil #2146435071,%d7
    3e44:	6e00 00fc      	bgtw 3f42 <__ieee754_log+0x15a>
    3e48:	2007           	movel %d7,%d0
    3e4a:	4840           	swap %d0
    3e4c:	e840           	asrw #4,%d0
    3e4e:	48c0           	extl %d0
    3e50:	0680 ffff fc01 	addil #-1023,%d0
    3e56:	d088           	addl %a0,%d0
    3e58:	0287 000f ffff 	andil #1048575,%d7
    3e5e:	2c07           	movel %d7,%d6
    3e60:	0686 0009 5f64 	addil #614244,%d6
    3e66:	0286 0010 0000 	andil #1048576,%d6
    3e6c:	2806           	movel %d6,%d4
    3e6e:	0a84 3ff0 0000 	eoril #1072693248,%d4
    3e74:	2404           	movel %d4,%d2
    3e76:	8487           	orl %d7,%d2
    3e78:	4846           	swap %d6
    3e7a:	e846           	asrw #4,%d6
    3e7c:	48c6           	extl %d6
    3e7e:	dc80           	addl %d0,%d6
    3e80:	45f9 0000 68d6 	lea 68d6 <__subdf3>,%a2
    3e86:	42a7           	clrl %sp@-
    3e88:	2f3c 3ff0 0000 	movel #1072693248,%sp@-
    3e8e:	2f01           	movel %d1,%sp@-
    3e90:	2f02           	movel %d2,%sp@-
    3e92:	4e92           	jsr %a2@
    3e94:	4fef 0010      	lea %sp@(16),%sp
    3e98:	2400           	movel %d0,%d2
    3e9a:	2601           	movel %d1,%d3
    3e9c:	2007           	movel %d7,%d0
    3e9e:	5480           	addql #2,%d0
    3ea0:	0280 000f ffff 	andil #1048575,%d0
    3ea6:	7202           	moveq #2,%d1
    3ea8:	b280           	cmpl %d0,%d1
    3eaa:	6d00 00ba      	bltw 3f66 <__ieee754_log+0x17e>
    3eae:	4284           	clrl %d4
    3eb0:	4285           	clrl %d5
    3eb2:	2f05           	movel %d5,%sp@-
    3eb4:	2f04           	movel %d4,%sp@-
    3eb6:	2f03           	movel %d3,%sp@-
    3eb8:	2f02           	movel %d2,%sp@-
    3eba:	4eb9 0000 72b8 	jsr 72b8 <__eqdf2>
    3ec0:	4fef 0010      	lea %sp@(16),%sp
    3ec4:	4a80           	tstl %d0
    3ec6:	6600 02e6      	bnew 41ae <__ieee754_log+0x3c6>
    3eca:	4a86           	tstl %d6
    3ecc:	6700 04de      	beqw 43ac <__ieee754_log+0x5c4>
    3ed0:	2f06           	movel %d6,%sp@-
    3ed2:	4eb9 0000 7528 	jsr 7528 <__floatsidf>
    3ed8:	2800           	movel %d0,%d4
    3eda:	2a01           	movel %d1,%d5
    3edc:	45f9 0000 6c72 	lea 6c72 <__muldf3>,%a2
    3ee2:	2ebc fee0 0000 	movel #-18874368,%sp@
    3ee8:	2f3c 3fe6 2e42 	movel #1072049730,%sp@-
    3eee:	2f01           	movel %d1,%sp@-
    3ef0:	2f04           	movel %d4,%sp@-
    3ef2:	4e92           	jsr %a2@
    3ef4:	4fef 0010      	lea %sp@(16),%sp
    3ef8:	2400           	movel %d0,%d2
    3efa:	2601           	movel %d1,%d3
    3efc:	2f3c 3579 3c76 	movel #897137782,%sp@-
    3f02:	2f3c 3dea 39ef 	movel #1038760431,%sp@-
    3f08:	2f05           	movel %d5,%sp@-
    3f0a:	2f04           	movel %d4,%sp@-
    3f0c:	4e92           	jsr %a2@
    3f0e:	4fef 000c      	lea %sp@(12),%sp
    3f12:	2e81           	movel %d1,%sp@
    3f14:	2f00           	movel %d0,%sp@-
    3f16:	2f03           	movel %d3,%sp@-
    3f18:	2f02           	movel %d2,%sp@-
    3f1a:	4eb9 0000 68dc 	jsr 68dc <__adddf3>
    3f20:	4fef 0010      	lea %sp@(16),%sp
    3f24:	2240           	moveal %d0,%a1
    3f26:	2041           	moveal %d1,%a0
    3f28:	2009           	movel %a1,%d0
    3f2a:	2208           	movel %a0,%d1
    3f2c:	4cdf 7cfc      	moveml %sp@+,%d2-%d7/%a2-%fp
    3f30:	4fef 001c      	lea %sp@(28),%sp
    3f34:	4e75           	rts
    3f36:	91c8           	subal %a0,%a0
    3f38:	0c87 7fef ffff 	cmpil #2146435071,%d7
    3f3e:	6f00 ff08      	blew 3e48 <__ieee754_log+0x60>
    3f42:	2f01           	movel %d1,%sp@-
    3f44:	2f00           	movel %d0,%sp@-
    3f46:	2f01           	movel %d1,%sp@-
    3f48:	2f00           	movel %d0,%sp@-
    3f4a:	4eb9 0000 68dc 	jsr 68dc <__adddf3>
    3f50:	4fef 0010      	lea %sp@(16),%sp
    3f54:	2240           	moveal %d0,%a1
    3f56:	2041           	moveal %d1,%a0
    3f58:	2009           	movel %a1,%d0
    3f5a:	2208           	movel %a0,%d1
    3f5c:	4cdf 7cfc      	moveml %sp@+,%d2-%d7/%a2-%fp
    3f60:	4fef 001c      	lea %sp@(28),%sp
    3f64:	4e75           	rts
    3f66:	49f9 0000 68dc 	lea 68dc <__adddf3>,%a4
    3f6c:	42a7           	clrl %sp@-
    3f6e:	2f3c 4000 0000 	movel #1073741824,%sp@-
    3f74:	2f03           	movel %d3,%sp@-
    3f76:	2f02           	movel %d2,%sp@-
    3f78:	4e94           	jsr %a4@
    3f7a:	4fef 000c      	lea %sp@(12),%sp
    3f7e:	2e81           	movel %d1,%sp@
    3f80:	2f00           	movel %d0,%sp@-
    3f82:	2f03           	movel %d3,%sp@-
    3f84:	2f02           	movel %d2,%sp@-
    3f86:	4eb9 0000 6e20 	jsr 6e20 <__divdf3>
    3f8c:	4fef 0010      	lea %sp@(16),%sp
    3f90:	2040           	moveal %d0,%a0
    3f92:	2241           	moveal %d1,%a1
    3f94:	2a48           	moveal %a0,%a5
    3f96:	2c49           	moveal %a1,%fp
    3f98:	2f06           	movel %d6,%sp@-
    3f9a:	4eb9 0000 7528 	jsr 7528 <__floatsidf>
    3fa0:	2040           	moveal %d0,%a0
    3fa2:	2241           	moveal %d1,%a1
    3fa4:	2f48 0044      	movel %a0,%sp@(68)
    3fa8:	2f49 0048      	movel %a1,%sp@(72)
    3fac:	47f9 0000 6c72 	lea 6c72 <__muldf3>,%a3
    3fb2:	2e8e           	movel %fp,%sp@
    3fb4:	2f0d           	movel %a5,%sp@-
    3fb6:	2f0e           	movel %fp,%sp@-
    3fb8:	2f0d           	movel %a5,%sp@-
    3fba:	4e93           	jsr %a3@
    3fbc:	4fef 0010      	lea %sp@(16),%sp
    3fc0:	2040           	moveal %d0,%a0
    3fc2:	2007           	movel %d7,%d0
    3fc4:	0680 fff9 eb86 	addil #-398458,%d0
    3fca:	2f40 0034      	movel %d0,%sp@(52)
    3fce:	2f01           	movel %d1,%sp@-
    3fd0:	2f08           	movel %a0,%sp@-
    3fd2:	2f01           	movel %d1,%sp@-
    3fd4:	2f08           	movel %a0,%sp@-
    3fd6:	2f48 0040      	movel %a0,%sp@(64)
    3fda:	2f41 003c      	movel %d1,%sp@(60)
    3fde:	4e93           	jsr %a3@
    3fe0:	4fef 0010      	lea %sp@(16),%sp
    3fe4:	2800           	movel %d0,%d4
    3fe6:	2a01           	movel %d1,%d5
    3fe8:	2f3c df3e 5244 	movel #-549563836,%sp@-
    3fee:	2f3c 3fc2 f112 	movel #1069740306,%sp@-
    3ff4:	2f01           	movel %d1,%sp@-
    3ff6:	2f04           	movel %d4,%sp@-
    3ff8:	4e93           	jsr %a3@
    3ffa:	4fef 000c      	lea %sp@(12),%sp
    3ffe:	2ebc 96cb 03de 	movel #-1765080098,%sp@
    4004:	2f3c 3fc7 4664 	movel #1070024292,%sp@-
    400a:	2f01           	movel %d1,%sp@-
    400c:	2f00           	movel %d0,%sp@-
    400e:	4e94           	jsr %a4@
    4010:	4fef 000c      	lea %sp@(12),%sp
    4014:	2e85           	movel %d5,%sp@
    4016:	2f04           	movel %d4,%sp@-
    4018:	2f01           	movel %d1,%sp@-
    401a:	2f00           	movel %d0,%sp@-
    401c:	4e93           	jsr %a3@
    401e:	4fef 000c      	lea %sp@(12),%sp
    4022:	2ebc 9422 9359 	movel #-1809673383,%sp@
    4028:	2f3c 3fd2 4924 	movel #1070745892,%sp@-
    402e:	2f01           	movel %d1,%sp@-
    4030:	2f00           	movel %d0,%sp@-
    4032:	4e94           	jsr %a4@
    4034:	4fef 000c      	lea %sp@(12),%sp
    4038:	2e85           	movel %d5,%sp@
    403a:	2f04           	movel %d4,%sp@-
    403c:	2f01           	movel %d1,%sp@-
    403e:	2f00           	movel %d0,%sp@-
    4040:	4e93           	jsr %a3@
    4042:	4fef 000c      	lea %sp@(12),%sp
    4046:	2ebc 5555 5593 	movel #1431655827,%sp@
    404c:	2f3c 3fe5 5555 	movel #1071994197,%sp@-
    4052:	2f01           	movel %d1,%sp@-
    4054:	2f00           	movel %d0,%sp@-
    4056:	4e94           	jsr %a4@
    4058:	4fef 0010      	lea %sp@(16),%sp
    405c:	206f 0030      	moveal %sp@(48),%a0
    4060:	226f 002c      	moveal %sp@(44),%a1
    4064:	2f09           	movel %a1,%sp@-
    4066:	2f08           	movel %a0,%sp@-
    4068:	2f01           	movel %d1,%sp@-
    406a:	2f00           	movel %d0,%sp@-
    406c:	4e93           	jsr %a3@
    406e:	4fef 0010      	lea %sp@(16),%sp
    4072:	2040           	moveal %d0,%a0
    4074:	2241           	moveal %d1,%a1
    4076:	2f48 0038      	movel %a0,%sp@(56)
    407a:	2f49 003c      	movel %a1,%sp@(60)
    407e:	2f3c d078 c69f 	movel #-797391201,%sp@-
    4084:	2f3c 3fc3 9a09 	movel #1069783561,%sp@-
    408a:	2f05           	movel %d5,%sp@-
    408c:	2f04           	movel %d4,%sp@-
    408e:	4e93           	jsr %a3@
    4090:	4fef 000c      	lea %sp@(12),%sp
    4094:	2ebc 1d8e 78af 	movel #495876271,%sp@
    409a:	2f3c 3fcc 71c5 	movel #1070363077,%sp@-
    40a0:	2f01           	movel %d1,%sp@-
    40a2:	2f00           	movel %d0,%sp@-
    40a4:	4e94           	jsr %a4@
    40a6:	4fef 000c      	lea %sp@(12),%sp
    40aa:	2e85           	movel %d5,%sp@
    40ac:	2f04           	movel %d4,%sp@-
    40ae:	2f01           	movel %d1,%sp@-
    40b0:	2f00           	movel %d0,%sp@-
    40b2:	4e93           	jsr %a3@
    40b4:	4fef 000c      	lea %sp@(12),%sp
    40b8:	2ebc 9997 fa04 	movel #-1718093308,%sp@
    40be:	2f3c 3fd9 9999 	movel #1071225241,%sp@-
    40c4:	2f01           	movel %d1,%sp@-
    40c6:	2f00           	movel %d0,%sp@-
    40c8:	4e94           	jsr %a4@
    40ca:	4fef 000c      	lea %sp@(12),%sp
    40ce:	2e85           	movel %d5,%sp@
    40d0:	2f04           	movel %d4,%sp@-
    40d2:	2f01           	movel %d1,%sp@-
    40d4:	2f00           	movel %d0,%sp@-
    40d6:	4e93           	jsr %a3@
    40d8:	4fef 000c      	lea %sp@(12),%sp
    40dc:	2e81           	movel %d1,%sp@
    40de:	2f00           	movel %d0,%sp@-
    40e0:	2f2f 0044      	movel %sp@(68),%sp@-
    40e4:	2f2f 0044      	movel %sp@(68),%sp@-
    40e8:	4e94           	jsr %a4@
    40ea:	4fef 0010      	lea %sp@(16),%sp
    40ee:	2040           	moveal %d0,%a0
    40f0:	203c 0006 b851 	movel #440401,%d0
    40f6:	9087           	subl %d7,%d0
    40f8:	80af 0034      	orl %sp@(52),%d0
    40fc:	6f00 0128      	blew 4226 <__ieee754_log+0x43e>
    4100:	42a7           	clrl %sp@-
    4102:	2f3c 3fe0 0000 	movel #1071644672,%sp@-
    4108:	2f03           	movel %d3,%sp@-
    410a:	2f02           	movel %d2,%sp@-
    410c:	2f48 0040      	movel %a0,%sp@(64)
    4110:	2f41 003c      	movel %d1,%sp@(60)
    4114:	4e93           	jsr %a3@
    4116:	4fef 000c      	lea %sp@(12),%sp
    411a:	2e83           	movel %d3,%sp@
    411c:	2f02           	movel %d2,%sp@-
    411e:	2f01           	movel %d1,%sp@-
    4120:	2f00           	movel %d0,%sp@-
    4122:	4e93           	jsr %a3@
    4124:	4fef 0010      	lea %sp@(16),%sp
    4128:	2800           	movel %d0,%d4
    412a:	2a01           	movel %d1,%d5
    412c:	2f01           	movel %d1,%sp@-
    412e:	2f04           	movel %d4,%sp@-
    4130:	206f 0038      	moveal %sp@(56),%a0
    4134:	226f 0034      	moveal %sp@(52),%a1
    4138:	2f09           	movel %a1,%sp@-
    413a:	2f08           	movel %a0,%sp@-
    413c:	4e94           	jsr %a4@
    413e:	4fef 000c      	lea %sp@(12),%sp
    4142:	2e8e           	movel %fp,%sp@
    4144:	2f0d           	movel %a5,%sp@-
    4146:	2f01           	movel %d1,%sp@-
    4148:	2f00           	movel %d0,%sp@-
    414a:	4e93           	jsr %a3@
    414c:	4fef 0010      	lea %sp@(16),%sp
    4150:	2040           	moveal %d0,%a0
    4152:	4a86           	tstl %d6
    4154:	6600 014c      	bnew 42a2 <__ieee754_log+0x4ba>
    4158:	2f01           	movel %d1,%sp@-
    415a:	2f08           	movel %a0,%sp@-
    415c:	2f05           	movel %d5,%sp@-
    415e:	2f04           	movel %d4,%sp@-
    4160:	4e92           	jsr %a2@
    4162:	4fef 000c      	lea %sp@(12),%sp
    4166:	2e81           	movel %d1,%sp@
    4168:	2f00           	movel %d0,%sp@-
    416a:	2f03           	movel %d3,%sp@-
    416c:	2f02           	movel %d2,%sp@-
    416e:	4e92           	jsr %a2@
    4170:	4fef 0010      	lea %sp@(16),%sp
    4174:	2240           	moveal %d0,%a1
    4176:	2041           	moveal %d1,%a0
    4178:	2009           	movel %a1,%d0
    417a:	2208           	movel %a0,%d1
    417c:	4cdf 7cfc      	moveml %sp@+,%d2-%d7/%a2-%fp
    4180:	4fef 001c      	lea %sp@(28),%sp
    4184:	4e75           	rts
    4186:	42a7           	clrl %sp@-
    4188:	42a7           	clrl %sp@-
    418a:	42a7           	clrl %sp@-
    418c:	2f3c c350 0000 	movel #-1018167296,%sp@-
    4192:	4eb9 0000 6e20 	jsr 6e20 <__divdf3>
    4198:	4fef 0010      	lea %sp@(16),%sp
    419c:	2240           	moveal %d0,%a1
    419e:	2041           	moveal %d1,%a0
    41a0:	2009           	movel %a1,%d0
    41a2:	2208           	movel %a0,%d1
    41a4:	4cdf 7cfc      	moveml %sp@+,%d2-%d7/%a2-%fp
    41a8:	4fef 001c      	lea %sp@(28),%sp
    41ac:	4e75           	rts
    41ae:	47f9 0000 6c72 	lea 6c72 <__muldf3>,%a3
    41b4:	2f3c 5555 5555 	movel #1431655765,%sp@-
    41ba:	2f3c 3fd5 5555 	movel #1070945621,%sp@-
    41c0:	2f03           	movel %d3,%sp@-
    41c2:	2f02           	movel %d2,%sp@-
    41c4:	4e93           	jsr %a3@
    41c6:	4fef 000c      	lea %sp@(12),%sp
    41ca:	2e81           	movel %d1,%sp@
    41cc:	2f00           	movel %d0,%sp@-
    41ce:	42a7           	clrl %sp@-
    41d0:	2f3c 3fe0 0000 	movel #1071644672,%sp@-
    41d6:	4e92           	jsr %a2@
    41d8:	4fef 0010      	lea %sp@(16),%sp
    41dc:	2800           	movel %d0,%d4
    41de:	2a01           	movel %d1,%d5
    41e0:	2f03           	movel %d3,%sp@-
    41e2:	2f02           	movel %d2,%sp@-
    41e4:	2f03           	movel %d3,%sp@-
    41e6:	2f02           	movel %d2,%sp@-
    41e8:	4e93           	jsr %a3@
    41ea:	4fef 000c      	lea %sp@(12),%sp
    41ee:	2e81           	movel %d1,%sp@
    41f0:	2f00           	movel %d0,%sp@-
    41f2:	2f05           	movel %d5,%sp@-
    41f4:	2f04           	movel %d4,%sp@-
    41f6:	4e93           	jsr %a3@
    41f8:	4fef 0010      	lea %sp@(16),%sp
    41fc:	2840           	moveal %d0,%a4
    41fe:	2a41           	moveal %d1,%a5
    4200:	4a86           	tstl %d6
    4202:	6600 0130      	bnew 4334 <__ieee754_log+0x54c>
    4206:	2f01           	movel %d1,%sp@-
    4208:	2f0c           	movel %a4,%sp@-
    420a:	2f03           	movel %d3,%sp@-
    420c:	2f02           	movel %d2,%sp@-
    420e:	4e92           	jsr %a2@
    4210:	4fef 0010      	lea %sp@(16),%sp
    4214:	2240           	moveal %d0,%a1
    4216:	2041           	moveal %d1,%a0
    4218:	2009           	movel %a1,%d0
    421a:	2208           	movel %a0,%d1
    421c:	4cdf 7cfc      	moveml %sp@+,%d2-%d7/%a2-%fp
    4220:	4fef 001c      	lea %sp@(28),%sp
    4224:	4e75           	rts
    4226:	2f01           	movel %d1,%sp@-
    4228:	2f08           	movel %a0,%sp@-
    422a:	2f03           	movel %d3,%sp@-
    422c:	2f02           	movel %d2,%sp@-
    422e:	4e92           	jsr %a2@
    4230:	4fef 000c      	lea %sp@(12),%sp
    4234:	2e8e           	movel %fp,%sp@
    4236:	2f0d           	movel %a5,%sp@-
    4238:	2f01           	movel %d1,%sp@-
    423a:	2f00           	movel %d0,%sp@-
    423c:	4e93           	jsr %a3@
    423e:	4fef 0010      	lea %sp@(16),%sp
    4242:	2840           	moveal %d0,%a4
    4244:	2a41           	moveal %d1,%a5
    4246:	4a86           	tstl %d6
    4248:	6600 0174      	bnew 43be <__ieee754_log+0x5d6>
    424c:	2f01           	movel %d1,%sp@-
    424e:	2f0c           	movel %a4,%sp@-
    4250:	2f03           	movel %d3,%sp@-
    4252:	2f02           	movel %d2,%sp@-
    4254:	4e92           	jsr %a2@
    4256:	4fef 0010      	lea %sp@(16),%sp
    425a:	2240           	moveal %d0,%a1
    425c:	2041           	moveal %d1,%a0
    425e:	2009           	movel %a1,%d0
    4260:	2208           	movel %a0,%d1
    4262:	4cdf 7cfc      	moveml %sp@+,%d2-%d7/%a2-%fp
    4266:	4fef 001c      	lea %sp@(28),%sp
    426a:	4e75           	rts
    426c:	2f01           	movel %d1,%sp@-
    426e:	2f00           	movel %d0,%sp@-
    4270:	2f01           	movel %d1,%sp@-
    4272:	2f00           	movel %d0,%sp@-
    4274:	4eb9 0000 68d6 	jsr 68d6 <__subdf3>
    427a:	4fef 000c      	lea %sp@(12),%sp
    427e:	4297           	clrl %sp@
    4280:	42a7           	clrl %sp@-
    4282:	2f01           	movel %d1,%sp@-
    4284:	2f00           	movel %d0,%sp@-
    4286:	4eb9 0000 6e20 	jsr 6e20 <__divdf3>
    428c:	4fef 0010      	lea %sp@(16),%sp
    4290:	2240           	moveal %d0,%a1
    4292:	2041           	moveal %d1,%a0
    4294:	2009           	movel %a1,%d0
    4296:	2208           	movel %a0,%d1
    4298:	4cdf 7cfc      	moveml %sp@+,%d2-%d7/%a2-%fp
    429c:	4fef 001c      	lea %sp@(28),%sp
    42a0:	4e75           	rts
    42a2:	2f3c fee0 0000 	movel #-18874368,%sp@-
    42a8:	2f3c 3fe6 2e42 	movel #1072049730,%sp@-
    42ae:	2f2f 004c      	movel %sp@(76),%sp@-
    42b2:	2f2f 004c      	movel %sp@(76),%sp@-
    42b6:	2f48 0040      	movel %a0,%sp@(64)
    42ba:	2f41 003c      	movel %d1,%sp@(60)
    42be:	4e93           	jsr %a3@
    42c0:	4fef 0010      	lea %sp@(16),%sp
    42c4:	2c00           	movel %d0,%d6
    42c6:	2e01           	movel %d1,%d7
    42c8:	2f3c 3579 3c76 	movel #897137782,%sp@-
    42ce:	2f3c 3dea 39ef 	movel #1038760431,%sp@-
    42d4:	2f2f 004c      	movel %sp@(76),%sp@-
    42d8:	2f2f 004c      	movel %sp@(76),%sp@-
    42dc:	4e93           	jsr %a3@
    42de:	4fef 0010      	lea %sp@(16),%sp
    42e2:	206f 0030      	moveal %sp@(48),%a0
    42e6:	226f 002c      	moveal %sp@(44),%a1
    42ea:	2f09           	movel %a1,%sp@-
    42ec:	2f08           	movel %a0,%sp@-
    42ee:	2f01           	movel %d1,%sp@-
    42f0:	2f00           	movel %d0,%sp@-
    42f2:	4e94           	jsr %a4@
    42f4:	4fef 000c      	lea %sp@(12),%sp
    42f8:	2e81           	movel %d1,%sp@
    42fa:	2f00           	movel %d0,%sp@-
    42fc:	2f05           	movel %d5,%sp@-
    42fe:	2f04           	movel %d4,%sp@-
    4300:	4e92           	jsr %a2@
    4302:	4fef 000c      	lea %sp@(12),%sp
    4306:	2e83           	movel %d3,%sp@
    4308:	2f02           	movel %d2,%sp@-
    430a:	2f01           	movel %d1,%sp@-
    430c:	2f00           	movel %d0,%sp@-
    430e:	4e92           	jsr %a2@
    4310:	4fef 000c      	lea %sp@(12),%sp
    4314:	2e81           	movel %d1,%sp@
    4316:	2f00           	movel %d0,%sp@-
    4318:	2f07           	movel %d7,%sp@-
    431a:	2f06           	movel %d6,%sp@-
    431c:	4e92           	jsr %a2@
    431e:	4fef 0010      	lea %sp@(16),%sp
    4322:	2240           	moveal %d0,%a1
    4324:	2041           	moveal %d1,%a0
    4326:	2009           	movel %a1,%d0
    4328:	2208           	movel %a0,%d1
    432a:	4cdf 7cfc      	moveml %sp@+,%d2-%d7/%a2-%fp
    432e:	4fef 001c      	lea %sp@(28),%sp
    4332:	4e75           	rts
    4334:	2f06           	movel %d6,%sp@-
    4336:	4eb9 0000 7528 	jsr 7528 <__floatsidf>
    433c:	2800           	movel %d0,%d4
    433e:	2a01           	movel %d1,%d5
    4340:	2ebc fee0 0000 	movel #-18874368,%sp@
    4346:	2f3c 3fe6 2e42 	movel #1072049730,%sp@-
    434c:	2f01           	movel %d1,%sp@-
    434e:	2f04           	movel %d4,%sp@-
    4350:	4e93           	jsr %a3@
    4352:	4fef 0010      	lea %sp@(16),%sp
    4356:	2c00           	movel %d0,%d6
    4358:	2e01           	movel %d1,%d7
    435a:	2f3c 3579 3c76 	movel #897137782,%sp@-
    4360:	2f3c 3dea 39ef 	movel #1038760431,%sp@-
    4366:	2f05           	movel %d5,%sp@-
    4368:	2f04           	movel %d4,%sp@-
    436a:	4e93           	jsr %a3@
    436c:	4fef 000c      	lea %sp@(12),%sp
    4370:	2e81           	movel %d1,%sp@
    4372:	2f00           	movel %d0,%sp@-
    4374:	2f0d           	movel %a5,%sp@-
    4376:	2f0c           	movel %a4,%sp@-
    4378:	4e92           	jsr %a2@
    437a:	4fef 000c      	lea %sp@(12),%sp
    437e:	2e83           	movel %d3,%sp@
    4380:	2f02           	movel %d2,%sp@-
    4382:	2f01           	movel %d1,%sp@-
    4384:	2f00           	movel %d0,%sp@-
    4386:	4e92           	jsr %a2@
    4388:	4fef 000c      	lea %sp@(12),%sp
    438c:	2e81           	movel %d1,%sp@
    438e:	2f00           	movel %d0,%sp@-
    4390:	2f07           	movel %d7,%sp@-
    4392:	2f06           	movel %d6,%sp@-
    4394:	4e92           	jsr %a2@
    4396:	4fef 0010      	lea %sp@(16),%sp
    439a:	2240           	moveal %d0,%a1
    439c:	2041           	moveal %d1,%a0
    439e:	2009           	movel %a1,%d0
    43a0:	2208           	movel %a0,%d1
    43a2:	4cdf 7cfc      	moveml %sp@+,%d2-%d7/%a2-%fp
    43a6:	4fef 001c      	lea %sp@(28),%sp
    43aa:	4e75           	rts
    43ac:	2244           	moveal %d4,%a1
    43ae:	2045           	moveal %d5,%a0
    43b0:	2009           	movel %a1,%d0
    43b2:	2208           	movel %a0,%d1
    43b4:	4cdf 7cfc      	moveml %sp@+,%d2-%d7/%a2-%fp
    43b8:	4fef 001c      	lea %sp@(28),%sp
    43bc:	4e75           	rts
    43be:	2f3c fee0 0000 	movel #-18874368,%sp@-
    43c4:	2f3c 3fe6 2e42 	movel #1072049730,%sp@-
    43ca:	2f2f 004c      	movel %sp@(76),%sp@-
    43ce:	2f2f 004c      	movel %sp@(76),%sp@-
    43d2:	4e93           	jsr %a3@
    43d4:	4fef 0010      	lea %sp@(16),%sp
    43d8:	2800           	movel %d0,%d4
    43da:	2a01           	movel %d1,%d5
    43dc:	2f3c 3579 3c76 	movel #897137782,%sp@-
    43e2:	2f3c 3dea 39ef 	movel #1038760431,%sp@-
    43e8:	2f2f 004c      	movel %sp@(76),%sp@-
    43ec:	2f2f 004c      	movel %sp@(76),%sp@-
    43f0:	4e93           	jsr %a3@
    43f2:	4fef 000c      	lea %sp@(12),%sp
    43f6:	2e81           	movel %d1,%sp@
    43f8:	2f00           	movel %d0,%sp@-
    43fa:	2f0d           	movel %a5,%sp@-
    43fc:	2f0c           	movel %a4,%sp@-
    43fe:	4e92           	jsr %a2@
    4400:	4fef 000c      	lea %sp@(12),%sp
    4404:	2e83           	movel %d3,%sp@
    4406:	2f02           	movel %d2,%sp@-
    4408:	2f01           	movel %d1,%sp@-
    440a:	2f00           	movel %d0,%sp@-
    440c:	4e92           	jsr %a2@
    440e:	4fef 000c      	lea %sp@(12),%sp
    4412:	2e81           	movel %d1,%sp@
    4414:	2f00           	movel %d0,%sp@-
    4416:	2f05           	movel %d5,%sp@-
    4418:	2f04           	movel %d4,%sp@-
    441a:	4e92           	jsr %a2@
    441c:	4fef 0010      	lea %sp@(16),%sp
    4420:	2240           	moveal %d0,%a1
    4422:	2041           	moveal %d1,%a0
    4424:	2009           	movel %a1,%d0
    4426:	2208           	movel %a0,%d1
    4428:	4cdf 7cfc      	moveml %sp@+,%d2-%d7/%a2-%fp
    442c:	4fef 001c      	lea %sp@(28),%sp
    4430:	4e75           	rts
	...

00004434 <__ieee754_rem_pio2>:
    4434:	4e56 ffc8      	linkw %fp,#-56
    4438:	48e7 3f3c      	moveml %d2-%d7/%a2-%a5,%sp@-
    443c:	202e 0008      	movel %fp@(8),%d0
    4440:	222e 000c      	movel %fp@(12),%d1
    4444:	246e 0010      	moveal %fp@(16),%a2
    4448:	2040           	moveal %d0,%a0
    444a:	2e00           	movel %d0,%d7
    444c:	0887 001f      	bclr #31,%d7
    4450:	0c87 3fe9 21fb 	cmpil #1072243195,%d7
    4456:	6300 01f4      	blsw 464c <__ieee754_rem_pio2+0x218>
    445a:	2600           	movel %d0,%d3
    445c:	0c87 4002 d97b 	cmpil #1073928571,%d7
    4462:	6200 0092      	bhiw 44f6 <__ieee754_rem_pio2+0xc2>
    4466:	b0fc 0000      	cmpaw #0,%a0
    446a:	6f00 062c      	blew 4a98 <__ieee754_rem_pio2+0x664>
    446e:	47f9 0000 68d6 	lea 68d6 <__subdf3>,%a3
    4474:	2f3c 5440 0000 	movel #1413480448,%sp@-
    447a:	2f3c 3ff9 21fb 	movel #1073291771,%sp@-
    4480:	2f01           	movel %d1,%sp@-
    4482:	2f00           	movel %d0,%sp@-
    4484:	4e93           	jsr %a3@
    4486:	4fef 0010      	lea %sp@(16),%sp
    448a:	2400           	movel %d0,%d2
    448c:	2601           	movel %d1,%d3
    448e:	0c87 3ff9 21fb 	cmpil #1073291771,%d7
    4494:	6700 01fa      	beqw 4690 <__ieee754_rem_pio2+0x25c>
    4498:	2f3c 1a62 6331 	movel #442655537,%sp@-
    449e:	2f3c 3dd0 b461 	movel #1037087841,%sp@-
    44a4:	2f01           	movel %d1,%sp@-
    44a6:	2f02           	movel %d2,%sp@-
    44a8:	4e93           	jsr %a3@
    44aa:	4fef 0010      	lea %sp@(16),%sp
    44ae:	2800           	movel %d0,%d4
    44b0:	2a01           	movel %d1,%d5
    44b2:	2f01           	movel %d1,%sp@-
    44b4:	2f04           	movel %d4,%sp@-
    44b6:	2f03           	movel %d3,%sp@-
    44b8:	2f02           	movel %d2,%sp@-
    44ba:	4e93           	jsr %a3@
    44bc:	4fef 000c      	lea %sp@(12),%sp
    44c0:	2ebc 1a62 6331 	movel #442655537,%sp@
    44c6:	2f3c 3dd0 b461 	movel #1037087841,%sp@-
    44cc:	2f01           	movel %d1,%sp@-
    44ce:	2f00           	movel %d0,%sp@-
    44d0:	4e93           	jsr %a3@
    44d2:	4fef 0010      	lea %sp@(16),%sp
    44d6:	2484           	movel %d4,%a2@
    44d8:	2545 0004      	movel %d5,%a2@(4)
    44dc:	2040           	moveal %d0,%a0
    44de:	2241           	moveal %d1,%a1
    44e0:	2548 0008      	movel %a0,%a2@(8)
    44e4:	2549 000c      	movel %a1,%a2@(12)
    44e8:	7401           	moveq #1,%d2
    44ea:	2002           	movel %d2,%d0
    44ec:	4cee 3cfc ffa0 	moveml %fp@(-96),%d2-%d7/%a2-%a5
    44f2:	4e5e           	unlk %fp
    44f4:	4e75           	rts
    44f6:	0c87 4139 21fb 	cmpil #1094263291,%d7
    44fc:	6300 0202      	blsw 4700 <__ieee754_rem_pio2+0x2cc>
    4500:	0c87 7fef ffff 	cmpil #2146435071,%d7
    4506:	6200 0160      	bhiw 4668 <__ieee754_rem_pio2+0x234>
    450a:	2c07           	movel %d7,%d6
    450c:	4846           	swap %d6
    450e:	e846           	asrw #4,%d6
    4510:	48c6           	extl %d6
    4512:	0686 ffff fbea 	addil #-1046,%d6
    4518:	2006           	movel %d6,%d0
    451a:	e948           	lslw #4,%d0
    451c:	4840           	swap %d0
    451e:	4240           	clrw %d0
    4520:	2807           	movel %d7,%d4
    4522:	9880           	subl %d0,%d4
    4524:	2a01           	movel %d1,%d5
    4526:	4bf9 0000 7772 	lea 7772 <__fixdfsi>,%a5
    452c:	2f01           	movel %d1,%sp@-
    452e:	2f04           	movel %d4,%sp@-
    4530:	4e95           	jsr %a5@
    4532:	508f           	addql #8,%sp
    4534:	49f9 0000 7528 	lea 7528 <__floatsidf>,%a4
    453a:	2f00           	movel %d0,%sp@-
    453c:	4e94           	jsr %a4@
    453e:	2040           	moveal %d0,%a0
    4540:	2241           	moveal %d1,%a1
    4542:	2d48 ffe8      	movel %a0,%fp@(-24)
    4546:	2d49 ffec      	movel %a1,%fp@(-20)
    454a:	47f9 0000 68d6 	lea 68d6 <__subdf3>,%a3
    4550:	2e81           	movel %d1,%sp@
    4552:	2f08           	movel %a0,%sp@-
    4554:	2f05           	movel %d5,%sp@-
    4556:	2f04           	movel %d4,%sp@-
    4558:	4e93           	jsr %a3@
    455a:	4fef 000c      	lea %sp@(12),%sp
    455e:	4297           	clrl %sp@
    4560:	2f3c 4170 0000 	movel #1097859072,%sp@-
    4566:	2f01           	movel %d1,%sp@-
    4568:	2f00           	movel %d0,%sp@-
    456a:	4eb9 0000 6c72 	jsr 6c72 <__muldf3>
    4570:	4fef 0010      	lea %sp@(16),%sp
    4574:	2800           	movel %d0,%d4
    4576:	2a01           	movel %d1,%d5
    4578:	2f01           	movel %d1,%sp@-
    457a:	2f04           	movel %d4,%sp@-
    457c:	4e95           	jsr %a5@
    457e:	588f           	addql #4,%sp
    4580:	2e80           	movel %d0,%sp@
    4582:	4e94           	jsr %a4@
    4584:	2040           	moveal %d0,%a0
    4586:	2241           	moveal %d1,%a1
    4588:	2d48 fff0      	movel %a0,%fp@(-16)
    458c:	2d49 fff4      	movel %a1,%fp@(-12)
    4590:	2e81           	movel %d1,%sp@
    4592:	2f08           	movel %a0,%sp@-
    4594:	2f05           	movel %d5,%sp@-
    4596:	2f04           	movel %d4,%sp@-
    4598:	4e93           	jsr %a3@
    459a:	4fef 000c      	lea %sp@(12),%sp
    459e:	4297           	clrl %sp@
    45a0:	2f3c 4170 0000 	movel #1097859072,%sp@-
    45a6:	2f01           	movel %d1,%sp@-
    45a8:	2f00           	movel %d0,%sp@-
    45aa:	4eb9 0000 6c72 	jsr 6c72 <__muldf3>
    45b0:	4fef 0010      	lea %sp@(16),%sp
    45b4:	2d40 fff8      	movel %d0,%fp@(-8)
    45b8:	2d41 fffc      	movel %d1,%fp@(-4)
    45bc:	47ee fff8      	lea %fp@(-8),%a3
    45c0:	7403           	moveq #3,%d2
    45c2:	49f9 0000 72b8 	lea 72b8 <__eqdf2>,%a4
    45c8:	4284           	clrl %d4
    45ca:	4285           	clrl %d5
    45cc:	2e02           	movel %d2,%d7
    45ce:	5382           	subql #1,%d2
    45d0:	518b           	subql #8,%a3
    45d2:	2f05           	movel %d5,%sp@-
    45d4:	2f04           	movel %d4,%sp@-
    45d6:	2f2b 000c      	movel %a3@(12),%sp@-
    45da:	2f2b 0008      	movel %a3@(8),%sp@-
    45de:	4e94           	jsr %a4@
    45e0:	4fef 0010      	lea %sp@(16),%sp
    45e4:	4a80           	tstl %d0
    45e6:	67e4           	beqs 45cc <__ieee754_rem_pio2+0x198>
    45e8:	4879 0001 5434 	pea 15434 <two_over_pi>
    45ee:	4878 0002      	pea 2 <DOUBLE_FLOAT>
    45f2:	2f07           	movel %d7,%sp@-
    45f4:	2f06           	movel %d6,%sp@-
    45f6:	2f0a           	movel %a2,%sp@-
    45f8:	486e ffe8      	pea %fp@(-24)
    45fc:	4eb9 0000 51cc 	jsr 51cc <__kernel_rem_pio2>
    4602:	2400           	movel %d0,%d2
    4604:	4fef 0018      	lea %sp@(24),%sp
    4608:	4a83           	tstl %d3
    460a:	6c00 fede      	bgew 44ea <__ieee754_rem_pio2+0xb6>
    460e:	2252           	moveal %a2@,%a1
    4610:	d3fc 8000 0000 	addal #-2147483648,%a1
    4616:	206a 0004      	moveal %a2@(4),%a0
    461a:	2009           	movel %a1,%d0
    461c:	2208           	movel %a0,%d1
    461e:	2480           	movel %d0,%a2@
    4620:	2541 0004      	movel %d1,%a2@(4)
    4624:	226a 0008      	moveal %a2@(8),%a1
    4628:	d3fc 8000 0000 	addal #-2147483648,%a1
    462e:	206a 000c      	moveal %a2@(12),%a0
    4632:	2009           	movel %a1,%d0
    4634:	2208           	movel %a0,%d1
    4636:	2540 0008      	movel %d0,%a2@(8)
    463a:	2541 000c      	movel %d1,%a2@(12)
    463e:	4482           	negl %d2
    4640:	2002           	movel %d2,%d0
    4642:	4cee 3cfc ffa0 	moveml %fp@(-96),%d2-%d7/%a2-%a5
    4648:	4e5e           	unlk %fp
    464a:	4e75           	rts
    464c:	2480           	movel %d0,%a2@
    464e:	2541 0004      	movel %d1,%a2@(4)
    4652:	42aa 0008      	clrl %a2@(8)
    4656:	42aa 000c      	clrl %a2@(12)
    465a:	7400           	moveq #0,%d2
    465c:	2002           	movel %d2,%d0
    465e:	4cee 3cfc ffa0 	moveml %fp@(-96),%d2-%d7/%a2-%a5
    4664:	4e5e           	unlk %fp
    4666:	4e75           	rts
    4668:	2f01           	movel %d1,%sp@-
    466a:	2f00           	movel %d0,%sp@-
    466c:	2f01           	movel %d1,%sp@-
    466e:	2f00           	movel %d0,%sp@-
    4670:	4eb9 0000 68d6 	jsr 68d6 <__subdf3>
    4676:	4fef 0010      	lea %sp@(16),%sp
    467a:	2040           	moveal %d0,%a0
    467c:	2241           	moveal %d1,%a1
    467e:	2548 0008      	movel %a0,%a2@(8)
    4682:	2549 000c      	movel %a1,%a2@(12)
    4686:	2488           	movel %a0,%a2@
    4688:	2549 0004      	movel %a1,%a2@(4)
    468c:	7400           	moveq #0,%d2
    468e:	60cc           	bras 465c <__ieee754_rem_pio2+0x228>
    4690:	2f3c 1a60 0000 	movel #442499072,%sp@-
    4696:	2f3c 3dd0 b461 	movel #1037087841,%sp@-
    469c:	2f01           	movel %d1,%sp@-
    469e:	2f02           	movel %d2,%sp@-
    46a0:	4e93           	jsr %a3@
    46a2:	4fef 0010      	lea %sp@(16),%sp
    46a6:	2400           	movel %d0,%d2
    46a8:	2601           	movel %d1,%d3
    46aa:	2f3c 2e03 7073 	movel #771977331,%sp@-
    46b0:	2f3c 3ba3 198a 	movel #1000544650,%sp@-
    46b6:	2f01           	movel %d1,%sp@-
    46b8:	2f02           	movel %d2,%sp@-
    46ba:	4e93           	jsr %a3@
    46bc:	4fef 0010      	lea %sp@(16),%sp
    46c0:	2800           	movel %d0,%d4
    46c2:	2a01           	movel %d1,%d5
    46c4:	2f01           	movel %d1,%sp@-
    46c6:	2f04           	movel %d4,%sp@-
    46c8:	2f03           	movel %d3,%sp@-
    46ca:	2f02           	movel %d2,%sp@-
    46cc:	4e93           	jsr %a3@
    46ce:	4fef 000c      	lea %sp@(12),%sp
    46d2:	2ebc 2e03 7073 	movel #771977331,%sp@
    46d8:	2f3c 3ba3 198a 	movel #1000544650,%sp@-
    46de:	2f01           	movel %d1,%sp@-
    46e0:	2f00           	movel %d0,%sp@-
    46e2:	4e93           	jsr %a3@
    46e4:	4fef 0010      	lea %sp@(16),%sp
    46e8:	2484           	movel %d4,%a2@
    46ea:	2545 0004      	movel %d5,%a2@(4)
    46ee:	2040           	moveal %d0,%a0
    46f0:	2241           	moveal %d1,%a1
    46f2:	2548 0008      	movel %a0,%a2@(8)
    46f6:	2549 000c      	movel %a1,%a2@(12)
    46fa:	7401           	moveq #1,%d2
    46fc:	6000 fdec      	braw 44ea <__ieee754_rem_pio2+0xb6>
    4700:	2f01           	movel %d1,%sp@-
    4702:	2f00           	movel %d0,%sp@-
    4704:	4eb9 0000 3718 	jsr 3718 <fabs>
    470a:	2800           	movel %d0,%d4
    470c:	2a01           	movel %d1,%d5
    470e:	49f9 0000 6c72 	lea 6c72 <__muldf3>,%a4
    4714:	2f3c 6dc9 c883 	movel #1841940611,%sp@-
    471a:	2f3c 3fe4 5f30 	movel #1071931184,%sp@-
    4720:	2f01           	movel %d1,%sp@-
    4722:	2f04           	movel %d4,%sp@-
    4724:	4e94           	jsr %a4@
    4726:	4fef 000c      	lea %sp@(12),%sp
    472a:	4297           	clrl %sp@
    472c:	2f3c 3fe0 0000 	movel #1071644672,%sp@-
    4732:	2f01           	movel %d1,%sp@-
    4734:	2f00           	movel %d0,%sp@-
    4736:	4eb9 0000 68dc 	jsr 68dc <__adddf3>
    473c:	4fef 000c      	lea %sp@(12),%sp
    4740:	2e81           	movel %d1,%sp@
    4742:	2f00           	movel %d0,%sp@-
    4744:	4eb9 0000 7772 	jsr 7772 <__fixdfsi>
    474a:	508f           	addql #8,%sp
    474c:	2400           	movel %d0,%d2
    474e:	2f00           	movel %d0,%sp@-
    4750:	4eb9 0000 7528 	jsr 7528 <__floatsidf>
    4756:	2040           	moveal %d0,%a0
    4758:	2241           	moveal %d1,%a1
    475a:	2d48 ffd8      	movel %a0,%fp@(-40)
    475e:	2d49 ffdc      	movel %a1,%fp@(-36)
    4762:	2ebc 5440 0000 	movel #1413480448,%sp@
    4768:	2f3c 3ff9 21fb 	movel #1073291771,%sp@-
    476e:	2f01           	movel %d1,%sp@-
    4770:	2f08           	movel %a0,%sp@-
    4772:	4e94           	jsr %a4@
    4774:	4fef 0010      	lea %sp@(16),%sp
    4778:	47f9 0000 68d6 	lea 68d6 <__subdf3>,%a3
    477e:	2f01           	movel %d1,%sp@-
    4780:	2f00           	movel %d0,%sp@-
    4782:	2f05           	movel %d5,%sp@-
    4784:	2f04           	movel %d4,%sp@-
    4786:	4e93           	jsr %a3@
    4788:	4fef 0010      	lea %sp@(16),%sp
    478c:	2040           	moveal %d0,%a0
    478e:	2241           	moveal %d1,%a1
    4790:	2d48 ffc8      	movel %a0,%fp@(-56)
    4794:	2d49 ffcc      	movel %a1,%fp@(-52)
    4798:	2f3c 1a62 6331 	movel #442655537,%sp@-
    479e:	2f3c 3dd0 b461 	movel #1037087841,%sp@-
    47a4:	2f2e ffdc      	movel %fp@(-36),%sp@-
    47a8:	2f2e ffd8      	movel %fp@(-40),%sp@-
    47ac:	4e94           	jsr %a4@
    47ae:	2040           	moveal %d0,%a0
    47b0:	2241           	moveal %d1,%a1
    47b2:	2d48 ffd0      	movel %a0,%fp@(-48)
    47b6:	2d49 ffd4      	movel %a1,%fp@(-44)
    47ba:	4fef 0018      	lea %sp@(24),%sp
    47be:	701f           	moveq #31,%d0
    47c0:	b082           	cmpl %d2,%d0
    47c2:	6d00 009a      	bltw 485e <__ieee754_rem_pio2+0x42a>
    47c6:	41f9 0001 53b4 	lea 153b4 <npio2_hw>,%a0
    47cc:	2002           	movel %d2,%d0
    47ce:	5380           	subql #1,%d0
    47d0:	d080           	addl %d0,%d0
    47d2:	d080           	addl %d0,%d0
    47d4:	beb0 0800      	cmpl %a0@(0,%d0:l),%d7
    47d8:	6700 0084      	beqw 485e <__ieee754_rem_pio2+0x42a>
    47dc:	2f2e ffd4      	movel %fp@(-44),%sp@-
    47e0:	2f2e ffd0      	movel %fp@(-48),%sp@-
    47e4:	2f2e ffcc      	movel %fp@(-52),%sp@-
    47e8:	2f2e ffc8      	movel %fp@(-56),%sp@-
    47ec:	4e93           	jsr %a3@
    47ee:	4fef 0010      	lea %sp@(16),%sp
    47f2:	2800           	movel %d0,%d4
    47f4:	2a01           	movel %d1,%d5
    47f6:	2484           	movel %d4,%a2@
    47f8:	2545 0004      	movel %d5,%a2@(4)
    47fc:	2f05           	movel %d5,%sp@-
    47fe:	2f04           	movel %d4,%sp@-
    4800:	2f2e ffcc      	movel %fp@(-52),%sp@-
    4804:	2f2e ffc8      	movel %fp@(-56),%sp@-
    4808:	4e93           	jsr %a3@
    480a:	4fef 000c      	lea %sp@(12),%sp
    480e:	2eae ffd4      	movel %fp@(-44),%sp@
    4812:	2f2e ffd0      	movel %fp@(-48),%sp@-
    4816:	2f01           	movel %d1,%sp@-
    4818:	2f00           	movel %d0,%sp@-
    481a:	4e93           	jsr %a3@
    481c:	4fef 0010      	lea %sp@(16),%sp
    4820:	2e00           	movel %d0,%d7
    4822:	2047           	moveal %d7,%a0
    4824:	2241           	moveal %d1,%a1
    4826:	2548 0008      	movel %a0,%a2@(8)
    482a:	2549 000c      	movel %a1,%a2@(12)
    482e:	4a83           	tstl %d3
    4830:	6c00 fcb8      	bgew 44ea <__ieee754_rem_pio2+0xb6>
    4834:	2604           	movel %d4,%d3
    4836:	0683 8000 0000 	addil #-2147483648,%d3
    483c:	2483           	movel %d3,%a2@
    483e:	2545 0004      	movel %d5,%a2@(4)
    4842:	0680 8000 0000 	addil #-2147483648,%d0
    4848:	2540 0008      	movel %d0,%a2@(8)
    484c:	2541 000c      	movel %d1,%a2@(12)
    4850:	4482           	negl %d2
    4852:	2002           	movel %d2,%d0
    4854:	4cee 3cfc ffa0 	moveml %fp@(-96),%d2-%d7/%a2-%a5
    485a:	4e5e           	unlk %fp
    485c:	4e75           	rts
    485e:	2f2e ffd4      	movel %fp@(-44),%sp@-
    4862:	2f2e ffd0      	movel %fp@(-48),%sp@-
    4866:	2f2e ffcc      	movel %fp@(-52),%sp@-
    486a:	2f2e ffc8      	movel %fp@(-56),%sp@-
    486e:	4e93           	jsr %a3@
    4870:	4fef 0010      	lea %sp@(16),%sp
    4874:	2800           	movel %d0,%d4
    4876:	2a01           	movel %d1,%d5
    4878:	2c07           	movel %d7,%d6
    487a:	4846           	swap %d6
    487c:	e846           	asrw #4,%d6
    487e:	48c6           	extl %d6
    4880:	2004           	movel %d4,%d0
    4882:	4240           	clrw %d0
    4884:	4840           	swap %d0
    4886:	e848           	lsrw #4,%d0
    4888:	0280 0000 07ff 	andil #2047,%d0
    488e:	2206           	movel %d6,%d1
    4890:	9280           	subl %d0,%d1
    4892:	7010           	moveq #16,%d0
    4894:	b081           	cmpl %d1,%d0
    4896:	6c00 ff5e      	bgew 47f6 <__ieee754_rem_pio2+0x3c2>
    489a:	2f3c 1a60 0000 	movel #442499072,%sp@-
    48a0:	2f3c 3dd0 b461 	movel #1037087841,%sp@-
    48a6:	2f2e ffdc      	movel %fp@(-36),%sp@-
    48aa:	2f2e ffd8      	movel %fp@(-40),%sp@-
    48ae:	4e94           	jsr %a4@
    48b0:	4fef 0010      	lea %sp@(16),%sp
    48b4:	2800           	movel %d0,%d4
    48b6:	2a01           	movel %d1,%d5
    48b8:	2f01           	movel %d1,%sp@-
    48ba:	2f04           	movel %d4,%sp@-
    48bc:	2f2e ffcc      	movel %fp@(-52),%sp@-
    48c0:	2f2e ffc8      	movel %fp@(-56),%sp@-
    48c4:	4e93           	jsr %a3@
    48c6:	4fef 0010      	lea %sp@(16),%sp
    48ca:	2040           	moveal %d0,%a0
    48cc:	2241           	moveal %d1,%a1
    48ce:	2d48 ffe0      	movel %a0,%fp@(-32)
    48d2:	2d49 ffe4      	movel %a1,%fp@(-28)
    48d6:	2f01           	movel %d1,%sp@-
    48d8:	2f08           	movel %a0,%sp@-
    48da:	2f2e ffcc      	movel %fp@(-52),%sp@-
    48de:	2f2e ffc8      	movel %fp@(-56),%sp@-
    48e2:	4e93           	jsr %a3@
    48e4:	4fef 000c      	lea %sp@(12),%sp
    48e8:	2e85           	movel %d5,%sp@
    48ea:	2f04           	movel %d4,%sp@-
    48ec:	2f01           	movel %d1,%sp@-
    48ee:	2f00           	movel %d0,%sp@-
    48f0:	4e93           	jsr %a3@
    48f2:	4fef 0010      	lea %sp@(16),%sp
    48f6:	2800           	movel %d0,%d4
    48f8:	2a01           	movel %d1,%d5
    48fa:	2f3c 2e03 7073 	movel #771977331,%sp@-
    4900:	2f3c 3ba3 198a 	movel #1000544650,%sp@-
    4906:	2f2e ffdc      	movel %fp@(-36),%sp@-
    490a:	2f2e ffd8      	movel %fp@(-40),%sp@-
    490e:	4e94           	jsr %a4@
    4910:	4fef 000c      	lea %sp@(12),%sp
    4914:	2e85           	movel %d5,%sp@
    4916:	2f04           	movel %d4,%sp@-
    4918:	2f01           	movel %d1,%sp@-
    491a:	2f00           	movel %d0,%sp@-
    491c:	4e93           	jsr %a3@
    491e:	4fef 0010      	lea %sp@(16),%sp
    4922:	2040           	moveal %d0,%a0
    4924:	2241           	moveal %d1,%a1
    4926:	2d48 ffd0      	movel %a0,%fp@(-48)
    492a:	2d49 ffd4      	movel %a1,%fp@(-44)
    492e:	2f01           	movel %d1,%sp@-
    4930:	2f08           	movel %a0,%sp@-
    4932:	2f2e ffe4      	movel %fp@(-28),%sp@-
    4936:	2f2e ffe0      	movel %fp@(-32),%sp@-
    493a:	4e93           	jsr %a3@
    493c:	4fef 0010      	lea %sp@(16),%sp
    4940:	2800           	movel %d0,%d4
    4942:	2a01           	movel %d1,%d5
    4944:	2004           	movel %d4,%d0
    4946:	4240           	clrw %d0
    4948:	4840           	swap %d0
    494a:	e848           	lsrw #4,%d0
    494c:	0280 0000 07ff 	andil #2047,%d0
    4952:	2206           	movel %d6,%d1
    4954:	9280           	subl %d0,%d1
    4956:	7031           	moveq #49,%d0
    4958:	b081           	cmpl %d1,%d0
    495a:	6c00 00ee      	bgew 4a4a <__ieee754_rem_pio2+0x616>
    495e:	2f3c 2e00 0000 	movel #771751936,%sp@-
    4964:	2f3c 3ba3 198a 	movel #1000544650,%sp@-
    496a:	2f2e ffdc      	movel %fp@(-36),%sp@-
    496e:	2f2e ffd8      	movel %fp@(-40),%sp@-
    4972:	4e94           	jsr %a4@
    4974:	4fef 0010      	lea %sp@(16),%sp
    4978:	2800           	movel %d0,%d4
    497a:	2a01           	movel %d1,%d5
    497c:	2f01           	movel %d1,%sp@-
    497e:	2f04           	movel %d4,%sp@-
    4980:	2f2e ffe4      	movel %fp@(-28),%sp@-
    4984:	2f2e ffe0      	movel %fp@(-32),%sp@-
    4988:	4e93           	jsr %a3@
    498a:	4fef 0010      	lea %sp@(16),%sp
    498e:	2040           	moveal %d0,%a0
    4990:	2241           	moveal %d1,%a1
    4992:	2d48 ffc8      	movel %a0,%fp@(-56)
    4996:	2d49 ffcc      	movel %a1,%fp@(-52)
    499a:	2f01           	movel %d1,%sp@-
    499c:	2f08           	movel %a0,%sp@-
    499e:	2f2e ffe4      	movel %fp@(-28),%sp@-
    49a2:	2f2e ffe0      	movel %fp@(-32),%sp@-
    49a6:	4e93           	jsr %a3@
    49a8:	4fef 000c      	lea %sp@(12),%sp
    49ac:	2e85           	movel %d5,%sp@
    49ae:	2f04           	movel %d4,%sp@-
    49b0:	2f01           	movel %d1,%sp@-
    49b2:	2f00           	movel %d0,%sp@-
    49b4:	4e93           	jsr %a3@
    49b6:	4fef 0010      	lea %sp@(16),%sp
    49ba:	2800           	movel %d0,%d4
    49bc:	2a01           	movel %d1,%d5
    49be:	2f3c 2520 49c1 	movel #622873025,%sp@-
    49c4:	2f3c 397b 839a 	movel #964395930,%sp@-
    49ca:	2f2e ffdc      	movel %fp@(-36),%sp@-
    49ce:	2f2e ffd8      	movel %fp@(-40),%sp@-
    49d2:	4e94           	jsr %a4@
    49d4:	4fef 000c      	lea %sp@(12),%sp
    49d8:	2e85           	movel %d5,%sp@
    49da:	2f04           	movel %d4,%sp@-
    49dc:	2f01           	movel %d1,%sp@-
    49de:	2f00           	movel %d0,%sp@-
    49e0:	4e93           	jsr %a3@
    49e2:	4fef 0010      	lea %sp@(16),%sp
    49e6:	2040           	moveal %d0,%a0
    49e8:	2241           	moveal %d1,%a1
    49ea:	2d48 ffd0      	movel %a0,%fp@(-48)
    49ee:	2d49 ffd4      	movel %a1,%fp@(-44)
    49f2:	2f01           	movel %d1,%sp@-
    49f4:	2f08           	movel %a0,%sp@-
    49f6:	2f2e ffcc      	movel %fp@(-52),%sp@-
    49fa:	2f2e ffc8      	movel %fp@(-56),%sp@-
    49fe:	4e93           	jsr %a3@
    4a00:	4fef 0010      	lea %sp@(16),%sp
    4a04:	2800           	movel %d0,%d4
    4a06:	2a01           	movel %d1,%d5
    4a08:	2484           	movel %d4,%a2@
    4a0a:	2545 0004      	movel %d5,%a2@(4)
    4a0e:	2f05           	movel %d5,%sp@-
    4a10:	2f04           	movel %d4,%sp@-
    4a12:	2f2e ffcc      	movel %fp@(-52),%sp@-
    4a16:	2f2e ffc8      	movel %fp@(-56),%sp@-
    4a1a:	4e93           	jsr %a3@
    4a1c:	4fef 000c      	lea %sp@(12),%sp
    4a20:	2eae ffd4      	movel %fp@(-44),%sp@
    4a24:	2f2e ffd0      	movel %fp@(-48),%sp@-
    4a28:	2f01           	movel %d1,%sp@-
    4a2a:	2f00           	movel %d0,%sp@-
    4a2c:	4e93           	jsr %a3@
    4a2e:	4fef 0010      	lea %sp@(16),%sp
    4a32:	2e00           	movel %d0,%d7
    4a34:	2047           	moveal %d7,%a0
    4a36:	2241           	moveal %d1,%a1
    4a38:	2548 0008      	movel %a0,%a2@(8)
    4a3c:	2549 000c      	movel %a1,%a2@(12)
    4a40:	4a83           	tstl %d3
    4a42:	6c00 faa6      	bgew 44ea <__ieee754_rem_pio2+0xb6>
    4a46:	6000 fdec      	braw 4834 <__ieee754_rem_pio2+0x400>
    4a4a:	2d6e ffe0 ffc8 	movel %fp@(-32),%fp@(-56)
    4a50:	2d6e ffe4 ffcc 	movel %fp@(-28),%fp@(-52)
    4a56:	2484           	movel %d4,%a2@
    4a58:	2545 0004      	movel %d5,%a2@(4)
    4a5c:	2f05           	movel %d5,%sp@-
    4a5e:	2f04           	movel %d4,%sp@-
    4a60:	2f2e ffcc      	movel %fp@(-52),%sp@-
    4a64:	2f2e ffc8      	movel %fp@(-56),%sp@-
    4a68:	4e93           	jsr %a3@
    4a6a:	4fef 000c      	lea %sp@(12),%sp
    4a6e:	2eae ffd4      	movel %fp@(-44),%sp@
    4a72:	2f2e ffd0      	movel %fp@(-48),%sp@-
    4a76:	2f01           	movel %d1,%sp@-
    4a78:	2f00           	movel %d0,%sp@-
    4a7a:	4e93           	jsr %a3@
    4a7c:	4fef 0010      	lea %sp@(16),%sp
    4a80:	2e00           	movel %d0,%d7
    4a82:	2047           	moveal %d7,%a0
    4a84:	2241           	moveal %d1,%a1
    4a86:	2548 0008      	movel %a0,%a2@(8)
    4a8a:	2549 000c      	movel %a1,%a2@(12)
    4a8e:	4a83           	tstl %d3
    4a90:	6c00 fa58      	bgew 44ea <__ieee754_rem_pio2+0xb6>
    4a94:	6000 fd9e      	braw 4834 <__ieee754_rem_pio2+0x400>
    4a98:	47f9 0000 68dc 	lea 68dc <__adddf3>,%a3
    4a9e:	2f3c 5440 0000 	movel #1413480448,%sp@-
    4aa4:	2f3c 3ff9 21fb 	movel #1073291771,%sp@-
    4aaa:	2f01           	movel %d1,%sp@-
    4aac:	2f00           	movel %d0,%sp@-
    4aae:	4e93           	jsr %a3@
    4ab0:	4fef 0010      	lea %sp@(16),%sp
    4ab4:	2400           	movel %d0,%d2
    4ab6:	2601           	movel %d1,%d3
    4ab8:	0c87 3ff9 21fb 	cmpil #1073291771,%d7
    4abe:	6762           	beqs 4b22 <__ieee754_rem_pio2+0x6ee>
    4ac0:	2f3c 1a62 6331 	movel #442655537,%sp@-
    4ac6:	2f3c 3dd0 b461 	movel #1037087841,%sp@-
    4acc:	2f01           	movel %d1,%sp@-
    4ace:	2f02           	movel %d2,%sp@-
    4ad0:	4e93           	jsr %a3@
    4ad2:	4fef 0010      	lea %sp@(16),%sp
    4ad6:	2800           	movel %d0,%d4
    4ad8:	2a01           	movel %d1,%d5
    4ada:	2f01           	movel %d1,%sp@-
    4adc:	2f04           	movel %d4,%sp@-
    4ade:	2f03           	movel %d3,%sp@-
    4ae0:	2f02           	movel %d2,%sp@-
    4ae2:	4eb9 0000 68d6 	jsr 68d6 <__subdf3>
    4ae8:	4fef 000c      	lea %sp@(12),%sp
    4aec:	2ebc 1a62 6331 	movel #442655537,%sp@
    4af2:	2f3c 3dd0 b461 	movel #1037087841,%sp@-
    4af8:	2f01           	movel %d1,%sp@-
    4afa:	2f00           	movel %d0,%sp@-
    4afc:	4e93           	jsr %a3@
    4afe:	4fef 0010      	lea %sp@(16),%sp
    4b02:	2484           	movel %d4,%a2@
    4b04:	2545 0004      	movel %d5,%a2@(4)
    4b08:	2040           	moveal %d0,%a0
    4b0a:	2241           	moveal %d1,%a1
    4b0c:	2548 0008      	movel %a0,%a2@(8)
    4b10:	2549 000c      	movel %a1,%a2@(12)
    4b14:	74ff           	moveq #-1,%d2
    4b16:	2002           	movel %d2,%d0
    4b18:	4cee 3cfc ffa0 	moveml %fp@(-96),%d2-%d7/%a2-%a5
    4b1e:	4e5e           	unlk %fp
    4b20:	4e75           	rts
    4b22:	2f3c 1a60 0000 	movel #442499072,%sp@-
    4b28:	2f3c 3dd0 b461 	movel #1037087841,%sp@-
    4b2e:	2f01           	movel %d1,%sp@-
    4b30:	2f02           	movel %d2,%sp@-
    4b32:	4e93           	jsr %a3@
    4b34:	4fef 0010      	lea %sp@(16),%sp
    4b38:	2400           	movel %d0,%d2
    4b3a:	2601           	movel %d1,%d3
    4b3c:	2f3c 2e03 7073 	movel #771977331,%sp@-
    4b42:	2f3c 3ba3 198a 	movel #1000544650,%sp@-
    4b48:	2f01           	movel %d1,%sp@-
    4b4a:	2f02           	movel %d2,%sp@-
    4b4c:	4e93           	jsr %a3@
    4b4e:	4fef 0010      	lea %sp@(16),%sp
    4b52:	2800           	movel %d0,%d4
    4b54:	2a01           	movel %d1,%d5
    4b56:	2f01           	movel %d1,%sp@-
    4b58:	2f04           	movel %d4,%sp@-
    4b5a:	2f03           	movel %d3,%sp@-
    4b5c:	2f02           	movel %d2,%sp@-
    4b5e:	4eb9 0000 68d6 	jsr 68d6 <__subdf3>
    4b64:	4fef 000c      	lea %sp@(12),%sp
    4b68:	2ebc 2e03 7073 	movel #771977331,%sp@
    4b6e:	2f3c 3ba3 198a 	movel #1000544650,%sp@-
    4b74:	2f01           	movel %d1,%sp@-
    4b76:	2f00           	movel %d0,%sp@-
    4b78:	4e93           	jsr %a3@
    4b7a:	4fef 0010      	lea %sp@(16),%sp
    4b7e:	2484           	movel %d4,%a2@
    4b80:	2545 0004      	movel %d5,%a2@(4)
    4b84:	2040           	moveal %d0,%a0
    4b86:	2241           	moveal %d1,%a1
    4b88:	2548 0008      	movel %a0,%a2@(8)
    4b8c:	2549 000c      	movel %a1,%a2@(12)
    4b90:	74ff           	moveq #-1,%d2
    4b92:	6082           	bras 4b16 <__ieee754_rem_pio2+0x6e2>

00004b94 <__ieee754_sqrt>:
    4b94:	48e7 3f20      	moveml %d2-%d7/%a2,%sp@-
    4b98:	242f 0020      	movel %sp@(32),%d2
    4b9c:	262f 0024      	movel %sp@(36),%d3
    4ba0:	2002           	movel %d2,%d0
    4ba2:	2042           	moveal %d2,%a0
    4ba4:	2203           	movel %d3,%d1
    4ba6:	2802           	movel %d2,%d4
    4ba8:	0284 7ff0 0000 	andil #2146435072,%d4
    4bae:	0c84 7ff0 0000 	cmpil #2146435072,%d4
    4bb4:	6700 02ac      	beqw 4e62 <__ieee754_sqrt+0x2ce>
    4bb8:	2802           	movel %d2,%d4
    4bba:	4a80           	tstl %d0
    4bbc:	6f00 0196      	blew 4d54 <__ieee754_sqrt+0x1c0>
    4bc0:	4844           	swap %d4
    4bc2:	e844           	asrw #4,%d4
    4bc4:	48c4           	extl %d4
    4bc6:	4a84           	tstl %d4
    4bc8:	6700 02cc      	beqw 4e96 <__ieee754_sqrt+0x302>
    4bcc:	2a04           	movel %d4,%d5
    4bce:	0685 ffff fc01 	addil #-1023,%d5
    4bd4:	2408           	movel %a0,%d2
    4bd6:	0282 000f ffff 	andil #1048575,%d2
    4bdc:	08c2 0014      	bset #20,%d2
    4be0:	0804 0000      	btst #0,%d4
    4be4:	660e           	bnes 4bf4 <__ieee754_sqrt+0x60>
    4be6:	d482           	addl %d2,%d2
    4be8:	2001           	movel %d1,%d0
    4bea:	d080           	addl %d0,%d0
    4bec:	9180           	subxl %d0,%d0
    4bee:	4480           	negl %d0
    4bf0:	d480           	addl %d0,%d2
    4bf2:	d281           	addl %d1,%d1
    4bf4:	e285           	asrl #1,%d5
    4bf6:	2001           	movel %d1,%d0
    4bf8:	d080           	addl %d0,%d0
    4bfa:	9180           	subxl %d0,%d0
    4bfc:	4480           	negl %d0
    4bfe:	d482           	addl %d2,%d2
    4c00:	d082           	addl %d2,%d0
    4c02:	d281           	addl %d1,%d1
    4c04:	327c 0016      	moveaw #22,%a1
    4c08:	7800           	moveq #0,%d4
    4c0a:	91c8           	subal %a0,%a0
    4c0c:	7420           	moveq #32,%d2
    4c0e:	4842           	swap %d2
    4c10:	2608           	movel %a0,%d3
    4c12:	d682           	addl %d2,%d3
    4c14:	b083           	cmpl %d3,%d0
    4c16:	6d08           	blts 4c20 <__ieee754_sqrt+0x8c>
    4c18:	2043           	moveal %d3,%a0
    4c1a:	d1c2           	addal %d2,%a0
    4c1c:	9083           	subl %d3,%d0
    4c1e:	d882           	addl %d2,%d4
    4c20:	2600           	movel %d0,%d3
    4c22:	d680           	addl %d0,%d3
    4c24:	2001           	movel %d1,%d0
    4c26:	d080           	addl %d0,%d0
    4c28:	9180           	subxl %d0,%d0
    4c2a:	4480           	negl %d0
    4c2c:	d083           	addl %d3,%d0
    4c2e:	d281           	addl %d1,%d1
    4c30:	e28a           	lsrl #1,%d2
    4c32:	5389           	subql #1,%a1
    4c34:	b2fc 0000      	cmpaw #0,%a1
    4c38:	66d6           	bnes 4c10 <__ieee754_sqrt+0x7c>
    4c3a:	7600           	moveq #0,%d3
    4c3c:	95ca           	subal %a2,%a2
    4c3e:	7420           	moveq #32,%d2
    4c40:	2e3c 8000 0000 	movel #-2147483648,%d7
    4c46:	43f2 7800      	lea %a2@(0,%d7:l),%a1
    4c4a:	b088           	cmpl %a0,%d0
    4c4c:	6e00 0192      	bgtw 4de0 <__ieee754_sqrt+0x24c>
    4c50:	6700 01d0      	beqw 4e22 <__ieee754_sqrt+0x28e>
    4c54:	d080           	addl %d0,%d0
    4c56:	2c01           	movel %d1,%d6
    4c58:	dc86           	addl %d6,%d6
    4c5a:	9d86           	subxl %d6,%d6
    4c5c:	4486           	negl %d6
    4c5e:	dc80           	addl %d0,%d6
    4c60:	2006           	movel %d6,%d0
    4c62:	d281           	addl %d1,%d1
    4c64:	e28f           	lsrl #1,%d7
    4c66:	5382           	subql #1,%d2
    4c68:	66dc           	bnes 4c46 <__ieee754_sqrt+0xb2>
    4c6a:	8286           	orl %d6,%d1
    4c6c:	6700 0146      	beqw 4db4 <__ieee754_sqrt+0x220>
    4c70:	2039 0001 5544 	movel 15544 <one>,%d0
    4c76:	2239 0001 5548 	movel 15548 <one+0x4>,%d1
    4c7c:	2079 0001 553c 	moveal 1553c <tiny>,%a0
    4c82:	2279 0001 5540 	moveal 15540 <tiny+0x4>,%a1
    4c88:	2c39 0001 5544 	movel 15544 <one>,%d6
    4c8e:	2e39 0001 5548 	movel 15548 <one+0x4>,%d7
    4c94:	2f09           	movel %a1,%sp@-
    4c96:	2f08           	movel %a0,%sp@-
    4c98:	2f01           	movel %d1,%sp@-
    4c9a:	2f00           	movel %d0,%sp@-
    4c9c:	4eb9 0000 68d6 	jsr 68d6 <__subdf3>
    4ca2:	4fef 000c      	lea %sp@(12),%sp
    4ca6:	2e81           	movel %d1,%sp@
    4ca8:	2f00           	movel %d0,%sp@-
    4caa:	2f07           	movel %d7,%sp@-
    4cac:	2f06           	movel %d6,%sp@-
    4cae:	4eb9 0000 7348 	jsr 7348 <__ledf2>
    4cb4:	4fef 0010      	lea %sp@(16),%sp
    4cb8:	4a80           	tstl %d0
    4cba:	6e00 00f8      	bgtw 4db4 <__ieee754_sqrt+0x220>
    4cbe:	2039 0001 5544 	movel 15544 <one>,%d0
    4cc4:	2239 0001 5548 	movel 15548 <one+0x4>,%d1
    4cca:	2079 0001 553c 	moveal 1553c <tiny>,%a0
    4cd0:	2279 0001 5540 	moveal 15540 <tiny+0x4>,%a1
    4cd6:	7cff           	moveq #-1,%d6
    4cd8:	bc83           	cmpl %d3,%d6
    4cda:	6700 0220      	beqw 4efc <__ieee754_sqrt+0x368>
    4cde:	2c39 0001 5544 	movel 15544 <one>,%d6
    4ce4:	2e39 0001 5548 	movel 15548 <one+0x4>,%d7
    4cea:	2f09           	movel %a1,%sp@-
    4cec:	2f08           	movel %a0,%sp@-
    4cee:	2f01           	movel %d1,%sp@-
    4cf0:	2f00           	movel %d0,%sp@-
    4cf2:	4eb9 0000 68dc 	jsr 68dc <__adddf3>
    4cf8:	4fef 000c      	lea %sp@(12),%sp
    4cfc:	2e81           	movel %d1,%sp@
    4cfe:	2f00           	movel %d0,%sp@-
    4d00:	2f07           	movel %d7,%sp@-
    4d02:	2f06           	movel %d6,%sp@-
    4d04:	4eb9 0000 7324 	jsr 7324 <__ltdf2>
    4d0a:	4fef 0010      	lea %sp@(16),%sp
    4d0e:	4a80           	tstl %d0
    4d10:	6c00 00a0      	bgew 4db2 <__ieee754_sqrt+0x21e>
    4d14:	70fe           	moveq #-2,%d0
    4d16:	b083           	cmpl %d3,%d0
    4d18:	6700 020c      	beqw 4f26 <__ieee754_sqrt+0x392>
    4d1c:	2403           	movel %d3,%d2
    4d1e:	5482           	addql #2,%d2
    4d20:	e28a           	lsrl #1,%d2
    4d22:	2004           	movel %d4,%d0
    4d24:	e280           	asrl #1,%d0
    4d26:	0680 3fe0 0000 	addil #1071644672,%d0
    4d2c:	e94d           	lslw #4,%d5
    4d2e:	4845           	swap %d5
    4d30:	4245           	clrw %d5
    4d32:	7201           	moveq #1,%d1
    4d34:	c881           	andl %d1,%d4
    4d36:	4484           	negl %d4
    4d38:	0284 8000 0000 	andil #-2147483648,%d4
    4d3e:	2045           	moveal %d5,%a0
    4d40:	d1c0           	addal %d0,%a0
    4d42:	2204           	movel %d4,%d1
    4d44:	8282           	orl %d2,%d1
    4d46:	2408           	movel %a0,%d2
    4d48:	2601           	movel %d1,%d3
    4d4a:	2002           	movel %d2,%d0
    4d4c:	2203           	movel %d3,%d1
    4d4e:	4cdf 04fc      	moveml %sp@+,%d2-%d7/%a2
    4d52:	4e75           	rts
    4d54:	0884 001f      	bclr #31,%d4
    4d58:	8883           	orl %d3,%d4
    4d5a:	6700 0178      	beqw 4ed4 <__ieee754_sqrt+0x340>
    4d5e:	4a80           	tstl %d0
    4d60:	6600 013c      	bnew 4e9e <__ieee754_sqrt+0x30a>
    4d64:	41e8 ffeb      	lea %a0@(-21),%a0
    4d68:	2001           	movel %d1,%d0
    4d6a:	740b           	moveq #11,%d2
    4d6c:	e4a8           	lsrl %d2,%d0
    4d6e:	eb49           	lslw #5,%d1
    4d70:	4841           	swap %d1
    4d72:	4241           	clrw %d1
    4d74:	4a80           	tstl %d0
    4d76:	67ec           	beqs 4d64 <__ieee754_sqrt+0x1d0>
    4d78:	2400           	movel %d0,%d2
    4d7a:	0282 0010 0000 	andil #1048576,%d2
    4d80:	2808           	movel %a0,%d4
    4d82:	4a82           	tstl %d2
    4d84:	6600 015e      	bnew 4ee4 <__ieee754_sqrt+0x350>
    4d88:	2040           	moveal %d0,%a0
    4d8a:	2401           	movel %d1,%d2
    4d8c:	7000           	moveq #0,%d0
    4d8e:	d1c8           	addal %a0,%a0
    4d90:	2240           	moveal %d0,%a1
    4d92:	5280           	addql #1,%d0
    4d94:	2c08           	movel %a0,%d6
    4d96:	0806 0014      	btst #20,%d6
    4d9a:	67f2           	beqs 4d8e <__ieee754_sqrt+0x1fa>
    4d9c:	7620           	moveq #32,%d3
    4d9e:	9680           	subl %d0,%d3
    4da0:	2202           	movel %d2,%d1
    4da2:	e1a9           	lsll %d0,%d1
    4da4:	9889           	subl %a1,%d4
    4da6:	e6aa           	lsrl %d3,%d2
    4da8:	2008           	movel %a0,%d0
    4daa:	8082           	orl %d2,%d0
    4dac:	2040           	moveal %d0,%a0
    4dae:	6000 fe1c      	braw 4bcc <__ieee754_sqrt+0x38>
    4db2:	5283           	addql #1,%d3
    4db4:	2403           	movel %d3,%d2
    4db6:	e28a           	lsrl #1,%d2
    4db8:	2004           	movel %d4,%d0
    4dba:	e280           	asrl #1,%d0
    4dbc:	0680 3fe0 0000 	addil #1071644672,%d0
    4dc2:	e94d           	lslw #4,%d5
    4dc4:	4845           	swap %d5
    4dc6:	4245           	clrw %d5
    4dc8:	7201           	moveq #1,%d1
    4dca:	c881           	andl %d1,%d4
    4dcc:	4484           	negl %d4
    4dce:	0284 8000 0000 	andil #-2147483648,%d4
    4dd4:	2045           	moveal %d5,%a0
    4dd6:	d1c0           	addal %d0,%a0
    4dd8:	2204           	movel %d4,%d1
    4dda:	8282           	orl %d2,%d1
    4ddc:	6000 ff68      	braw 4d46 <__ieee754_sqrt+0x1b2>
    4de0:	45f1 7800      	lea %a1@(0,%d7:l),%a2
    4de4:	b2fc 0000      	cmpaw #0,%a1
    4de8:	6d2c           	blts 4e16 <__ieee754_sqrt+0x282>
    4dea:	2c08           	movel %a0,%d6
    4dec:	9088           	subl %a0,%d0
    4dee:	b289           	cmpl %a1,%d1
    4df0:	6402           	bccs 4df4 <__ieee754_sqrt+0x260>
    4df2:	5380           	subql #1,%d0
    4df4:	d080           	addl %d0,%d0
    4df6:	2046           	moveal %d6,%a0
    4df8:	9289           	subl %a1,%d1
    4dfa:	d687           	addl %d7,%d3
    4dfc:	2c01           	movel %d1,%d6
    4dfe:	dc86           	addl %d6,%d6
    4e00:	9d86           	subxl %d6,%d6
    4e02:	4486           	negl %d6
    4e04:	dc80           	addl %d0,%d6
    4e06:	2006           	movel %d6,%d0
    4e08:	d281           	addl %d1,%d1
    4e0a:	e28f           	lsrl #1,%d7
    4e0c:	5382           	subql #1,%d2
    4e0e:	6600 fe36      	bnew 4c46 <__ieee754_sqrt+0xb2>
    4e12:	6000 fe56      	braw 4c6a <__ieee754_sqrt+0xd6>
    4e16:	b4fc 0000      	cmpaw #0,%a2
    4e1a:	6dce           	blts 4dea <__ieee754_sqrt+0x256>
    4e1c:	2c08           	movel %a0,%d6
    4e1e:	5286           	addql #1,%d6
    4e20:	60ca           	bras 4dec <__ieee754_sqrt+0x258>
    4e22:	b289           	cmpl %a1,%d1
    4e24:	641e           	bccs 4e44 <__ieee754_sqrt+0x2b0>
    4e26:	2008           	movel %a0,%d0
    4e28:	d088           	addl %a0,%d0
    4e2a:	2c01           	movel %d1,%d6
    4e2c:	dc86           	addl %d6,%d6
    4e2e:	9d86           	subxl %d6,%d6
    4e30:	4486           	negl %d6
    4e32:	dc80           	addl %d0,%d6
    4e34:	2006           	movel %d6,%d0
    4e36:	d281           	addl %d1,%d1
    4e38:	e28f           	lsrl #1,%d7
    4e3a:	5382           	subql #1,%d2
    4e3c:	6600 fe08      	bnew 4c46 <__ieee754_sqrt+0xb2>
    4e40:	6000 fe28      	braw 4c6a <__ieee754_sqrt+0xd6>
    4e44:	45f1 7800      	lea %a1@(0,%d7:l),%a2
    4e48:	b2fc 0000      	cmpaw #0,%a1
    4e4c:	6d08           	blts 4e56 <__ieee754_sqrt+0x2c2>
    4e4e:	7000           	moveq #0,%d0
    4e50:	9289           	subl %a1,%d1
    4e52:	d687           	addl %d7,%d3
    4e54:	60a6           	bras 4dfc <__ieee754_sqrt+0x268>
    4e56:	b4fc 0000      	cmpaw #0,%a2
    4e5a:	6df2           	blts 4e4e <__ieee754_sqrt+0x2ba>
    4e5c:	2c08           	movel %a0,%d6
    4e5e:	5286           	addql #1,%d6
    4e60:	608a           	bras 4dec <__ieee754_sqrt+0x258>
    4e62:	2f03           	movel %d3,%sp@-
    4e64:	2f02           	movel %d2,%sp@-
    4e66:	2f03           	movel %d3,%sp@-
    4e68:	2f02           	movel %d2,%sp@-
    4e6a:	4eb9 0000 6c72 	jsr 6c72 <__muldf3>
    4e70:	4fef 000c      	lea %sp@(12),%sp
    4e74:	2e83           	movel %d3,%sp@
    4e76:	2f02           	movel %d2,%sp@-
    4e78:	2f01           	movel %d1,%sp@-
    4e7a:	2f00           	movel %d0,%sp@-
    4e7c:	4eb9 0000 68dc 	jsr 68dc <__adddf3>
    4e82:	4fef 0010      	lea %sp@(16),%sp
    4e86:	2040           	moveal %d0,%a0
    4e88:	2408           	movel %a0,%d2
    4e8a:	2601           	movel %d1,%d3
    4e8c:	2002           	movel %d2,%d0
    4e8e:	2203           	movel %d3,%d1
    4e90:	4cdf 04fc      	moveml %sp@+,%d2-%d7/%a2
    4e94:	4e75           	rts
    4e96:	2403           	movel %d3,%d2
    4e98:	7000           	moveq #0,%d0
    4e9a:	6000 fef2      	braw 4d8e <__ieee754_sqrt+0x1fa>
    4e9e:	2f03           	movel %d3,%sp@-
    4ea0:	2f02           	movel %d2,%sp@-
    4ea2:	2f03           	movel %d3,%sp@-
    4ea4:	2f02           	movel %d2,%sp@-
    4ea6:	4eb9 0000 68d6 	jsr 68d6 <__subdf3>
    4eac:	4fef 0010      	lea %sp@(16),%sp
    4eb0:	2040           	moveal %d0,%a0
    4eb2:	2f01           	movel %d1,%sp@-
    4eb4:	2f08           	movel %a0,%sp@-
    4eb6:	2f01           	movel %d1,%sp@-
    4eb8:	2f08           	movel %a0,%sp@-
    4eba:	4eb9 0000 6e20 	jsr 6e20 <__divdf3>
    4ec0:	4fef 0010      	lea %sp@(16),%sp
    4ec4:	2040           	moveal %d0,%a0
    4ec6:	2408           	movel %a0,%d2
    4ec8:	2601           	movel %d1,%d3
    4eca:	2002           	movel %d2,%d0
    4ecc:	2203           	movel %d3,%d1
    4ece:	4cdf 04fc      	moveml %sp@+,%d2-%d7/%a2
    4ed2:	4e75           	rts
    4ed4:	2042           	moveal %d2,%a0
    4ed6:	2408           	movel %a0,%d2
    4ed8:	2601           	movel %d1,%d3
    4eda:	2002           	movel %d2,%d0
    4edc:	2203           	movel %d3,%d1
    4ede:	4cdf 04fc      	moveml %sp@+,%d2-%d7/%a2
    4ee2:	4e75           	rts
    4ee4:	2401           	movel %d1,%d2
    4ee6:	2040           	moveal %d0,%a0
    4ee8:	7620           	moveq #32,%d3
    4eea:	327c ffff      	moveaw #-1,%a1
    4eee:	9889           	subl %a1,%d4
    4ef0:	e6aa           	lsrl %d3,%d2
    4ef2:	2008           	movel %a0,%d0
    4ef4:	8082           	orl %d2,%d0
    4ef6:	2040           	moveal %d0,%a0
    4ef8:	6000 fcd2      	braw 4bcc <__ieee754_sqrt+0x38>
    4efc:	5284           	addql #1,%d4
    4efe:	2004           	movel %d4,%d0
    4f00:	e280           	asrl #1,%d0
    4f02:	0680 3fe0 0000 	addil #1071644672,%d0
    4f08:	e94d           	lslw #4,%d5
    4f0a:	4845           	swap %d5
    4f0c:	4245           	clrw %d5
    4f0e:	7201           	moveq #1,%d1
    4f10:	c881           	andl %d1,%d4
    4f12:	4484           	negl %d4
    4f14:	0284 8000 0000 	andil #-2147483648,%d4
    4f1a:	2045           	moveal %d5,%a0
    4f1c:	d1c0           	addal %d0,%a0
    4f1e:	2204           	movel %d4,%d1
    4f20:	8282           	orl %d2,%d1
    4f22:	6000 fe22      	braw 4d46 <__ieee754_sqrt+0x1b2>
    4f26:	5284           	addql #1,%d4
    4f28:	2403           	movel %d3,%d2
    4f2a:	5482           	addql #2,%d2
    4f2c:	e28a           	lsrl #1,%d2
    4f2e:	6000 fdf2      	braw 4d22 <__ieee754_sqrt+0x18e>
	...

00004f34 <with_errno>:
    4f34:	4eb9 0000 8494 	jsr 8494 <__errno>
    4f3a:	2040           	moveal %d0,%a0
    4f3c:	20af 000c      	movel %sp@(12),%a0@
    4f40:	202f 0004      	movel %sp@(4),%d0
    4f44:	222f 0008      	movel %sp@(8),%d1
    4f48:	4e75           	rts

00004f4a <xflow>:
    4f4a:	518f           	subql #8,%sp
    4f4c:	2f02           	movel %d2,%sp@-
    4f4e:	202f 0014      	movel %sp@(20),%d0
    4f52:	222f 0018      	movel %sp@(24),%d1
    4f56:	4aaf 0010      	tstl %sp@(16)
    4f5a:	6744           	beqs 4fa0 <xflow+0x56>
    4f5c:	2040           	moveal %d0,%a0
    4f5e:	d1fc 8000 0000 	addal #-2147483648,%a0
    4f64:	2241           	moveal %d1,%a1
    4f66:	2f48 0004      	movel %a0,%sp@(4)
    4f6a:	2f49 0008      	movel %a1,%sp@(8)
    4f6e:	206f 0004      	moveal %sp@(4),%a0
    4f72:	226f 0008      	moveal %sp@(8),%a1
    4f76:	7422           	moveq #34,%d2
    4f78:	2f42 0018      	movel %d2,%sp@(24)
    4f7c:	2f09           	movel %a1,%sp@-
    4f7e:	2f08           	movel %a0,%sp@-
    4f80:	2f01           	movel %d1,%sp@-
    4f82:	2f00           	movel %d0,%sp@-
    4f84:	4eb9 0000 6c72 	jsr 6c72 <__muldf3>
    4f8a:	4fef 0010      	lea %sp@(16),%sp
    4f8e:	2f40 0010      	movel %d0,%sp@(16)
    4f92:	2f41 0014      	movel %d1,%sp@(20)
    4f96:	241f           	movel %sp@+,%d2
    4f98:	508f           	addql #8,%sp
    4f9a:	4ef9 0000 4f34 	jmp 4f34 <with_errno>
    4fa0:	2040           	moveal %d0,%a0
    4fa2:	2241           	moveal %d1,%a1
    4fa4:	2f48 0004      	movel %a0,%sp@(4)
    4fa8:	2f49 0008      	movel %a1,%sp@(8)
    4fac:	206f 0004      	moveal %sp@(4),%a0
    4fb0:	226f 0008      	moveal %sp@(8),%a1
    4fb4:	7422           	moveq #34,%d2
    4fb6:	2f42 0018      	movel %d2,%sp@(24)
    4fba:	2f09           	movel %a1,%sp@-
    4fbc:	2f08           	movel %a0,%sp@-
    4fbe:	2f01           	movel %d1,%sp@-
    4fc0:	2f00           	movel %d0,%sp@-
    4fc2:	4eb9 0000 6c72 	jsr 6c72 <__muldf3>
    4fc8:	4fef 0010      	lea %sp@(16),%sp
    4fcc:	2f40 0010      	movel %d0,%sp@(16)
    4fd0:	2f41 0014      	movel %d1,%sp@(20)
    4fd4:	241f           	movel %sp@+,%d2
    4fd6:	508f           	addql #8,%sp
    4fd8:	4ef9 0000 4f34 	jmp 4f34 <with_errno>

00004fde <__math_uflow>:
    4fde:	42a7           	clrl %sp@-
    4fe0:	2f3c 1000 0000 	movel #268435456,%sp@-
    4fe6:	2f2f 000c      	movel %sp@(12),%sp@-
    4fea:	4eb9 0000 4f4a 	jsr 4f4a <xflow>
    4ff0:	4fef 000c      	lea %sp@(12),%sp
    4ff4:	4e75           	rts

00004ff6 <__math_may_uflow>:
    4ff6:	42a7           	clrl %sp@-
    4ff8:	2f3c 1e58 0000 	movel #509083648,%sp@-
    4ffe:	2f2f 000c      	movel %sp@(12),%sp@-
    5002:	4eb9 0000 4f4a 	jsr 4f4a <xflow>
    5008:	4fef 000c      	lea %sp@(12),%sp
    500c:	4e75           	rts

0000500e <__math_oflow>:
    500e:	42a7           	clrl %sp@-
    5010:	2f3c 7000 0000 	movel #1879048192,%sp@-
    5016:	2f2f 000c      	movel %sp@(12),%sp@-
    501a:	4eb9 0000 4f4a 	jsr 4f4a <xflow>
    5020:	4fef 000c      	lea %sp@(12),%sp
    5024:	4e75           	rts

00005026 <__math_divzero>:
    5026:	518f           	subql #8,%sp
    5028:	4aaf 000c      	tstl %sp@(12)
    502c:	673a           	beqs 5068 <__math_divzero+0x42>
    502e:	203c bff0 0000 	movel #-1074790400,%d0
    5034:	4281           	clrl %d1
    5036:	2e80           	movel %d0,%sp@
    5038:	2f41 0004      	movel %d1,%sp@(4)
    503c:	2017           	movel %sp@,%d0
    503e:	222f 0004      	movel %sp@(4),%d1
    5042:	4878 0022      	pea 22 <R_STOPCNTCMD+0x4>
    5046:	42a7           	clrl %sp@-
    5048:	42a7           	clrl %sp@-
    504a:	2f01           	movel %d1,%sp@-
    504c:	2f00           	movel %d0,%sp@-
    504e:	4eb9 0000 6e20 	jsr 6e20 <__divdf3>
    5054:	4fef 000c      	lea %sp@(12),%sp
    5058:	2e81           	movel %d1,%sp@
    505a:	2f00           	movel %d0,%sp@-
    505c:	4eb9 0000 4f34 	jsr 4f34 <with_errno>
    5062:	4fef 0014      	lea %sp@(20),%sp
    5066:	4e75           	rts
    5068:	203c 3ff0 0000 	movel #1072693248,%d0
    506e:	4281           	clrl %d1
    5070:	2e80           	movel %d0,%sp@
    5072:	2f41 0004      	movel %d1,%sp@(4)
    5076:	2017           	movel %sp@,%d0
    5078:	222f 0004      	movel %sp@(4),%d1
    507c:	4878 0022      	pea 22 <R_STOPCNTCMD+0x4>
    5080:	42a7           	clrl %sp@-
    5082:	42a7           	clrl %sp@-
    5084:	2f01           	movel %d1,%sp@-
    5086:	2f00           	movel %d0,%sp@-
    5088:	4eb9 0000 6e20 	jsr 6e20 <__divdf3>
    508e:	4fef 000c      	lea %sp@(12),%sp
    5092:	2e81           	movel %d1,%sp@
    5094:	2f00           	movel %d0,%sp@-
    5096:	4eb9 0000 4f34 	jsr 4f34 <with_errno>
    509c:	4fef 0014      	lea %sp@(20),%sp
    50a0:	4e75           	rts

000050a2 <__math_invalid>:
    50a2:	48e7 3c00      	moveml %d2-%d5,%sp@-
    50a6:	282f 0014      	movel %sp@(20),%d4
    50aa:	2a2f 0018      	movel %sp@(24),%d5
    50ae:	2f05           	movel %d5,%sp@-
    50b0:	2f04           	movel %d4,%sp@-
    50b2:	2f05           	movel %d5,%sp@-
    50b4:	2f04           	movel %d4,%sp@-
    50b6:	4eb9 0000 68d6 	jsr 68d6 <__subdf3>
    50bc:	4fef 0010      	lea %sp@(16),%sp
    50c0:	2040           	moveal %d0,%a0
    50c2:	2f01           	movel %d1,%sp@-
    50c4:	2f08           	movel %a0,%sp@-
    50c6:	2f01           	movel %d1,%sp@-
    50c8:	2f08           	movel %a0,%sp@-
    50ca:	4eb9 0000 6e20 	jsr 6e20 <__divdf3>
    50d0:	4fef 0010      	lea %sp@(16),%sp
    50d4:	2400           	movel %d0,%d2
    50d6:	2601           	movel %d1,%d3
    50d8:	2f05           	movel %d5,%sp@-
    50da:	2f04           	movel %d4,%sp@-
    50dc:	2f05           	movel %d5,%sp@-
    50de:	2f04           	movel %d4,%sp@-
    50e0:	4eb9 0000 7442 	jsr 7442 <__unorddf2>
    50e6:	4fef 0010      	lea %sp@(16),%sp
    50ea:	4a80           	tstl %d0
    50ec:	6616           	bnes 5104 <__math_invalid+0x62>
    50ee:	4878 0021      	pea 21 <R_STOPCNTCMD+0x3>
    50f2:	2f03           	movel %d3,%sp@-
    50f4:	2f02           	movel %d2,%sp@-
    50f6:	4eb9 0000 4f34 	jsr 4f34 <with_errno>
    50fc:	2400           	movel %d0,%d2
    50fe:	2601           	movel %d1,%d3
    5100:	4fef 000c      	lea %sp@(12),%sp
    5104:	2002           	movel %d2,%d0
    5106:	2203           	movel %d3,%d1
    5108:	4cdf 003c      	moveml %sp@+,%d2-%d5
    510c:	4e75           	rts

0000510e <__math_check_uflow>:
    510e:	2f03           	movel %d3,%sp@-
    5110:	2f02           	movel %d2,%sp@-
    5112:	242f 000c      	movel %sp@(12),%d2
    5116:	262f 0010      	movel %sp@(16),%d3
    511a:	42a7           	clrl %sp@-
    511c:	42a7           	clrl %sp@-
    511e:	2f03           	movel %d3,%sp@-
    5120:	2f02           	movel %d2,%sp@-
    5122:	4eb9 0000 72b8 	jsr 72b8 <__eqdf2>
    5128:	4fef 0010      	lea %sp@(16),%sp
    512c:	4a80           	tstl %d0
    512e:	670a           	beqs 513a <__math_check_uflow+0x2c>
    5130:	2002           	movel %d2,%d0
    5132:	2203           	movel %d3,%d1
    5134:	241f           	movel %sp@+,%d2
    5136:	261f           	movel %sp@+,%d3
    5138:	4e75           	rts
    513a:	4878 0022      	pea 22 <R_STOPCNTCMD+0x4>
    513e:	2f03           	movel %d3,%sp@-
    5140:	2f02           	movel %d2,%sp@-
    5142:	4eb9 0000 4f34 	jsr 4f34 <with_errno>
    5148:	2400           	movel %d0,%d2
    514a:	2601           	movel %d1,%d3
    514c:	4fef 000c      	lea %sp@(12),%sp
    5150:	2002           	movel %d2,%d0
    5152:	2203           	movel %d3,%d1
    5154:	241f           	movel %sp@+,%d2
    5156:	261f           	movel %sp@+,%d3
    5158:	4e75           	rts

0000515a <__math_check_oflow>:
    515a:	48e7 3f00      	moveml %d2-%d7,%sp@-
    515e:	242f 001c      	movel %sp@(28),%d2
    5162:	262f 0020      	movel %sp@(32),%d3
    5166:	2802           	movel %d2,%d4
    5168:	0884 001f      	bclr #31,%d4
    516c:	2c3c 7fef ffff 	movel #2146435071,%d6
    5172:	7eff           	moveq #-1,%d7
    5174:	2f07           	movel %d7,%sp@-
    5176:	2f06           	movel %d6,%sp@-
    5178:	2f03           	movel %d3,%sp@-
    517a:	2f04           	movel %d4,%sp@-
    517c:	4eb9 0000 7442 	jsr 7442 <__unorddf2>
    5182:	4fef 0010      	lea %sp@(16),%sp
    5186:	4a80           	tstl %d0
    5188:	6616           	bnes 51a0 <__math_check_oflow+0x46>
    518a:	2f07           	movel %d7,%sp@-
    518c:	2f06           	movel %d6,%sp@-
    518e:	2f03           	movel %d3,%sp@-
    5190:	2f04           	movel %d4,%sp@-
    5192:	4eb9 0000 7348 	jsr 7348 <__ledf2>
    5198:	4fef 0010      	lea %sp@(16),%sp
    519c:	4a80           	tstl %d0
    519e:	6e0a           	bgts 51aa <__math_check_oflow+0x50>
    51a0:	2002           	movel %d2,%d0
    51a2:	2203           	movel %d3,%d1
    51a4:	4cdf 00fc      	moveml %sp@+,%d2-%d7
    51a8:	4e75           	rts
    51aa:	4878 0022      	pea 22 <R_STOPCNTCMD+0x4>
    51ae:	2f03           	movel %d3,%sp@-
    51b0:	2f02           	movel %d2,%sp@-
    51b2:	4eb9 0000 4f34 	jsr 4f34 <with_errno>
    51b8:	2400           	movel %d0,%d2
    51ba:	2601           	movel %d1,%d3
    51bc:	4fef 000c      	lea %sp@(12),%sp
    51c0:	2002           	movel %d2,%d0
    51c2:	2203           	movel %d3,%d1
    51c4:	4cdf 00fc      	moveml %sp@+,%d2-%d7
    51c8:	4e75           	rts
	...

000051cc <__kernel_rem_pio2>:
    51cc:	4fef fd94      	lea %sp@(-620),%sp
    51d0:	48e7 3f3e      	moveml %d2-%d7/%a2-%fp,%sp@-
    51d4:	246f 02a4      	moveal %sp@(676),%a2
    51d8:	202f 02ac      	movel %sp@(684),%d0
    51dc:	d080           	addl %d0,%d0
    51de:	d080           	addl %d0,%d0
    51e0:	41f9 0001 558c 	lea 1558c <init_jk>,%a0
    51e6:	2f70 0800 0050 	movel %a0@(0,%d0:l),%sp@(80)
    51ec:	242f 02a8      	movel %sp@(680),%d2
    51f0:	5382           	subql #1,%d2
    51f2:	2f42 0054      	movel %d2,%sp@(84)
    51f6:	76ec           	moveq #-20,%d3
    51f8:	b68a           	cmpl %a2,%d3
    51fa:	6e00 091c      	bgtw 5b18 <__kernel_rem_pio2+0x94c>
    51fe:	4878 0018      	pea 18 <DUART_IVR>
    5202:	486a fffd      	pea %a2@(-3)
    5206:	4eb9 0000 684c 	jsr 684c <__divsi3>
    520c:	508f           	addql #8,%sp
    520e:	2f40 0058      	movel %d0,%sp@(88)
    5212:	2200           	movel %d0,%d1
    5214:	5281           	addql #1,%d1
    5216:	2001           	movel %d1,%d0
    5218:	d081           	addl %d1,%d0
    521a:	d081           	addl %d1,%d0
    521c:	e788           	lsll #3,%d0
    521e:	4480           	negl %d0
    5220:	d5c0           	addal %d0,%a2
    5222:	2f4a 004c      	movel %a2,%sp@(76)
    5226:	246f 0058      	moveal %sp@(88),%a2
    522a:	95ef 0054      	subal %sp@(84),%a2
    522e:	206f 0050      	moveal %sp@(80),%a0
    5232:	d1ef 0054      	addal %sp@(84),%a0
    5236:	b0fc 0000      	cmpaw #0,%a0
    523a:	6d00 0900      	bltw 5b3c <__kernel_rem_pio2+0x970>
    523e:	4bef 00b8      	lea %sp@(184),%a5
    5242:	49f2 a800      	lea %a2@(0,%a2:l),%a4
    5246:	d9cc           	addal %a4,%a4
    5248:	d9ef 02b0      	addal %sp@(688),%a4
    524c:	47f0 a801      	lea %a0@(1,%a2:l),%a3
    5250:	2f7c 0000 7528 	movel #29992,%sp@(68)
    5256:	0044 
    5258:	7400           	moveq #0,%d2
    525a:	7600           	moveq #0,%d3
    525c:	4df9 0000 7528 	lea 7528 <__floatsidf>,%fp
    5262:	b4fc 0000      	cmpaw #0,%a2
    5266:	6d00 07c2      	bltw 5a2a <__kernel_rem_pio2+0x85e>
    526a:	2f14           	movel %a4@,%sp@-
    526c:	4e96           	jsr %fp@
    526e:	588f           	addql #4,%sp
    5270:	2040           	moveal %d0,%a0
    5272:	2241           	moveal %d1,%a1
    5274:	2ac8           	movel %a0,%a5@+
    5276:	2ac9           	movel %a1,%a5@+
    5278:	528a           	addql #1,%a2
    527a:	588c           	addql #4,%a4
    527c:	b7ca           	cmpal %a2,%a3
    527e:	66e2           	bnes 5262 <__kernel_rem_pio2+0x96>
    5280:	45f9 0000 6c72 	lea 6c72 <__muldf3>,%a2
    5286:	4aaf 0050      	tstl %sp@(80)
    528a:	6d00 0084      	bltw 5310 <__kernel_rem_pio2+0x144>
    528e:	4def 01f8      	lea %sp@(504),%fp
    5292:	2a2f 0054      	movel %sp@(84),%d5
    5296:	2005           	movel %d5,%d0
    5298:	e788           	lsll #3,%d0
    529a:	7847           	moveq #71,%d4
    529c:	4604           	notb %d4
    529e:	d88f           	addl %sp,%d4
    52a0:	d880           	addl %d0,%d4
    52a2:	242f 0050      	movel %sp@(80),%d2
    52a6:	d4af 02a8      	addl %sp@(680),%d2
    52aa:	2f42 003c      	movel %d2,%sp@(60)
    52ae:	206f 029c      	moveal %sp@(668),%a0
    52b2:	41f0 0808      	lea %a0@(8,%d0:l),%a0
    52b6:	2c08           	movel %a0,%d6
    52b8:	45f9 0000 6c72 	lea 6c72 <__muldf3>,%a2
    52be:	47f9 0000 68dc 	lea 68dc <__adddf3>,%a3
    52c4:	2e05           	movel %d5,%d7
    52c6:	4a87           	tstl %d7
    52c8:	6d00 07e4      	bltw 5aae <__kernel_rem_pio2+0x8e2>
    52cc:	2844           	moveal %d4,%a4
    52ce:	2a6f 029c      	moveal %sp@(668),%a5
    52d2:	4282           	clrl %d2
    52d4:	4283           	clrl %d3
    52d6:	2f2c 0004      	movel %a4@(4),%sp@-
    52da:	2f14           	movel %a4@,%sp@-
    52dc:	518f           	subql #8,%sp
    52de:	2e9d           	movel %a5@+,%sp@
    52e0:	2f5d 0004      	movel %a5@+,%sp@(4)
    52e4:	4e92           	jsr %a2@
    52e6:	4fef 000c      	lea %sp@(12),%sp
    52ea:	2e81           	movel %d1,%sp@
    52ec:	2f00           	movel %d0,%sp@-
    52ee:	2f03           	movel %d3,%sp@-
    52f0:	2f02           	movel %d2,%sp@-
    52f2:	4e93           	jsr %a3@
    52f4:	4fef 0010      	lea %sp@(16),%sp
    52f8:	2400           	movel %d0,%d2
    52fa:	2601           	movel %d1,%d3
    52fc:	518c           	subql #8,%a4
    52fe:	bc8d           	cmpl %a5,%d6
    5300:	66d4           	bnes 52d6 <__kernel_rem_pio2+0x10a>
    5302:	2cc2           	movel %d2,%fp@+
    5304:	2cc3           	movel %d3,%fp@+
    5306:	5084           	addql #8,%d4
    5308:	5285           	addql #1,%d5
    530a:	baaf 003c      	cmpl %sp@(60),%d5
    530e:	66b6           	bnes 52c6 <__kernel_rem_pio2+0xfa>
    5310:	43ef 0068      	lea %sp@(104),%a1
    5314:	2f49 0034      	movel %a1,%sp@(52)
    5318:	202f 0050      	movel %sp@(80),%d0
    531c:	d080           	addl %d0,%d0
    531e:	d080           	addl %d0,%d0
    5320:	2409           	movel %a1,%d2
    5322:	d480           	addl %d0,%d2
    5324:	2f42 0064      	movel %d2,%sp@(100)
    5328:	41f7 0860      	lea %sp@(60,%d0:l),%a0
    532c:	2f48 0060      	movel %a0,%sp@(96)
    5330:	282f 02a8      	movel %sp@(680),%d4
    5334:	e78c           	lsll #3,%d4
    5336:	d8af 029c      	addl %sp@(668),%d4
    533a:	2f6f 0050 0038 	movel %sp@(80),%sp@(56)
    5340:	202f 0050      	movel %sp@(80),%d0
    5344:	5380           	subql #1,%d0
    5346:	d080           	addl %d0,%d0
    5348:	d080           	addl %d0,%d0
    534a:	43ef 0298      	lea %sp@(664),%a1
    534e:	d089           	addl %a1,%d0
    5350:	0680 ffff fdd0 	addil #-560,%d0
    5356:	2f40 005c      	movel %d0,%sp@(92)
    535a:	202f 0038      	movel %sp@(56),%d0
    535e:	e788           	lsll #3,%d0
    5360:	41ef 0298      	lea %sp@(664),%a0
    5364:	d1c0           	addal %d0,%a0
    5366:	2428 ff60      	movel %a0@(-160),%d2
    536a:	2628 ff64      	movel %a0@(-156),%d3
    536e:	4aaf 0038      	tstl %sp@(56)
    5372:	6f00 008a      	blew 53fe <__kernel_rem_pio2+0x232>
    5376:	2a0f           	movel %sp,%d5
    5378:	0685 0000 01f8 	addil #504,%d5
    537e:	2645           	moveal %d5,%a3
    5380:	d7c0           	addal %d0,%a3
    5382:	49ef 0068      	lea %sp@(104),%a4
    5386:	4df9 0000 68dc 	lea 68dc <__adddf3>,%fp
    538c:	2a6f 0044      	moveal %sp@(68),%a5
    5390:	42a7           	clrl %sp@-
    5392:	2f3c 3e70 0000 	movel #1047527424,%sp@-
    5398:	2f03           	movel %d3,%sp@-
    539a:	2f02           	movel %d2,%sp@-
    539c:	4e92           	jsr %a2@
    539e:	4fef 000c      	lea %sp@(12),%sp
    53a2:	2e81           	movel %d1,%sp@
    53a4:	2f00           	movel %d0,%sp@-
    53a6:	4eb9 0000 7772 	jsr 7772 <__fixdfsi>
    53ac:	588f           	addql #4,%sp
    53ae:	2e80           	movel %d0,%sp@
    53b0:	4e95           	jsr %a5@
    53b2:	2c00           	movel %d0,%d6
    53b4:	2e01           	movel %d1,%d7
    53b6:	4297           	clrl %sp@
    53b8:	2f3c 4170 0000 	movel #1097859072,%sp@-
    53be:	2f01           	movel %d1,%sp@-
    53c0:	2f06           	movel %d6,%sp@-
    53c2:	4e92           	jsr %a2@
    53c4:	4fef 000c      	lea %sp@(12),%sp
    53c8:	2e81           	movel %d1,%sp@
    53ca:	2f00           	movel %d0,%sp@-
    53cc:	2f03           	movel %d3,%sp@-
    53ce:	2f02           	movel %d2,%sp@-
    53d0:	4eb9 0000 68d6 	jsr 68d6 <__subdf3>
    53d6:	4fef 000c      	lea %sp@(12),%sp
    53da:	2e81           	movel %d1,%sp@
    53dc:	2f00           	movel %d0,%sp@-
    53de:	4eb9 0000 7772 	jsr 7772 <__fixdfsi>
    53e4:	508f           	addql #8,%sp
    53e6:	28c0           	movel %d0,%a4@+
    53e8:	2f23           	movel %a3@-,%sp@-
    53ea:	2f23           	movel %a3@-,%sp@-
    53ec:	2f07           	movel %d7,%sp@-
    53ee:	2f06           	movel %d6,%sp@-
    53f0:	4e96           	jsr %fp@
    53f2:	4fef 0010      	lea %sp@(16),%sp
    53f6:	2400           	movel %d0,%d2
    53f8:	2601           	movel %d1,%d3
    53fa:	b7c5           	cmpal %d5,%a3
    53fc:	6692           	bnes 5390 <__kernel_rem_pio2+0x1c4>
    53fe:	2f2f 004c      	movel %sp@(76),%sp@-
    5402:	2f03           	movel %d3,%sp@-
    5404:	2f02           	movel %d2,%sp@-
    5406:	4eb9 0000 6640 	jsr 6640 <scalbn>
    540c:	2400           	movel %d0,%d2
    540e:	2601           	movel %d1,%d3
    5410:	42a7           	clrl %sp@-
    5412:	2f3c 3fc0 0000 	movel #1069547520,%sp@-
    5418:	2f01           	movel %d1,%sp@-
    541a:	2f02           	movel %d2,%sp@-
    541c:	4e92           	jsr %a2@
    541e:	4fef 000c      	lea %sp@(12),%sp
    5422:	2e81           	movel %d1,%sp@
    5424:	2f00           	movel %d0,%sp@-
    5426:	4eb9 0000 6480 	jsr 6480 <floor>
    542c:	42a7           	clrl %sp@-
    542e:	2f3c 4020 0000 	movel #1075838976,%sp@-
    5434:	2f01           	movel %d1,%sp@-
    5436:	2f00           	movel %d0,%sp@-
    5438:	4e92           	jsr %a2@
    543a:	4fef 000c      	lea %sp@(12),%sp
    543e:	2e81           	movel %d1,%sp@
    5440:	2f00           	movel %d0,%sp@-
    5442:	2f03           	movel %d3,%sp@-
    5444:	2f02           	movel %d2,%sp@-
    5446:	4eb9 0000 68d6 	jsr 68d6 <__subdf3>
    544c:	4fef 0010      	lea %sp@(16),%sp
    5450:	2400           	movel %d0,%d2
    5452:	2601           	movel %d1,%d3
    5454:	2f01           	movel %d1,%sp@-
    5456:	2f02           	movel %d2,%sp@-
    5458:	4eb9 0000 7772 	jsr 7772 <__fixdfsi>
    545e:	508f           	addql #8,%sp
    5460:	2a00           	movel %d0,%d5
    5462:	2f00           	movel %d0,%sp@-
    5464:	206f 005c      	moveal %sp@(92),%a0
    5468:	4e90           	jsr %a0@
    546a:	2e81           	movel %d1,%sp@
    546c:	2f00           	movel %d0,%sp@-
    546e:	2f03           	movel %d3,%sp@-
    5470:	2f02           	movel %d2,%sp@-
    5472:	4eb9 0000 68d6 	jsr 68d6 <__subdf3>
    5478:	2c00           	movel %d0,%d6
    547a:	2e01           	movel %d1,%d7
    547c:	4fef 0024      	lea %sp@(36),%sp
    5480:	4aaf 004c      	tstl %sp@(76)
    5484:	6f00 054e      	blew 59d4 <__kernel_rem_pio2+0x808>
    5488:	202f 0038      	movel %sp@(56),%d0
    548c:	5380           	subql #1,%d0
    548e:	d080           	addl %d0,%d0
    5490:	d080           	addl %d0,%d0
    5492:	41ef 0298      	lea %sp@(664),%a0
    5496:	d1c0           	addal %d0,%a0
    5498:	41e8 fdd0      	lea %a0@(-560),%a0
    549c:	2410           	movel %a0@,%d2
    549e:	7218           	moveq #24,%d1
    54a0:	92af 004c      	subl %sp@(76),%d1
    54a4:	2002           	movel %d2,%d0
    54a6:	e2a0           	asrl %d1,%d0
    54a8:	da80           	addl %d0,%d5
    54aa:	e3a8           	lsll %d1,%d0
    54ac:	9480           	subl %d0,%d2
    54ae:	2082           	movel %d2,%a0@
    54b0:	7017           	moveq #23,%d0
    54b2:	90af 004c      	subl %sp@(76),%d0
    54b6:	e0a2           	asrl %d0,%d2
    54b8:	4a82           	tstl %d2
    54ba:	6e00 0118      	bgtw 55d4 <__kernel_rem_pio2+0x408>
    54be:	42a7           	clrl %sp@-
    54c0:	42a7           	clrl %sp@-
    54c2:	2f07           	movel %d7,%sp@-
    54c4:	2f06           	movel %d6,%sp@-
    54c6:	4eb9 0000 72b8 	jsr 72b8 <__eqdf2>
    54cc:	4fef 0010      	lea %sp@(16),%sp
    54d0:	4a80           	tstl %d0
    54d2:	6600 01da      	bnew 56ae <__kernel_rem_pio2+0x4e2>
    54d6:	262f 0038      	movel %sp@(56),%d3
    54da:	b6af 0050      	cmpl %sp@(80),%d3
    54de:	6f1e           	bles 54fe <__kernel_rem_pio2+0x332>
    54e0:	2003           	movel %d3,%d0
    54e2:	d083           	addl %d3,%d0
    54e4:	d080           	addl %d0,%d0
    54e6:	41ef 0068      	lea %sp@(104),%a0
    54ea:	d1c0           	addal %d0,%a0
    54ec:	7000           	moveq #0,%d0
    54ee:	222f 0064      	movel %sp@(100),%d1
    54f2:	80a0           	orl %a0@-,%d0
    54f4:	b288           	cmpl %a0,%d1
    54f6:	66fa           	bnes 54f2 <__kernel_rem_pio2+0x326>
    54f8:	4a80           	tstl %d0
    54fa:	6600 0414      	bnew 5910 <__kernel_rem_pio2+0x744>
    54fe:	206f 005c      	moveal %sp@(92),%a0
    5502:	4a90           	tstl %a0@
    5504:	6600 055c      	bnew 5a62 <__kernel_rem_pio2+0x896>
    5508:	206f 0060      	moveal %sp@(96),%a0
    550c:	7001           	moveq #1,%d0
    550e:	5280           	addql #1,%d0
    5510:	5988           	subql #4,%a0
    5512:	4aa8 0004      	tstl %a0@(4)
    5516:	67f6           	beqs 550e <__kernel_rem_pio2+0x342>
    5518:	222f 0038      	movel %sp@(56),%d1
    551c:	5281           	addql #1,%d1
    551e:	2a01           	movel %d1,%d5
    5520:	2c2f 0038      	movel %sp@(56),%d6
    5524:	dc80           	addl %d0,%d6
    5526:	2c6f 0058      	moveal %sp@(88),%fp
    552a:	ddc1           	addal %d1,%fp
    552c:	ddce           	addal %fp,%fp
    552e:	ddce           	addal %fp,%fp
    5530:	226f 02b0      	moveal %sp@(688),%a1
    5534:	d3ce           	addal %fp,%a1
    5536:	2f49 003c      	movel %a1,%sp@(60)
    553a:	202f 02a8      	movel %sp@(680),%d0
    553e:	d0af 0038      	addl %sp@(56),%d0
    5542:	e788           	lsll #3,%d0
    5544:	49ef 00b8      	lea %sp@(184),%a4
    5548:	d9c0           	addal %d0,%a4
    554a:	e789           	lsll #3,%d1
    554c:	2e3c 0000 01f8 	movel #504,%d7
    5552:	de8f           	addl %sp,%d7
    5554:	de81           	addl %d1,%d7
    5556:	47f9 0000 68dc 	lea 68dc <__adddf3>,%a3
    555c:	2f47 0038      	movel %d7,%sp@(56)
    5560:	2e2f 0054      	movel %sp@(84),%d7
    5564:	206f 003c      	moveal %sp@(60),%a0
    5568:	58af 003c      	addql #4,%sp@(60)
    556c:	2f18           	movel %a0@+,%sp@-
    556e:	226f 0048      	moveal %sp@(72),%a1
    5572:	4e91           	jsr %a1@
    5574:	588f           	addql #4,%sp
    5576:	2880           	movel %d0,%a4@
    5578:	2941 0004      	movel %d1,%a4@(4)
    557c:	2c4c           	moveal %a4,%fp
    557e:	508c           	addql #8,%a4
    5580:	4a87           	tstl %d7
    5582:	6d00 0424      	bltw 59a8 <__kernel_rem_pio2+0x7dc>
    5586:	2a6f 029c      	moveal %sp@(668),%a5
    558a:	4282           	clrl %d2
    558c:	4283           	clrl %d3
    558e:	2f2e 0004      	movel %fp@(4),%sp@-
    5592:	2f16           	movel %fp@,%sp@-
    5594:	518f           	subql #8,%sp
    5596:	2e9d           	movel %a5@+,%sp@
    5598:	2f5d 0004      	movel %a5@+,%sp@(4)
    559c:	4e92           	jsr %a2@
    559e:	4fef 000c      	lea %sp@(12),%sp
    55a2:	2e81           	movel %d1,%sp@
    55a4:	2f00           	movel %d0,%sp@-
    55a6:	2f03           	movel %d3,%sp@-
    55a8:	2f02           	movel %d2,%sp@-
    55aa:	4e93           	jsr %a3@
    55ac:	4fef 0010      	lea %sp@(16),%sp
    55b0:	2400           	movel %d0,%d2
    55b2:	2601           	movel %d1,%d3
    55b4:	518e           	subql #8,%fp
    55b6:	b88d           	cmpl %a5,%d4
    55b8:	66d4           	bnes 558e <__kernel_rem_pio2+0x3c2>
    55ba:	206f 0038      	moveal %sp@(56),%a0
    55be:	50af 0038      	addql #8,%sp@(56)
    55c2:	20c2           	movel %d2,%a0@+
    55c4:	20c3           	movel %d3,%a0@+
    55c6:	5285           	addql #1,%d5
    55c8:	bc85           	cmpl %d5,%d6
    55ca:	6c98           	bges 5564 <__kernel_rem_pio2+0x398>
    55cc:	2f46 0038      	movel %d6,%sp@(56)
    55d0:	6000 fd88      	braw 535a <__kernel_rem_pio2+0x18e>
    55d4:	5285           	addql #1,%d5
    55d6:	7600           	moveq #0,%d3
    55d8:	4aaf 0038      	tstl %sp@(56)
    55dc:	6f3e           	bles 561c <__kernel_rem_pio2+0x450>
    55de:	41ef 0068      	lea %sp@(104),%a0
    55e2:	2618           	movel %a0@+,%d3
    55e4:	7200           	moveq #0,%d1
    55e6:	4a83           	tstl %d3
    55e8:	6700 03da      	beqw 59c4 <__kernel_rem_pio2+0x7f8>
    55ec:	203c 0100 0000 	movel #16777216,%d0
    55f2:	9083           	subl %d3,%d0
    55f4:	2140 fffc      	movel %d0,%a0@(-4)
    55f8:	226f 0038      	moveal %sp@(56),%a1
    55fc:	5281           	addql #1,%d1
    55fe:	b289           	cmpl %a1,%d1
    5600:	6c12           	bges 5614 <__kernel_rem_pio2+0x448>
    5602:	2010           	movel %a0@,%d0
    5604:	263c 00ff ffff 	movel #16777215,%d3
    560a:	9680           	subl %d0,%d3
    560c:	20c3           	movel %d3,%a0@+
    560e:	5281           	addql #1,%d1
    5610:	b289           	cmpl %a1,%d1
    5612:	6dee           	blts 5602 <__kernel_rem_pio2+0x436>
    5614:	7601           	moveq #1,%d3
    5616:	4aaf 004c      	tstl %sp@(76)
    561a:	6f2a           	bles 5646 <__kernel_rem_pio2+0x47a>
    561c:	7201           	moveq #1,%d1
    561e:	b2af 004c      	cmpl %sp@(76),%d1
    5622:	6700 04a2      	beqw 5ac6 <__kernel_rem_pio2+0x8fa>
    5626:	7002           	moveq #2,%d0
    5628:	b0af 004c      	cmpl %sp@(76),%d0
    562c:	6618           	bnes 5646 <__kernel_rem_pio2+0x47a>
    562e:	206f 0038      	moveal %sp@(56),%a0
    5632:	5388           	subql #1,%a0
    5634:	d1c8           	addal %a0,%a0
    5636:	d1c8           	addal %a0,%a0
    5638:	43ef 0298      	lea %sp@(664),%a1
    563c:	d1c9           	addal %a1,%a0
    563e:	02a8 003f ffff 	andil #4194303,%a0@(-560)
    5644:	fdd0 
    5646:	7002           	moveq #2,%d0
    5648:	b082           	cmpl %d2,%d0
    564a:	6600 fe72      	bnew 54be <__kernel_rem_pio2+0x2f2>
    564e:	2f07           	movel %d7,%sp@-
    5650:	2f06           	movel %d6,%sp@-
    5652:	42a7           	clrl %sp@-
    5654:	2f3c 3ff0 0000 	movel #1072693248,%sp@-
    565a:	4eb9 0000 68d6 	jsr 68d6 <__subdf3>
    5660:	4fef 0010      	lea %sp@(16),%sp
    5664:	2c00           	movel %d0,%d6
    5666:	2e01           	movel %d1,%d7
    5668:	4a83           	tstl %d3
    566a:	6700 fe52      	beqw 54be <__kernel_rem_pio2+0x2f2>
    566e:	2f2f 004c      	movel %sp@(76),%sp@-
    5672:	42a7           	clrl %sp@-
    5674:	2f3c 3ff0 0000 	movel #1072693248,%sp@-
    567a:	4eb9 0000 6640 	jsr 6640 <scalbn>
    5680:	2f01           	movel %d1,%sp@-
    5682:	2f00           	movel %d0,%sp@-
    5684:	2f07           	movel %d7,%sp@-
    5686:	2f06           	movel %d6,%sp@-
    5688:	4eb9 0000 68d6 	jsr 68d6 <__subdf3>
    568e:	2c00           	movel %d0,%d6
    5690:	2e01           	movel %d1,%d7
    5692:	4fef 001c      	lea %sp@(28),%sp
    5696:	42a7           	clrl %sp@-
    5698:	42a7           	clrl %sp@-
    569a:	2f07           	movel %d7,%sp@-
    569c:	2f06           	movel %d6,%sp@-
    569e:	4eb9 0000 72b8 	jsr 72b8 <__eqdf2>
    56a4:	4fef 0010      	lea %sp@(16),%sp
    56a8:	4a80           	tstl %d0
    56aa:	6700 fe2a      	beqw 54d6 <__kernel_rem_pio2+0x30a>
    56ae:	2845           	moveal %d5,%a4
    56b0:	2f42 0048      	movel %d2,%sp@(72)
    56b4:	282f 004c      	movel %sp@(76),%d4
    56b8:	4484           	negl %d4
    56ba:	2f04           	movel %d4,%sp@-
    56bc:	2f07           	movel %d7,%sp@-
    56be:	2f06           	movel %d6,%sp@-
    56c0:	4eb9 0000 6640 	jsr 6640 <scalbn>
    56c6:	2400           	movel %d0,%d2
    56c8:	2601           	movel %d1,%d3
    56ca:	4fef 000c      	lea %sp@(12),%sp
    56ce:	283c 4170 0000 	movel #1097859072,%d4
    56d4:	4285           	clrl %d5
    56d6:	2f05           	movel %d5,%sp@-
    56d8:	2f04           	movel %d4,%sp@-
    56da:	2f01           	movel %d1,%sp@-
    56dc:	2f02           	movel %d2,%sp@-
    56de:	4eb9 0000 7300 	jsr 7300 <__gedf2>
    56e4:	4fef 0010      	lea %sp@(16),%sp
    56e8:	4a80           	tstl %d0
    56ea:	6d00 0690      	bltw 5d7c <__kernel_rem_pio2+0xbb0>
    56ee:	42a7           	clrl %sp@-
    56f0:	2f3c 3e70 0000 	movel #1047527424,%sp@-
    56f6:	2f03           	movel %d3,%sp@-
    56f8:	2f02           	movel %d2,%sp@-
    56fa:	4e92           	jsr %a2@
    56fc:	4fef 000c      	lea %sp@(12),%sp
    5700:	2e81           	movel %d1,%sp@
    5702:	2f00           	movel %d0,%sp@-
    5704:	4eb9 0000 7772 	jsr 7772 <__fixdfsi>
    570a:	508f           	addql #8,%sp
    570c:	2c00           	movel %d0,%d6
    570e:	202f 0038      	movel %sp@(56),%d0
    5712:	d080           	addl %d0,%d0
    5714:	d080           	addl %d0,%d0
    5716:	41ef 0298      	lea %sp@(664),%a0
    571a:	d088           	addl %a0,%d0
    571c:	2640           	moveal %d0,%a3
    571e:	47eb fdd0      	lea %a3@(-560),%a3
    5722:	2f06           	movel %d6,%sp@-
    5724:	226f 0048      	moveal %sp@(72),%a1
    5728:	4e91           	jsr %a1@
    572a:	2e85           	movel %d5,%sp@
    572c:	2f04           	movel %d4,%sp@-
    572e:	2f01           	movel %d1,%sp@-
    5730:	2f00           	movel %d0,%sp@-
    5732:	4e92           	jsr %a2@
    5734:	4fef 000c      	lea %sp@(12),%sp
    5738:	2e81           	movel %d1,%sp@
    573a:	2f00           	movel %d0,%sp@-
    573c:	2f03           	movel %d3,%sp@-
    573e:	2f02           	movel %d2,%sp@-
    5740:	4eb9 0000 68d6 	jsr 68d6 <__subdf3>
    5746:	4fef 000c      	lea %sp@(12),%sp
    574a:	2e81           	movel %d1,%sp@
    574c:	2f00           	movel %d0,%sp@-
    574e:	4eb9 0000 7772 	jsr 7772 <__fixdfsi>
    5754:	508f           	addql #8,%sp
    5756:	2680           	movel %d0,%a3@
    5758:	242f 0038      	movel %sp@(56),%d2
    575c:	5282           	addql #1,%d2
    575e:	2f42 0040      	movel %d2,%sp@(64)
    5762:	7618           	moveq #24,%d3
    5764:	d7af 004c      	addl %d3,%sp@(76)
    5768:	2002           	movel %d2,%d0
    576a:	d082           	addl %d2,%d0
    576c:	d080           	addl %d0,%d0
    576e:	41ef 0298      	lea %sp@(664),%a0
    5772:	d1c0           	addal %d0,%a0
    5774:	2146 fdd0      	movel %d6,%a0@(-560)
    5778:	2f2f 004c      	movel %sp@(76),%sp@-
    577c:	42a7           	clrl %sp@-
    577e:	2f3c 3ff0 0000 	movel #1072693248,%sp@-
    5784:	4eb9 0000 6640 	jsr 6640 <scalbn>
    578a:	2400           	movel %d0,%d2
    578c:	2601           	movel %d1,%d3
    578e:	4fef 000c      	lea %sp@(12),%sp
    5792:	4aaf 0040      	tstl %sp@(64)
    5796:	6d00 01ea      	bltw 5982 <__kernel_rem_pio2+0x7b6>
    579a:	202f 0040      	movel %sp@(64),%d0
    579e:	d080           	addl %d0,%d0
    57a0:	d080           	addl %d0,%d0
    57a2:	4bef 0068      	lea %sp@(104),%a5
    57a6:	dbc0           	addal %d0,%a5
    57a8:	282f 0040      	movel %sp@(64),%d4
    57ac:	e78c           	lsll #3,%d4
    57ae:	2f44 0038      	movel %d4,%sp@(56)
    57b2:	41ef 01f8      	lea %sp@(504),%a0
    57b6:	2f48 004c      	movel %a0,%sp@(76)
    57ba:	2808           	movel %a0,%d4
    57bc:	d8af 0038      	addl %sp@(56),%d4
    57c0:	2644           	moveal %d4,%a3
    57c2:	2c6f 0044      	moveal %sp@(68),%fp
    57c6:	2f15           	movel %a5@,%sp@-
    57c8:	4e96           	jsr %fp@
    57ca:	2e83           	movel %d3,%sp@
    57cc:	2f02           	movel %d2,%sp@-
    57ce:	2f01           	movel %d1,%sp@-
    57d0:	2f00           	movel %d0,%sp@-
    57d2:	4e92           	jsr %a2@
    57d4:	4fef 0010      	lea %sp@(16),%sp
    57d8:	2680           	movel %d0,%a3@
    57da:	2741 0004      	movel %d1,%a3@(4)
    57de:	42a7           	clrl %sp@-
    57e0:	2f3c 3e70 0000 	movel #1047527424,%sp@-
    57e6:	2f03           	movel %d3,%sp@-
    57e8:	2f02           	movel %d2,%sp@-
    57ea:	4e92           	jsr %a2@
    57ec:	4fef 0010      	lea %sp@(16),%sp
    57f0:	2400           	movel %d0,%d2
    57f2:	2601           	movel %d1,%d3
    57f4:	200d           	movel %a5,%d0
    57f6:	598d           	subql #4,%a5
    57f8:	518b           	subql #8,%a3
    57fa:	b0af 0034      	cmpl %sp@(52),%d0
    57fe:	66c6           	bnes 57c6 <__kernel_rem_pio2+0x5fa>
    5800:	43ef 0158      	lea %sp@(344),%a1
    5804:	2f49 0044      	movel %a1,%sp@(68)
    5808:	7c00           	moveq #0,%d6
    580a:	47f9 0000 68dc 	lea 68dc <__adddf3>,%a3
    5810:	2c6f 0050      	moveal %sp@(80),%fp
    5814:	2f49 003c      	movel %a1,%sp@(60)
    5818:	2e0c           	movel %a4,%d7
    581a:	bcfc 0000      	cmpaw #0,%fp
    581e:	6d60           	blts 5880 <__kernel_rem_pio2+0x6b4>
    5820:	49f9 0001 554c 	lea 1554c <PIo2>,%a4
    5826:	2a44           	moveal %d4,%a5
    5828:	4282           	clrl %d2
    582a:	4283           	clrl %d3
    582c:	7a00           	moveq #0,%d5
    582e:	518f           	subql #8,%sp
    5830:	2e9d           	movel %a5@+,%sp@
    5832:	2f5d 0004      	movel %a5@+,%sp@(4)
    5836:	518f           	subql #8,%sp
    5838:	2e9c           	movel %a4@+,%sp@
    583a:	2f5c 0004      	movel %a4@+,%sp@(4)
    583e:	4e92           	jsr %a2@
    5840:	4fef 000c      	lea %sp@(12),%sp
    5844:	2e81           	movel %d1,%sp@
    5846:	2f00           	movel %d0,%sp@-
    5848:	2f03           	movel %d3,%sp@-
    584a:	2f02           	movel %d2,%sp@-
    584c:	4e93           	jsr %a3@
    584e:	4fef 0010      	lea %sp@(16),%sp
    5852:	2400           	movel %d0,%d2
    5854:	2601           	movel %d1,%d3
    5856:	5285           	addql #1,%d5
    5858:	ba8e           	cmpl %fp,%d5
    585a:	6e04           	bgts 5860 <__kernel_rem_pio2+0x694>
    585c:	bc85           	cmpl %d5,%d6
    585e:	6cce           	bges 582e <__kernel_rem_pio2+0x662>
    5860:	206f 003c      	moveal %sp@(60),%a0
    5864:	50af 003c      	addql #8,%sp@(60)
    5868:	20c2           	movel %d2,%a0@+
    586a:	20c3           	movel %d3,%a0@+
    586c:	5286           	addql #1,%d6
    586e:	2004           	movel %d4,%d0
    5870:	5180           	subql #8,%d0
    5872:	b8af 004c      	cmpl %sp@(76),%d4
    5876:	6724           	beqs 589c <__kernel_rem_pio2+0x6d0>
    5878:	2800           	movel %d0,%d4
    587a:	bcfc 0000      	cmpaw #0,%fp
    587e:	6ca0           	bges 5820 <__kernel_rem_pio2+0x654>
    5880:	4282           	clrl %d2
    5882:	4283           	clrl %d3
    5884:	206f 003c      	moveal %sp@(60),%a0
    5888:	50af 003c      	addql #8,%sp@(60)
    588c:	20c2           	movel %d2,%a0@+
    588e:	20c3           	movel %d3,%a0@+
    5890:	5286           	addql #1,%d6
    5892:	2004           	movel %d4,%d0
    5894:	5180           	subql #8,%d0
    5896:	b8af 004c      	cmpl %sp@(76),%d4
    589a:	66dc           	bnes 5878 <__kernel_rem_pio2+0x6ac>
    589c:	2847           	moveal %d7,%a4
    589e:	7002           	moveq #2,%d0
    58a0:	b0af 02ac      	cmpl %sp@(684),%d0
    58a4:	6d00 0368      	bltw 5c0e <__kernel_rem_pio2+0xa42>
    58a8:	4aaf 02ac      	tstl %sp@(684)
    58ac:	6e00 029a      	bgtw 5b48 <__kernel_rem_pio2+0x97c>
    58b0:	664e           	bnes 5900 <__kernel_rem_pio2+0x734>
    58b2:	47ef 0158      	lea %sp@(344),%a3
    58b6:	d7ef 0038      	addal %sp@(56),%a3
    58ba:	4280           	clrl %d0
    58bc:	4281           	clrl %d1
    58be:	45f9 0000 68dc 	lea 68dc <__adddf3>,%a2
    58c4:	2f2b 0004      	movel %a3@(4),%sp@-
    58c8:	2f13           	movel %a3@,%sp@-
    58ca:	2f01           	movel %d1,%sp@-
    58cc:	2f00           	movel %d0,%sp@-
    58ce:	4e92           	jsr %a2@
    58d0:	4fef 0010      	lea %sp@(16),%sp
    58d4:	2040           	moveal %d0,%a0
    58d6:	2241           	moveal %d1,%a1
    58d8:	2008           	movel %a0,%d0
    58da:	2209           	movel %a1,%d1
    58dc:	204b           	moveal %a3,%a0
    58de:	518b           	subql #8,%a3
    58e0:	b1ef 0044      	cmpal %sp@(68),%a0
    58e4:	66de           	bnes 58c4 <__kernel_rem_pio2+0x6f8>
    58e6:	4aaf 0048      	tstl %sp@(72)
    58ea:	670a           	beqs 58f6 <__kernel_rem_pio2+0x72a>
    58ec:	2240           	moveal %d0,%a1
    58ee:	d3fc 8000 0000 	addal #-2147483648,%a1
    58f4:	2009           	movel %a1,%d0
    58f6:	206f 02a0      	moveal %sp@(672),%a0
    58fa:	2080           	movel %d0,%a0@
    58fc:	2141 0004      	movel %d1,%a0@(4)
    5900:	200c           	movel %a4,%d0
    5902:	7607           	moveq #7,%d3
    5904:	c083           	andl %d3,%d0
    5906:	4cdf 7cfc      	moveml %sp@+,%d2-%d7/%a2-%fp
    590a:	4fef 026c      	lea %sp@(620),%sp
    590e:	4e75           	rts
    5910:	2845           	moveal %d5,%a4
    5912:	2f42 0048      	movel %d2,%sp@(72)
    5916:	242f 0038      	movel %sp@(56),%d2
    591a:	5382           	subql #1,%d2
    591c:	2f42 0040      	movel %d2,%sp@(64)
    5920:	76e8           	moveq #-24,%d3
    5922:	d7af 004c      	addl %d3,%sp@(76)
    5926:	2002           	movel %d2,%d0
    5928:	d082           	addl %d2,%d0
    592a:	d080           	addl %d0,%d0
    592c:	41ef 0298      	lea %sp@(664),%a0
    5930:	d1c0           	addal %d0,%a0
    5932:	4aa8 fdd0      	tstl %a0@(-560)
    5936:	6600 fe40      	bnew 5778 <__kernel_rem_pio2+0x5ac>
    593a:	202f 0038      	movel %sp@(56),%d0
    593e:	e588           	lsll #2,%d0
    5940:	41f7 0860      	lea %sp@(60,%d0:l),%a0
    5944:	2002           	movel %d2,%d0
    5946:	226f 004c      	moveal %sp@(76),%a1
    594a:	5380           	subql #1,%d0
    594c:	43e9 ffe8      	lea %a1@(-24),%a1
    5950:	5988           	subql #4,%a0
    5952:	4aa8 0004      	tstl %a0@(4)
    5956:	67f2           	beqs 594a <__kernel_rem_pio2+0x77e>
    5958:	2f40 0040      	movel %d0,%sp@(64)
    595c:	2f49 004c      	movel %a1,%sp@(76)
    5960:	2f2f 004c      	movel %sp@(76),%sp@-
    5964:	42a7           	clrl %sp@-
    5966:	2f3c 3ff0 0000 	movel #1072693248,%sp@-
    596c:	4eb9 0000 6640 	jsr 6640 <scalbn>
    5972:	2400           	movel %d0,%d2
    5974:	2601           	movel %d1,%d3
    5976:	4fef 000c      	lea %sp@(12),%sp
    597a:	4aaf 0040      	tstl %sp@(64)
    597e:	6c00 fe1a      	bgew 579a <__kernel_rem_pio2+0x5ce>
    5982:	7002           	moveq #2,%d0
    5984:	b0af 02ac      	cmpl %sp@(684),%d0
    5988:	6d00 047c      	bltw 5e06 <__kernel_rem_pio2+0xc3a>
    598c:	4aaf 02ac      	tstl %sp@(684)
    5990:	6e00 049e      	bgtw 5e30 <__kernel_rem_pio2+0xc64>
    5994:	6600 ff6a      	bnew 5900 <__kernel_rem_pio2+0x734>
    5998:	4280           	clrl %d0
    599a:	4281           	clrl %d1
    599c:	4aaf 0048      	tstl %sp@(72)
    59a0:	6700 ff54      	beqw 58f6 <__kernel_rem_pio2+0x72a>
    59a4:	6000 ff46      	braw 58ec <__kernel_rem_pio2+0x720>
    59a8:	4282           	clrl %d2
    59aa:	4283           	clrl %d3
    59ac:	206f 0038      	moveal %sp@(56),%a0
    59b0:	50af 0038      	addql #8,%sp@(56)
    59b4:	20c2           	movel %d2,%a0@+
    59b6:	20c3           	movel %d3,%a0@+
    59b8:	5285           	addql #1,%d5
    59ba:	bc85           	cmpl %d5,%d6
    59bc:	6c00 fba6      	bgew 5564 <__kernel_rem_pio2+0x398>
    59c0:	6000 fc0a      	braw 55cc <__kernel_rem_pio2+0x400>
    59c4:	5281           	addql #1,%d1
    59c6:	b2af 0038      	cmpl %sp@(56),%d1
    59ca:	6c00 fc4a      	bgew 5616 <__kernel_rem_pio2+0x44a>
    59ce:	2618           	movel %a0@+,%d3
    59d0:	6000 fc14      	braw 55e6 <__kernel_rem_pio2+0x41a>
    59d4:	4aaf 004c      	tstl %sp@(76)
    59d8:	6666           	bnes 5a40 <__kernel_rem_pio2+0x874>
    59da:	202f 0038      	movel %sp@(56),%d0
    59de:	5380           	subql #1,%d0
    59e0:	d080           	addl %d0,%d0
    59e2:	d080           	addl %d0,%d0
    59e4:	41ef 0298      	lea %sp@(664),%a0
    59e8:	d1c0           	addal %d0,%a0
    59ea:	2428 fdd0      	movel %a0@(-560),%d2
    59ee:	4842           	swap %d2
    59f0:	ee42           	asrw #7,%d2
    59f2:	48c2           	extl %d2
    59f4:	4a82           	tstl %d2
    59f6:	6f00 fac6      	blew 54be <__kernel_rem_pio2+0x2f2>
    59fa:	5285           	addql #1,%d5
    59fc:	4aaf 0038      	tstl %sp@(56)
    5a00:	6e00 fbdc      	bgtw 55de <__kernel_rem_pio2+0x412>
    5a04:	7002           	moveq #2,%d0
    5a06:	b082           	cmpl %d2,%d0
    5a08:	6600 fab4      	bnew 54be <__kernel_rem_pio2+0x2f2>
    5a0c:	2f01           	movel %d1,%sp@-
    5a0e:	2f06           	movel %d6,%sp@-
    5a10:	42a7           	clrl %sp@-
    5a12:	2f3c 3ff0 0000 	movel #1072693248,%sp@-
    5a18:	4eb9 0000 68d6 	jsr 68d6 <__subdf3>
    5a1e:	4fef 0010      	lea %sp@(16),%sp
    5a22:	2c00           	movel %d0,%d6
    5a24:	2e01           	movel %d1,%d7
    5a26:	6000 fa96      	braw 54be <__kernel_rem_pio2+0x2f2>
    5a2a:	2042           	moveal %d2,%a0
    5a2c:	2243           	moveal %d3,%a1
    5a2e:	2ac8           	movel %a0,%a5@+
    5a30:	2ac9           	movel %a1,%a5@+
    5a32:	528a           	addql #1,%a2
    5a34:	588c           	addql #4,%a4
    5a36:	b7ca           	cmpal %a2,%a3
    5a38:	6600 f828      	bnew 5262 <__kernel_rem_pio2+0x96>
    5a3c:	6000 f842      	braw 5280 <__kernel_rem_pio2+0xb4>
    5a40:	42a7           	clrl %sp@-
    5a42:	2f3c 3fe0 0000 	movel #1071644672,%sp@-
    5a48:	2f01           	movel %d1,%sp@-
    5a4a:	2f06           	movel %d6,%sp@-
    5a4c:	4eb9 0000 7300 	jsr 7300 <__gedf2>
    5a52:	4fef 0010      	lea %sp@(16),%sp
    5a56:	4a80           	tstl %d0
    5a58:	6c00 0094      	bgew 5aee <__kernel_rem_pio2+0x922>
    5a5c:	7400           	moveq #0,%d2
    5a5e:	6000 fa5e      	braw 54be <__kernel_rem_pio2+0x2f2>
    5a62:	222f 0038      	movel %sp@(56),%d1
    5a66:	5281           	addql #1,%d1
    5a68:	2a01           	movel %d1,%d5
    5a6a:	2c01           	movel %d1,%d6
    5a6c:	2c6f 0058      	moveal %sp@(88),%fp
    5a70:	ddc1           	addal %d1,%fp
    5a72:	ddce           	addal %fp,%fp
    5a74:	ddce           	addal %fp,%fp
    5a76:	226f 02b0      	moveal %sp@(688),%a1
    5a7a:	d3ce           	addal %fp,%a1
    5a7c:	2f49 003c      	movel %a1,%sp@(60)
    5a80:	202f 02a8      	movel %sp@(680),%d0
    5a84:	d0af 0038      	addl %sp@(56),%d0
    5a88:	e788           	lsll #3,%d0
    5a8a:	49ef 00b8      	lea %sp@(184),%a4
    5a8e:	d9c0           	addal %d0,%a4
    5a90:	e789           	lsll #3,%d1
    5a92:	2e3c 0000 01f8 	movel #504,%d7
    5a98:	de8f           	addl %sp,%d7
    5a9a:	de81           	addl %d1,%d7
    5a9c:	47f9 0000 68dc 	lea 68dc <__adddf3>,%a3
    5aa2:	2f47 0038      	movel %d7,%sp@(56)
    5aa6:	2e2f 0054      	movel %sp@(84),%d7
    5aaa:	6000 fab8      	braw 5564 <__kernel_rem_pio2+0x398>
    5aae:	4282           	clrl %d2
    5ab0:	4283           	clrl %d3
    5ab2:	2cc2           	movel %d2,%fp@+
    5ab4:	2cc3           	movel %d3,%fp@+
    5ab6:	5084           	addql #8,%d4
    5ab8:	5285           	addql #1,%d5
    5aba:	baaf 003c      	cmpl %sp@(60),%d5
    5abe:	6600 f806      	bnew 52c6 <__kernel_rem_pio2+0xfa>
    5ac2:	6000 f84c      	braw 5310 <__kernel_rem_pio2+0x144>
    5ac6:	206f 0038      	moveal %sp@(56),%a0
    5aca:	5388           	subql #1,%a0
    5acc:	d1c8           	addal %a0,%a0
    5ace:	d1c8           	addal %a0,%a0
    5ad0:	223c 0000 0298 	movel #664,%d1
    5ad6:	d28f           	addl %sp,%d1
    5ad8:	d1c1           	addal %d1,%a0
    5ada:	02a8 007f ffff 	andil #8388607,%a0@(-560)
    5ae0:	fdd0 
    5ae2:	7002           	moveq #2,%d0
    5ae4:	b082           	cmpl %d2,%d0
    5ae6:	6600 f9d6      	bnew 54be <__kernel_rem_pio2+0x2f2>
    5aea:	6000 fb62      	braw 564e <__kernel_rem_pio2+0x482>
    5aee:	5285           	addql #1,%d5
    5af0:	7402           	moveq #2,%d2
    5af2:	4aaf 0038      	tstl %sp@(56)
    5af6:	6e00 fae6      	bgtw 55de <__kernel_rem_pio2+0x412>
    5afa:	2f07           	movel %d7,%sp@-
    5afc:	2f06           	movel %d6,%sp@-
    5afe:	42a7           	clrl %sp@-
    5b00:	2f3c 3ff0 0000 	movel #1072693248,%sp@-
    5b06:	4eb9 0000 68d6 	jsr 68d6 <__subdf3>
    5b0c:	4fef 0010      	lea %sp@(16),%sp
    5b10:	2c00           	movel %d0,%d6
    5b12:	2e01           	movel %d1,%d7
    5b14:	6000 f9a8      	braw 54be <__kernel_rem_pio2+0x2f2>
    5b18:	70e8           	moveq #-24,%d0
    5b1a:	42af 0058      	clrl %sp@(88)
    5b1e:	d5c0           	addal %d0,%a2
    5b20:	2f4a 004c      	movel %a2,%sp@(76)
    5b24:	246f 0058      	moveal %sp@(88),%a2
    5b28:	95ef 0054      	subal %sp@(84),%a2
    5b2c:	206f 0050      	moveal %sp@(80),%a0
    5b30:	d1ef 0054      	addal %sp@(84),%a0
    5b34:	b0fc 0000      	cmpaw #0,%a0
    5b38:	6c00 f704      	bgew 523e <__kernel_rem_pio2+0x72>
    5b3c:	2f7c 0000 7528 	movel #29992,%sp@(68)
    5b42:	0044 
    5b44:	6000 f73a      	braw 5280 <__kernel_rem_pio2+0xb4>
    5b48:	47ef 0158      	lea %sp@(344),%a3
    5b4c:	d7ef 0038      	addal %sp@(56),%a3
    5b50:	4282           	clrl %d2
    5b52:	4283           	clrl %d3
    5b54:	45f9 0000 68dc 	lea 68dc <__adddf3>,%a2
    5b5a:	2f2b 0004      	movel %a3@(4),%sp@-
    5b5e:	2f13           	movel %a3@,%sp@-
    5b60:	2f03           	movel %d3,%sp@-
    5b62:	2f02           	movel %d2,%sp@-
    5b64:	4e92           	jsr %a2@
    5b66:	4fef 0010      	lea %sp@(16),%sp
    5b6a:	2400           	movel %d0,%d2
    5b6c:	2601           	movel %d1,%d3
    5b6e:	200b           	movel %a3,%d0
    5b70:	518b           	subql #8,%a3
    5b72:	b0af 0044      	cmpl %sp@(68),%d0
    5b76:	66e2           	bnes 5b5a <__kernel_rem_pio2+0x98e>
    5b78:	2f01           	movel %d1,%sp@-
    5b7a:	2f02           	movel %d2,%sp@-
    5b7c:	2f2f 0164      	movel %sp@(356),%sp@-
    5b80:	2f2f 0164      	movel %sp@(356),%sp@-
    5b84:	4eb9 0000 68d6 	jsr 68d6 <__subdf3>
    5b8a:	4fef 0010      	lea %sp@(16),%sp
    5b8e:	2040           	moveal %d0,%a0
    5b90:	2241           	moveal %d1,%a1
    5b92:	2008           	movel %a0,%d0
    5b94:	2209           	movel %a1,%d1
    5b96:	4aaf 0048      	tstl %sp@(72)
    5b9a:	6700 0248      	beqw 5de4 <__kernel_rem_pio2+0xc18>
    5b9e:	2802           	movel %d2,%d4
    5ba0:	0684 8000 0000 	addil #-2147483648,%d4
    5ba6:	206f 02a0      	moveal %sp@(672),%a0
    5baa:	2084           	movel %d4,%a0@
    5bac:	2143 0004      	movel %d3,%a0@(4)
    5bb0:	4aaf 0040      	tstl %sp@(64)
    5bb4:	6732           	beqs 5be8 <__kernel_rem_pio2+0xa1c>
    5bb6:	47ef 0158      	lea %sp@(344),%a3
    5bba:	508b           	addql #8,%a3
    5bbc:	7401           	moveq #1,%d2
    5bbe:	262f 0040      	movel %sp@(64),%d3
    5bc2:	518f           	subql #8,%sp
    5bc4:	2e9b           	movel %a3@+,%sp@
    5bc6:	2f5b 0004      	movel %a3@+,%sp@(4)
    5bca:	2f01           	movel %d1,%sp@-
    5bcc:	2f00           	movel %d0,%sp@-
    5bce:	4e92           	jsr %a2@
    5bd0:	4fef 0010      	lea %sp@(16),%sp
    5bd4:	2040           	moveal %d0,%a0
    5bd6:	2241           	moveal %d1,%a1
    5bd8:	2008           	movel %a0,%d0
    5bda:	2209           	movel %a1,%d1
    5bdc:	5282           	addql #1,%d2
    5bde:	b483           	cmpl %d3,%d2
    5be0:	6fe0           	bles 5bc2 <__kernel_rem_pio2+0x9f6>
    5be2:	4aaf 0048      	tstl %sp@(72)
    5be6:	670a           	beqs 5bf2 <__kernel_rem_pio2+0xa26>
    5be8:	2240           	moveal %d0,%a1
    5bea:	d3fc 8000 0000 	addal #-2147483648,%a1
    5bf0:	2009           	movel %a1,%d0
    5bf2:	226f 02a0      	moveal %sp@(672),%a1
    5bf6:	2340 0008      	movel %d0,%a1@(8)
    5bfa:	2341 000c      	movel %d1,%a1@(12)
    5bfe:	200c           	movel %a4,%d0
    5c00:	7607           	moveq #7,%d3
    5c02:	c083           	andl %d3,%d0
    5c04:	4cdf 7cfc      	moveml %sp@+,%d2-%d7/%a2-%fp
    5c08:	4fef 026c      	lea %sp@(620),%sp
    5c0c:	4e75           	rts
    5c0e:	7203           	moveq #3,%d1
    5c10:	b2af 02ac      	cmpl %sp@(684),%d1
    5c14:	6600 fcea      	bnew 5900 <__kernel_rem_pio2+0x734>
    5c18:	4aaf 0040      	tstl %sp@(64)
    5c1c:	6700 01f2      	beqw 5e10 <__kernel_rem_pio2+0xc44>
    5c20:	45ef 0158      	lea %sp@(344),%a2
    5c24:	d5ef 0038      	addal %sp@(56),%a2
    5c28:	2c4a           	moveal %a2,%fp
    5c2a:	2052           	moveal %a2@,%a0
    5c2c:	226a 0004      	moveal %a2@(4),%a1
    5c30:	45ef 0150      	lea %sp@(336),%a2
    5c34:	242f 0038      	movel %sp@(56),%d2
    5c38:	47f2 2800      	lea %a2@(0,%d2:l),%a3
    5c3c:	2a4b           	moveal %a3,%a5
    5c3e:	45f9 0000 68dc 	lea 68dc <__adddf3>,%a2
    5c44:	2c0d           	movel %a5,%d6
    5c46:	2815           	movel %a5@,%d4
    5c48:	2a2d 0004      	movel %a5@(4),%d5
    5c4c:	2408           	movel %a0,%d2
    5c4e:	2609           	movel %a1,%d3
    5c50:	2f05           	movel %d5,%sp@-
    5c52:	2f04           	movel %d4,%sp@-
    5c54:	2f03           	movel %d3,%sp@-
    5c56:	2f08           	movel %a0,%sp@-
    5c58:	4e92           	jsr %a2@
    5c5a:	4fef 0010      	lea %sp@(16),%sp
    5c5e:	2040           	moveal %d0,%a0
    5c60:	2f01           	movel %d1,%sp@-
    5c62:	2f08           	movel %a0,%sp@-
    5c64:	2f05           	movel %d5,%sp@-
    5c66:	2f04           	movel %d4,%sp@-
    5c68:	2f48 0040      	movel %a0,%sp@(64)
    5c6c:	2f41 003c      	movel %d1,%sp@(60)
    5c70:	4eb9 0000 68d6 	jsr 68d6 <__subdf3>
    5c76:	4fef 000c      	lea %sp@(12),%sp
    5c7a:	2e83           	movel %d3,%sp@
    5c7c:	2f02           	movel %d2,%sp@-
    5c7e:	2f01           	movel %d1,%sp@-
    5c80:	2f00           	movel %d0,%sp@-
    5c82:	4e92           	jsr %a2@
    5c84:	4fef 0010      	lea %sp@(16),%sp
    5c88:	2b40 0008      	movel %d0,%a5@(8)
    5c8c:	2b41 000c      	movel %d1,%a5@(12)
    5c90:	206f 0030      	moveal %sp@(48),%a0
    5c94:	226f 002c      	moveal %sp@(44),%a1
    5c98:	2a88           	movel %a0,%a5@
    5c9a:	2b49 0004      	movel %a1,%a5@(4)
    5c9e:	518d           	subql #8,%a5
    5ca0:	bcaf 0044      	cmpl %sp@(68),%d6
    5ca4:	669e           	bnes 5c44 <__kernel_rem_pio2+0xa78>
    5ca6:	7401           	moveq #1,%d2
    5ca8:	b4af 0040      	cmpl %sp@(64),%d2
    5cac:	6700 0162      	beqw 5e10 <__kernel_rem_pio2+0xc44>
    5cb0:	2416           	movel %fp@,%d2
    5cb2:	262e 0004      	movel %fp@(4),%d3
    5cb6:	2c13           	movel %a3@,%d6
    5cb8:	2e2b 0004      	movel %a3@(4),%d7
    5cbc:	2802           	movel %d2,%d4
    5cbe:	2a03           	movel %d3,%d5
    5cc0:	2f07           	movel %d7,%sp@-
    5cc2:	2f06           	movel %d6,%sp@-
    5cc4:	2f05           	movel %d5,%sp@-
    5cc6:	2f02           	movel %d2,%sp@-
    5cc8:	4e92           	jsr %a2@
    5cca:	4fef 0010      	lea %sp@(16),%sp
    5cce:	2400           	movel %d0,%d2
    5cd0:	2601           	movel %d1,%d3
    5cd2:	2f01           	movel %d1,%sp@-
    5cd4:	2f02           	movel %d2,%sp@-
    5cd6:	2f07           	movel %d7,%sp@-
    5cd8:	2f06           	movel %d6,%sp@-
    5cda:	4eb9 0000 68d6 	jsr 68d6 <__subdf3>
    5ce0:	4fef 000c      	lea %sp@(12),%sp
    5ce4:	2e85           	movel %d5,%sp@
    5ce6:	2f04           	movel %d4,%sp@-
    5ce8:	2f01           	movel %d1,%sp@-
    5cea:	2f00           	movel %d0,%sp@-
    5cec:	4e92           	jsr %a2@
    5cee:	4fef 0010      	lea %sp@(16),%sp
    5cf2:	2740 0008      	movel %d0,%a3@(8)
    5cf6:	2741 000c      	movel %d1,%a3@(12)
    5cfa:	2682           	movel %d2,%a3@
    5cfc:	2743 0004      	movel %d3,%a3@(4)
    5d00:	518b           	subql #8,%a3
    5d02:	b7ef 0044      	cmpal %sp@(68),%a3
    5d06:	66ae           	bnes 5cb6 <__kernel_rem_pio2+0xaea>
    5d08:	243c 0000 0160 	movel #352,%d2
    5d0e:	d48f           	addl %sp,%d2
    5d10:	4280           	clrl %d0
    5d12:	4281           	clrl %d1
    5d14:	2f2e 0004      	movel %fp@(4),%sp@-
    5d18:	2f16           	movel %fp@,%sp@-
    5d1a:	2f01           	movel %d1,%sp@-
    5d1c:	2f00           	movel %d0,%sp@-
    5d1e:	4e92           	jsr %a2@
    5d20:	4fef 0010      	lea %sp@(16),%sp
    5d24:	2040           	moveal %d0,%a0
    5d26:	2241           	moveal %d1,%a1
    5d28:	2008           	movel %a0,%d0
    5d2a:	2209           	movel %a1,%d1
    5d2c:	518e           	subql #8,%fp
    5d2e:	bdc2           	cmpal %d2,%fp
    5d30:	66e2           	bnes 5d14 <__kernel_rem_pio2+0xb48>
    5d32:	282f 0158      	movel %sp@(344),%d4
    5d36:	206f 015c      	moveal %sp@(348),%a0
    5d3a:	262f 0160      	movel %sp@(352),%d3
    5d3e:	242f 0164      	movel %sp@(356),%d2
    5d42:	4aaf 0048      	tstl %sp@(72)
    5d46:	665e           	bnes 5da6 <__kernel_rem_pio2+0xbda>
    5d48:	2a08           	movel %a0,%d5
    5d4a:	2044           	moveal %d4,%a0
    5d4c:	2245           	moveal %d5,%a1
    5d4e:	246f 02a0      	moveal %sp@(672),%a2
    5d52:	2488           	movel %a0,%a2@
    5d54:	2549 0004      	movel %a1,%a2@(4)
    5d58:	2043           	moveal %d3,%a0
    5d5a:	2242           	moveal %d2,%a1
    5d5c:	2548 0008      	movel %a0,%a2@(8)
    5d60:	2549 000c      	movel %a1,%a2@(12)
    5d64:	2540 0010      	movel %d0,%a2@(16)
    5d68:	2541 0014      	movel %d1,%a2@(20)
    5d6c:	200c           	movel %a4,%d0
    5d6e:	7607           	moveq #7,%d3
    5d70:	c083           	andl %d3,%d0
    5d72:	4cdf 7cfc      	moveml %sp@+,%d2-%d7/%a2-%fp
    5d76:	4fef 026c      	lea %sp@(620),%sp
    5d7a:	4e75           	rts
    5d7c:	202f 0038      	movel %sp@(56),%d0
    5d80:	d080           	addl %d0,%d0
    5d82:	d080           	addl %d0,%d0
    5d84:	47ef 0298      	lea %sp@(664),%a3
    5d88:	d7c0           	addal %d0,%a3
    5d8a:	47eb fdd0      	lea %a3@(-560),%a3
    5d8e:	2f03           	movel %d3,%sp@-
    5d90:	2f02           	movel %d2,%sp@-
    5d92:	4eb9 0000 7772 	jsr 7772 <__fixdfsi>
    5d98:	508f           	addql #8,%sp
    5d9a:	2680           	movel %d0,%a3@
    5d9c:	2f6f 0038 0040 	movel %sp@(56),%sp@(64)
    5da2:	6000 f9d4      	braw 5778 <__kernel_rem_pio2+0x5ac>
    5da6:	0684 8000 0000 	addil #-2147483648,%d4
    5dac:	226f 02a0      	moveal %sp@(672),%a1
    5db0:	2284           	movel %d4,%a1@
    5db2:	2348 0004      	movel %a0,%a1@(4)
    5db6:	0683 8000 0000 	addil #-2147483648,%d3
    5dbc:	2343 0008      	movel %d3,%a1@(8)
    5dc0:	2342 000c      	movel %d2,%a1@(12)
    5dc4:	2400           	movel %d0,%d2
    5dc6:	0682 8000 0000 	addil #-2147483648,%d2
    5dcc:	2342 0010      	movel %d2,%a1@(16)
    5dd0:	2341 0014      	movel %d1,%a1@(20)
    5dd4:	200c           	movel %a4,%d0
    5dd6:	7607           	moveq #7,%d3
    5dd8:	c083           	andl %d3,%d0
    5dda:	4cdf 7cfc      	moveml %sp@+,%d2-%d7/%a2-%fp
    5dde:	4fef 026c      	lea %sp@(620),%sp
    5de2:	4e75           	rts
    5de4:	226f 02a0      	moveal %sp@(672),%a1
    5de8:	2282           	movel %d2,%a1@
    5dea:	2343 0004      	movel %d3,%a1@(4)
    5dee:	4aaf 0040      	tstl %sp@(64)
    5df2:	6700 fdfe      	beqw 5bf2 <__kernel_rem_pio2+0xa26>
    5df6:	47ef 0158      	lea %sp@(344),%a3
    5dfa:	508b           	addql #8,%a3
    5dfc:	7401           	moveq #1,%d2
    5dfe:	262f 0040      	movel %sp@(64),%d3
    5e02:	6000 fdbe      	braw 5bc2 <__kernel_rem_pio2+0x9f6>
    5e06:	7203           	moveq #3,%d1
    5e08:	b2af 02ac      	cmpl %sp@(684),%d1
    5e0c:	6600 faf2      	bnew 5900 <__kernel_rem_pio2+0x734>
    5e10:	4280           	clrl %d0
    5e12:	4281           	clrl %d1
    5e14:	282f 0158      	movel %sp@(344),%d4
    5e18:	206f 015c      	moveal %sp@(348),%a0
    5e1c:	262f 0160      	movel %sp@(352),%d3
    5e20:	242f 0164      	movel %sp@(356),%d2
    5e24:	4aaf 0048      	tstl %sp@(72)
    5e28:	6600 ff7c      	bnew 5da6 <__kernel_rem_pio2+0xbda>
    5e2c:	6000 ff1a      	braw 5d48 <__kernel_rem_pio2+0xb7c>
    5e30:	202f 0158      	movel %sp@(344),%d0
    5e34:	222f 015c      	movel %sp@(348),%d1
    5e38:	4aaf 0048      	tstl %sp@(72)
    5e3c:	671c           	beqs 5e5a <__kernel_rem_pio2+0xc8e>
    5e3e:	206f 02a0      	moveal %sp@(672),%a0
    5e42:	20bc 8000 0000 	movel #-2147483648,%a0@
    5e48:	42a8 0004      	clrl %a0@(4)
    5e4c:	2240           	moveal %d0,%a1
    5e4e:	d3fc 8000 0000 	addal #-2147483648,%a1
    5e54:	2009           	movel %a1,%d0
    5e56:	6000 fd9a      	braw 5bf2 <__kernel_rem_pio2+0xa26>
    5e5a:	206f 02a0      	moveal %sp@(672),%a0
    5e5e:	4290           	clrl %a0@
    5e60:	42a8 0004      	clrl %a0@(4)
    5e64:	226f 02a0      	moveal %sp@(672),%a1
    5e68:	2340 0008      	movel %d0,%a1@(8)
    5e6c:	2341 000c      	movel %d1,%a1@(12)
    5e70:	6000 fd8c      	braw 5bfe <__kernel_rem_pio2+0xa32>

00005e74 <__kernel_cos>:
    5e74:	518f           	subql #8,%sp
    5e76:	48e7 3f3c      	moveml %d2-%d7/%a2-%a5,%sp@-
    5e7a:	282f 0034      	movel %sp@(52),%d4
    5e7e:	2a2f 0038      	movel %sp@(56),%d5
    5e82:	2004           	movel %d4,%d0
    5e84:	0880 001f      	bclr #31,%d0
    5e88:	2840           	moveal %d0,%a4
    5e8a:	0c80 3e3f ffff 	cmpil #1044381695,%d0
    5e90:	6200 017e      	bhiw 6010 <__kernel_cos+0x19c>
    5e94:	2f05           	movel %d5,%sp@-
    5e96:	2f04           	movel %d4,%sp@-
    5e98:	4eb9 0000 7772 	jsr 7772 <__fixdfsi>
    5e9e:	508f           	addql #8,%sp
    5ea0:	4a80           	tstl %d0
    5ea2:	6700 03b6      	beqw 625a <__kernel_cos+0x3e6>
    5ea6:	45f9 0000 6c72 	lea 6c72 <__muldf3>,%a2
    5eac:	2f05           	movel %d5,%sp@-
    5eae:	2f04           	movel %d4,%sp@-
    5eb0:	2f05           	movel %d5,%sp@-
    5eb2:	2f04           	movel %d4,%sp@-
    5eb4:	4e92           	jsr %a2@
    5eb6:	4fef 0010      	lea %sp@(16),%sp
    5eba:	2400           	movel %d0,%d2
    5ebc:	2601           	movel %d1,%d3
    5ebe:	2f3c be88 38d4 	movel #-1098368812,%sp@-
    5ec4:	2f3c bda8 fae9 	movel #-1112999191,%sp@-
    5eca:	2f01           	movel %d1,%sp@-
    5ecc:	2f02           	movel %d2,%sp@-
    5ece:	4e92           	jsr %a2@
    5ed0:	4fef 0010      	lea %sp@(16),%sp
    5ed4:	49f9 0000 68dc 	lea 68dc <__adddf3>,%a4
    5eda:	2f3c bdb4 b1c4 	movel #-1112231484,%sp@-
    5ee0:	2f3c 3e21 ee9e 	movel #1042411166,%sp@-
    5ee6:	2f01           	movel %d1,%sp@-
    5ee8:	2f00           	movel %d0,%sp@-
    5eea:	4e94           	jsr %a4@
    5eec:	4fef 000c      	lea %sp@(12),%sp
    5ef0:	2e83           	movel %d3,%sp@
    5ef2:	2f02           	movel %d2,%sp@-
    5ef4:	2f01           	movel %d1,%sp@-
    5ef6:	2f00           	movel %d0,%sp@-
    5ef8:	4e92           	jsr %a2@
    5efa:	4fef 0010      	lea %sp@(16),%sp
    5efe:	47f9 0000 68d6 	lea 68d6 <__subdf3>,%a3
    5f04:	2f3c 809c 52ad 	movel #-2137238867,%sp@-
    5f0a:	2f3c 3e92 7e4f 	movel #1049787983,%sp@-
    5f10:	2f01           	movel %d1,%sp@-
    5f12:	2f00           	movel %d0,%sp@-
    5f14:	4e93           	jsr %a3@
    5f16:	4fef 000c      	lea %sp@(12),%sp
    5f1a:	2e83           	movel %d3,%sp@
    5f1c:	2f02           	movel %d2,%sp@-
    5f1e:	2f01           	movel %d1,%sp@-
    5f20:	2f00           	movel %d0,%sp@-
    5f22:	4e92           	jsr %a2@
    5f24:	4fef 000c      	lea %sp@(12),%sp
    5f28:	2ebc 19cb 1590 	movel #432739728,%sp@
    5f2e:	2f3c 3efa 01a0 	movel #1056571808,%sp@-
    5f34:	2f01           	movel %d1,%sp@-
    5f36:	2f00           	movel %d0,%sp@-
    5f38:	4e94           	jsr %a4@
    5f3a:	4fef 000c      	lea %sp@(12),%sp
    5f3e:	2e83           	movel %d3,%sp@
    5f40:	2f02           	movel %d2,%sp@-
    5f42:	2f01           	movel %d1,%sp@-
    5f44:	2f00           	movel %d0,%sp@-
    5f46:	4e92           	jsr %a2@
    5f48:	4fef 000c      	lea %sp@(12),%sp
    5f4c:	2ebc 16c1 5177 	movel #381768055,%sp@
    5f52:	2f3c 3f56 c16c 	movel #1062650220,%sp@-
    5f58:	2f01           	movel %d1,%sp@-
    5f5a:	2f00           	movel %d0,%sp@-
    5f5c:	4e93           	jsr %a3@
    5f5e:	4fef 000c      	lea %sp@(12),%sp
    5f62:	2e83           	movel %d3,%sp@
    5f64:	2f02           	movel %d2,%sp@-
    5f66:	2f01           	movel %d1,%sp@-
    5f68:	2f00           	movel %d0,%sp@-
    5f6a:	4e92           	jsr %a2@
    5f6c:	4fef 000c      	lea %sp@(12),%sp
    5f70:	2ebc 5555 554c 	movel #1431655756,%sp@
    5f76:	2f3c 3fa5 5555 	movel #1067799893,%sp@-
    5f7c:	2f01           	movel %d1,%sp@-
    5f7e:	2f00           	movel %d0,%sp@-
    5f80:	4e94           	jsr %a4@
    5f82:	4fef 000c      	lea %sp@(12),%sp
    5f86:	2e83           	movel %d3,%sp@
    5f88:	2f02           	movel %d2,%sp@-
    5f8a:	2f01           	movel %d1,%sp@-
    5f8c:	2f00           	movel %d0,%sp@-
    5f8e:	4e92           	jsr %a2@
    5f90:	4fef 0010      	lea %sp@(16),%sp
    5f94:	2c00           	movel %d0,%d6
    5f96:	2e01           	movel %d1,%d7
    5f98:	42a7           	clrl %sp@-
    5f9a:	2f3c 3fe0 0000 	movel #1071644672,%sp@-
    5fa0:	2f03           	movel %d3,%sp@-
    5fa2:	2f02           	movel %d2,%sp@-
    5fa4:	4e92           	jsr %a2@
    5fa6:	4fef 0010      	lea %sp@(16),%sp
    5faa:	2840           	moveal %d0,%a4
    5fac:	2a41           	moveal %d1,%a5
    5fae:	2f07           	movel %d7,%sp@-
    5fb0:	2f06           	movel %d6,%sp@-
    5fb2:	2f03           	movel %d3,%sp@-
    5fb4:	2f02           	movel %d2,%sp@-
    5fb6:	4e92           	jsr %a2@
    5fb8:	4fef 0010      	lea %sp@(16),%sp
    5fbc:	2400           	movel %d0,%d2
    5fbe:	2601           	movel %d1,%d3
    5fc0:	2f2f 0040      	movel %sp@(64),%sp@-
    5fc4:	2f2f 0040      	movel %sp@(64),%sp@-
    5fc8:	2f05           	movel %d5,%sp@-
    5fca:	2f04           	movel %d4,%sp@-
    5fcc:	4e92           	jsr %a2@
    5fce:	4fef 000c      	lea %sp@(12),%sp
    5fd2:	2e81           	movel %d1,%sp@
    5fd4:	2f00           	movel %d0,%sp@-
    5fd6:	2f03           	movel %d3,%sp@-
    5fd8:	2f02           	movel %d2,%sp@-
    5fda:	4e93           	jsr %a3@
    5fdc:	4fef 000c      	lea %sp@(12),%sp
    5fe0:	2e81           	movel %d1,%sp@
    5fe2:	2f00           	movel %d0,%sp@-
    5fe4:	2f0d           	movel %a5,%sp@-
    5fe6:	2f0c           	movel %a4,%sp@-
    5fe8:	4e93           	jsr %a3@
    5fea:	4fef 000c      	lea %sp@(12),%sp
    5fee:	2e81           	movel %d1,%sp@
    5ff0:	2f00           	movel %d0,%sp@-
    5ff2:	42a7           	clrl %sp@-
    5ff4:	2f3c 3ff0 0000 	movel #1072693248,%sp@-
    5ffa:	4e93           	jsr %a3@
    5ffc:	4fef 0010      	lea %sp@(16),%sp
    6000:	2240           	moveal %d0,%a1
    6002:	2041           	moveal %d1,%a0
    6004:	2009           	movel %a1,%d0
    6006:	2208           	movel %a0,%d1
    6008:	4cdf 3cfc      	moveml %sp@+,%d2-%d7/%a2-%a5
    600c:	508f           	addql #8,%sp
    600e:	4e75           	rts
    6010:	45f9 0000 6c72 	lea 6c72 <__muldf3>,%a2
    6016:	2f05           	movel %d5,%sp@-
    6018:	2f04           	movel %d4,%sp@-
    601a:	2f05           	movel %d5,%sp@-
    601c:	2f04           	movel %d4,%sp@-
    601e:	4e92           	jsr %a2@
    6020:	4fef 0010      	lea %sp@(16),%sp
    6024:	2400           	movel %d0,%d2
    6026:	2601           	movel %d1,%d3
    6028:	2f3c be88 38d4 	movel #-1098368812,%sp@-
    602e:	2f3c bda8 fae9 	movel #-1112999191,%sp@-
    6034:	2f01           	movel %d1,%sp@-
    6036:	2f02           	movel %d2,%sp@-
    6038:	4e92           	jsr %a2@
    603a:	4fef 0010      	lea %sp@(16),%sp
    603e:	4bf9 0000 68dc 	lea 68dc <__adddf3>,%a5
    6044:	2f3c bdb4 b1c4 	movel #-1112231484,%sp@-
    604a:	2f3c 3e21 ee9e 	movel #1042411166,%sp@-
    6050:	2f01           	movel %d1,%sp@-
    6052:	2f00           	movel %d0,%sp@-
    6054:	4e95           	jsr %a5@
    6056:	4fef 000c      	lea %sp@(12),%sp
    605a:	2e83           	movel %d3,%sp@
    605c:	2f02           	movel %d2,%sp@-
    605e:	2f01           	movel %d1,%sp@-
    6060:	2f00           	movel %d0,%sp@-
    6062:	4e92           	jsr %a2@
    6064:	4fef 0010      	lea %sp@(16),%sp
    6068:	47f9 0000 68d6 	lea 68d6 <__subdf3>,%a3
    606e:	2f3c 809c 52ad 	movel #-2137238867,%sp@-
    6074:	2f3c 3e92 7e4f 	movel #1049787983,%sp@-
    607a:	2f01           	movel %d1,%sp@-
    607c:	2f00           	movel %d0,%sp@-
    607e:	4e93           	jsr %a3@
    6080:	4fef 000c      	lea %sp@(12),%sp
    6084:	2e83           	movel %d3,%sp@
    6086:	2f02           	movel %d2,%sp@-
    6088:	2f01           	movel %d1,%sp@-
    608a:	2f00           	movel %d0,%sp@-
    608c:	4e92           	jsr %a2@
    608e:	4fef 000c      	lea %sp@(12),%sp
    6092:	2ebc 19cb 1590 	movel #432739728,%sp@
    6098:	2f3c 3efa 01a0 	movel #1056571808,%sp@-
    609e:	2f01           	movel %d1,%sp@-
    60a0:	2f00           	movel %d0,%sp@-
    60a2:	4e95           	jsr %a5@
    60a4:	4fef 000c      	lea %sp@(12),%sp
    60a8:	2e83           	movel %d3,%sp@
    60aa:	2f02           	movel %d2,%sp@-
    60ac:	2f01           	movel %d1,%sp@-
    60ae:	2f00           	movel %d0,%sp@-
    60b0:	4e92           	jsr %a2@
    60b2:	4fef 000c      	lea %sp@(12),%sp
    60b6:	2ebc 16c1 5177 	movel #381768055,%sp@
    60bc:	2f3c 3f56 c16c 	movel #1062650220,%sp@-
    60c2:	2f01           	movel %d1,%sp@-
    60c4:	2f00           	movel %d0,%sp@-
    60c6:	4e93           	jsr %a3@
    60c8:	4fef 000c      	lea %sp@(12),%sp
    60cc:	2e83           	movel %d3,%sp@
    60ce:	2f02           	movel %d2,%sp@-
    60d0:	2f01           	movel %d1,%sp@-
    60d2:	2f00           	movel %d0,%sp@-
    60d4:	4e92           	jsr %a2@
    60d6:	4fef 000c      	lea %sp@(12),%sp
    60da:	2ebc 5555 554c 	movel #1431655756,%sp@
    60e0:	2f3c 3fa5 5555 	movel #1067799893,%sp@-
    60e6:	2f01           	movel %d1,%sp@-
    60e8:	2f00           	movel %d0,%sp@-
    60ea:	4e95           	jsr %a5@
    60ec:	4fef 000c      	lea %sp@(12),%sp
    60f0:	2e83           	movel %d3,%sp@
    60f2:	2f02           	movel %d2,%sp@-
    60f4:	2f01           	movel %d1,%sp@-
    60f6:	2f00           	movel %d0,%sp@-
    60f8:	4e92           	jsr %a2@
    60fa:	4fef 0010      	lea %sp@(16),%sp
    60fe:	2c00           	movel %d0,%d6
    6100:	2e01           	movel %d1,%d7
    6102:	b9fc 3fd3 3332 	cmpal #1070805810,%a4
    6108:	6300 fe8e      	blsw 5f98 <__kernel_cos+0x124>
    610c:	b9fc 3fe9 0000 	cmpal #1072234496,%a4
    6112:	6200 00b4      	bhiw 61c8 <__kernel_cos+0x354>
    6116:	200c           	movel %a4,%d0
    6118:	0680 ffe0 0000 	addil #-2097152,%d0
    611e:	7200           	moveq #0,%d1
    6120:	2840           	moveal %d0,%a4
    6122:	2a41           	moveal %d1,%a5
    6124:	2f01           	movel %d1,%sp@-
    6126:	2f00           	movel %d0,%sp@-
    6128:	42a7           	clrl %sp@-
    612a:	2f3c 3ff0 0000 	movel #1072693248,%sp@-
    6130:	4e93           	jsr %a3@
    6132:	4fef 0010      	lea %sp@(16),%sp
    6136:	2040           	moveal %d0,%a0
    6138:	2241           	moveal %d1,%a1
    613a:	2f48 0028      	movel %a0,%sp@(40)
    613e:	2f49 002c      	movel %a1,%sp@(44)
    6142:	42a7           	clrl %sp@-
    6144:	2f3c 3fe0 0000 	movel #1071644672,%sp@-
    614a:	2f03           	movel %d3,%sp@-
    614c:	2f02           	movel %d2,%sp@-
    614e:	4e92           	jsr %a2@
    6150:	4fef 000c      	lea %sp@(12),%sp
    6154:	2e8d           	movel %a5,%sp@
    6156:	2f0c           	movel %a4,%sp@-
    6158:	2f01           	movel %d1,%sp@-
    615a:	2f00           	movel %d0,%sp@-
    615c:	4e93           	jsr %a3@
    615e:	4fef 0010      	lea %sp@(16),%sp
    6162:	2840           	moveal %d0,%a4
    6164:	2a41           	moveal %d1,%a5
    6166:	2f07           	movel %d7,%sp@-
    6168:	2f06           	movel %d6,%sp@-
    616a:	2f03           	movel %d3,%sp@-
    616c:	2f02           	movel %d2,%sp@-
    616e:	4e92           	jsr %a2@
    6170:	4fef 0010      	lea %sp@(16),%sp
    6174:	2400           	movel %d0,%d2
    6176:	2601           	movel %d1,%d3
    6178:	2f2f 0040      	movel %sp@(64),%sp@-
    617c:	2f2f 0040      	movel %sp@(64),%sp@-
    6180:	2f05           	movel %d5,%sp@-
    6182:	2f04           	movel %d4,%sp@-
    6184:	4e92           	jsr %a2@
    6186:	4fef 000c      	lea %sp@(12),%sp
    618a:	2e81           	movel %d1,%sp@
    618c:	2f00           	movel %d0,%sp@-
    618e:	2f03           	movel %d3,%sp@-
    6190:	2f02           	movel %d2,%sp@-
    6192:	4e93           	jsr %a3@
    6194:	4fef 000c      	lea %sp@(12),%sp
    6198:	2e81           	movel %d1,%sp@
    619a:	2f00           	movel %d0,%sp@-
    619c:	2f0d           	movel %a5,%sp@-
    619e:	2f0c           	movel %a4,%sp@-
    61a0:	4e93           	jsr %a3@
    61a2:	4fef 000c      	lea %sp@(12),%sp
    61a6:	2e81           	movel %d1,%sp@
    61a8:	2f00           	movel %d0,%sp@-
    61aa:	2f2f 0034      	movel %sp@(52),%sp@-
    61ae:	2f2f 0034      	movel %sp@(52),%sp@-
    61b2:	4e93           	jsr %a3@
    61b4:	4fef 0010      	lea %sp@(16),%sp
    61b8:	2240           	moveal %d0,%a1
    61ba:	2041           	moveal %d1,%a0
    61bc:	2009           	movel %a1,%d0
    61be:	2208           	movel %a0,%d1
    61c0:	4cdf 3cfc      	moveml %sp@+,%d2-%d7/%a2-%a5
    61c4:	508f           	addql #8,%sp
    61c6:	4e75           	rts
    61c8:	2f7c 3fe7 0000 	movel #1072103424,%sp@(40)
    61ce:	0028 
    61d0:	42af 002c      	clrl %sp@(44)
    61d4:	287c 3fd2 0000 	moveal #1070727168,%a4
    61da:	9bcd           	subal %a5,%a5
    61dc:	42a7           	clrl %sp@-
    61de:	2f3c 3fe0 0000 	movel #1071644672,%sp@-
    61e4:	2f03           	movel %d3,%sp@-
    61e6:	2f02           	movel %d2,%sp@-
    61e8:	4e92           	jsr %a2@
    61ea:	4fef 000c      	lea %sp@(12),%sp
    61ee:	2e8d           	movel %a5,%sp@
    61f0:	2f0c           	movel %a4,%sp@-
    61f2:	2f01           	movel %d1,%sp@-
    61f4:	2f00           	movel %d0,%sp@-
    61f6:	4e93           	jsr %a3@
    61f8:	4fef 0010      	lea %sp@(16),%sp
    61fc:	2840           	moveal %d0,%a4
    61fe:	2a41           	moveal %d1,%a5
    6200:	2f07           	movel %d7,%sp@-
    6202:	2f06           	movel %d6,%sp@-
    6204:	2f03           	movel %d3,%sp@-
    6206:	2f02           	movel %d2,%sp@-
    6208:	4e92           	jsr %a2@
    620a:	4fef 0010      	lea %sp@(16),%sp
    620e:	2400           	movel %d0,%d2
    6210:	2601           	movel %d1,%d3
    6212:	2f2f 0040      	movel %sp@(64),%sp@-
    6216:	2f2f 0040      	movel %sp@(64),%sp@-
    621a:	2f05           	movel %d5,%sp@-
    621c:	2f04           	movel %d4,%sp@-
    621e:	4e92           	jsr %a2@
    6220:	4fef 000c      	lea %sp@(12),%sp
    6224:	2e81           	movel %d1,%sp@
    6226:	2f00           	movel %d0,%sp@-
    6228:	2f03           	movel %d3,%sp@-
    622a:	2f02           	movel %d2,%sp@-
    622c:	4e93           	jsr %a3@
    622e:	4fef 000c      	lea %sp@(12),%sp
    6232:	2e81           	movel %d1,%sp@
    6234:	2f00           	movel %d0,%sp@-
    6236:	2f0d           	movel %a5,%sp@-
    6238:	2f0c           	movel %a4,%sp@-
    623a:	4e93           	jsr %a3@
    623c:	4fef 000c      	lea %sp@(12),%sp
    6240:	2e81           	movel %d1,%sp@
    6242:	2f00           	movel %d0,%sp@-
    6244:	2f2f 0034      	movel %sp@(52),%sp@-
    6248:	2f2f 0034      	movel %sp@(52),%sp@-
    624c:	4e93           	jsr %a3@
    624e:	4fef 0010      	lea %sp@(16),%sp
    6252:	2240           	moveal %d0,%a1
    6254:	2041           	moveal %d1,%a0
    6256:	6000 ff64      	braw 61bc <__kernel_cos+0x348>
    625a:	227c 3ff0 0000 	moveal #1072693248,%a1
    6260:	91c8           	subal %a0,%a0
    6262:	2009           	movel %a1,%d0
    6264:	2208           	movel %a0,%d1
    6266:	4cdf 3cfc      	moveml %sp@+,%d2-%d7/%a2-%a5
    626a:	508f           	addql #8,%sp
    626c:	4e75           	rts
	...

00006270 <__kernel_sin>:
    6270:	518f           	subql #8,%sp
    6272:	48e7 3f3e      	moveml %d2-%d7/%a2-%fp,%sp@-
    6276:	282f 0038      	movel %sp@(56),%d4
    627a:	2a2f 003c      	movel %sp@(60),%d5
    627e:	2004           	movel %d4,%d0
    6280:	0880 001f      	bclr #31,%d0
    6284:	0c80 3e3f ffff 	cmpil #1044381695,%d0
    628a:	6212           	bhis 629e <__kernel_sin+0x2e>
    628c:	2f05           	movel %d5,%sp@-
    628e:	2f04           	movel %d4,%sp@-
    6290:	4eb9 0000 7772 	jsr 7772 <__fixdfsi>
    6296:	508f           	addql #8,%sp
    6298:	4a80           	tstl %d0
    629a:	6700 01d4      	beqw 6470 <__kernel_sin+0x200>
    629e:	49f9 0000 6c72 	lea 6c72 <__muldf3>,%a4
    62a4:	2f05           	movel %d5,%sp@-
    62a6:	2f04           	movel %d4,%sp@-
    62a8:	2f05           	movel %d5,%sp@-
    62aa:	2f04           	movel %d4,%sp@-
    62ac:	4e94           	jsr %a4@
    62ae:	4fef 0010      	lea %sp@(16),%sp
    62b2:	2400           	movel %d0,%d2
    62b4:	2601           	movel %d1,%d3
    62b6:	2f01           	movel %d1,%sp@-
    62b8:	2f02           	movel %d2,%sp@-
    62ba:	2f05           	movel %d5,%sp@-
    62bc:	2f04           	movel %d4,%sp@-
    62be:	4e94           	jsr %a4@
    62c0:	4fef 0010      	lea %sp@(16),%sp
    62c4:	2c00           	movel %d0,%d6
    62c6:	2e01           	movel %d1,%d7
    62c8:	2f3c 5acf d57c 	movel #1523570044,%sp@-
    62ce:	2f3c 3de5 d93a 	movel #1038473530,%sp@-
    62d4:	2f03           	movel %d3,%sp@-
    62d6:	2f02           	movel %d2,%sp@-
    62d8:	4e94           	jsr %a4@
    62da:	4fef 0010      	lea %sp@(16),%sp
    62de:	4bf9 0000 68d6 	lea 68d6 <__subdf3>,%a5
    62e4:	2f3c 8a2b 9ceb 	movel #-1976853269,%sp@-
    62ea:	2f3c 3e5a e5e6 	movel #1046144486,%sp@-
    62f0:	2f01           	movel %d1,%sp@-
    62f2:	2f00           	movel %d0,%sp@-
    62f4:	4e95           	jsr %a5@
    62f6:	4fef 000c      	lea %sp@(12),%sp
    62fa:	2e83           	movel %d3,%sp@
    62fc:	2f02           	movel %d2,%sp@-
    62fe:	2f01           	movel %d1,%sp@-
    6300:	2f00           	movel %d0,%sp@-
    6302:	4e94           	jsr %a4@
    6304:	4fef 0010      	lea %sp@(16),%sp
    6308:	4df9 0000 68dc 	lea 68dc <__adddf3>,%fp
    630e:	2f3c 57b1 fe7d 	movel #1471282813,%sp@-
    6314:	2f3c 3ec7 1de3 	movel #1053236707,%sp@-
    631a:	2f01           	movel %d1,%sp@-
    631c:	2f00           	movel %d0,%sp@-
    631e:	4e96           	jsr %fp@
    6320:	4fef 000c      	lea %sp@(12),%sp
    6324:	2e83           	movel %d3,%sp@
    6326:	2f02           	movel %d2,%sp@-
    6328:	2f01           	movel %d1,%sp@-
    632a:	2f00           	movel %d0,%sp@-
    632c:	4e94           	jsr %a4@
    632e:	4fef 000c      	lea %sp@(12),%sp
    6332:	2ebc 19c1 61d5 	movel #432103893,%sp@
    6338:	2f3c 3f2a 01a0 	movel #1059717536,%sp@-
    633e:	2f01           	movel %d1,%sp@-
    6340:	2f00           	movel %d0,%sp@-
    6342:	4e95           	jsr %a5@
    6344:	4fef 000c      	lea %sp@(12),%sp
    6348:	2e83           	movel %d3,%sp@
    634a:	2f02           	movel %d2,%sp@-
    634c:	2f01           	movel %d1,%sp@-
    634e:	2f00           	movel %d0,%sp@-
    6350:	4e94           	jsr %a4@
    6352:	4fef 000c      	lea %sp@(12),%sp
    6356:	2ebc 1110 f8a6 	movel #286324902,%sp@
    635c:	2f3c 3f81 1111 	movel #1065423121,%sp@-
    6362:	2f01           	movel %d1,%sp@-
    6364:	2f00           	movel %d0,%sp@-
    6366:	4e96           	jsr %fp@
    6368:	4fef 0010      	lea %sp@(16),%sp
    636c:	2040           	moveal %d0,%a0
    636e:	4aaf 0048      	tstl %sp@(72)
    6372:	6650           	bnes 63c4 <__kernel_sin+0x154>
    6374:	2f01           	movel %d1,%sp@-
    6376:	2f08           	movel %a0,%sp@-
    6378:	2f03           	movel %d3,%sp@-
    637a:	2f02           	movel %d2,%sp@-
    637c:	4e94           	jsr %a4@
    637e:	4fef 000c      	lea %sp@(12),%sp
    6382:	2ebc 5555 5549 	movel #1431655753,%sp@
    6388:	2f3c 3fc5 5555 	movel #1069897045,%sp@-
    638e:	2f01           	movel %d1,%sp@-
    6390:	2f00           	movel %d0,%sp@-
    6392:	4e95           	jsr %a5@
    6394:	4fef 000c      	lea %sp@(12),%sp
    6398:	2e87           	movel %d7,%sp@
    639a:	2f06           	movel %d6,%sp@-
    639c:	2f01           	movel %d1,%sp@-
    639e:	2f00           	movel %d0,%sp@-
    63a0:	4e94           	jsr %a4@
    63a2:	4fef 000c      	lea %sp@(12),%sp
    63a6:	2e85           	movel %d5,%sp@
    63a8:	2f04           	movel %d4,%sp@-
    63aa:	2f01           	movel %d1,%sp@-
    63ac:	2f00           	movel %d0,%sp@-
    63ae:	4e96           	jsr %fp@
    63b0:	4fef 0010      	lea %sp@(16),%sp
    63b4:	2240           	moveal %d0,%a1
    63b6:	2041           	moveal %d1,%a0
    63b8:	2009           	movel %a1,%d0
    63ba:	2208           	movel %a0,%d1
    63bc:	4cdf 7cfc      	moveml %sp@+,%d2-%d7/%a2-%fp
    63c0:	508f           	addql #8,%sp
    63c2:	4e75           	rts
    63c4:	42a7           	clrl %sp@-
    63c6:	2f3c 3fe0 0000 	movel #1071644672,%sp@-
    63cc:	2f2f 004c      	movel %sp@(76),%sp@-
    63d0:	2f2f 004c      	movel %sp@(76),%sp@-
    63d4:	2f48 0040      	movel %a0,%sp@(64)
    63d8:	2f41 003c      	movel %d1,%sp@(60)
    63dc:	4e94           	jsr %a4@
    63de:	4fef 0010      	lea %sp@(16),%sp
    63e2:	2440           	moveal %d0,%a2
    63e4:	2641           	moveal %d1,%a3
    63e6:	206f 0030      	moveal %sp@(48),%a0
    63ea:	226f 002c      	moveal %sp@(44),%a1
    63ee:	2f09           	movel %a1,%sp@-
    63f0:	2f08           	movel %a0,%sp@-
    63f2:	2f07           	movel %d7,%sp@-
    63f4:	2f06           	movel %d6,%sp@-
    63f6:	4e94           	jsr %a4@
    63f8:	4fef 000c      	lea %sp@(12),%sp
    63fc:	2e81           	movel %d1,%sp@
    63fe:	2f00           	movel %d0,%sp@-
    6400:	2f0b           	movel %a3,%sp@-
    6402:	2f0a           	movel %a2,%sp@-
    6404:	4e95           	jsr %a5@
    6406:	4fef 000c      	lea %sp@(12),%sp
    640a:	2e83           	movel %d3,%sp@
    640c:	2f02           	movel %d2,%sp@-
    640e:	2f01           	movel %d1,%sp@-
    6410:	2f00           	movel %d0,%sp@-
    6412:	4e94           	jsr %a4@
    6414:	4fef 0010      	lea %sp@(16),%sp
    6418:	2f2f 0044      	movel %sp@(68),%sp@-
    641c:	2f2f 0044      	movel %sp@(68),%sp@-
    6420:	2f01           	movel %d1,%sp@-
    6422:	2f00           	movel %d0,%sp@-
    6424:	4e95           	jsr %a5@
    6426:	4fef 0010      	lea %sp@(16),%sp
    642a:	2400           	movel %d0,%d2
    642c:	2601           	movel %d1,%d3
    642e:	2f3c 5555 5549 	movel #1431655753,%sp@-
    6434:	2f3c 3fc5 5555 	movel #1069897045,%sp@-
    643a:	2f07           	movel %d7,%sp@-
    643c:	2f06           	movel %d6,%sp@-
    643e:	4e94           	jsr %a4@
    6440:	4fef 000c      	lea %sp@(12),%sp
    6444:	2e81           	movel %d1,%sp@
    6446:	2f00           	movel %d0,%sp@-
    6448:	2f03           	movel %d3,%sp@-
    644a:	2f02           	movel %d2,%sp@-
    644c:	4e96           	jsr %fp@
    644e:	4fef 000c      	lea %sp@(12),%sp
    6452:	2e81           	movel %d1,%sp@
    6454:	2f00           	movel %d0,%sp@-
    6456:	2f05           	movel %d5,%sp@-
    6458:	2f04           	movel %d4,%sp@-
    645a:	4e95           	jsr %a5@
    645c:	4fef 0010      	lea %sp@(16),%sp
    6460:	2240           	moveal %d0,%a1
    6462:	2041           	moveal %d1,%a0
    6464:	2009           	movel %a1,%d0
    6466:	2208           	movel %a0,%d1
    6468:	4cdf 7cfc      	moveml %sp@+,%d2-%d7/%a2-%fp
    646c:	508f           	addql #8,%sp
    646e:	4e75           	rts
    6470:	2244           	moveal %d4,%a1
    6472:	2045           	moveal %d5,%a0
    6474:	2009           	movel %a1,%d0
    6476:	2208           	movel %a0,%d1
    6478:	4cdf 7cfc      	moveml %sp@+,%d2-%d7/%a2-%fp
    647c:	508f           	addql #8,%sp
    647e:	4e75           	rts

00006480 <floor>:
    6480:	48e7 3f30      	moveml %d2-%d7/%a2-%a3,%sp@-
    6484:	242f 0024      	movel %sp@(36),%d2
    6488:	262f 0028      	movel %sp@(40),%d3
    648c:	2c02           	movel %d2,%d6
    648e:	2442           	moveal %d2,%a2
    6490:	2a03           	movel %d3,%d5
    6492:	2002           	movel %d2,%d0
    6494:	4840           	swap %d0
    6496:	e840           	asrw #4,%d0
    6498:	48c0           	extl %d0
    649a:	0280 0000 07ff 	andil #2047,%d0
    64a0:	2800           	movel %d0,%d4
    64a2:	0684 ffff fc01 	addil #-1023,%d4
    64a8:	7213           	moveq #19,%d1
    64aa:	b284           	cmpl %d4,%d1
    64ac:	6d00 00a6      	bltw 6554 <floor+0xd4>
    64b0:	4a84           	tstl %d4
    64b2:	6d60           	blts 6514 <floor+0x94>
    64b4:	2e3c 000f ffff 	movel #1048575,%d7
    64ba:	e8a7           	asrl %d4,%d7
    64bc:	2007           	movel %d7,%d0
    64be:	c082           	andl %d2,%d0
    64c0:	8083           	orl %d3,%d0
    64c2:	6700 009e      	beqw 6562 <floor+0xe2>
    64c6:	2f3c 8800 759c 	movel #-2013235812,%sp@-
    64cc:	2f3c 7e37 e43c 	movel #2117592124,%sp@-
    64d2:	2f03           	movel %d3,%sp@-
    64d4:	2f02           	movel %d2,%sp@-
    64d6:	4eb9 0000 68dc 	jsr 68dc <__adddf3>
    64dc:	4fef 000c      	lea %sp@(12),%sp
    64e0:	4297           	clrl %sp@
    64e2:	42a7           	clrl %sp@-
    64e4:	2f01           	movel %d1,%sp@-
    64e6:	2f00           	movel %d0,%sp@-
    64e8:	4eb9 0000 72dc 	jsr 72dc <__gtdf2>
    64ee:	4fef 0010      	lea %sp@(16),%sp
    64f2:	4a80           	tstl %d0
    64f4:	6f10           	bles 6506 <floor+0x86>
    64f6:	b4fc 0000      	cmpaw #0,%a2
    64fa:	6d00 00e6      	bltw 65e2 <floor+0x162>
    64fe:	4687           	notl %d7
    6500:	2c0a           	movel %a2,%d6
    6502:	cc87           	andl %d7,%d6
    6504:	7a00           	moveq #0,%d5
    6506:	2246           	moveal %d6,%a1
    6508:	2045           	moveal %d5,%a0
    650a:	2009           	movel %a1,%d0
    650c:	2208           	movel %a0,%d1
    650e:	4cdf 0cfc      	moveml %sp@+,%d2-%d7/%a2-%a3
    6512:	4e75           	rts
    6514:	2f3c 8800 759c 	movel #-2013235812,%sp@-
    651a:	2f3c 7e37 e43c 	movel #2117592124,%sp@-
    6520:	2f03           	movel %d3,%sp@-
    6522:	2f02           	movel %d2,%sp@-
    6524:	4eb9 0000 68dc 	jsr 68dc <__adddf3>
    652a:	4fef 000c      	lea %sp@(12),%sp
    652e:	4297           	clrl %sp@
    6530:	42a7           	clrl %sp@-
    6532:	2f01           	movel %d1,%sp@-
    6534:	2f00           	movel %d0,%sp@-
    6536:	4eb9 0000 72dc 	jsr 72dc <__gtdf2>
    653c:	4fef 0010      	lea %sp@(16),%sp
    6540:	4a80           	tstl %d0
    6542:	6fc2           	bles 6506 <floor+0x86>
    6544:	4a86           	tstl %d6
    6546:	6d00 00d2      	bltw 661a <floor+0x19a>
    654a:	7a00           	moveq #0,%d5
    654c:	7c00           	moveq #0,%d6
    654e:	2246           	moveal %d6,%a1
    6550:	2045           	moveal %d5,%a0
    6552:	60b6           	bras 650a <floor+0x8a>
    6554:	7233           	moveq #51,%d1
    6556:	b284           	cmpl %d4,%d1
    6558:	6c16           	bges 6570 <floor+0xf0>
    655a:	0c84 0000 0400 	cmpil #1024,%d4
    6560:	6760           	beqs 65c2 <floor+0x142>
    6562:	2242           	moveal %d2,%a1
    6564:	2043           	moveal %d3,%a0
    6566:	2009           	movel %a1,%d0
    6568:	2208           	movel %a0,%d1
    656a:	4cdf 0cfc      	moveml %sp@+,%d2-%d7/%a2-%a3
    656e:	4e75           	rts
    6570:	0680 ffff fbed 	addil #-1043,%d0
    6576:	7eff           	moveq #-1,%d7
    6578:	e0af           	lsrl %d0,%d7
    657a:	2007           	movel %d7,%d0
    657c:	c083           	andl %d3,%d0
    657e:	67e2           	beqs 6562 <floor+0xe2>
    6580:	2f3c 8800 759c 	movel #-2013235812,%sp@-
    6586:	2f3c 7e37 e43c 	movel #2117592124,%sp@-
    658c:	2f03           	movel %d3,%sp@-
    658e:	2f02           	movel %d2,%sp@-
    6590:	4eb9 0000 68dc 	jsr 68dc <__adddf3>
    6596:	4fef 000c      	lea %sp@(12),%sp
    659a:	4297           	clrl %sp@
    659c:	42a7           	clrl %sp@-
    659e:	2f01           	movel %d1,%sp@-
    65a0:	2f00           	movel %d0,%sp@-
    65a2:	4eb9 0000 72dc 	jsr 72dc <__gtdf2>
    65a8:	4fef 0010      	lea %sp@(16),%sp
    65ac:	4a80           	tstl %d0
    65ae:	6f00 ff56      	blew 6506 <floor+0x86>
    65b2:	4a86           	tstl %d6
    65b4:	6d46           	blts 65fc <floor+0x17c>
    65b6:	4687           	notl %d7
    65b8:	ca87           	andl %d7,%d5
    65ba:	2246           	moveal %d6,%a1
    65bc:	2045           	moveal %d5,%a0
    65be:	6000 ff4a      	braw 650a <floor+0x8a>
    65c2:	2f03           	movel %d3,%sp@-
    65c4:	2f02           	movel %d2,%sp@-
    65c6:	2f03           	movel %d3,%sp@-
    65c8:	2f02           	movel %d2,%sp@-
    65ca:	4eb9 0000 68dc 	jsr 68dc <__adddf3>
    65d0:	4fef 0010      	lea %sp@(16),%sp
    65d4:	2240           	moveal %d0,%a1
    65d6:	2041           	moveal %d1,%a0
    65d8:	2009           	movel %a1,%d0
    65da:	2208           	movel %a0,%d1
    65dc:	4cdf 0cfc      	moveml %sp@+,%d2-%d7/%a2-%a3
    65e0:	4e75           	rts
    65e2:	247c 0010 0000 	moveal #1048576,%a2
    65e8:	200a           	movel %a2,%d0
    65ea:	e8a0           	asrl %d4,%d0
    65ec:	2440           	moveal %d0,%a2
    65ee:	d5c2           	addal %d2,%a2
    65f0:	4687           	notl %d7
    65f2:	2c0a           	movel %a2,%d6
    65f4:	cc87           	andl %d7,%d6
    65f6:	7a00           	moveq #0,%d5
    65f8:	6000 ff0c      	braw 6506 <floor+0x86>
    65fc:	7014           	moveq #20,%d0
    65fe:	b084           	cmpl %d4,%d0
    6600:	670e           	beqs 6610 <floor+0x190>
    6602:	7034           	moveq #52,%d0
    6604:	9084           	subl %d4,%d0
    6606:	7a01           	moveq #1,%d5
    6608:	e1ad           	lsll %d0,%d5
    660a:	da83           	addl %d3,%d5
    660c:	b685           	cmpl %d5,%d3
    660e:	63a6           	blss 65b6 <floor+0x136>
    6610:	2c02           	movel %d2,%d6
    6612:	5286           	addql #1,%d6
    6614:	4687           	notl %d7
    6616:	ca87           	andl %d7,%d5
    6618:	60a0           	bras 65ba <floor+0x13a>
    661a:	2a02           	movel %d2,%d5
    661c:	0885 001f      	bclr #31,%d5
    6620:	8a83           	orl %d3,%d5
    6622:	2c3c 8000 0000 	movel #-2147483648,%d6
    6628:	4a85           	tstl %d5
    662a:	6700 feda      	beqw 6506 <floor+0x86>
    662e:	7a00           	moveq #0,%d5
    6630:	2c3c bff0 0000 	movel #-1074790400,%d6
    6636:	2246           	moveal %d6,%a1
    6638:	2045           	moveal %d5,%a0
    663a:	6000 fece      	braw 650a <floor+0x8a>
	...

00006640 <scalbn>:
    6640:	48e7 3c20      	moveml %d2-%d5/%a2,%sp@-
    6644:	242f 0018      	movel %sp@(24),%d2
    6648:	262f 001c      	movel %sp@(28),%d3
    664c:	2202           	movel %d2,%d1
    664e:	2002           	movel %d2,%d0
    6650:	4840           	swap %d0
    6652:	e840           	asrw #4,%d0
    6654:	48c0           	extl %d0
    6656:	0280 0000 07ff 	andil #2047,%d0
    665c:	6600 00a8      	bnew 6706 <scalbn+0xc6>
    6660:	2002           	movel %d2,%d0
    6662:	0880 001f      	bclr #31,%d0
    6666:	8083           	orl %d3,%d0
    6668:	6700 0108      	beqw 6772 <scalbn+0x132>
    666c:	45f9 0000 6c72 	lea 6c72 <__muldf3>,%a2
    6672:	42a7           	clrl %sp@-
    6674:	2f3c 4350 0000 	movel #1129316352,%sp@-
    667a:	2f03           	movel %d3,%sp@-
    667c:	2f02           	movel %d2,%sp@-
    667e:	4e92           	jsr %a2@
    6680:	4fef 0010      	lea %sp@(16),%sp
    6684:	2400           	movel %d0,%d2
    6686:	2601           	movel %d1,%d3
    6688:	0caf ffff 3cb0 	cmpil #-50000,%sp@(32)
    668e:	0020 
    6690:	6d00 0150      	bltw 67e2 <scalbn+0x1a2>
    6694:	2202           	movel %d2,%d1
    6696:	2002           	movel %d2,%d0
    6698:	4840           	swap %d0
    669a:	e840           	asrw #4,%d0
    669c:	48c0           	extl %d0
    669e:	0280 0000 07ff 	andil #2047,%d0
    66a4:	78ca           	moveq #-54,%d4
    66a6:	d084           	addl %d4,%d0
    66a8:	0caf 0000 c350 	cmpil #50000,%sp@(32)
    66ae:	0020 
    66b0:	6e7c           	bgts 672e <scalbn+0xee>
    66b2:	d0af 0020      	addl %sp@(32),%d0
    66b6:	0c80 0000 07fe 	cmpil #2046,%d0
    66bc:	6e00 00e0      	bgtw 679e <scalbn+0x15e>
    66c0:	4a80           	tstl %d0
    66c2:	6e00 00bc      	bgtw 6780 <scalbn+0x140>
    66c6:	78cb           	moveq #-53,%d4
    66c8:	b880           	cmpl %d0,%d4
    66ca:	6e00 013a      	bgtw 6806 <scalbn+0x1c6>
    66ce:	7836           	moveq #54,%d4
    66d0:	d084           	addl %d4,%d0
    66d2:	e948           	lslw #4,%d0
    66d4:	4840           	swap %d0
    66d6:	4240           	clrw %d0
    66d8:	0281 800f ffff 	andil #-2146435073,%d1
    66de:	2800           	movel %d0,%d4
    66e0:	8881           	orl %d1,%d4
    66e2:	42a7           	clrl %sp@-
    66e4:	2f3c 3c90 0000 	movel #1016070144,%sp@-
    66ea:	2f03           	movel %d3,%sp@-
    66ec:	2f04           	movel %d4,%sp@-
    66ee:	4eb9 0000 6c72 	jsr 6c72 <__muldf3>
    66f4:	4fef 0010      	lea %sp@(16),%sp
    66f8:	2240           	moveal %d0,%a1
    66fa:	2041           	moveal %d1,%a0
    66fc:	2009           	movel %a1,%d0
    66fe:	2208           	movel %a0,%d1
    6700:	4cdf 043c      	moveml %sp@+,%d2-%d5/%a2
    6704:	4e75           	rts
    6706:	0c80 0000 07ff 	cmpil #2047,%d0
    670c:	669a           	bnes 66a8 <scalbn+0x68>
    670e:	2f03           	movel %d3,%sp@-
    6710:	2f02           	movel %d2,%sp@-
    6712:	2f03           	movel %d3,%sp@-
    6714:	2f02           	movel %d2,%sp@-
    6716:	4eb9 0000 68dc 	jsr 68dc <__adddf3>
    671c:	4fef 0010      	lea %sp@(16),%sp
    6720:	2240           	moveal %d0,%a1
    6722:	2041           	moveal %d1,%a0
    6724:	2009           	movel %a1,%d0
    6726:	2208           	movel %a0,%d1
    6728:	4cdf 043c      	moveml %sp@+,%d2-%d5/%a2
    672c:	4e75           	rts
    672e:	203c 7e37 e43c 	movel #2117592124,%d0
    6734:	223c 8800 759c 	movel #-2013235812,%d1
    673a:	4a82           	tstl %d2
    673c:	6c0c           	bges 674a <scalbn+0x10a>
    673e:	203c fe37 e43c 	movel #-29891524,%d0
    6744:	223c 8800 759c 	movel #-2013235812,%d1
    674a:	2f3c 8800 759c 	movel #-2013235812,%sp@-
    6750:	2f3c 7e37 e43c 	movel #2117592124,%sp@-
    6756:	2f01           	movel %d1,%sp@-
    6758:	2f00           	movel %d0,%sp@-
    675a:	4eb9 0000 6c72 	jsr 6c72 <__muldf3>
    6760:	4fef 0010      	lea %sp@(16),%sp
    6764:	2240           	moveal %d0,%a1
    6766:	2041           	moveal %d1,%a0
    6768:	2009           	movel %a1,%d0
    676a:	2208           	movel %a0,%d1
    676c:	4cdf 043c      	moveml %sp@+,%d2-%d5/%a2
    6770:	4e75           	rts
    6772:	2242           	moveal %d2,%a1
    6774:	2043           	moveal %d3,%a0
    6776:	2009           	movel %a1,%d0
    6778:	2208           	movel %a0,%d1
    677a:	4cdf 043c      	moveml %sp@+,%d2-%d5/%a2
    677e:	4e75           	rts
    6780:	2401           	movel %d1,%d2
    6782:	0282 800f ffff 	andil #-2146435073,%d2
    6788:	e948           	lslw #4,%d0
    678a:	4840           	swap %d0
    678c:	4240           	clrw %d0
    678e:	8480           	orl %d0,%d2
    6790:	2242           	moveal %d2,%a1
    6792:	2043           	moveal %d3,%a0
    6794:	2009           	movel %a1,%d0
    6796:	2208           	movel %a0,%d1
    6798:	4cdf 043c      	moveml %sp@+,%d2-%d5/%a2
    679c:	4e75           	rts
    679e:	203c 7e37 e43c 	movel #2117592124,%d0
    67a4:	223c 8800 759c 	movel #-2013235812,%d1
