
divbyzero.elf:     file format elf32-m68k


Disassembly of section .text.reloc:

00002000 <_reloc>:
    2000:	41fa fffe      	lea %pc@(2000 <_reloc>),%a0
    2004:	43f9 0000 2000 	lea 2000 <_reloc>,%a1
    200a:	203c 0000 20a0 	movel #8352,%d0
    2010:	9089           	subl %a1,%d0
    2012:	e488           	lsrl #2,%d0
    2014:	5380           	subql #1,%d0
    2016:	22d8           	movel %a0@+,%a1@+
    2018:	51c8 fffc      	dbf %d0,2016 <_reloc+0x16>
    201c:	4ef9 0000 2024 	jmp 2024 <_postreloc>

Disassembly of section .text.postreloc:

00002024 <_postreloc>:
	...

00002030 <POSTRELOC>:
    2030:	203c 0000 a87c 	movel #43132,%d0
    2036:	9089           	subl %a1,%d0
    2038:	e488           	lsrl #2,%d0
    203a:	2200           	movel %d0,%d1
    203c:	4841           	swap %d1
    203e:	6002           	bras 2042 <POSTRELOC+0x12>
    2040:	22d8           	movel %a0@+,%a1@+
    2042:	51c8 fffc      	dbf %d0,2040 <POSTRELOC+0x10>
    2046:	51c9 fff8      	dbf %d1,2040 <POSTRELOC+0x10>

0000204a <_enter>:
    204a:	2e78 0414      	moveal 414 <SDB_MEMSIZE>,%sp
    204e:	612c           	bsrs 207c <_bss_init>
    2050:	4eb9 0000 8314 	jsr 8314 <_init>
    2056:	2f3c 0000 8328 	movel #33576,%sp@-
    205c:	4eb9 0000 2250 	jsr 2250 <atexit>
    2062:	2eb8 0000      	movel 0 <DUART_MR1A>,%sp@
    2066:	2f3c 0000 a87c 	movel #43132,%sp@-
    206c:	41f9 0000 2194 	lea 2194 <main>,%a0
    2072:	4e90           	jsr %a0@
    2074:	2f00           	movel %d0,%sp@-
    2076:	4eb9 0000 2268 	jsr 2268 <exit>

0000207c <_bss_init>:
    207c:	203c 0002 0778 	movel #132984,%d0
    2082:	90bc 0000 a87c 	subl #43132,%d0
    2088:	e488           	lsrl #2,%d0
    208a:	41f9 0000 a87c 	lea a87c <__TMC_END__>,%a0
    2090:	6002           	bras 2094 <_bss_init+0x18>
    2092:	4298           	clrl %a0@+
    2094:	51c8 fffc      	dbf %d0,2092 <_bss_init+0x16>
    2098:	4e75           	rts
    209a:	0000 0000      	orib #0,%d0
	...

Disassembly of section .text:

000020a4 <deregister_tm_clones>:
    20a4:	203c 0000 a87c 	movel #43132,%d0
    20aa:	0c80 0000 a87c 	cmpil #43132,%d0
    20b0:	6716           	beqs 20c8 <deregister_tm_clones+0x24>
    20b2:	41f9 0000 0000 	lea 0 <DUART_MR1A>,%a0
    20b8:	b0fc 0000      	cmpaw #0,%a0
    20bc:	670a           	beqs 20c8 <deregister_tm_clones+0x24>
    20be:	4879 0000 a87c 	pea a87c <__TMC_END__>
    20c4:	4e90           	jsr %a0@
    20c6:	588f           	addql #4,%sp
    20c8:	4e75           	rts

000020ca <register_tm_clones>:
    20ca:	203c 0000 a87c 	movel #43132,%d0
    20d0:	0480 0000 a87c 	subil #43132,%d0
    20d6:	2200           	movel %d0,%d1
    20d8:	e481           	asrl #2,%d1
    20da:	d080           	addl %d0,%d0
    20dc:	9180           	subxl %d0,%d0
    20de:	4480           	negl %d0
    20e0:	d081           	addl %d1,%d0
    20e2:	e280           	asrl #1,%d0
    20e4:	6718           	beqs 20fe <register_tm_clones+0x34>
    20e6:	41f9 0000 0000 	lea 0 <DUART_MR1A>,%a0
    20ec:	b0fc 0000      	cmpaw #0,%a0
    20f0:	670c           	beqs 20fe <register_tm_clones+0x34>
    20f2:	2f00           	movel %d0,%sp@-
    20f4:	4879 0000 a87c 	pea a87c <__TMC_END__>
    20fa:	4e90           	jsr %a0@
    20fc:	508f           	addql #8,%sp
    20fe:	4e75           	rts

00002100 <__do_global_dtors_aux>:
    2100:	2f0a           	movel %a2,%sp@-
    2102:	2f02           	movel %d2,%sp@-
    2104:	4a39 0000 a880 	tstb a880 <completed.2>
    210a:	665e           	bnes 216a <__do_global_dtors_aux+0x6a>
    210c:	45f9 0000 82e0 	lea 82e0 <__DTOR_LIST__>,%a2
    2112:	2039 0000 a882 	movel a882 <dtor_idx.1>,%d0
    2118:	243c 0000 82e4 	movel #33508,%d2
    211e:	0482 0000 82e0 	subil #33504,%d2
    2124:	e482           	asrl #2,%d2
    2126:	5382           	subql #1,%d2
    2128:	b480           	cmpl %d0,%d2
    212a:	631c           	blss 2148 <__do_global_dtors_aux+0x48>
    212c:	5280           	addql #1,%d0
    212e:	23c0 0000 a882 	movel %d0,a882 <dtor_idx.1>
    2134:	d080           	addl %d0,%d0
    2136:	d080           	addl %d0,%d0
    2138:	2072 0800      	moveal %a2@(0,%d0:l),%a0
    213c:	4e90           	jsr %a0@
    213e:	2039 0000 a882 	movel a882 <dtor_idx.1>,%d0
    2144:	b480           	cmpl %d0,%d2
    2146:	62e4           	bhis 212c <__do_global_dtors_aux+0x2c>
    2148:	4eba ff5a      	jsr %pc@(20a4 <deregister_tm_clones>)
    214c:	41f9 0000 0000 	lea 0 <DUART_MR1A>,%a0
    2152:	b0fc 0000      	cmpaw #0,%a0
    2156:	670a           	beqs 2162 <__do_global_dtors_aux+0x62>
    2158:	4879 0000 20a0 	pea 20a0 <__EH_FRAME_BEGIN__>
    215e:	4e90           	jsr %a0@
    2160:	588f           	addql #4,%sp
    2162:	13fc 0001 0000 	moveb #1,a880 <completed.2>
    2168:	a880 
    216a:	241f           	movel %sp@+,%d2
    216c:	245f           	moveal %sp@+,%a2
    216e:	4e75           	rts

00002170 <call___do_global_dtors_aux>:
    2170:	4e75           	rts

00002172 <frame_dummy>:
    2172:	41f9 0000 0000 	lea 0 <DUART_MR1A>,%a0
    2178:	b0fc 0000      	cmpaw #0,%a0
    217c:	6710           	beqs 218e <frame_dummy+0x1c>
    217e:	4879 0000 a886 	pea a886 <object.0>
    2184:	4879 0000 20a0 	pea 20a0 <__EH_FRAME_BEGIN__>
    218a:	4e90           	jsr %a0@
    218c:	508f           	addql #8,%sp
    218e:	6000 ff3a      	braw 20ca <register_tm_clones>

00002192 <call_frame_dummy>:
    2192:	4e75           	rts

00002194 <main>:
    2194:	4e56 fff4      	linkw %fp,#-12
    2198:	7000           	moveq #0,%d0
    219a:	2d40 fffc      	movel %d0,%fp@(-4)
    219e:	700a           	moveq #10,%d0
    21a0:	2d40 fff8      	movel %d0,%fp@(-8)
    21a4:	202e fff8      	movel %fp@(-8),%d0
    21a8:	222e fffc      	movel %fp@(-4),%d1
    21ac:	2f01           	movel %d1,%sp@-
    21ae:	2f00           	movel %d0,%sp@-
    21b0:	4eb9 0000 21c4 	jsr 21c4 <__divsi3>
    21b6:	508f           	addql #8,%sp
    21b8:	2d40 fff4      	movel %d0,%fp@(-12)
    21bc:	202e fff4      	movel %fp@(-12),%d0
    21c0:	4e5e           	unlk %fp
    21c2:	4e75           	rts

000021c4 <__divsi3>:
    21c4:	2f02           	movel %d2,%sp@-
    21c6:	7401           	moveq #1,%d2
    21c8:	222f 000c      	movel %sp@(12),%d1
    21cc:	6a04           	bpls 21d2 <L1>
    21ce:	4481           	negl %d1
    21d0:	4402           	negb %d2

000021d2 <L1>:
    21d2:	202f 0008      	movel %sp@(8),%d0
    21d6:	6a04           	bpls 21dc <L2>
    21d8:	4480           	negl %d0
    21da:	4402           	negb %d2

000021dc <L2>:
    21dc:	2f01           	movel %d1,%sp@-
    21de:	2f00           	movel %d0,%sp@-
    21e0:	4eb9 0000 21f4 	jsr 21f4 <__udivsi3>
    21e6:	508f           	addql #8,%sp
    21e8:	4a02           	tstb %d2
    21ea:	6a02           	bpls 21ee <L3>
    21ec:	4480           	negl %d0

000021ee <L3>:
    21ee:	241f           	movel %sp@+,%d2
    21f0:	4e75           	rts
	...

000021f4 <__udivsi3>:
    21f4:	2f02           	movel %d2,%sp@-
    21f6:	222f 000c      	movel %sp@(12),%d1
    21fa:	202f 0008      	movel %sp@(8),%d0
    21fe:	0c81 0001 0000 	cmpil #65536,%d1
    2204:	6416           	bccs 221c <L3>
    2206:	2400           	movel %d0,%d2
    2208:	4242           	clrw %d2
    220a:	4842           	swap %d2
    220c:	84c1           	divuw %d1,%d2
    220e:	3002           	movew %d2,%d0
    2210:	4840           	swap %d0
    2212:	342f 000a      	movew %sp@(10),%d2
    2216:	84c1           	divuw %d1,%d2
    2218:	3002           	movew %d2,%d0
    221a:	6030           	bras 224c <L6>

0000221c <L3>:
    221c:	2401           	movel %d1,%d2

0000221e <L4>:
    221e:	e289           	lsrl #1,%d1
    2220:	e288           	lsrl #1,%d0
    2222:	0c81 0001 0000 	cmpil #65536,%d1
    2228:	64f4           	bccs 221e <L4>
    222a:	80c1           	divuw %d1,%d0
    222c:	0280 0000 ffff 	andil #65535,%d0
    2232:	2202           	movel %d2,%d1
    2234:	c2c0           	muluw %d0,%d1
    2236:	4842           	swap %d2
    2238:	c4c0           	muluw %d0,%d2
    223a:	4842           	swap %d2
    223c:	4a42           	tstw %d2
    223e:	660a           	bnes 224a <L5>
    2240:	d282           	addl %d2,%d1
    2242:	6506           	bcss 224a <L5>
    2244:	b2af 0008      	cmpl %sp@(8),%d1
    2248:	6302           	blss 224c <L6>

0000224a <L5>:
    224a:	5380           	subql #1,%d0

0000224c <L6>:
    224c:	241f           	movel %sp@+,%d2
    224e:	4e75           	rts

00002250 <atexit>:
    2250:	42a7           	clrl %sp@-
    2252:	42a7           	clrl %sp@-
    2254:	2f2f 000c      	movel %sp@(12),%sp@-
    2258:	42a7           	clrl %sp@-
    225a:	4eb9 0000 26a8 	jsr 26a8 <__register_exitproc>
    2260:	4fef 0010      	lea %sp@(16),%sp
    2264:	4e75           	rts
	...

00002268 <exit>:
    2268:	2f02           	movel %d2,%sp@-
    226a:	242f 0008      	movel %sp@(8),%d2
    226e:	42a7           	clrl %sp@-
    2270:	2f02           	movel %d2,%sp@-
    2272:	4eb9 0000 2740 	jsr 2740 <__call_exitprocs>
    2278:	2079 0000 a9d8 	moveal a9d8 <__stdio_exit_handler>,%a0
    227e:	508f           	addql #8,%sp
    2280:	b0fc 0000      	cmpaw #0,%a0
    2284:	6702           	beqs 2288 <exit+0x20>
    2286:	4e90           	jsr %a0@
    2288:	2f02           	movel %d2,%sp@-
    228a:	4eb9 0000 3a90 	jsr 3a90 <_exit>

00002290 <__fp_lock>:
    2290:	7000           	moveq #0,%d0
    2292:	4e75           	rts

00002294 <stdio_exit_handler>:
    2294:	4879 0000 a33c 	pea a33c <__sglue>
    229a:	4879 0000 3044 	pea 3044 <_fclose_r>
    22a0:	4879 0000 a34c 	pea a34c <_impure_data>
    22a6:	4eb9 0000 25dc 	jsr 25dc <_fwalk_sglue>
    22ac:	4fef 000c      	lea %sp@(12),%sp
    22b0:	4e75           	rts

000022b2 <cleanup_stdio>:
    22b2:	2f0a           	movel %a2,%sp@-
    22b4:	246f 0008      	moveal %sp@(8),%a2
    22b8:	202a 0004      	movel %a2@(4),%d0
    22bc:	0c80 0000 a8a0 	cmpil #43168,%d0
    22c2:	670c           	beqs 22d0 <cleanup_stdio+0x1e>
    22c4:	2f00           	movel %d0,%sp@-
    22c6:	2f0a           	movel %a2,%sp@-
    22c8:	4eb9 0000 3044 	jsr 3044 <_fclose_r>
    22ce:	508f           	addql #8,%sp
    22d0:	202a 0008      	movel %a2@(8),%d0
    22d4:	0c80 0000 a908 	cmpil #43272,%d0
    22da:	670c           	beqs 22e8 <cleanup_stdio+0x36>
    22dc:	2f00           	movel %d0,%sp@-
    22de:	2f0a           	movel %a2,%sp@-
    22e0:	4eb9 0000 3044 	jsr 3044 <_fclose_r>
    22e6:	508f           	addql #8,%sp
    22e8:	202a 000c      	movel %a2@(12),%d0
    22ec:	0c80 0000 a970 	cmpil #43376,%d0
    22f2:	670c           	beqs 2300 <cleanup_stdio+0x4e>
    22f4:	2f00           	movel %d0,%sp@-
    22f6:	2f0a           	movel %a2,%sp@-
    22f8:	4eb9 0000 3044 	jsr 3044 <_fclose_r>
    22fe:	508f           	addql #8,%sp
    2300:	245f           	moveal %sp@+,%a2
    2302:	4e75           	rts

00002304 <__fp_unlock>:
    2304:	7000           	moveq #0,%d0
    2306:	4e75           	rts

00002308 <global_stdio_init.part.0>:
    2308:	2f0b           	movel %a3,%sp@-
    230a:	2f0a           	movel %a2,%sp@-
    230c:	23fc 0000 2294 	movel #8852,a9d8 <__stdio_exit_handler>
    2312:	0000 a9d8 
    2316:	47f9 0000 a8a0 	lea a8a0 <__sf>,%a3
    231c:	4293           	clrl %a3@
    231e:	42b9 0000 a8a4 	clrl a8a4 <__sf+0x4>
    2324:	42b9 0000 a8a8 	clrl a8a8 <__sf+0x8>
    232a:	42b9 0000 a904 	clrl a904 <__sf+0x64>
    2330:	23fc 0004 0000 	movel #262144,a8ac <__sf+0xc>
    2336:	0000 a8ac 
    233a:	42b9 0000 a8b0 	clrl a8b0 <__sf+0x10>
    2340:	42b9 0000 a8b4 	clrl a8b4 <__sf+0x14>
    2346:	42b9 0000 a8b8 	clrl a8b8 <__sf+0x18>
    234c:	4878 0008      	pea 8 <DUART_ACR>
    2350:	42a7           	clrl %sp@-
    2352:	4879 0000 a8fc 	pea a8fc <__sf+0x5c>
    2358:	45f9 0000 2634 	lea 2634 <memset>,%a2
    235e:	4e92           	jsr %a2@
    2360:	23cb 0000 a8bc 	movel %a3,a8bc <__sf+0x1c>
    2366:	23fc 0000 33a4 	movel #13220,a8c0 <__sf+0x20>
    236c:	0000 a8c0 
    2370:	23fc 0000 33e0 	movel #13280,a8c4 <__sf+0x24>
    2376:	0000 a8c4 
    237a:	23fc 0000 3466 	movel #13414,a8c8 <__sf+0x28>
    2380:	0000 a8c8 
    2384:	23fc 0000 34a6 	movel #13478,a8cc <__sf+0x2c>
    238a:	0000 a8cc 
    238e:	42b9 0000 a908 	clrl a908 <__sf+0x68>
    2394:	42b9 0000 a90c 	clrl a90c <__sf+0x6c>
    239a:	42b9 0000 a910 	clrl a910 <__sf+0x70>
    23a0:	42b9 0000 a96c 	clrl a96c <__sf+0xcc>
    23a6:	23fc 0009 0001 	movel #589825,a914 <__sf+0x74>
    23ac:	0000 a914 
    23b0:	42b9 0000 a918 	clrl a918 <__sf+0x78>
    23b6:	42b9 0000 a91c 	clrl a91c <__sf+0x7c>
    23bc:	42b9 0000 a920 	clrl a920 <__sf+0x80>
    23c2:	4878 0008      	pea 8 <DUART_ACR>
    23c6:	42a7           	clrl %sp@-
    23c8:	4879 0000 a964 	pea a964 <__sf+0xc4>
    23ce:	4e92           	jsr %a2@
    23d0:	23fc 0000 a908 	movel #43272,a924 <__sf+0x84>
    23d6:	0000 a924 
    23da:	23fc 0000 33a4 	movel #13220,a928 <__sf+0x88>
    23e0:	0000 a928 
    23e4:	23fc 0000 33e0 	movel #13280,a92c <__sf+0x8c>
    23ea:	0000 a92c 
    23ee:	23fc 0000 3466 	movel #13414,a930 <__sf+0x90>
    23f4:	0000 a930 
    23f8:	23fc 0000 34a6 	movel #13478,a934 <__sf+0x94>
    23fe:	0000 a934 
    2402:	42b9 0000 a970 	clrl a970 <__sf+0xd0>
    2408:	42b9 0000 a974 	clrl a974 <__sf+0xd4>
    240e:	42b9 0000 a978 	clrl a978 <__sf+0xd8>
    2414:	42b9 0000 a9d4 	clrl a9d4 <__sf+0x134>
    241a:	23fc 0012 0002 	movel #1179650,a97c <__sf+0xdc>
    2420:	0000 a97c 
    2424:	42b9 0000 a980 	clrl a980 <__sf+0xe0>
    242a:	42b9 0000 a984 	clrl a984 <__sf+0xe4>
    2430:	42b9 0000 a988 	clrl a988 <__sf+0xe8>
    2436:	4878 0008      	pea 8 <DUART_ACR>
    243a:	42a7           	clrl %sp@-
    243c:	4879 0000 a9cc 	pea a9cc <__sf+0x12c>
    2442:	4e92           	jsr %a2@
    2444:	23fc 0000 a970 	movel #43376,a98c <__sf+0xec>
    244a:	0000 a98c 
    244e:	23fc 0000 33a4 	movel #13220,a990 <__sf+0xf0>
    2454:	0000 a990 
    2458:	23fc 0000 33e0 	movel #13280,a994 <__sf+0xf4>
    245e:	0000 a994 
    2462:	23fc 0000 3466 	movel #13414,a998 <__sf+0xf8>
    2468:	0000 a998 
    246c:	23fc 0000 34a6 	movel #13478,a99c <__sf+0xfc>
    2472:	0000 a99c 
    2476:	4fef 0024      	lea %sp@(36),%sp
    247a:	245f           	moveal %sp@+,%a2
    247c:	265f           	moveal %sp@+,%a3
    247e:	4e75           	rts

00002480 <__sfp>:
    2480:	2f0b           	movel %a3,%sp@-
    2482:	2f0a           	movel %a2,%sp@-
    2484:	4ab9 0000 a9d8 	tstl a9d8 <__stdio_exit_handler>
    248a:	6700 00d2      	beqw 255e <__sfp+0xde>
    248e:	47f9 0000 a33c 	lea a33c <__sglue>,%a3
    2494:	246b 0008      	moveal %a3@(8),%a2
    2498:	202b 0004      	movel %a3@(4),%d0
    249c:	5380           	subql #1,%d0
    249e:	6b14           	bmis 24b4 <__sfp+0x34>
    24a0:	4a6a 000c      	tstw %a2@(12)
    24a4:	6726           	beqs 24cc <__sfp+0x4c>
    24a6:	45ea 0068      	lea %a2@(104),%a2
    24aa:	51c8 fff4      	dbf %d0,24a0 <__sfp+0x20>
    24ae:	4240           	clrw %d0
    24b0:	5380           	subql #1,%d0
    24b2:	64ec           	bccs 24a0 <__sfp+0x20>
    24b4:	2453           	moveal %a3@,%a2
    24b6:	b4fc 0000      	cmpaw #0,%a2
    24ba:	6762           	beqs 251e <__sfp+0x9e>
    24bc:	264a           	moveal %a2,%a3
    24be:	246b 0008      	moveal %a3@(8),%a2
    24c2:	202b 0004      	movel %a3@(4),%d0
    24c6:	5380           	subql #1,%d0
    24c8:	6ad6           	bpls 24a0 <__sfp+0x20>
    24ca:	60e8           	bras 24b4 <__sfp+0x34>
    24cc:	357c ffff 000e 	movew #-1,%a2@(14)
    24d2:	357c 0001 000c 	movew #1,%a2@(12)
    24d8:	42aa 0064      	clrl %a2@(100)
    24dc:	4292           	clrl %a2@
    24de:	42aa 0008      	clrl %a2@(8)
    24e2:	42aa 0004      	clrl %a2@(4)
    24e6:	42aa 0010      	clrl %a2@(16)
    24ea:	42aa 0014      	clrl %a2@(20)
    24ee:	42aa 0018      	clrl %a2@(24)
    24f2:	4878 0008      	pea 8 <DUART_ACR>
    24f6:	42a7           	clrl %sp@-
    24f8:	486a 005c      	pea %a2@(92)
    24fc:	4eb9 0000 2634 	jsr 2634 <memset>
    2502:	42aa 0030      	clrl %a2@(48)
    2506:	42aa 0034      	clrl %a2@(52)
    250a:	42aa 0044      	clrl %a2@(68)
    250e:	42aa 0048      	clrl %a2@(72)
    2512:	4fef 000c      	lea %sp@(12),%sp
    2516:	200a           	movel %a2,%d0
    2518:	245f           	moveal %sp@+,%a2
    251a:	265f           	moveal %sp@+,%a3
    251c:	4e75           	rts
    251e:	4878 01ac      	pea 1ac <R_STOPCNTCMD+0x18e>
    2522:	2f2f 0010      	movel %sp@(16),%sp@-
    2526:	4eb9 0000 27fc 	jsr 27fc <_malloc_r>
    252c:	2440           	moveal %d0,%a2
    252e:	508f           	addql #8,%sp
    2530:	4a80           	tstl %d0
    2532:	673a           	beqs 256e <__sfp+0xee>
    2534:	4292           	clrl %a2@
    2536:	7004           	moveq #4,%d0
    2538:	2540 0004      	movel %d0,%a2@(4)
    253c:	41ea 000c      	lea %a2@(12),%a0
    2540:	2548 0008      	movel %a0,%a2@(8)
    2544:	4878 01a0      	pea 1a0 <R_STOPCNTCMD+0x182>
    2548:	42a7           	clrl %sp@-
    254a:	2f08           	movel %a0,%sp@-
    254c:	4eb9 0000 2634 	jsr 2634 <memset>
    2552:	268a           	movel %a2,%a3@
    2554:	4fef 000c      	lea %sp@(12),%sp
    2558:	264a           	moveal %a2,%a3
    255a:	6000 ff62      	braw 24be <__sfp+0x3e>
    255e:	4eb9 0000 2308 	jsr 2308 <global_stdio_init.part.0>
    2564:	47f9 0000 a33c 	lea a33c <__sglue>,%a3
    256a:	6000 ff28      	braw 2494 <__sfp+0x14>
    256e:	4293           	clrl %a3@
    2570:	700c           	moveq #12,%d0
    2572:	206f 000c      	moveal %sp@(12),%a0
    2576:	2080           	movel %d0,%a0@
    2578:	200a           	movel %a2,%d0
    257a:	245f           	moveal %sp@+,%a2
    257c:	265f           	moveal %sp@+,%a3
    257e:	4e75           	rts

00002580 <__sinit>:
    2580:	206f 0004      	moveal %sp@(4),%a0
    2584:	4aa8 0032      	tstl %a0@(50)
    2588:	6702           	beqs 258c <__sinit+0xc>
    258a:	4e75           	rts
    258c:	217c 0000 22b2 	movel #8882,%a0@(50)
    2592:	0032 
    2594:	4ab9 0000 a9d8 	tstl a9d8 <__stdio_exit_handler>
    259a:	66ee           	bnes 258a <__sinit+0xa>
    259c:	4ef9 0000 2308 	jmp 2308 <global_stdio_init.part.0>

000025a2 <__sfp_lock_acquire>:
    25a2:	4e75           	rts

000025a4 <__sfp_lock_release>:
    25a4:	4e75           	rts

000025a6 <__fp_lock_all>:
    25a6:	4879 0000 a33c 	pea a33c <__sglue>
    25ac:	4879 0000 2290 	pea 2290 <__fp_lock>
    25b2:	42a7           	clrl %sp@-
    25b4:	4eb9 0000 25dc 	jsr 25dc <_fwalk_sglue>
    25ba:	4fef 000c      	lea %sp@(12),%sp
    25be:	4e75           	rts

000025c0 <__fp_unlock_all>:
    25c0:	4879 0000 a33c 	pea a33c <__sglue>
    25c6:	4879 0000 2304 	pea 2304 <__fp_unlock>
    25cc:	42a7           	clrl %sp@-
    25ce:	4eb9 0000 25dc 	jsr 25dc <_fwalk_sglue>
    25d4:	4fef 000c      	lea %sp@(12),%sp
    25d8:	4e75           	rts
	...

000025dc <_fwalk_sglue>:
    25dc:	48e7 3838      	moveml %d2-%d4/%a2-%a4,%sp@-
    25e0:	282f 001c      	movel %sp@(28),%d4
    25e4:	286f 0020      	moveal %sp@(32),%a4
    25e8:	266f 0024      	moveal %sp@(36),%a3
    25ec:	7600           	moveq #0,%d3
    25ee:	246b 0008      	moveal %a3@(8),%a2
    25f2:	242b 0004      	movel %a3@(4),%d2
    25f6:	5382           	subql #1,%d2
    25f8:	6b28           	bmis 2622 <_fwalk_sglue+0x46>
    25fa:	0c6a 0001 000c 	cmpiw #1,%a2@(12)
    2600:	6312           	blss 2614 <_fwalk_sglue+0x38>
    2602:	0c6a ffff 000e 	cmpiw #-1,%a2@(14)
    2608:	670a           	beqs 2614 <_fwalk_sglue+0x38>
    260a:	2f0a           	movel %a2,%sp@-
    260c:	2f04           	movel %d4,%sp@-
    260e:	4e94           	jsr %a4@
    2610:	8680           	orl %d0,%d3
    2612:	508f           	addql #8,%sp
    2614:	45ea 0068      	lea %a2@(104),%a2
    2618:	51ca ffe0      	dbf %d2,25fa <_fwalk_sglue+0x1e>
    261c:	4242           	clrw %d2
    261e:	5382           	subql #1,%d2
    2620:	64d8           	bccs 25fa <_fwalk_sglue+0x1e>
    2622:	2653           	moveal %a3@,%a3
    2624:	b6fc 0000      	cmpaw #0,%a3
    2628:	66c4           	bnes 25ee <_fwalk_sglue+0x12>
    262a:	2003           	movel %d3,%d0
    262c:	4cdf 1c1c      	moveml %sp@+,%d2-%d4/%a2-%a4
    2630:	4e75           	rts
	...

00002634 <memset>:
    2634:	206f 0004      	moveal %sp@(4),%a0
    2638:	202f 0008      	movel %sp@(8),%d0
    263c:	222f 000c      	movel %sp@(12),%d1
    2640:	0c81 0000 0010 	cmpil #16,%d1
    2646:	6500 0054      	bcsw 269c <memset+0x68>
    264a:	2f02           	movel %d2,%sp@-
    264c:	1400           	moveb %d0,%d2
    264e:	e188           	lsll #8,%d0
    2650:	1002           	moveb %d2,%d0
    2652:	3400           	movew %d0,%d2
    2654:	4840           	swap %d0
    2656:	3002           	movew %d2,%d0
    2658:	2408           	movel %a0,%d2
    265a:	4482           	negl %d2
    265c:	0282 0000 0003 	andil #3,%d2
    2662:	6700 0014      	beqw 2678 <memset+0x44>
    2666:	9282           	subl %d2,%d1
    2668:	e28a           	lsrl #1,%d2
    266a:	6400 0004      	bccw 2670 <memset+0x3c>
    266e:	10c0           	moveb %d0,%a0@+
    2670:	e28a           	lsrl #1,%d2
    2672:	6400 0004      	bccw 2678 <memset+0x44>
    2676:	30c0           	movew %d0,%a0@+
    2678:	2401           	movel %d1,%d2
    267a:	e48a           	lsrl #2,%d2
    267c:	5382           	subql #1,%d2
    267e:	20c0           	movel %d0,%a0@+
    2680:	51ca fffc      	dbf %d2,267e <memset+0x4a>
    2684:	0482 0001 0000 	subil #65536,%d2
    268a:	6a00 fff2      	bplw 267e <memset+0x4a>
    268e:	0281 0000 0003 	andil #3,%d1
    2694:	241f           	movel %sp@+,%d2
    2696:	6000 0004      	braw 269c <memset+0x68>
    269a:	10c0           	moveb %d0,%a0@+
    269c:	51c9 fffc      	dbf %d1,269a <memset+0x66>
    26a0:	202f 0004      	movel %sp@(4),%d0
    26a4:	4e75           	rts
	...

000026a8 <__register_exitproc>:
    26a8:	2f03           	movel %d3,%sp@-
    26aa:	2f02           	movel %d2,%sp@-
    26ac:	222f 000c      	movel %sp@(12),%d1
    26b0:	2079 0000 ab6c 	moveal ab6c <__atexit>,%a0
    26b6:	b0fc 0000      	cmpaw #0,%a0
    26ba:	674c           	beqs 2708 <__register_exitproc+0x60>
    26bc:	2028 0004      	movel %a0@(4),%d0
    26c0:	741f           	moveq #31,%d2
    26c2:	b480           	cmpl %d0,%d2
    26c4:	6d70           	blts 2736 <__register_exitproc+0x8e>
    26c6:	4a81           	tstl %d1
    26c8:	6722           	beqs 26ec <__register_exitproc+0x44>
    26ca:	2240           	moveal %d0,%a1
    26cc:	d3c0           	addal %d0,%a1
    26ce:	d3c9           	addal %a1,%a1
    26d0:	43f0 9800      	lea %a0@(0,%a1:l),%a1
    26d4:	236f 0014 0088 	movel %sp@(20),%a1@(136)
    26da:	7401           	moveq #1,%d2
    26dc:	e1aa           	lsll %d0,%d2
    26de:	85a8 0188      	orl %d2,%a0@(392)
    26e2:	236f 0018 0108 	movel %sp@(24),%a1@(264)
    26e8:	5581           	subql #2,%d1
    26ea:	672e           	beqs 271a <__register_exitproc+0x72>
    26ec:	2200           	movel %d0,%d1
    26ee:	5281           	addql #1,%d1
    26f0:	2141 0004      	movel %d1,%a0@(4)
    26f4:	5480           	addql #2,%d0
    26f6:	d080           	addl %d0,%d0
    26f8:	d080           	addl %d0,%d0
    26fa:	21af 0010 0800 	movel %sp@(16),%a0@(0,%d0:l)
    2700:	7000           	moveq #0,%d0
    2702:	241f           	movel %sp@+,%d2
    2704:	261f           	movel %sp@+,%d3
    2706:	4e75           	rts
    2708:	23fc 0000 a9dc 	movel #43484,ab6c <__atexit>
    270e:	0000 ab6c 
    2712:	41f9 0000 a9dc 	lea a9dc <__atexit0>,%a0
    2718:	60a2           	bras 26bc <__register_exitproc+0x14>
    271a:	85a8 018c      	orl %d2,%a0@(396)
    271e:	2200           	movel %d0,%d1
    2720:	5281           	addql #1,%d1
    2722:	2141 0004      	movel %d1,%a0@(4)
    2726:	5480           	addql #2,%d0
    2728:	d080           	addl %d0,%d0
    272a:	d080           	addl %d0,%d0
    272c:	21af 0010 0800 	movel %sp@(16),%a0@(0,%d0:l)
    2732:	7000           	moveq #0,%d0
    2734:	60cc           	bras 2702 <__register_exitproc+0x5a>
    2736:	70ff           	moveq #-1,%d0
    2738:	241f           	movel %sp@+,%d2
    273a:	261f           	movel %sp@+,%d3
    273c:	4e75           	rts
	...

00002740 <__call_exitprocs>:
    2740:	48e7 3e30      	moveml %d2-%d6/%a2-%a3,%sp@-
    2744:	2a2f 0020      	movel %sp@(32),%d5
    2748:	262f 0024      	movel %sp@(36),%d3
    274c:	2679 0000 ab6c 	moveal ab6c <__atexit>,%a3
    2752:	7801           	moveq #1,%d4
    2754:	b6fc 0000      	cmpaw #0,%a3
    2758:	675a           	beqs 27b4 <__call_exitprocs+0x74>
    275a:	202b 0004      	movel %a3@(4),%d0
    275e:	2400           	movel %d0,%d2
    2760:	5382           	subql #1,%d2
    2762:	6b50           	bmis 27b4 <__call_exitprocs+0x74>
    2764:	5280           	addql #1,%d0
    2766:	d080           	addl %d0,%d0
    2768:	d080           	addl %d0,%d0
    276a:	45f3 0800      	lea %a3@(0,%d0:l),%a2
    276e:	4a83           	tstl %d3
    2770:	6648           	bnes 27ba <__call_exitprocs+0x7a>
    2772:	2052           	moveal %a2@,%a0
    2774:	202b 0004      	movel %a3@(4),%d0
    2778:	5380           	subql #1,%d0
    277a:	b480           	cmpl %d0,%d2
    277c:	6770           	beqs 27ee <__call_exitprocs+0xae>
    277e:	4292           	clrl %a2@
    2780:	b0fc 0000      	cmpaw #0,%a0
    2784:	6722           	beqs 27a8 <__call_exitprocs+0x68>
    2786:	2c2b 0004      	movel %a3@(4),%d6
    278a:	2004           	movel %d4,%d0
    278c:	e5a8           	lsll %d2,%d0
    278e:	2200           	movel %d0,%d1
    2790:	c2ab 0188      	andl %a3@(392),%d1
    2794:	6644           	bnes 27da <__call_exitprocs+0x9a>
    2796:	4e90           	jsr %a0@
    2798:	2039 0000 ab6c 	movel ab6c <__atexit>,%d0
    279e:	bcab 0004      	cmpl %a3@(4),%d6
    27a2:	662e           	bnes 27d2 <__call_exitprocs+0x92>
    27a4:	b7c0           	cmpal %d0,%a3
    27a6:	662a           	bnes 27d2 <__call_exitprocs+0x92>
    27a8:	598a           	subql #4,%a2
    27aa:	51ca ffc2      	dbf %d2,276e <__call_exitprocs+0x2e>
    27ae:	4242           	clrw %d2
    27b0:	5382           	subql #1,%d2
    27b2:	64ba           	bccs 276e <__call_exitprocs+0x2e>
    27b4:	4cdf 0c7c      	moveml %sp@+,%d2-%d6/%a2-%a3
    27b8:	4e75           	rts
    27ba:	b6aa 0100      	cmpl %a2@(256),%d3
    27be:	67b2           	beqs 2772 <__call_exitprocs+0x32>
    27c0:	598a           	subql #4,%a2
    27c2:	51ca fff6      	dbf %d2,27ba <__call_exitprocs+0x7a>
    27c6:	4242           	clrw %d2
    27c8:	5382           	subql #1,%d2
    27ca:	64ee           	bccs 27ba <__call_exitprocs+0x7a>
    27cc:	4cdf 0c7c      	moveml %sp@+,%d2-%d6/%a2-%a3
    27d0:	4e75           	rts
    27d2:	4a80           	tstl %d0
    27d4:	67de           	beqs 27b4 <__call_exitprocs+0x74>
    27d6:	2640           	moveal %d0,%a3
    27d8:	6080           	bras 275a <__call_exitprocs+0x1a>
    27da:	222a 0080      	movel %a2@(128),%d1
    27de:	c0ab 018c      	andl %a3@(396),%d0
    27e2:	6610           	bnes 27f4 <__call_exitprocs+0xb4>
    27e4:	2f01           	movel %d1,%sp@-
    27e6:	2f05           	movel %d5,%sp@-
    27e8:	4e90           	jsr %a0@
    27ea:	508f           	addql #8,%sp
    27ec:	60aa           	bras 2798 <__call_exitprocs+0x58>
    27ee:	2742 0004      	movel %d2,%a3@(4)
    27f2:	608c           	bras 2780 <__call_exitprocs+0x40>
    27f4:	2f01           	movel %d1,%sp@-
    27f6:	4e90           	jsr %a0@
    27f8:	588f           	addql #4,%sp
    27fa:	609c           	bras 2798 <__call_exitprocs+0x58>

000027fc <_malloc_r>:
    27fc:	48e7 3e3e      	moveml %d2-%d6/%a2-%fp,%sp@-
    2800:	266f 002c      	moveal %sp@(44),%a3
    2804:	226f 0030      	moveal %sp@(48),%a1
    2808:	41e9 000b      	lea %a1@(11),%a0
    280c:	7016           	moveq #22,%d0
    280e:	b088           	cmpl %a0,%d0
    2810:	655e           	bcss 2870 <_malloc_r+0x74>
    2812:	7210           	moveq #16,%d1
    2814:	b289           	cmpl %a1,%d1
    2816:	6500 01e2      	bcsw 29fa <_malloc_r+0x1fe>
    281a:	2f0b           	movel %a3,%sp@-
    281c:	4eb9 0000 3040 	jsr 3040 <__malloc_lock>
    2822:	588f           	addql #4,%sp
    2824:	307c 0018      	moveaw #24,%a0
    2828:	7602           	moveq #2,%d3
    282a:	7410           	moveq #16,%d2
    282c:	d1fc 0000 a46c 	addal #42092,%a0
    2832:	2468 0004      	moveal %a0@(4),%a2
    2836:	2008           	movel %a0,%d0
    2838:	5180           	subql #8,%d0
    283a:	b08a           	cmpl %a2,%d0
    283c:	6700 01ee      	beqw 2a2c <_malloc_r+0x230>
    2840:	70fc           	moveq #-4,%d0
    2842:	c0aa 0004      	andl %a2@(4),%d0
    2846:	206a 000c      	moveal %a2@(12),%a0
    284a:	226a 0008      	moveal %a2@(8),%a1
    284e:	2348 000c      	movel %a0,%a1@(12)
    2852:	2149 0008      	movel %a1,%a0@(8)
    2856:	7a01           	moveq #1,%d5
    2858:	8bb2 0804      	orl %d5,%a2@(4,%d0:l)
    285c:	2f0b           	movel %a3,%sp@-
    285e:	4eb9 0000 3042 	jsr 3042 <__malloc_unlock>
    2864:	200a           	movel %a2,%d0
    2866:	5080           	addql #8,%d0
    2868:	588f           	addql #4,%sp
    286a:	4cdf 7c7c      	moveml %sp@+,%d2-%d6/%a2-%fp
    286e:	4e75           	rts
    2870:	2408           	movel %a0,%d2
    2872:	76f8           	moveq #-8,%d3
    2874:	c483           	andl %d3,%d2
    2876:	b0fc 0000      	cmpaw #0,%a0
    287a:	6d00 017e      	bltw 29fa <_malloc_r+0x1fe>
    287e:	b489           	cmpl %a1,%d2
    2880:	6500 0178      	bcsw 29fa <_malloc_r+0x1fe>
    2884:	2f0b           	movel %a3,%sp@-
    2886:	4eb9 0000 3040 	jsr 3040 <__malloc_lock>
    288c:	588f           	addql #4,%sp
    288e:	2602           	movel %d2,%d3
    2890:	0c82 0000 01f7 	cmpil #503,%d2
    2896:	6300 041c      	blsw 2cb4 <_malloc_r+0x4b8>
    289a:	7c09           	moveq #9,%d6
    289c:	ecab           	lsrl %d6,%d3
    289e:	6700 0166      	beqw 2a06 <_malloc_r+0x20a>
    28a2:	7004           	moveq #4,%d0
    28a4:	b083           	cmpl %d3,%d0
    28a6:	6500 0324      	bcsw 2bcc <_malloc_r+0x3d0>
    28aa:	2602           	movel %d2,%d3
    28ac:	ec8b           	lsrl #6,%d3
    28ae:	387c 0038      	moveaw #56,%a4
    28b2:	d9c3           	addal %d3,%a4
    28b4:	7239           	moveq #57,%d1
    28b6:	d681           	addl %d1,%d3
    28b8:	2003           	movel %d3,%d0
    28ba:	e788           	lsll #3,%d0
    28bc:	2040           	moveal %d0,%a0
    28be:	d1fc 0000 a46c 	addal #42092,%a0
    28c4:	43e8 fff8      	lea %a0@(-8),%a1
    28c8:	2468 0004      	moveal %a0@(4),%a2
    28cc:	b5c9           	cmpal %a1,%a2
    28ce:	6732           	beqs 2902 <_malloc_r+0x106>
    28d0:	72fc           	moveq #-4,%d1
    28d2:	c2aa 0004      	andl %a2@(4),%d1
    28d6:	2001           	movel %d1,%d0
    28d8:	9082           	subl %d2,%d0
    28da:	780f           	moveq #15,%d4
    28dc:	b880           	cmpl %d0,%d4
    28de:	6d20           	blts 2900 <_malloc_r+0x104>
    28e0:	206a 000c      	moveal %a2@(12),%a0
    28e4:	4a80           	tstl %d0
    28e6:	6c00 0260      	bgew 2b48 <_malloc_r+0x34c>
    28ea:	b1c9           	cmpal %a1,%a0
    28ec:	6714           	beqs 2902 <_malloc_r+0x106>
    28ee:	2448           	moveal %a0,%a2
    28f0:	72fc           	moveq #-4,%d1
    28f2:	c2aa 0004      	andl %a2@(4),%d1
    28f6:	2001           	movel %d1,%d0
    28f8:	9082           	subl %d2,%d0
    28fa:	780f           	moveq #15,%d4
    28fc:	b880           	cmpl %d0,%d4
    28fe:	6ce0           	bges 28e0 <_malloc_r+0xe4>
    2900:	260c           	movel %a4,%d3
    2902:	2479 0000 a47c 	moveal a47c <__malloc_av_+0x10>,%a2
    2908:	b5fc 0000 a474 	cmpal #42100,%a2
    290e:	6700 0138      	beqw 2a48 <_malloc_r+0x24c>
    2912:	70fc           	moveq #-4,%d0
    2914:	c0aa 0004      	andl %a2@(4),%d0
    2918:	2200           	movel %d0,%d1
    291a:	9282           	subl %d2,%d1
    291c:	7c0f           	moveq #15,%d6
    291e:	bc81           	cmpl %d1,%d6
    2920:	6d00 03b0      	bltw 2cd2 <_malloc_r+0x4d6>
    2924:	23fc 0000 a474 	movel #42100,a480 <__malloc_av_+0x14>
    292a:	0000 a480 
    292e:	23fc 0000 a474 	movel #42100,a47c <__malloc_av_+0x10>
    2934:	0000 a47c 
    2938:	4a81           	tstl %d1
    293a:	6c00 0360      	bgew 2c9c <_malloc_r+0x4a0>
    293e:	2239 0000 a470 	movel a470 <__malloc_av_+0x4>,%d1
    2944:	0c80 0000 01ff 	cmpil #511,%d0
    294a:	6200 0220      	bhiw 2b6c <_malloc_r+0x370>
    294e:	e688           	lsrl #3,%d0
    2950:	2a00           	movel %d0,%d5
    2952:	e485           	asrl #2,%d5
    2954:	7801           	moveq #1,%d4
    2956:	ebac           	lsll %d5,%d4
    2958:	8284           	orl %d4,%d1
    295a:	23c1 0000 a470 	movel %d1,a470 <__malloc_av_+0x4>
    2960:	e788           	lsll #3,%d0
    2962:	2040           	moveal %d0,%a0
    2964:	d1fc 0000 a474 	addal #42100,%a0
    296a:	2250           	moveal %a0@,%a1
    296c:	49e8 fff8      	lea %a0@(-8),%a4
    2970:	254c 000c      	movel %a4,%a2@(12)
    2974:	2549 0008      	movel %a1,%a2@(8)
    2978:	208a           	movel %a2,%a0@
    297a:	234a 000c      	movel %a2,%a1@(12)
    297e:	2003           	movel %d3,%d0
    2980:	e480           	asrl #2,%d0
    2982:	7801           	moveq #1,%d4
    2984:	e1ac           	lsll %d0,%d4
    2986:	b284           	cmpl %d4,%d1
    2988:	6500 00d2      	bcsw 2a5c <_malloc_r+0x260>
    298c:	2004           	movel %d4,%d0
    298e:	c081           	andl %d1,%d0
    2990:	660e           	bnes 29a0 <_malloc_r+0x1a4>
    2992:	7afc           	moveq #-4,%d5
    2994:	c685           	andl %d5,%d3
    2996:	5883           	addql #4,%d3
    2998:	d884           	addl %d4,%d4
    299a:	2004           	movel %d4,%d0
    299c:	c081           	andl %d1,%d0
    299e:	67f6           	beqs 2996 <_malloc_r+0x19a>
    29a0:	2003           	movel %d3,%d0
    29a2:	e788           	lsll #3,%d0
    29a4:	2840           	moveal %d0,%a4
    29a6:	d9fc 0000 a46c 	addal #42092,%a4
    29ac:	224c           	moveal %a4,%a1
    29ae:	2a03           	movel %d3,%d5
    29b0:	2069 000c      	moveal %a1@(12),%a0
    29b4:	b1c9           	cmpal %a1,%a0
    29b6:	6700 0252      	beqw 2c0a <_malloc_r+0x40e>
    29ba:	72fc           	moveq #-4,%d1
    29bc:	c2a8 0004      	andl %a0@(4),%d1
    29c0:	2001           	movel %d1,%d0
    29c2:	9082           	subl %d2,%d0
    29c4:	2448           	moveal %a0,%a2
    29c6:	2068 000c      	moveal %a0@(12),%a0
    29ca:	7c0f           	moveq #15,%d6
    29cc:	bc80           	cmpl %d0,%d6
    29ce:	6d00 027a      	bltw 2c4a <_malloc_r+0x44e>
    29d2:	4a80           	tstl %d0
    29d4:	6dde           	blts 29b4 <_malloc_r+0x1b8>
    29d6:	7a01           	moveq #1,%d5
    29d8:	8bb2 1804      	orl %d5,%a2@(4,%d1:l)
    29dc:	226a 0008      	moveal %a2@(8),%a1
    29e0:	2348 000c      	movel %a0,%a1@(12)
    29e4:	2149 0008      	movel %a1,%a0@(8)
    29e8:	2f0b           	movel %a3,%sp@-
    29ea:	4eb9 0000 3042 	jsr 3042 <__malloc_unlock>
    29f0:	200a           	movel %a2,%d0
    29f2:	5080           	addql #8,%d0
    29f4:	588f           	addql #4,%sp
    29f6:	6000 fe72      	braw 286a <_malloc_r+0x6e>
    29fa:	780c           	moveq #12,%d4
    29fc:	2684           	movel %d4,%a3@
    29fe:	7000           	moveq #0,%d0
    2a00:	4cdf 7c7c      	moveml %sp@+,%d2-%d6/%a2-%fp
    2a04:	4e75           	rts
    2a06:	203c 0000 0200 	movel #512,%d0
    2a0c:	7640           	moveq #64,%d3
    2a0e:	387c 003f      	moveaw #63,%a4
    2a12:	2040           	moveal %d0,%a0
    2a14:	d1fc 0000 a46c 	addal #42092,%a0
    2a1a:	43e8 fff8      	lea %a0@(-8),%a1
    2a1e:	2468 0004      	moveal %a0@(4),%a2
    2a22:	b5c9           	cmpal %a1,%a2
    2a24:	6600 feaa      	bnew 28d0 <_malloc_r+0xd4>
    2a28:	6000 fed8      	braw 2902 <_malloc_r+0x106>
    2a2c:	2468 000c      	moveal %a0@(12),%a2
    2a30:	b5c8           	cmpal %a0,%a2
    2a32:	6600 fe0c      	bnew 2840 <_malloc_r+0x44>
    2a36:	5483           	addql #2,%d3
    2a38:	2479 0000 a47c 	moveal a47c <__malloc_av_+0x10>,%a2
    2a3e:	b5fc 0000 a474 	cmpal #42100,%a2
    2a44:	6600 fecc      	bnew 2912 <_malloc_r+0x116>
    2a48:	2239 0000 a470 	movel a470 <__malloc_av_+0x4>,%d1
    2a4e:	2003           	movel %d3,%d0
    2a50:	e480           	asrl #2,%d0
    2a52:	7801           	moveq #1,%d4
    2a54:	e1ac           	lsll %d0,%d4
    2a56:	b284           	cmpl %d4,%d1
    2a58:	6400 ff32      	bccw 298c <_malloc_r+0x190>
    2a5c:	2479 0000 a474 	moveal a474 <__malloc_av_+0x8>,%a2
    2a62:	7afc           	moveq #-4,%d5
    2a64:	caaa 0004      	andl %a2@(4),%d5
    2a68:	b485           	cmpl %d5,%d2
    2a6a:	620c           	bhis 2a78 <_malloc_r+0x27c>
    2a6c:	2005           	movel %d5,%d0
    2a6e:	9082           	subl %d2,%d0
    2a70:	7c0f           	moveq #15,%d6
    2a72:	bc80           	cmpl %d0,%d6
    2a74:	6d00 00a6      	bltw 2b1c <_malloc_r+0x320>
    2a78:	280a           	movel %a2,%d4
    2a7a:	d885           	addl %d5,%d4
    2a7c:	2602           	movel %d2,%d3
    2a7e:	d6b9 0000 aba0 	addl aba0 <__malloc_top_pad>,%d3
    2a84:	70ff           	moveq #-1,%d0
    2a86:	b0b9 0000 a464 	cmpl a464 <__malloc_sbrk_base>,%d0
    2a8c:	6700 03de      	beqw 2e6c <_malloc_r+0x670>
    2a90:	0683 0000 100f 	addil #4111,%d3
    2a96:	0243 f000      	andiw #-4096,%d3
    2a9a:	2f03           	movel %d3,%sp@-
    2a9c:	2f0b           	movel %a3,%sp@-
    2a9e:	4df9 0000 3604 	lea 3604 <_sbrk_r>,%fp
    2aa4:	4e96           	jsr %fp@
    2aa6:	2840           	moveal %d0,%a4
    2aa8:	508f           	addql #8,%sp
    2aaa:	7cff           	moveq #-1,%d6
    2aac:	bc80           	cmpl %d0,%d6
    2aae:	6700 0298      	beqw 2d48 <_malloc_r+0x54c>
    2ab2:	b084           	cmpl %d4,%d0
    2ab4:	6500 028a      	bcsw 2d40 <_malloc_r+0x544>
    2ab8:	4bf9 0000 ab70 	lea ab70 <__malloc_current_mallinfo>,%a5
    2abe:	2043           	moveal %d3,%a0
    2ac0:	d1d5           	addal %a5@,%a0
    2ac2:	2008           	movel %a0,%d0
    2ac4:	2a88           	movel %a0,%a5@
    2ac6:	b9c4           	cmpal %d4,%a4
    2ac8:	6600 02e4      	bnew 2dae <_malloc_r+0x5b2>
    2acc:	220c           	movel %a4,%d1
    2ace:	0281 0000 0fff 	andil #4095,%d1
    2ad4:	6600 02d8      	bnew 2dae <_malloc_r+0x5b2>
    2ad8:	2879 0000 a474 	moveal a474 <__malloc_av_+0x8>,%a4
    2ade:	d685           	addl %d5,%d3
    2ae0:	7001           	moveq #1,%d0
    2ae2:	8680           	orl %d0,%d3
    2ae4:	2943 0004      	movel %d3,%a4@(4)
    2ae8:	b1f9 0000 ab9c 	cmpal ab9c <__malloc_max_sbrked_mem>,%a0
    2aee:	6306           	blss 2af6 <_malloc_r+0x2fa>
    2af0:	23c8 0000 ab9c 	movel %a0,ab9c <__malloc_max_sbrked_mem>
    2af6:	b1f9 0000 ab98 	cmpal ab98 <__malloc_max_total_mem>,%a0
    2afc:	6306           	blss 2b04 <_malloc_r+0x308>
    2afe:	23c8 0000 ab98 	movel %a0,ab98 <__malloc_max_total_mem>
    2b04:	244c           	moveal %a4,%a2
    2b06:	7cfc           	moveq #-4,%d6
    2b08:	c686           	andl %d6,%d3
    2b0a:	2003           	movel %d3,%d0
    2b0c:	9082           	subl %d2,%d0
    2b0e:	b483           	cmpl %d3,%d2
    2b10:	6200 033c      	bhiw 2e4e <_malloc_r+0x652>
    2b14:	720f           	moveq #15,%d1
    2b16:	b280           	cmpl %d0,%d1
    2b18:	6c00 0334      	bgew 2e4e <_malloc_r+0x652>
    2b1c:	7601           	moveq #1,%d3
    2b1e:	8682           	orl %d2,%d3
    2b20:	2543 0004      	movel %d3,%a2@(4)
    2b24:	41f2 2800      	lea %a2@(0,%d2:l),%a0
    2b28:	23c8 0000 a474 	movel %a0,a474 <__malloc_av_+0x8>
    2b2e:	7801           	moveq #1,%d4
    2b30:	8880           	orl %d0,%d4
    2b32:	2144 0004      	movel %d4,%a0@(4)
    2b36:	2f0b           	movel %a3,%sp@-
    2b38:	4eb9 0000 3042 	jsr 3042 <__malloc_unlock>
    2b3e:	200a           	movel %a2,%d0
    2b40:	5080           	addql #8,%d0
    2b42:	588f           	addql #4,%sp
    2b44:	6000 fd24      	braw 286a <_malloc_r+0x6e>
    2b48:	226a 0008      	moveal %a2@(8),%a1
    2b4c:	2348 000c      	movel %a0,%a1@(12)
    2b50:	2149 0008      	movel %a1,%a0@(8)
    2b54:	7a01           	moveq #1,%d5
    2b56:	8bb2 1804      	orl %d5,%a2@(4,%d1:l)
    2b5a:	2f0b           	movel %a3,%sp@-
    2b5c:	4eb9 0000 3042 	jsr 3042 <__malloc_unlock>
    2b62:	200a           	movel %a2,%d0
    2b64:	5080           	addql #8,%d0
    2b66:	588f           	addql #4,%sp
    2b68:	6000 fd00      	braw 286a <_malloc_r+0x6e>
    2b6c:	2800           	movel %d0,%d4
    2b6e:	7a09           	moveq #9,%d5
    2b70:	eaac           	lsrl %d5,%d4
    2b72:	7c04           	moveq #4,%d6
    2b74:	bc84           	cmpl %d4,%d6
    2b76:	6400 01a0      	bccw 2d18 <_malloc_r+0x51c>
    2b7a:	7a14           	moveq #20,%d5
    2b7c:	ba84           	cmpl %d4,%d5
    2b7e:	6500 0316      	bcsw 2e96 <_malloc_r+0x69a>
    2b82:	327c 005b      	moveaw #91,%a1
    2b86:	d3c4           	addal %d4,%a1
    2b88:	7c5c           	moveq #92,%d6
    2b8a:	d886           	addl %d6,%d4
    2b8c:	e78c           	lsll #3,%d4
    2b8e:	2044           	moveal %d4,%a0
    2b90:	d1fc 0000 a46c 	addal #42092,%a0
    2b96:	49e8 fff8      	lea %a0@(-8),%a4
    2b9a:	2050           	moveal %a0@,%a0
    2b9c:	b1cc           	cmpal %a4,%a0
    2b9e:	6700 01de      	beqw 2d7e <_malloc_r+0x582>
    2ba2:	78fc           	moveq #-4,%d4
    2ba4:	c8a8 0004      	andl %a0@(4),%d4
    2ba8:	b084           	cmpl %d4,%d0
    2baa:	6408           	bccs 2bb4 <_malloc_r+0x3b8>
    2bac:	2068 0008      	moveal %a0@(8),%a0
    2bb0:	b1cc           	cmpal %a4,%a0
    2bb2:	66ee           	bnes 2ba2 <_malloc_r+0x3a6>
    2bb4:	2868 000c      	moveal %a0@(12),%a4
    2bb8:	254c 000c      	movel %a4,%a2@(12)
    2bbc:	2548 0008      	movel %a0,%a2@(8)
    2bc0:	294a 0008      	movel %a2,%a4@(8)
    2bc4:	214a 000c      	movel %a2,%a0@(12)
    2bc8:	6000 fdb4      	braw 297e <_malloc_r+0x182>
    2bcc:	7814           	moveq #20,%d4
    2bce:	b883           	cmpl %d3,%d4
    2bd0:	6400 0184      	bccw 2d56 <_malloc_r+0x55a>
    2bd4:	7c54           	moveq #84,%d6
    2bd6:	bc83           	cmpl %d3,%d6
    2bd8:	6500 02ee      	bcsw 2ec8 <_malloc_r+0x6cc>
    2bdc:	2602           	movel %d2,%d3
    2bde:	700c           	moveq #12,%d0
    2be0:	e0ab           	lsrl %d0,%d3
    2be2:	387c 006e      	moveaw #110,%a4
    2be6:	d9c3           	addal %d3,%a4
    2be8:	726f           	moveq #111,%d1
    2bea:	d681           	addl %d1,%d3
    2bec:	2003           	movel %d3,%d0
    2bee:	e788           	lsll #3,%d0
    2bf0:	2040           	moveal %d0,%a0
    2bf2:	d1fc 0000 a46c 	addal #42092,%a0
    2bf8:	43e8 fff8      	lea %a0@(-8),%a1
    2bfc:	2468 0004      	moveal %a0@(4),%a2
    2c00:	b5c9           	cmpal %a1,%a2
    2c02:	6600 fccc      	bnew 28d0 <_malloc_r+0xd4>
    2c06:	6000 fcfa      	braw 2902 <_malloc_r+0x106>
    2c0a:	5089           	addql #8,%a1
    2c0c:	5285           	addql #1,%d5
    2c0e:	7003           	moveq #3,%d0
    2c10:	c085           	andl %d5,%d0
    2c12:	6600 fd9c      	bnew 29b0 <_malloc_r+0x1b4>
    2c16:	7003           	moveq #3,%d0
    2c18:	c083           	andl %d3,%d0
    2c1a:	6700 040e      	beqw 302a <_malloc_r+0x82e>
    2c1e:	5383           	subql #1,%d3
    2c20:	518c           	subql #8,%a4
    2c22:	b9ec 0008      	cmpal %a4@(8),%a4
    2c26:	67ee           	beqs 2c16 <_malloc_r+0x41a>
    2c28:	2039 0000 a470 	movel a470 <__malloc_av_+0x4>,%d0
    2c2e:	d884           	addl %d4,%d4
    2c30:	b084           	cmpl %d4,%d0
    2c32:	6500 fe28      	bcsw 2a5c <_malloc_r+0x260>
    2c36:	4a84           	tstl %d4
    2c38:	6700 fe22      	beqw 2a5c <_malloc_r+0x260>
    2c3c:	2204           	movel %d4,%d1
    2c3e:	c280           	andl %d0,%d1
    2c40:	6600 03b0      	bnew 2ff2 <_malloc_r+0x7f6>
    2c44:	5885           	addql #4,%d5
    2c46:	d884           	addl %d4,%d4
    2c48:	60f2           	bras 2c3c <_malloc_r+0x440>
    2c4a:	43f2 2800      	lea %a2@(0,%d2:l),%a1
    2c4e:	7601           	moveq #1,%d3
    2c50:	8682           	orl %d2,%d3
    2c52:	2543 0004      	movel %d3,%a2@(4)
    2c56:	286a 0008      	moveal %a2@(8),%a4
    2c5a:	2948 000c      	movel %a0,%a4@(12)
    2c5e:	214c 0008      	movel %a4,%a0@(8)
    2c62:	23c9 0000 a480 	movel %a1,a480 <__malloc_av_+0x14>
    2c68:	23c9 0000 a47c 	movel %a1,a47c <__malloc_av_+0x10>
    2c6e:	237c 0000 a474 	movel #42100,%a1@(12)
    2c74:	000c 
    2c76:	237c 0000 a474 	movel #42100,%a1@(8)
    2c7c:	0008 
    2c7e:	7801           	moveq #1,%d4
    2c80:	8880           	orl %d0,%d4
    2c82:	2344 0004      	movel %d4,%a1@(4)
    2c86:	2580 1800      	movel %d0,%a2@(0,%d1:l)
    2c8a:	2f0b           	movel %a3,%sp@-
    2c8c:	4eb9 0000 3042 	jsr 3042 <__malloc_unlock>
    2c92:	200a           	movel %a2,%d0
    2c94:	5080           	addql #8,%d0
    2c96:	588f           	addql #4,%sp
    2c98:	6000 fbd0      	braw 286a <_malloc_r+0x6e>
    2c9c:	7a01           	moveq #1,%d5
    2c9e:	8bb2 0804      	orl %d5,%a2@(4,%d0:l)
    2ca2:	2f0b           	movel %a3,%sp@-
    2ca4:	4eb9 0000 3042 	jsr 3042 <__malloc_unlock>
    2caa:	200a           	movel %a2,%d0
    2cac:	5080           	addql #8,%d0
    2cae:	588f           	addql #4,%sp
    2cb0:	6000 fbb8      	braw 286a <_malloc_r+0x6e>
    2cb4:	e68b           	lsrl #3,%d3
    2cb6:	2042           	moveal %d2,%a0
    2cb8:	5088           	addql #8,%a0
    2cba:	d1fc 0000 a46c 	addal #42092,%a0
    2cc0:	2468 0004      	moveal %a0@(4),%a2
    2cc4:	2008           	movel %a0,%d0
    2cc6:	5180           	subql #8,%d0
    2cc8:	b08a           	cmpl %a2,%d0
    2cca:	6600 fb74      	bnew 2840 <_malloc_r+0x44>
    2cce:	6000 fd5c      	braw 2a2c <_malloc_r+0x230>
    2cd2:	41f2 2800      	lea %a2@(0,%d2:l),%a0
    2cd6:	7601           	moveq #1,%d3
    2cd8:	8682           	orl %d2,%d3
    2cda:	2543 0004      	movel %d3,%a2@(4)
    2cde:	23c8 0000 a480 	movel %a0,a480 <__malloc_av_+0x14>
    2ce4:	23c8 0000 a47c 	movel %a0,a47c <__malloc_av_+0x10>
    2cea:	217c 0000 a474 	movel #42100,%a0@(12)
    2cf0:	000c 
    2cf2:	217c 0000 a474 	movel #42100,%a0@(8)
    2cf8:	0008 
    2cfa:	7801           	moveq #1,%d4
    2cfc:	8881           	orl %d1,%d4
    2cfe:	2144 0004      	movel %d4,%a0@(4)
    2d02:	2581 0800      	movel %d1,%a2@(0,%d0:l)
    2d06:	2f0b           	movel %a3,%sp@-
    2d08:	4eb9 0000 3042 	jsr 3042 <__malloc_unlock>
    2d0e:	200a           	movel %a2,%d0
    2d10:	5080           	addql #8,%d0
    2d12:	588f           	addql #4,%sp
    2d14:	6000 fb54      	braw 286a <_malloc_r+0x6e>
    2d18:	2800           	movel %d0,%d4
    2d1a:	ec8c           	lsrl #6,%d4
    2d1c:	2044           	moveal %d4,%a0
    2d1e:	43e8 0038      	lea %a0@(56),%a1
    2d22:	41e8 0039      	lea %a0@(57),%a0
    2d26:	2808           	movel %a0,%d4
    2d28:	e78c           	lsll #3,%d4
    2d2a:	2044           	moveal %d4,%a0
    2d2c:	d1fc 0000 a46c 	addal #42092,%a0
    2d32:	49e8 fff8      	lea %a0@(-8),%a4
    2d36:	2050           	moveal %a0@,%a0
    2d38:	b1cc           	cmpal %a4,%a0
    2d3a:	6600 fe66      	bnew 2ba2 <_malloc_r+0x3a6>
    2d3e:	603e           	bras 2d7e <_malloc_r+0x582>
    2d40:	b5fc 0000 a46c 	cmpal #42092,%a2
    2d46:	675a           	beqs 2da2 <_malloc_r+0x5a6>
    2d48:	2479 0000 a474 	moveal a474 <__malloc_av_+0x8>,%a2
    2d4e:	262a 0004      	movel %a2@(4),%d3
    2d52:	6000 fdb2      	braw 2b06 <_malloc_r+0x30a>
    2d56:	387c 005b      	moveaw #91,%a4
    2d5a:	d9c3           	addal %d3,%a4
    2d5c:	7a5c           	moveq #92,%d5
    2d5e:	d685           	addl %d5,%d3
    2d60:	2003           	movel %d3,%d0
    2d62:	e788           	lsll #3,%d0
    2d64:	2040           	moveal %d0,%a0
    2d66:	d1fc 0000 a46c 	addal #42092,%a0
    2d6c:	43e8 fff8      	lea %a0@(-8),%a1
    2d70:	2468 0004      	moveal %a0@(4),%a2
    2d74:	b5c9           	cmpal %a1,%a2
    2d76:	6600 fb58      	bnew 28d0 <_malloc_r+0xd4>
    2d7a:	6000 fb86      	braw 2902 <_malloc_r+0x106>
    2d7e:	2009           	movel %a1,%d0
    2d80:	e480           	asrl #2,%d0
    2d82:	7801           	moveq #1,%d4
    2d84:	e1ac           	lsll %d0,%d4
    2d86:	8284           	orl %d4,%d1
    2d88:	23c1 0000 a470 	movel %d1,a470 <__malloc_av_+0x4>
    2d8e:	254c 000c      	movel %a4,%a2@(12)
    2d92:	2548 0008      	movel %a0,%a2@(8)
    2d96:	294a 0008      	movel %a2,%a4@(8)
    2d9a:	214a 000c      	movel %a2,%a0@(12)
    2d9e:	6000 fbde      	braw 297e <_malloc_r+0x182>
    2da2:	4bf9 0000 ab70 	lea ab70 <__malloc_current_mallinfo>,%a5
    2da8:	2003           	movel %d3,%d0
    2daa:	d095           	addl %a5@,%d0
    2dac:	2a80           	movel %d0,%a5@
    2dae:	72ff           	moveq #-1,%d1
    2db0:	b2b9 0000 a464 	cmpl a464 <__malloc_sbrk_base>,%d1
    2db6:	6700 0146      	beqw 2efe <_malloc_r+0x702>
    2dba:	220c           	movel %a4,%d1
    2dbc:	9284           	subl %d4,%d1
    2dbe:	d280           	addl %d0,%d1
    2dc0:	2a81           	movel %d1,%a5@
    2dc2:	2c0c           	movel %a4,%d6
    2dc4:	7807           	moveq #7,%d4
    2dc6:	cc84           	andl %d4,%d6
    2dc8:	6700 00aa      	beqw 2e74 <_malloc_r+0x678>
    2dcc:	7008           	moveq #8,%d0
    2dce:	9086           	subl %d6,%d0
    2dd0:	d9c0           	addal %d0,%a4
    2dd2:	d68c           	addl %a4,%d3
    2dd4:	283c 0000 1008 	movel #4104,%d4
    2dda:	9886           	subl %d6,%d4
    2ddc:	9883           	subl %d3,%d4
    2dde:	0284 0000 0fff 	andil #4095,%d4
    2de4:	2f04           	movel %d4,%sp@-
    2de6:	2f0b           	movel %a3,%sp@-
    2de8:	4e96           	jsr %fp@
    2dea:	508f           	addql #8,%sp
    2dec:	72ff           	moveq #-1,%d1
    2dee:	b280           	cmpl %d0,%d1
    2df0:	676c           	beqs 2e5e <_malloc_r+0x662>
    2df2:	908c           	subl %a4,%d0
    2df4:	2600           	movel %d0,%d3
    2df6:	d684           	addl %d4,%d3
    2df8:	2044           	moveal %d4,%a0
    2dfa:	d1d5           	addal %a5@,%a0
    2dfc:	2a88           	movel %a0,%a5@
    2dfe:	23cc 0000 a474 	movel %a4,a474 <__malloc_av_+0x8>
    2e04:	7001           	moveq #1,%d0
    2e06:	8680           	orl %d0,%d3
    2e08:	2943 0004      	movel %d3,%a4@(4)
    2e0c:	b5fc 0000 a46c 	cmpal #42092,%a2
    2e12:	6700 fcd4      	beqw 2ae8 <_malloc_r+0x2ec>
    2e16:	720f           	moveq #15,%d1
    2e18:	b285           	cmpl %d5,%d1
    2e1a:	642e           	bccs 2e4a <_malloc_r+0x64e>
    2e1c:	72f4           	moveq #-12,%d1
    2e1e:	d285           	addl %d5,%d1
    2e20:	76f8           	moveq #-8,%d3
    2e22:	c283           	andl %d3,%d1
    2e24:	7001           	moveq #1,%d0
    2e26:	c0aa 0004      	andl %a2@(4),%d0
    2e2a:	8081           	orl %d1,%d0
    2e2c:	2540 0004      	movel %d0,%a2@(4)
    2e30:	7805           	moveq #5,%d4
    2e32:	2584 1804      	movel %d4,%a2@(4,%d1:l)
    2e36:	2584 1808      	movel %d4,%a2@(8,%d1:l)
    2e3a:	7a0f           	moveq #15,%d5
    2e3c:	ba81           	cmpl %d1,%d5
    2e3e:	6500 0138      	bcsw 2f78 <_malloc_r+0x77c>
    2e42:	262c 0004      	movel %a4@(4),%d3
    2e46:	6000 fca0      	braw 2ae8 <_malloc_r+0x2ec>
    2e4a:	2940 0004      	movel %d0,%a4@(4)
    2e4e:	2f0b           	movel %a3,%sp@-
    2e50:	4eb9 0000 3042 	jsr 3042 <__malloc_unlock>
    2e56:	588f           	addql #4,%sp
    2e58:	7000           	moveq #0,%d0
    2e5a:	6000 fba4      	braw 2a00 <_malloc_r+0x204>
    2e5e:	2243           	moveal %d3,%a1
    2e60:	41f1 68f8      	lea %a1@(fffffffffffffff8,%d6:l),%a0
    2e64:	2608           	movel %a0,%d3
    2e66:	968c           	subl %a4,%d3
    2e68:	7800           	moveq #0,%d4
    2e6a:	608c           	bras 2df8 <_malloc_r+0x5fc>
    2e6c:	7210           	moveq #16,%d1
    2e6e:	d681           	addl %d1,%d3
    2e70:	6000 fc28      	braw 2a9a <_malloc_r+0x29e>
    2e74:	280c           	movel %a4,%d4
    2e76:	d883           	addl %d3,%d4
    2e78:	4484           	negl %d4
    2e7a:	0284 0000 0fff 	andil #4095,%d4
    2e80:	2f04           	movel %d4,%sp@-
    2e82:	2f0b           	movel %a3,%sp@-
    2e84:	4e96           	jsr %fp@
    2e86:	508f           	addql #8,%sp
    2e88:	7cff           	moveq #-1,%d6
    2e8a:	bc80           	cmpl %d0,%d6
    2e8c:	6600 ff64      	bnew 2df2 <_malloc_r+0x5f6>
    2e90:	7800           	moveq #0,%d4
    2e92:	6000 ff64      	braw 2df8 <_malloc_r+0x5fc>
    2e96:	7a54           	moveq #84,%d5
    2e98:	ba84           	cmpl %d4,%d5
    2e9a:	656c           	bcss 2f08 <_malloc_r+0x70c>
    2e9c:	2c00           	movel %d0,%d6
    2e9e:	780c           	moveq #12,%d4
    2ea0:	e8ae           	lsrl %d4,%d6
    2ea2:	2046           	moveal %d6,%a0
    2ea4:	43e8 006e      	lea %a0@(110),%a1
    2ea8:	41e8 006f      	lea %a0@(111),%a0
    2eac:	2808           	movel %a0,%d4
    2eae:	e78c           	lsll #3,%d4
    2eb0:	2044           	moveal %d4,%a0
    2eb2:	d1fc 0000 a46c 	addal #42092,%a0
    2eb8:	49e8 fff8      	lea %a0@(-8),%a4
    2ebc:	2050           	moveal %a0@,%a0
    2ebe:	b1cc           	cmpal %a4,%a0
    2ec0:	6600 fce0      	bnew 2ba2 <_malloc_r+0x3a6>
    2ec4:	6000 feb8      	braw 2d7e <_malloc_r+0x582>
    2ec8:	0c83 0000 0154 	cmpil #340,%d3
    2ece:	626e           	bhis 2f3e <_malloc_r+0x742>
    2ed0:	2602           	movel %d2,%d3
    2ed2:	780f           	moveq #15,%d4
    2ed4:	e8ab           	lsrl %d4,%d3
    2ed6:	387c 0077      	moveaw #119,%a4
    2eda:	d9c3           	addal %d3,%a4
    2edc:	7a78           	moveq #120,%d5
    2ede:	d685           	addl %d5,%d3
    2ee0:	2003           	movel %d3,%d0
    2ee2:	e788           	lsll #3,%d0
    2ee4:	2040           	moveal %d0,%a0
    2ee6:	d1fc 0000 a46c 	addal #42092,%a0
    2eec:	43e8 fff8      	lea %a0@(-8),%a1
    2ef0:	2468 0004      	moveal %a0@(4),%a2
    2ef4:	b5c9           	cmpal %a1,%a2
    2ef6:	6600 f9d8      	bnew 28d0 <_malloc_r+0xd4>
    2efa:	6000 fa06      	braw 2902 <_malloc_r+0x106>
    2efe:	23cc 0000 a464 	movel %a4,a464 <__malloc_sbrk_base>
    2f04:	6000 febc      	braw 2dc2 <_malloc_r+0x5c6>
    2f08:	0c84 0000 0154 	cmpil #340,%d4
    2f0e:	6200 0086      	bhiw 2f96 <_malloc_r+0x79a>
    2f12:	2a00           	movel %d0,%d5
    2f14:	7c0f           	moveq #15,%d6
    2f16:	ecad           	lsrl %d6,%d5
    2f18:	2045           	moveal %d5,%a0
    2f1a:	43e8 0077      	lea %a0@(119),%a1
    2f1e:	41e8 0078      	lea %a0@(120),%a0
    2f22:	2808           	movel %a0,%d4
    2f24:	e78c           	lsll #3,%d4
    2f26:	2044           	moveal %d4,%a0
    2f28:	d1fc 0000 a46c 	addal #42092,%a0
    2f2e:	49e8 fff8      	lea %a0@(-8),%a4
    2f32:	2050           	moveal %a0@,%a0
    2f34:	b1cc           	cmpal %a4,%a0
    2f36:	6600 fc6a      	bnew 2ba2 <_malloc_r+0x3a6>
    2f3a:	6000 fe42      	braw 2d7e <_malloc_r+0x582>
    2f3e:	0c83 0000 0554 	cmpil #1364,%d3
    2f44:	6200 0086      	bhiw 2fcc <_malloc_r+0x7d0>
    2f48:	2602           	movel %d2,%d3
    2f4a:	4243           	clrw %d3
    2f4c:	4843           	swap %d3
    2f4e:	e44b           	lsrw #2,%d3
    2f50:	387c 007c      	moveaw #124,%a4
    2f54:	d9c3           	addal %d3,%a4
    2f56:	7c7d           	moveq #125,%d6
    2f58:	d686           	addl %d6,%d3
    2f5a:	2003           	movel %d3,%d0
    2f5c:	e788           	lsll #3,%d0
    2f5e:	2040           	moveal %d0,%a0
    2f60:	d1fc 0000 a46c 	addal #42092,%a0
    2f66:	43e8 fff8      	lea %a0@(-8),%a1
    2f6a:	2468 0004      	moveal %a0@(4),%a2
    2f6e:	b5c9           	cmpal %a1,%a2
    2f70:	6600 f95e      	bnew 28d0 <_malloc_r+0xd4>
    2f74:	6000 f98c      	braw 2902 <_malloc_r+0x106>
    2f78:	486a 0008      	pea %a2@(8)
    2f7c:	2f0b           	movel %a3,%sp@-
    2f7e:	4eb9 0000 373e 	jsr 373e <_free_r>
    2f84:	2055           	moveal %a5@,%a0
    2f86:	2879 0000 a474 	moveal a474 <__malloc_av_+0x8>,%a4
    2f8c:	262c 0004      	movel %a4@(4),%d3
    2f90:	508f           	addql #8,%sp
    2f92:	6000 fb54      	braw 2ae8 <_malloc_r+0x2ec>
    2f96:	0c84 0000 0554 	cmpil #1364,%d4
    2f9c:	626a           	bhis 3008 <_malloc_r+0x80c>
    2f9e:	2800           	movel %d0,%d4
    2fa0:	4244           	clrw %d4
    2fa2:	4844           	swap %d4
    2fa4:	e44c           	lsrw #2,%d4
    2fa6:	2044           	moveal %d4,%a0
    2fa8:	43e8 007c      	lea %a0@(124),%a1
    2fac:	41e8 007d      	lea %a0@(125),%a0
    2fb0:	2808           	movel %a0,%d4
    2fb2:	e78c           	lsll #3,%d4
    2fb4:	2044           	moveal %d4,%a0
    2fb6:	d1fc 0000 a46c 	addal #42092,%a0
    2fbc:	49e8 fff8      	lea %a0@(-8),%a4
    2fc0:	2050           	moveal %a0@,%a0
    2fc2:	b1cc           	cmpal %a4,%a0
    2fc4:	6600 fbdc      	bnew 2ba2 <_malloc_r+0x3a6>
    2fc8:	6000 fdb4      	braw 2d7e <_malloc_r+0x582>
    2fcc:	203c 0000 03f8 	movel #1016,%d0
    2fd2:	767f           	moveq #127,%d3
    2fd4:	387c 007e      	moveaw #126,%a4
    2fd8:	2040           	moveal %d0,%a0
    2fda:	d1fc 0000 a46c 	addal #42092,%a0
    2fe0:	43e8 fff8      	lea %a0@(-8),%a1
    2fe4:	2468 0004      	moveal %a0@(4),%a2
    2fe8:	b5c9           	cmpal %a1,%a2
    2fea:	6600 f8e4      	bnew 28d0 <_malloc_r+0xd4>
    2fee:	6000 f912      	braw 2902 <_malloc_r+0x106>
    2ff2:	2605           	movel %d5,%d3
    2ff4:	2003           	movel %d3,%d0
    2ff6:	e788           	lsll #3,%d0
    2ff8:	2840           	moveal %d0,%a4
    2ffa:	d9fc 0000 a46c 	addal #42092,%a4
    3000:	224c           	moveal %a4,%a1
    3002:	2a03           	movel %d3,%d5
    3004:	6000 f9aa      	braw 29b0 <_malloc_r+0x1b4>
    3008:	283c 0000 03f8 	movel #1016,%d4
    300e:	327c 007e      	moveaw #126,%a1
    3012:	2044           	moveal %d4,%a0
    3014:	d1fc 0000 a46c 	addal #42092,%a0
    301a:	49e8 fff8      	lea %a0@(-8),%a4
    301e:	2050           	moveal %a0@,%a0
    3020:	b1cc           	cmpal %a4,%a0
    3022:	6600 fb7e      	bnew 2ba2 <_malloc_r+0x3a6>
    3026:	6000 fd56      	braw 2d7e <_malloc_r+0x582>
    302a:	2004           	movel %d4,%d0
    302c:	4680           	notl %d0
    302e:	c0b9 0000 a470 	andl a470 <__malloc_av_+0x4>,%d0
    3034:	23c0 0000 a470 	movel %d0,a470 <__malloc_av_+0x4>
    303a:	6000 fbf2      	braw 2c2e <_malloc_r+0x432>
	...

00003040 <__malloc_lock>:
    3040:	4e75           	rts

00003042 <__malloc_unlock>:
    3042:	4e75           	rts

00003044 <_fclose_r>:
    3044:	48e7 2030      	moveml %d2/%a2-%a3,%sp@-
    3048:	266f 0010      	moveal %sp@(16),%a3
    304c:	246f 0014      	moveal %sp@(20),%a2
    3050:	b4fc 0000      	cmpaw #0,%a2
    3054:	6714           	beqs 306a <_fclose_r+0x26>
    3056:	b6fc 0000      	cmpaw #0,%a3
    305a:	6708           	beqs 3064 <_fclose_r+0x20>
    305c:	4aab 0032      	tstl %a3@(50)
    3060:	6700 00a4      	beqw 3106 <_fclose_r+0xc2>
    3064:	4a6a 000c      	tstw %a2@(12)
    3068:	660a           	bnes 3074 <_fclose_r+0x30>
    306a:	7400           	moveq #0,%d2
    306c:	2002           	movel %d2,%d0
    306e:	4cdf 0c04      	moveml %sp@+,%d2/%a2-%a3
    3072:	4e75           	rts
    3074:	2f0a           	movel %a2,%sp@-
    3076:	2f0b           	movel %a3,%sp@-
    3078:	4eb9 0000 3130 	jsr 3130 <__sflush_r>
    307e:	2400           	movel %d0,%d2
    3080:	206a 002c      	moveal %a2@(44),%a0
    3084:	508f           	addql #8,%sp
    3086:	b0fc 0000      	cmpaw #0,%a0
    308a:	670e           	beqs 309a <_fclose_r+0x56>
    308c:	2f2a 001c      	movel %a2@(28),%sp@-
    3090:	2f0b           	movel %a3,%sp@-
    3092:	4e90           	jsr %a0@
    3094:	508f           	addql #8,%sp
    3096:	4a80           	tstl %d0
    3098:	6d62           	blts 30fc <_fclose_r+0xb8>
    309a:	4a2a 000d      	tstb %a2@(13)
    309e:	6b4c           	bmis 30ec <_fclose_r+0xa8>
    30a0:	202a 0030      	movel %a2@(48),%d0
    30a4:	6718           	beqs 30be <_fclose_r+0x7a>
    30a6:	41ea 0040      	lea %a2@(64),%a0
    30aa:	b1c0           	cmpal %d0,%a0
    30ac:	670c           	beqs 30ba <_fclose_r+0x76>
    30ae:	2f00           	movel %d0,%sp@-
    30b0:	2f0b           	movel %a3,%sp@-
    30b2:	4eb9 0000 373e 	jsr 373e <_free_r>
    30b8:	508f           	addql #8,%sp
    30ba:	42aa 0030      	clrl %a2@(48)
    30be:	202a 0044      	movel %a2@(68),%d0
    30c2:	6710           	beqs 30d4 <_fclose_r+0x90>
    30c4:	2f00           	movel %d0,%sp@-
    30c6:	2f0b           	movel %a3,%sp@-
    30c8:	4eb9 0000 373e 	jsr 373e <_free_r>
    30ce:	42aa 0044      	clrl %a2@(68)
    30d2:	508f           	addql #8,%sp
    30d4:	4eb9 0000 25a2 	jsr 25a2 <__sfp_lock_acquire>
    30da:	426a 000c      	clrw %a2@(12)
    30de:	4eb9 0000 25a4 	jsr 25a4 <__sfp_lock_release>
    30e4:	2002           	movel %d2,%d0
    30e6:	4cdf 0c04      	moveml %sp@+,%d2/%a2-%a3
    30ea:	4e75           	rts
    30ec:	2f2a 0010      	movel %a2@(16),%sp@-
    30f0:	2f0b           	movel %a3,%sp@-
    30f2:	4eb9 0000 373e 	jsr 373e <_free_r>
    30f8:	508f           	addql #8,%sp
    30fa:	60a4           	bras 30a0 <_fclose_r+0x5c>
    30fc:	74ff           	moveq #-1,%d2
    30fe:	4a2a 000d      	tstb %a2@(13)
    3102:	6a9c           	bpls 30a0 <_fclose_r+0x5c>
    3104:	60e6           	bras 30ec <_fclose_r+0xa8>
    3106:	2f0b           	movel %a3,%sp@-
    3108:	4eb9 0000 2580 	jsr 2580 <__sinit>
    310e:	588f           	addql #4,%sp
    3110:	4a6a 000c      	tstw %a2@(12)
    3114:	6700 ff54      	beqw 306a <_fclose_r+0x26>
    3118:	6000 ff5a      	braw 3074 <_fclose_r+0x30>

0000311c <fclose>:
    311c:	2f2f 0004      	movel %sp@(4),%sp@-
    3120:	2f39 0000 a348 	movel a348 <_impure_ptr>,%sp@-
    3126:	4eb9 0000 3044 	jsr 3044 <_fclose_r>
    312c:	508f           	addql #8,%sp
    312e:	4e75           	rts

00003130 <__sflush_r>:
    3130:	48e7 3830      	moveml %d2-%d4/%a2-%a3,%sp@-
    3134:	266f 0018      	moveal %sp@(24),%a3
    3138:	246f 001c      	moveal %sp@(28),%a2
    313c:	322a 000c      	movew %a2@(12),%d1
    3140:	0801 0003      	btst #3,%d1
    3144:	6600 00c0      	bnew 3206 <__sflush_r+0xd6>
    3148:	3401           	movew %d1,%d2
    314a:	0042 0800      	oriw #2048,%d2
    314e:	3542 000c      	movew %d2,%a2@(12)
    3152:	4aaa 0004      	tstl %a2@(4)
    3156:	6f00 0118      	blew 3270 <__sflush_r+0x140>
    315a:	206a 0028      	moveal %a2@(40),%a0
    315e:	b0fc 0000      	cmpaw #0,%a0
    3162:	6700 009a      	beqw 31fe <__sflush_r+0xce>
    3166:	2613           	movel %a3@,%d3
    3168:	4293           	clrl %a3@
    316a:	202a 001c      	movel %a2@(28),%d0
    316e:	0801 000c      	btst #12,%d1
    3172:	6700 0116      	beqw 328a <__sflush_r+0x15a>
    3176:	202a 0050      	movel %a2@(80),%d0
    317a:	0802 0002      	btst #2,%d2
    317e:	670e           	beqs 318e <__sflush_r+0x5e>
    3180:	90aa 0004      	subl %a2@(4),%d0
    3184:	4aaa 0030      	tstl %a2@(48)
    3188:	6704           	beqs 318e <__sflush_r+0x5e>
    318a:	90aa 003c      	subl %a2@(60),%d0
    318e:	42a7           	clrl %sp@-
    3190:	2f00           	movel %d0,%sp@-
    3192:	2f2a 001c      	movel %a2@(28),%sp@-
    3196:	2f0b           	movel %a3,%sp@-
    3198:	4e90           	jsr %a0@
    319a:	4fef 0010      	lea %sp@(16),%sp
    319e:	72ff           	moveq #-1,%d1
    31a0:	b280           	cmpl %d0,%d1
    31a2:	6600 0120      	bnew 32c4 <__sflush_r+0x194>
    31a6:	2413           	movel %a3@,%d2
    31a8:	322a 000c      	movew %a2@(12),%d1
    31ac:	781d           	moveq #29,%d4
    31ae:	b882           	cmpl %d2,%d4
    31b0:	6500 00ae      	bcsw 3260 <__sflush_r+0x130>
    31b4:	283c 2040 0001 	movel #541065217,%d4
    31ba:	0504           	btst %d2,%d4
    31bc:	6700 00a2      	beqw 3260 <__sflush_r+0x130>
    31c0:	3801           	movew %d1,%d4
    31c2:	0244 f7ff      	andiw #-2049,%d4
    31c6:	3544 000c      	movew %d4,%a2@(12)
    31ca:	42aa 0004      	clrl %a2@(4)
    31ce:	24aa 0010      	movel %a2@(16),%a2@
    31d2:	0801 000c      	btst #12,%d1
    31d6:	6706           	beqs 31de <__sflush_r+0xae>
    31d8:	4a82           	tstl %d2
    31da:	6700 0106      	beqw 32e2 <__sflush_r+0x1b2>
    31de:	2683           	movel %d3,%a3@
    31e0:	202a 0030      	movel %a2@(48),%d0
    31e4:	6718           	beqs 31fe <__sflush_r+0xce>
    31e6:	41ea 0040      	lea %a2@(64),%a0
    31ea:	b1c0           	cmpal %d0,%a0
    31ec:	670c           	beqs 31fa <__sflush_r+0xca>
    31ee:	2f00           	movel %d0,%sp@-
    31f0:	2f0b           	movel %a3,%sp@-
    31f2:	4eb9 0000 373e 	jsr 373e <_free_r>
    31f8:	508f           	addql #8,%sp
    31fa:	42aa 0030      	clrl %a2@(48)
    31fe:	7000           	moveq #0,%d0
    3200:	4cdf 0c1c      	moveml %sp@+,%d2-%d4/%a2-%a3
    3204:	4e75           	rts
    3206:	262a 0010      	movel %a2@(16),%d3
    320a:	67f2           	beqs 31fe <__sflush_r+0xce>
    320c:	2412           	movel %a2@,%d2
    320e:	9483           	subl %d3,%d2
    3210:	2483           	movel %d3,%a2@
    3212:	0241 0003      	andiw #3,%d1
    3216:	6664           	bnes 327c <__sflush_r+0x14c>
    3218:	202a 0014      	movel %a2@(20),%d0
    321c:	2540 0008      	movel %d0,%a2@(8)
    3220:	4a82           	tstl %d2
    3222:	6fda           	bles 31fe <__sflush_r+0xce>
    3224:	2f02           	movel %d2,%sp@-
    3226:	2f03           	movel %d3,%sp@-
    3228:	2f2a 001c      	movel %a2@(28),%sp@-
    322c:	2f0b           	movel %a3,%sp@-
    322e:	206a 0024      	moveal %a2@(36),%a0
    3232:	4e90           	jsr %a0@
    3234:	4fef 0010      	lea %sp@(16),%sp
    3238:	4a80           	tstl %d0
    323a:	6f20           	bles 325c <__sflush_r+0x12c>
    323c:	d680           	addl %d0,%d3
    323e:	9480           	subl %d0,%d2
    3240:	4a82           	tstl %d2
    3242:	6fba           	bles 31fe <__sflush_r+0xce>
    3244:	2f02           	movel %d2,%sp@-
    3246:	2f03           	movel %d3,%sp@-
    3248:	2f2a 001c      	movel %a2@(28),%sp@-
    324c:	2f0b           	movel %a3,%sp@-
    324e:	206a 0024      	moveal %a2@(36),%a0
    3252:	4e90           	jsr %a0@
    3254:	4fef 0010      	lea %sp@(16),%sp
    3258:	4a80           	tstl %d0
    325a:	6ee0           	bgts 323c <__sflush_r+0x10c>
    325c:	322a 000c      	movew %a2@(12),%d1
    3260:	0041 0040      	oriw #64,%d1
    3264:	3541 000c      	movew %d1,%a2@(12)
    3268:	70ff           	moveq #-1,%d0
    326a:	4cdf 0c1c      	moveml %sp@+,%d2-%d4/%a2-%a3
    326e:	4e75           	rts
    3270:	4aaa 003c      	tstl %a2@(60)
    3274:	6e00 fee4      	bgtw 315a <__sflush_r+0x2a>
    3278:	7000           	moveq #0,%d0
    327a:	6084           	bras 3200 <__sflush_r+0xd0>
    327c:	7000           	moveq #0,%d0
    327e:	2540 0008      	movel %d0,%a2@(8)
    3282:	4a82           	tstl %d2
    3284:	6e9e           	bgts 3224 <__sflush_r+0xf4>
    3286:	6000 ff76      	braw 31fe <__sflush_r+0xce>
    328a:	4878 0001      	pea 1 <DUART_MR1A+0x1>
    328e:	42a7           	clrl %sp@-
    3290:	2f00           	movel %d0,%sp@-
    3292:	2f0b           	movel %a3,%sp@-
    3294:	4e90           	jsr %a0@
    3296:	4fef 0010      	lea %sp@(16),%sp
    329a:	72ff           	moveq #-1,%d1
    329c:	b280           	cmpl %d0,%d1
    329e:	670c           	beqs 32ac <__sflush_r+0x17c>
    32a0:	342a 000c      	movew %a2@(12),%d2
    32a4:	206a 0028      	moveal %a2@(40),%a0
    32a8:	6000 fed0      	braw 317a <__sflush_r+0x4a>
    32ac:	2213           	movel %a3@,%d1
    32ae:	67f0           	beqs 32a0 <__sflush_r+0x170>
    32b0:	741d           	moveq #29,%d2
    32b2:	b481           	cmpl %d1,%d2
    32b4:	6706           	beqs 32bc <__sflush_r+0x18c>
    32b6:	7816           	moveq #22,%d4
    32b8:	b881           	cmpl %d1,%d4
    32ba:	66a0           	bnes 325c <__sflush_r+0x12c>
    32bc:	2683           	movel %d3,%a3@
    32be:	7000           	moveq #0,%d0
    32c0:	6000 ff3e      	braw 3200 <__sflush_r+0xd0>
    32c4:	322a 000c      	movew %a2@(12),%d1
    32c8:	3401           	movew %d1,%d2
    32ca:	0242 f7ff      	andiw #-2049,%d2
    32ce:	3542 000c      	movew %d2,%a2@(12)
    32d2:	42aa 0004      	clrl %a2@(4)
    32d6:	24aa 0010      	movel %a2@(16),%a2@
    32da:	0801 000c      	btst #12,%d1
    32de:	6700 fefe      	beqw 31de <__sflush_r+0xae>
    32e2:	2540 0050      	movel %d0,%a2@(80)
    32e6:	6000 fef6      	braw 31de <__sflush_r+0xae>

000032ea <_fflush_r>:
    32ea:	2f0b           	movel %a3,%sp@-
    32ec:	2f0a           	movel %a2,%sp@-
    32ee:	246f 000c      	moveal %sp@(12),%a2
    32f2:	266f 0010      	moveal %sp@(16),%a3
    32f6:	b4fc 0000      	cmpaw #0,%a2
    32fa:	6706           	beqs 3302 <_fflush_r+0x18>
    32fc:	4aaa 0032      	tstl %a2@(50)
    3300:	6720           	beqs 3322 <_fflush_r+0x38>
    3302:	4a6b 000c      	tstw %a3@(12)
    3306:	6608           	bnes 3310 <_fflush_r+0x26>
    3308:	7000           	moveq #0,%d0
    330a:	245f           	moveal %sp@+,%a2
    330c:	265f           	moveal %sp@+,%a3
    330e:	4e75           	rts
    3310:	2f4b 0010      	movel %a3,%sp@(16)
    3314:	2f4a 000c      	movel %a2,%sp@(12)
    3318:	245f           	moveal %sp@+,%a2
    331a:	265f           	moveal %sp@+,%a3
    331c:	4ef9 0000 3130 	jmp 3130 <__sflush_r>
    3322:	2f0a           	movel %a2,%sp@-
    3324:	4eb9 0000 2580 	jsr 2580 <__sinit>
    332a:	588f           	addql #4,%sp
    332c:	60d4           	bras 3302 <_fflush_r+0x18>

0000332e <fflush>:
    332e:	2f0b           	movel %a3,%sp@-
    3330:	2f0a           	movel %a2,%sp@-
    3332:	246f 000c      	moveal %sp@(12),%a2
    3336:	b4fc 0000      	cmpaw #0,%a2
    333a:	6744           	beqs 3380 <fflush+0x52>
    333c:	2679 0000 a348 	moveal a348 <_impure_ptr>,%a3
    3342:	b6fc 0000      	cmpaw #0,%a3
    3346:	6706           	beqs 334e <fflush+0x20>
    3348:	4aab 0032      	tstl %a3@(50)
    334c:	6720           	beqs 336e <fflush+0x40>
    334e:	4a6a 000c      	tstw %a2@(12)
    3352:	6608           	bnes 335c <fflush+0x2e>
    3354:	7000           	moveq #0,%d0
    3356:	245f           	moveal %sp@+,%a2
    3358:	265f           	moveal %sp@+,%a3
    335a:	4e75           	rts
    335c:	2f0a           	movel %a2,%sp@-
    335e:	2f0b           	movel %a3,%sp@-
    3360:	4eb9 0000 3130 	jsr 3130 <__sflush_r>
    3366:	508f           	addql #8,%sp
    3368:	245f           	moveal %sp@+,%a2
    336a:	265f           	moveal %sp@+,%a3
    336c:	4e75           	rts
    336e:	2f0b           	movel %a3,%sp@-
    3370:	4eb9 0000 2580 	jsr 2580 <__sinit>
    3376:	588f           	addql #4,%sp
    3378:	4a6a 000c      	tstw %a2@(12)
    337c:	67d6           	beqs 3354 <fflush+0x26>
    337e:	60dc           	bras 335c <fflush+0x2e>
    3380:	4879 0000 a33c 	pea a33c <__sglue>
    3386:	4879 0000 32ea 	pea 32ea <_fflush_r>
    338c:	4879 0000 a34c 	pea a34c <_impure_data>
    3392:	4eb9 0000 25dc 	jsr 25dc <_fwalk_sglue>
    3398:	4fef 000c      	lea %sp@(12),%sp
    339c:	245f           	moveal %sp@+,%a2
    339e:	265f           	moveal %sp@+,%a3
    33a0:	4e75           	rts
	...

000033a4 <__sread>:
    33a4:	2f0a           	movel %a2,%sp@-
    33a6:	246f 000c      	moveal %sp@(12),%a2
    33aa:	2f2f 0014      	movel %sp@(20),%sp@-
    33ae:	2f2f 0014      	movel %sp@(20),%sp@-
    33b2:	306a 000e      	moveaw %a2@(14),%a0
    33b6:	2f08           	movel %a0,%sp@-
    33b8:	2f2f 0014      	movel %sp@(20),%sp@-
    33bc:	4eb9 0000 35d0 	jsr 35d0 <_read_r>
    33c2:	4fef 0010      	lea %sp@(16),%sp
    33c6:	4a80           	tstl %d0
    33c8:	6d08           	blts 33d2 <__sread+0x2e>
    33ca:	d1aa 0050      	addl %d0,%a2@(80)
    33ce:	245f           	moveal %sp@+,%a2
    33d0:	4e75           	rts
    33d2:	026a efff 000c 	andiw #-4097,%a2@(12)
    33d8:	245f           	moveal %sp@+,%a2
    33da:	4e75           	rts

000033dc <__seofread>:
    33dc:	7000           	moveq #0,%d0
    33de:	4e75           	rts

000033e0 <__swrite>:
    33e0:	48e7 3820      	moveml %d2-%d4/%a2,%sp@-
    33e4:	242f 0014      	movel %sp@(20),%d2
    33e8:	246f 0018      	moveal %sp@(24),%a2
    33ec:	262f 001c      	movel %sp@(28),%d3
    33f0:	282f 0020      	movel %sp@(32),%d4
    33f4:	302a 000c      	movew %a2@(12),%d0
    33f8:	0800 0008      	btst #8,%d0
    33fc:	6626           	bnes 3424 <__swrite+0x44>
    33fe:	0240 efff      	andiw #-4097,%d0
    3402:	3540 000c      	movew %d0,%a2@(12)
    3406:	2f44 0020      	movel %d4,%sp@(32)
    340a:	2f43 001c      	movel %d3,%sp@(28)
    340e:	346a 000e      	moveaw %a2@(14),%a2
    3412:	2f4a 0018      	movel %a2,%sp@(24)
    3416:	2f42 0014      	movel %d2,%sp@(20)
    341a:	4cdf 041c      	moveml %sp@+,%d2-%d4/%a2
    341e:	4ef9 0000 3630 	jmp 3630 <_write_r>
    3424:	4878 0002      	pea 2 <DUART_CSRA>
    3428:	42a7           	clrl %sp@-
    342a:	306a 000e      	moveaw %a2@(14),%a0
    342e:	2f08           	movel %a0,%sp@-
    3430:	2f02           	movel %d2,%sp@-
    3432:	4eb9 0000 359c 	jsr 359c <_lseek_r>
    3438:	302a 000c      	movew %a2@(12),%d0
    343c:	4fef 0010      	lea %sp@(16),%sp
    3440:	0240 efff      	andiw #-4097,%d0
    3444:	3540 000c      	movew %d0,%a2@(12)
    3448:	2f44 0020      	movel %d4,%sp@(32)
    344c:	2f43 001c      	movel %d3,%sp@(28)
    3450:	346a 000e      	moveaw %a2@(14),%a2
    3454:	2f4a 0018      	movel %a2,%sp@(24)
    3458:	2f42 0014      	movel %d2,%sp@(20)
    345c:	4cdf 041c      	moveml %sp@+,%d2-%d4/%a2
    3460:	4ef9 0000 3630 	jmp 3630 <_write_r>

00003466 <__sseek>:
    3466:	2f0a           	movel %a2,%sp@-
    3468:	246f 000c      	moveal %sp@(12),%a2
    346c:	2f2f 0014      	movel %sp@(20),%sp@-
    3470:	2f2f 0014      	movel %sp@(20),%sp@-
    3474:	306a 000e      	moveaw %a2@(14),%a0
    3478:	2f08           	movel %a0,%sp@-
    347a:	2f2f 0014      	movel %sp@(20),%sp@-
    347e:	4eb9 0000 359c 	jsr 359c <_lseek_r>
    3484:	4fef 0010      	lea %sp@(16),%sp
    3488:	72ff           	moveq #-1,%d1
    348a:	b280           	cmpl %d0,%d1
    348c:	670e           	beqs 349c <__sseek+0x36>
    348e:	006a 1000 000c 	oriw #4096,%a2@(12)
    3494:	2540 0050      	movel %d0,%a2@(80)
    3498:	245f           	moveal %sp@+,%a2
    349a:	4e75           	rts
    349c:	026a efff 000c 	andiw #-4097,%a2@(12)
    34a2:	245f           	moveal %sp@+,%a2
    34a4:	4e75           	rts

000034a6 <__sclose>:
    34a6:	206f 0008      	moveal %sp@(8),%a0
    34aa:	3068 000e      	moveaw %a0@(14),%a0
    34ae:	2f48 0008      	movel %a0,%sp@(8)
    34b2:	4ef9 0000 34b8 	jmp 34b8 <_close_r>

000034b8 <_close_r>:
    34b8:	42b9 0000 aba4 	clrl aba4 <errno>
    34be:	2f2f 0008      	movel %sp@(8),%sp@-
    34c2:	4eb9 0000 3a98 	jsr 3a98 <_close>
    34c8:	588f           	addql #4,%sp
    34ca:	72ff           	moveq #-1,%d1
    34cc:	b280           	cmpl %d0,%d1
    34ce:	6702           	beqs 34d2 <_close_r+0x1a>
    34d0:	4e75           	rts
    34d2:	2239 0000 aba4 	movel aba4 <errno>,%d1
    34d8:	67f6           	beqs 34d0 <_close_r+0x18>
    34da:	206f 0004      	moveal %sp@(4),%a0
    34de:	2081           	movel %d1,%a0@
    34e0:	4e75           	rts
	...

000034e4 <_reclaim_reent>:
    34e4:	48e7 2038      	moveml %d2/%a2-%a4,%sp@-
    34e8:	266f 0014      	moveal %sp@(20),%a3
    34ec:	b7f9 0000 a348 	cmpal a348 <_impure_ptr>,%a3
    34f2:	6700 00a0      	beqw 3594 <_reclaim_reent+0xb0>
    34f6:	206b 0042      	moveal %a3@(66),%a0
    34fa:	b0fc 0000      	cmpaw #0,%a0
    34fe:	673a           	beqs 353a <_reclaim_reent+0x56>
    3500:	7400           	moveq #0,%d2
    3502:	49f9 0000 373e 	lea 373e <_free_r>,%a4
    3508:	2470 2800      	moveal %a0@(0,%d2:l),%a2
    350c:	b4fc 0000      	cmpaw #0,%a2
    3510:	6716           	beqs 3528 <_reclaim_reent+0x44>
    3512:	200a           	movel %a2,%d0
    3514:	2452           	moveal %a2@,%a2
    3516:	2f00           	movel %d0,%sp@-
    3518:	2f0b           	movel %a3,%sp@-
    351a:	4e94           	jsr %a4@
    351c:	508f           	addql #8,%sp
    351e:	b4fc 0000      	cmpaw #0,%a2
    3522:	66ee           	bnes 3512 <_reclaim_reent+0x2e>
    3524:	206b 0042      	moveal %a3@(66),%a0
    3528:	5882           	addql #4,%d2
    352a:	0c82 0000 0080 	cmpil #128,%d2
    3530:	66d6           	bnes 3508 <_reclaim_reent+0x24>
    3532:	2f08           	movel %a0,%sp@-
    3534:	2f0b           	movel %a3,%sp@-
    3536:	4e94           	jsr %a4@
    3538:	508f           	addql #8,%sp
    353a:	202b 0036      	movel %a3@(54),%d0
    353e:	670c           	beqs 354c <_reclaim_reent+0x68>
    3540:	2f00           	movel %d0,%sp@-
    3542:	2f0b           	movel %a3,%sp@-
    3544:	4eb9 0000 373e 	jsr 373e <_free_r>
    354a:	508f           	addql #8,%sp
    354c:	246b 003e      	moveal %a3@(62),%a2
    3550:	49f9 0000 373e 	lea 373e <_free_r>,%a4
    3556:	b4fc 0000      	cmpaw #0,%a2
    355a:	6712           	beqs 356e <_reclaim_reent+0x8a>
    355c:	200a           	movel %a2,%d0
    355e:	2452           	moveal %a2@,%a2
    3560:	2f00           	movel %d0,%sp@-
    3562:	2f0b           	movel %a3,%sp@-
    3564:	4e94           	jsr %a4@
    3566:	508f           	addql #8,%sp
    3568:	b4fc 0000      	cmpaw #0,%a2
    356c:	66ee           	bnes 355c <_reclaim_reent+0x78>
    356e:	202b 004a      	movel %a3@(74),%d0
    3572:	670c           	beqs 3580 <_reclaim_reent+0x9c>
    3574:	2f00           	movel %d0,%sp@-
    3576:	2f0b           	movel %a3,%sp@-
    3578:	4eb9 0000 373e 	jsr 373e <_free_r>
    357e:	508f           	addql #8,%sp
    3580:	226b 0032      	moveal %a3@(50),%a1
    3584:	b2fc 0000      	cmpaw #0,%a1
    3588:	670a           	beqs 3594 <_reclaim_reent+0xb0>
    358a:	2f4b 0014      	movel %a3,%sp@(20)
    358e:	4cdf 1c04      	moveml %sp@+,%d2/%a2-%a4
    3592:	4ed1           	jmp %a1@
    3594:	4cdf 1c04      	moveml %sp@+,%d2/%a2-%a4
    3598:	4e75           	rts
	...

0000359c <_lseek_r>:
    359c:	42b9 0000 aba4 	clrl aba4 <errno>
    35a2:	2f2f 0010      	movel %sp@(16),%sp@-
    35a6:	2f2f 0010      	movel %sp@(16),%sp@-
    35aa:	2f2f 0010      	movel %sp@(16),%sp@-
    35ae:	4eb9 0000 3bf2 	jsr 3bf2 <_lseek>
    35b4:	4fef 000c      	lea %sp@(12),%sp
    35b8:	72ff           	moveq #-1,%d1
    35ba:	b280           	cmpl %d0,%d1
    35bc:	6702           	beqs 35c0 <_lseek_r+0x24>
    35be:	4e75           	rts
    35c0:	2239 0000 aba4 	movel aba4 <errno>,%d1
    35c6:	67f6           	beqs 35be <_lseek_r+0x22>
    35c8:	206f 0004      	moveal %sp@(4),%a0
    35cc:	2081           	movel %d1,%a0@
    35ce:	4e75           	rts

000035d0 <_read_r>:
    35d0:	42b9 0000 aba4 	clrl aba4 <errno>
    35d6:	2f2f 0010      	movel %sp@(16),%sp@-
    35da:	2f2f 0010      	movel %sp@(16),%sp@-
    35de:	2f2f 0010      	movel %sp@(16),%sp@-
    35e2:	4eb9 0000 3daa 	jsr 3daa <_read>
    35e8:	4fef 000c      	lea %sp@(12),%sp
    35ec:	72ff           	moveq #-1,%d1
    35ee:	b280           	cmpl %d0,%d1
    35f0:	6702           	beqs 35f4 <_read_r+0x24>
    35f2:	4e75           	rts
    35f4:	2239 0000 aba4 	movel aba4 <errno>,%d1
    35fa:	67f6           	beqs 35f2 <_read_r+0x22>
    35fc:	206f 0004      	moveal %sp@(4),%a0
    3600:	2081           	movel %d1,%a0@
    3602:	4e75           	rts

00003604 <_sbrk_r>:
    3604:	42b9 0000 aba4 	clrl aba4 <errno>
    360a:	2f2f 0008      	movel %sp@(8),%sp@-
    360e:	4eb9 0000 3ece 	jsr 3ece <_sbrk>
    3614:	588f           	addql #4,%sp
    3616:	72ff           	moveq #-1,%d1
    3618:	b280           	cmpl %d0,%d1
    361a:	6702           	beqs 361e <_sbrk_r+0x1a>
    361c:	4e75           	rts
    361e:	2239 0000 aba4 	movel aba4 <errno>,%d1
    3624:	67f6           	beqs 361c <_sbrk_r+0x18>
    3626:	206f 0004      	moveal %sp@(4),%a0
    362a:	2081           	movel %d1,%a0@
    362c:	4e75           	rts
	...

00003630 <_write_r>:
    3630:	42b9 0000 aba4 	clrl aba4 <errno>
    3636:	2f2f 0010      	movel %sp@(16),%sp@-
    363a:	2f2f 0010      	movel %sp@(16),%sp@-
    363e:	2f2f 0010      	movel %sp@(16),%sp@-
    3642:	4eb9 0000 412e 	jsr 412e <_write>
    3648:	4fef 000c      	lea %sp@(12),%sp
    364c:	72ff           	moveq #-1,%d1
    364e:	b280           	cmpl %d0,%d1
    3650:	6702           	beqs 3654 <_write_r+0x24>
    3652:	4e75           	rts
    3654:	2239 0000 aba4 	movel aba4 <errno>,%d1
    365a:	67f6           	beqs 3652 <_write_r+0x22>
    365c:	206f 0004      	moveal %sp@(4),%a0
    3660:	2081           	movel %d1,%a0@
    3662:	4e75           	rts

00003664 <_malloc_trim_r>:
    3664:	48e7 3820      	moveml %d2-%d4/%a2,%sp@-
    3668:	262f 0014      	movel %sp@(20),%d3
    366c:	2f03           	movel %d3,%sp@-
    366e:	4eb9 0000 3040 	jsr 3040 <__malloc_lock>
    3674:	2079 0000 a474 	moveal a474 <__malloc_av_+0x8>,%a0
    367a:	78fc           	moveq #-4,%d4
    367c:	c8a8 0004      	andl %a0@(4),%d4
    3680:	2404           	movel %d4,%d2
    3682:	0682 0000 0fef 	addil #4079,%d2
    3688:	94af 001c      	subl %sp@(28),%d2
    368c:	0242 f000      	andiw #-4096,%d2
    3690:	0682 ffff f000 	addil #-4096,%d2
    3696:	588f           	addql #4,%sp
    3698:	0c82 0000 0fff 	cmpil #4095,%d2
    369e:	6f1a           	bles 36ba <_malloc_trim_r+0x56>
    36a0:	42a7           	clrl %sp@-
    36a2:	2f03           	movel %d3,%sp@-
    36a4:	45f9 0000 3604 	lea 3604 <_sbrk_r>,%a2
    36aa:	4e92           	jsr %a2@
    36ac:	2239 0000 a474 	movel a474 <__malloc_av_+0x8>,%d1
    36b2:	d284           	addl %d4,%d1
    36b4:	508f           	addql #8,%sp
    36b6:	b280           	cmpl %d0,%d1
    36b8:	6712           	beqs 36cc <_malloc_trim_r+0x68>
    36ba:	2f03           	movel %d3,%sp@-
    36bc:	4eb9 0000 3042 	jsr 3042 <__malloc_unlock>
    36c2:	588f           	addql #4,%sp
    36c4:	7000           	moveq #0,%d0
    36c6:	4cdf 041c      	moveml %sp@+,%d2-%d4/%a2
    36ca:	4e75           	rts
    36cc:	2002           	movel %d2,%d0
    36ce:	4480           	negl %d0
    36d0:	2f00           	movel %d0,%sp@-
    36d2:	2f03           	movel %d3,%sp@-
    36d4:	4e92           	jsr %a2@
    36d6:	508f           	addql #8,%sp
    36d8:	5280           	addql #1,%d0
    36da:	6728           	beqs 3704 <_malloc_trim_r+0xa0>
    36dc:	9882           	subl %d2,%d4
    36de:	2079 0000 a474 	moveal a474 <__malloc_av_+0x8>,%a0
    36e4:	7201           	moveq #1,%d1
    36e6:	8284           	orl %d4,%d1
    36e8:	2141 0004      	movel %d1,%a0@(4)
    36ec:	95b9 0000 ab70 	subl %d2,ab70 <__malloc_current_mallinfo>
    36f2:	2f03           	movel %d3,%sp@-
    36f4:	4eb9 0000 3042 	jsr 3042 <__malloc_unlock>
    36fa:	588f           	addql #4,%sp
    36fc:	7001           	moveq #1,%d0
    36fe:	4cdf 041c      	moveml %sp@+,%d2-%d4/%a2
    3702:	4e75           	rts
    3704:	42a7           	clrl %sp@-
    3706:	2f03           	movel %d3,%sp@-
    3708:	4e92           	jsr %a2@
    370a:	2079 0000 a474 	moveal a474 <__malloc_av_+0x8>,%a0
    3710:	2200           	movel %d0,%d1
    3712:	9288           	subl %a0,%d1
    3714:	508f           	addql #8,%sp
    3716:	740f           	moveq #15,%d2
    3718:	b481           	cmpl %d1,%d2
    371a:	6c9e           	bges 36ba <_malloc_trim_r+0x56>
    371c:	90b9 0000 a464 	subl a464 <__malloc_sbrk_base>,%d0
    3722:	23c0 0000 ab70 	movel %d0,ab70 <__malloc_current_mallinfo>
    3728:	7001           	moveq #1,%d0
    372a:	8081           	orl %d1,%d0
    372c:	2140 0004      	movel %d0,%a0@(4)
    3730:	2f03           	movel %d3,%sp@-
    3732:	4eb9 0000 3042 	jsr 3042 <__malloc_unlock>
    3738:	588f           	addql #4,%sp
    373a:	7000           	moveq #0,%d0
    373c:	6088           	bras 36c6 <_malloc_trim_r+0x62>

0000373e <_free_r>:
    373e:	48e7 3030      	moveml %d2-%d3/%a2-%a3,%sp@-
    3742:	242f 0014      	movel %sp@(20),%d2
    3746:	246f 0018      	moveal %sp@(24),%a2
    374a:	b4fc 0000      	cmpaw #0,%a2
    374e:	6700 013a      	beqw 388a <_free_r+0x14c>
    3752:	2f02           	movel %d2,%sp@-
    3754:	4eb9 0000 3040 	jsr 3040 <__malloc_lock>
    375a:	41ea fff8      	lea %a2@(-8),%a0
    375e:	262a fffc      	movel %a2@(-4),%d3
    3762:	70fe           	moveq #-2,%d0
    3764:	c083           	andl %d3,%d0
    3766:	43f0 0800      	lea %a0@(0,%d0:l),%a1
    376a:	72fc           	moveq #-4,%d1
    376c:	c2a9 0004      	andl %a1@(4),%d1
    3770:	588f           	addql #4,%sp
    3772:	b3f9 0000 a474 	cmpal a474 <__malloc_av_+0x8>,%a1
    3778:	6700 0174      	beqw 38ee <_free_r+0x1b0>
    377c:	2341 0004      	movel %d1,%a1@(4)
    3780:	47f1 1800      	lea %a1@(0,%d1:l),%a3
    3784:	0803 0000      	btst #0,%d3
    3788:	667c           	bnes 3806 <_free_r+0xc8>
    378a:	262a fff8      	movel %a2@(-8),%d3
    378e:	91c3           	subal %d3,%a0
    3790:	d083           	addl %d3,%d0
    3792:	2468 0008      	moveal %a0@(8),%a2
    3796:	7601           	moveq #1,%d3
    3798:	c6ab 0004      	andl %a3@(4),%d3
    379c:	b5fc 0000 a474 	cmpal #42100,%a2
    37a2:	6700 0118      	beqw 38bc <_free_r+0x17e>
    37a6:	2668 000c      	moveal %a0@(12),%a3
    37aa:	254b 000c      	movel %a3,%a2@(12)
    37ae:	274a 0008      	movel %a2,%a3@(8)
    37b2:	4a83           	tstl %d3
    37b4:	6700 00da      	beqw 3890 <_free_r+0x152>
    37b8:	7201           	moveq #1,%d1
    37ba:	8280           	orl %d0,%d1
    37bc:	2141 0004      	movel %d1,%a0@(4)
    37c0:	2280           	movel %d0,%a1@
    37c2:	0c80 0000 01ff 	cmpil #511,%d0
    37c8:	6258           	bhis 3822 <_free_r+0xe4>
    37ca:	e688           	lsrl #3,%d0
    37cc:	2600           	movel %d0,%d3
    37ce:	e483           	asrl #2,%d3
    37d0:	7201           	moveq #1,%d1
    37d2:	e7a9           	lsll %d3,%d1
    37d4:	83b9 0000 a470 	orl %d1,a470 <__malloc_av_+0x4>
    37da:	e788           	lsll #3,%d0
    37dc:	2240           	moveal %d0,%a1
    37de:	d3fc 0000 a474 	addal #42100,%a1
    37e4:	2451           	moveal %a1@,%a2
    37e6:	47e9 fff8      	lea %a1@(-8),%a3
    37ea:	214b 000c      	movel %a3,%a0@(12)
    37ee:	214a 0008      	movel %a2,%a0@(8)
    37f2:	2288           	movel %a0,%a1@
    37f4:	2548 000c      	movel %a0,%a2@(12)
    37f8:	2f42 0014      	movel %d2,%sp@(20)
    37fc:	4cdf 0c0c      	moveml %sp@+,%d2-%d3/%a2-%a3
    3800:	4ef9 0000 3042 	jmp 3042 <__malloc_unlock>
    3806:	082b 0000 0007 	btst #0,%a3@(7)
    380c:	6700 0082      	beqw 3890 <_free_r+0x152>
    3810:	7601           	moveq #1,%d3
    3812:	8680           	orl %d0,%d3
    3814:	2543 fffc      	movel %d3,%a2@(-4)
    3818:	2280           	movel %d0,%a1@
    381a:	0c80 0000 01ff 	cmpil #511,%d0
    3820:	63a8           	blss 37ca <_free_r+0x8c>
    3822:	2200           	movel %d0,%d1
    3824:	7609           	moveq #9,%d3
    3826:	e6a9           	lsrl %d3,%d1
    3828:	7604           	moveq #4,%d3
    382a:	b681           	cmpl %d1,%d3
    382c:	6500 0116      	bcsw 3944 <_free_r+0x206>
    3830:	2200           	movel %d0,%d1
    3832:	ec89           	lsrl #6,%d1
    3834:	2241           	moveal %d1,%a1
    3836:	45e9 0038      	lea %a1@(56),%a2
    383a:	43e9 0039      	lea %a1@(57),%a1
    383e:	2209           	movel %a1,%d1
    3840:	e789           	lsll #3,%d1
    3842:	2241           	moveal %d1,%a1
    3844:	d3fc 0000 a46c 	addal #42092,%a1
    384a:	47e9 fff8      	lea %a1@(-8),%a3
    384e:	2251           	moveal %a1@,%a1
    3850:	b3cb           	cmpal %a3,%a1
    3852:	6700 0126      	beqw 397a <_free_r+0x23c>
    3856:	72fc           	moveq #-4,%d1
    3858:	c2a9 0004      	andl %a1@(4),%d1
    385c:	b081           	cmpl %d1,%d0
    385e:	6408           	bccs 3868 <_free_r+0x12a>
    3860:	2269 0008      	moveal %a1@(8),%a1
    3864:	b3cb           	cmpal %a3,%a1
    3866:	66ee           	bnes 3856 <_free_r+0x118>
    3868:	2669 000c      	moveal %a1@(12),%a3
    386c:	214b 000c      	movel %a3,%a0@(12)
    3870:	2149 0008      	movel %a1,%a0@(8)
    3874:	2748 0008      	movel %a0,%a3@(8)
    3878:	2348 000c      	movel %a0,%a1@(12)
    387c:	2f42 0014      	movel %d2,%sp@(20)
    3880:	4cdf 0c0c      	moveml %sp@+,%d2-%d3/%a2-%a3
    3884:	4ef9 0000 3042 	jmp 3042 <__malloc_unlock>
    388a:	4cdf 0c0c      	moveml %sp@+,%d2-%d3/%a2-%a3
    388e:	4e75           	rts
    3890:	d081           	addl %d1,%d0
    3892:	2469 0008      	moveal %a1@(8),%a2
    3896:	b5fc 0000 a474 	cmpal #42100,%a2
    389c:	6700 0120      	beqw 39be <_free_r+0x280>
    38a0:	2269 000c      	moveal %a1@(12),%a1
    38a4:	2549 000c      	movel %a1,%a2@(12)
    38a8:	234a 0008      	movel %a2,%a1@(8)
    38ac:	7201           	moveq #1,%d1
    38ae:	8280           	orl %d0,%d1
    38b0:	2141 0004      	movel %d1,%a0@(4)
    38b4:	2180 0800      	movel %d0,%a0@(0,%d0:l)
    38b8:	6000 ff08      	braw 37c2 <_free_r+0x84>
    38bc:	4a83           	tstl %d3
    38be:	6600 01b8      	bnew 3a78 <_free_r+0x33a>
    38c2:	d280           	addl %d0,%d1
    38c4:	2469 0008      	moveal %a1@(8),%a2
    38c8:	2269 000c      	moveal %a1@(12),%a1
    38cc:	2549 000c      	movel %a1,%a2@(12)
    38d0:	234a 0008      	movel %a2,%a1@(8)
    38d4:	7601           	moveq #1,%d3
    38d6:	8681           	orl %d1,%d3
    38d8:	2143 0004      	movel %d3,%a0@(4)
    38dc:	2181 1800      	movel %d1,%a0@(0,%d1:l)
    38e0:	2f42 0014      	movel %d2,%sp@(20)
    38e4:	4cdf 0c0c      	moveml %sp@+,%d2-%d3/%a2-%a3
    38e8:	4ef9 0000 3042 	jmp 3042 <__malloc_unlock>
    38ee:	d280           	addl %d0,%d1
    38f0:	0803 0000      	btst #0,%d3
    38f4:	6618           	bnes 390e <_free_r+0x1d0>
    38f6:	202a fff8      	movel %a2@(-8),%d0
    38fa:	91c0           	subal %d0,%a0
    38fc:	d280           	addl %d0,%d1
    38fe:	2268 000c      	moveal %a0@(12),%a1
    3902:	2468 0008      	moveal %a0@(8),%a2
    3906:	2549 000c      	movel %a1,%a2@(12)
    390a:	234a 0008      	movel %a2,%a1@(8)
    390e:	7001           	moveq #1,%d0
    3910:	8081           	orl %d1,%d0
    3912:	2140 0004      	movel %d0,%a0@(4)
    3916:	23c8 0000 a474 	movel %a0,a474 <__malloc_av_+0x8>
    391c:	b2b9 0000 a468 	cmpl a468 <__malloc_trim_threshold>,%d1
    3922:	6500 fed4      	bcsw 37f8 <_free_r+0xba>
    3926:	2f39 0000 aba0 	movel aba0 <__malloc_top_pad>,%sp@-
    392c:	2f02           	movel %d2,%sp@-
    392e:	4eb9 0000 3664 	jsr 3664 <_malloc_trim_r>
    3934:	508f           	addql #8,%sp
    3936:	2f42 0014      	movel %d2,%sp@(20)
    393a:	4cdf 0c0c      	moveml %sp@+,%d2-%d3/%a2-%a3
    393e:	4ef9 0000 3042 	jmp 3042 <__malloc_unlock>
    3944:	7614           	moveq #20,%d3
    3946:	b681           	cmpl %d1,%d3
    3948:	6452           	bccs 399c <_free_r+0x25e>
    394a:	7654           	moveq #84,%d3
    394c:	b681           	cmpl %d1,%d3
    394e:	6500 009c      	bcsw 39ec <_free_r+0x2ae>
    3952:	2200           	movel %d0,%d1
    3954:	760c           	moveq #12,%d3
    3956:	e6a9           	lsrl %d3,%d1
    3958:	2241           	moveal %d1,%a1
    395a:	45e9 006e      	lea %a1@(110),%a2
    395e:	43e9 006f      	lea %a1@(111),%a1
    3962:	2209           	movel %a1,%d1
    3964:	e789           	lsll #3,%d1
    3966:	2241           	moveal %d1,%a1
    3968:	d3fc 0000 a46c 	addal #42092,%a1
    396e:	47e9 fff8      	lea %a1@(-8),%a3
    3972:	2251           	moveal %a1@,%a1
    3974:	b3cb           	cmpal %a3,%a1
    3976:	6600 fede      	bnew 3856 <_free_r+0x118>
    397a:	200a           	movel %a2,%d0
    397c:	e480           	asrl #2,%d0
    397e:	7201           	moveq #1,%d1
    3980:	e1a9           	lsll %d0,%d1
    3982:	83b9 0000 a470 	orl %d1,a470 <__malloc_av_+0x4>
    3988:	214b 000c      	movel %a3,%a0@(12)
    398c:	2149 0008      	movel %a1,%a0@(8)
    3990:	2748 0008      	movel %a0,%a3@(8)
    3994:	2348 000c      	movel %a0,%a1@(12)
    3998:	6000 fee2      	braw 387c <_free_r+0x13e>
    399c:	347c 005b      	moveaw #91,%a2
    39a0:	d5c1           	addal %d1,%a2
    39a2:	765c           	moveq #92,%d3
    39a4:	d283           	addl %d3,%d1
    39a6:	e789           	lsll #3,%d1
    39a8:	2241           	moveal %d1,%a1
    39aa:	d3fc 0000 a46c 	addal #42092,%a1
    39b0:	47e9 fff8      	lea %a1@(-8),%a3
    39b4:	2251           	moveal %a1@,%a1
    39b6:	b3cb           	cmpal %a3,%a1
    39b8:	6600 fe9c      	bnew 3856 <_free_r+0x118>
    39bc:	60bc           	bras 397a <_free_r+0x23c>
    39be:	23c8 0000 a480 	movel %a0,a480 <__malloc_av_+0x14>
    39c4:	23c8 0000 a47c 	movel %a0,a47c <__malloc_av_+0x10>
    39ca:	214a 000c      	movel %a2,%a0@(12)
    39ce:	214a 0008      	movel %a2,%a0@(8)
    39d2:	7601           	moveq #1,%d3
    39d4:	8680           	orl %d0,%d3
    39d6:	2143 0004      	movel %d3,%a0@(4)
    39da:	2180 0800      	movel %d0,%a0@(0,%d0:l)
    39de:	2f42 0014      	movel %d2,%sp@(20)
    39e2:	4cdf 0c0c      	moveml %sp@+,%d2-%d3/%a2-%a3
    39e6:	4ef9 0000 3042 	jmp 3042 <__malloc_unlock>
    39ec:	0c81 0000 0154 	cmpil #340,%d1
    39f2:	622c           	bhis 3a20 <_free_r+0x2e2>
    39f4:	2200           	movel %d0,%d1
    39f6:	760f           	moveq #15,%d3
    39f8:	e6a9           	lsrl %d3,%d1
    39fa:	2241           	moveal %d1,%a1
    39fc:	45e9 0077      	lea %a1@(119),%a2
    3a00:	43e9 0078      	lea %a1@(120),%a1
    3a04:	2209           	movel %a1,%d1
    3a06:	e789           	lsll #3,%d1
    3a08:	2241           	moveal %d1,%a1
    3a0a:	d3fc 0000 a46c 	addal #42092,%a1
    3a10:	47e9 fff8      	lea %a1@(-8),%a3
    3a14:	2251           	moveal %a1@,%a1
    3a16:	b3cb           	cmpal %a3,%a1
    3a18:	6600 fe3c      	bnew 3856 <_free_r+0x118>
    3a1c:	6000 ff5c      	braw 397a <_free_r+0x23c>
    3a20:	0c81 0000 0554 	cmpil #1364,%d1
    3a26:	622e           	bhis 3a56 <_free_r+0x318>
    3a28:	2200           	movel %d0,%d1
    3a2a:	4241           	clrw %d1
    3a2c:	4841           	swap %d1
    3a2e:	e449           	lsrw #2,%d1
    3a30:	2241           	moveal %d1,%a1
    3a32:	45e9 007c      	lea %a1@(124),%a2
    3a36:	43e9 007d      	lea %a1@(125),%a1
    3a3a:	2209           	movel %a1,%d1
    3a3c:	e789           	lsll #3,%d1
    3a3e:	2241           	moveal %d1,%a1
    3a40:	d3fc 0000 a46c 	addal #42092,%a1
    3a46:	47e9 fff8      	lea %a1@(-8),%a3
    3a4a:	2251           	moveal %a1@,%a1
    3a4c:	b3cb           	cmpal %a3,%a1
    3a4e:	6600 fe06      	bnew 3856 <_free_r+0x118>
    3a52:	6000 ff26      	braw 397a <_free_r+0x23c>
    3a56:	223c 0000 03f8 	movel #1016,%d1
    3a5c:	347c 007e      	moveaw #126,%a2
    3a60:	2241           	moveal %d1,%a1
    3a62:	d3fc 0000 a46c 	addal #42092,%a1
    3a68:	47e9 fff8      	lea %a1@(-8),%a3
    3a6c:	2251           	moveal %a1@,%a1
    3a6e:	b3cb           	cmpal %a3,%a1
    3a70:	6600 fde4      	bnew 3856 <_free_r+0x118>
    3a74:	6000 ff04      	braw 397a <_free_r+0x23c>
    3a78:	7201           	moveq #1,%d1
    3a7a:	8280           	orl %d0,%d1
    3a7c:	2141 0004      	movel %d1,%a0@(4)
    3a80:	2280           	movel %d0,%a1@
    3a82:	2f42 0014      	movel %d2,%sp@(20)
    3a86:	4cdf 0c0c      	moveml %sp@+,%d2-%d3/%a2-%a3
    3a8a:	4ef9 0000 3042 	jmp 3042 <__malloc_unlock>

00003a90 <_exit>:
    3a90:	2079 0000 0490 	moveal 490 <EFP_PROG_EXIT>,%a0
    3a96:	4ed0           	jmp %a0@

00003a98 <_close>:
    3a98:	2f0a           	movel %a2,%sp@-
    3a9a:	2f02           	movel %d2,%sp@-
    3a9c:	246f 000c      	moveal %sp@(12),%a2
    3aa0:	701f           	moveq #31,%d0
    3aa2:	b08a           	cmpl %a2,%d0
    3aa4:	6c64           	bges 3b0a <_close+0x72>
    3aa6:	45ea ffe0      	lea %a2@(-32),%a2
    3aaa:	4eb9 0000 4438 	jsr 4438 <SD_FAT_get_sd_card>
    3ab0:	4a80           	tstl %d0
    3ab2:	673c           	beqs 3af0 <_close+0x58>
    3ab4:	7401           	moveq #1,%d2
    3ab6:	200a           	movel %a2,%d0
    3ab8:	e1aa           	lsll %d0,%d2
    3aba:	57c0           	seq %d0
    3abc:	4880           	extw %d0
    3abe:	48c0           	extl %d0
    3ac0:	4480           	negl %d0
    3ac2:	c0b9 0000 ac32 	andl ac32 <files_bmp>,%d0
    3ac8:	6640           	bnes 3b0a <_close+0x72>
    3aca:	d5ca           	addal %a2,%a2
    3acc:	d5ca           	addal %a2,%a2
    3ace:	41f9 0000 abb2 	lea abb2 <files>,%a0
    3ad4:	2f32 8800      	movel %a2@(0,%a0:l),%sp@-
    3ad8:	4eb9 0000 53d4 	jsr 53d4 <fl_fclose>
    3ade:	4682           	notl %d2
    3ae0:	c5b9 0000 ac32 	andl %d2,ac32 <files_bmp>
    3ae6:	588f           	addql #4,%sp
    3ae8:	7000           	moveq #0,%d0
    3aea:	241f           	movel %sp@+,%d2
    3aec:	245f           	moveal %sp@+,%a2
    3aee:	4e75           	rts
    3af0:	4eb9 0000 43bc 	jsr 43bc <SD_FAT_initialize>
    3af6:	4a00           	tstb %d0
    3af8:	66ba           	bnes 3ab4 <_close+0x1c>
    3afa:	7006           	moveq #6,%d0
    3afc:	23c0 0000 aba4 	movel %d0,aba4 <errno>
    3b02:	70ff           	moveq #-1,%d0
    3b04:	241f           	movel %sp@+,%d2
    3b06:	245f           	moveal %sp@+,%a2
    3b08:	4e75           	rts
    3b0a:	7009           	moveq #9,%d0
    3b0c:	23c0 0000 aba4 	movel %d0,aba4 <errno>
    3b12:	70ff           	moveq #-1,%d0
    3b14:	60ee           	bras 3b04 <_close+0x6c>

00003b16 <_execve>:
    3b16:	700c           	moveq #12,%d0
    3b18:	23c0 0000 aba4 	movel %d0,aba4 <errno>
    3b1e:	70ff           	moveq #-1,%d0
    3b20:	4e75           	rts

00003b22 <_fork>:
    3b22:	700b           	moveq #11,%d0
    3b24:	23c0 0000 aba4 	movel %d0,aba4 <errno>
    3b2a:	70ff           	moveq #-1,%d0
    3b2c:	4e75           	rts

00003b2e <_fstat>:
    3b2e:	2f0a           	movel %a2,%sp@-
    3b30:	206f 0008      	moveal %sp@(8),%a0
    3b34:	226f 000c      	moveal %sp@(12),%a1
    3b38:	7002           	moveq #2,%d0
    3b3a:	b088           	cmpl %a0,%d0
    3b3c:	650e           	bcss 3b4c <_fstat+0x1e>
    3b3e:	237c 0000 2000 	movel #8192,%a1@(4)
    3b44:	0004 
    3b46:	7000           	moveq #0,%d0
    3b48:	245f           	moveal %sp@+,%a2
    3b4a:	4e75           	rts
    3b4c:	721f           	moveq #31,%d1
    3b4e:	b288           	cmpl %a0,%d1
    3b50:	6c66           	bges 3bb8 <_fstat+0x8a>
    3b52:	41e8 ffe0      	lea %a0@(-32),%a0
    3b56:	7001           	moveq #1,%d0
    3b58:	2208           	movel %a0,%d1
    3b5a:	e3a8           	lsll %d1,%d0
    3b5c:	57c0           	seq %d0
    3b5e:	4880           	extw %d0
    3b60:	48c0           	extl %d0
    3b62:	4480           	negl %d0
    3b64:	c0b9 0000 ac32 	andl ac32 <files_bmp>,%d0
    3b6a:	664c           	bnes 3bb8 <_fstat+0x8a>
    3b6c:	d1c8           	addal %a0,%a0
    3b6e:	d1c8           	addal %a0,%a0
    3b70:	45f9 0000 abb2 	lea abb2 <files>,%a2
    3b76:	2070 a800      	moveal %a0@(0,%a2:l),%a0
    3b7a:	4269 000a      	clrw %a1@(10)
    3b7e:	4269 000c      	clrw %a1@(12)
    3b82:	32bc 0080      	movew #128,%a1@
    3b86:	3368 0006 0002 	movew %a0@(6),%a1@(2)
    3b8c:	237c 0000 8000 	movel #32768,%a1@(4)
    3b92:	0004 
    3b94:	4269 0008      	clrw %a1@(8)
    3b98:	4269 000e      	clrw %a1@(14)
    3b9c:	2028 000c      	movel %a0@(12),%d0
    3ba0:	2340 0010      	movel %d0,%a1@(16)
    3ba4:	237c 0000 0200 	movel #512,%a1@(56)
    3baa:	0038 
    3bac:	7209           	moveq #9,%d1
    3bae:	e2a8           	lsrl %d1,%d0
    3bb0:	2340 003c      	movel %d0,%a1@(60)
    3bb4:	7000           	moveq #0,%d0
    3bb6:	6090           	bras 3b48 <_fstat+0x1a>
    3bb8:	7009           	moveq #9,%d0
    3bba:	23c0 0000 aba4 	movel %d0,aba4 <errno>
    3bc0:	70ff           	moveq #-1,%d0
    3bc2:	245f           	moveal %sp@+,%a2
    3bc4:	4e75           	rts

00003bc6 <_getpid>:
    3bc6:	7001           	moveq #1,%d0
    3bc8:	4e75           	rts

00003bca <_isatty>:
    3bca:	7202           	moveq #2,%d1
    3bcc:	b2af 0004      	cmpl %sp@(4),%d1
    3bd0:	54c0           	scc %d0
    3bd2:	4880           	extw %d0
    3bd4:	48c0           	extl %d0
    3bd6:	4480           	negl %d0
    3bd8:	4e75           	rts

00003bda <_kill>:
    3bda:	7016           	moveq #22,%d0
    3bdc:	23c0 0000 aba4 	movel %d0,aba4 <errno>
    3be2:	70ff           	moveq #-1,%d0
    3be4:	4e75           	rts

00003be6 <_link>:
    3be6:	701f           	moveq #31,%d0
    3be8:	23c0 0000 aba4 	movel %d0,aba4 <errno>
    3bee:	70ff           	moveq #-1,%d0
    3bf0:	4e75           	rts

00003bf2 <_lseek>:
    3bf2:	2f02           	movel %d2,%sp@-
    3bf4:	206f 0008      	moveal %sp@(8),%a0
    3bf8:	222f 000c      	movel %sp@(12),%d1
    3bfc:	226f 0010      	moveal %sp@(16),%a1
    3c00:	7002           	moveq #2,%d0
    3c02:	b088           	cmpl %a0,%d0
    3c04:	6506           	bcss 3c0c <_lseek+0x1a>
    3c06:	7000           	moveq #0,%d0
    3c08:	241f           	movel %sp@+,%d2
    3c0a:	4e75           	rts
    3c0c:	741f           	moveq #31,%d2
    3c0e:	b488           	cmpl %a0,%d2
    3c10:	6c3a           	bges 3c4c <_lseek+0x5a>
    3c12:	41e8 ffe0      	lea %a0@(-32),%a0
    3c16:	7001           	moveq #1,%d0
    3c18:	2408           	movel %a0,%d2
    3c1a:	e5a8           	lsll %d2,%d0
    3c1c:	57c0           	seq %d0
    3c1e:	4880           	extw %d0
    3c20:	48c0           	extl %d0
    3c22:	4480           	negl %d0
    3c24:	c0b9 0000 ac32 	andl ac32 <files_bmp>,%d0
    3c2a:	6620           	bnes 3c4c <_lseek+0x5a>
    3c2c:	2f49 0010      	movel %a1,%sp@(16)
    3c30:	2f41 000c      	movel %d1,%sp@(12)
    3c34:	d1c8           	addal %a0,%a0
    3c36:	d1c8           	addal %a0,%a0
    3c38:	43f9 0000 abb2 	lea abb2 <files>,%a1
    3c3e:	2f70 9800 0008 	movel %a0@(0,%a1:l),%sp@(8)
    3c44:	241f           	movel %sp@+,%d2
    3c46:	4ef9 0000 56e2 	jmp 56e2 <fl_fseek>
    3c4c:	7009           	moveq #9,%d0
    3c4e:	23c0 0000 aba4 	movel %d0,aba4 <errno>
    3c54:	70ff           	moveq #-1,%d0
    3c56:	241f           	movel %sp@+,%d2
    3c58:	4e75           	rts

00003c5a <_sd_open>:
    3c5a:	2f03           	movel %d3,%sp@-
    3c5c:	2f02           	movel %d2,%sp@-
    3c5e:	4eb9 0000 4438 	jsr 4438 <SD_FAT_get_sd_card>
    3c64:	4a80           	tstl %d0
    3c66:	6762           	beqs 3cca <_sd_open+0x70>
    3c68:	2239 0000 ac32 	movel ac32 <files_bmp>,%d1
    3c6e:	70ff           	moveq #-1,%d0
    3c70:	b081           	cmpl %d1,%d0
    3c72:	6770           	beqs 3ce4 <_sd_open+0x8a>
    3c74:	7400           	moveq #0,%d2
    3c76:	0801 0000      	btst #0,%d1
    3c7a:	6712           	beqs 3c8e <_sd_open+0x34>
    3c7c:	7601           	moveq #1,%d3
    3c7e:	5282           	addql #1,%d2
    3c80:	7020           	moveq #32,%d0
    3c82:	b082           	cmpl %d2,%d0
    3c84:	675e           	beqs 3ce4 <_sd_open+0x8a>
    3c86:	2003           	movel %d3,%d0
    3c88:	e5a8           	lsll %d2,%d0
    3c8a:	c081           	andl %d1,%d0
    3c8c:	66f0           	bnes 3c7e <_sd_open+0x24>
    3c8e:	2f2f 0010      	movel %sp@(16),%sp@-
    3c92:	202f 0010      	movel %sp@(16),%d0
    3c96:	5680           	addql #3,%d0
    3c98:	2f00           	movel %d0,%sp@-
    3c9a:	4eb9 0000 4f1e 	jsr 4f1e <fl_fopen>
    3ca0:	508f           	addql #8,%sp
    3ca2:	4a80           	tstl %d0
    3ca4:	6736           	beqs 3cdc <_sd_open+0x82>
    3ca6:	7201           	moveq #1,%d1
    3ca8:	e5a9           	lsll %d2,%d1
    3caa:	83b9 0000 ac32 	orl %d1,ac32 <files_bmp>
    3cb0:	2202           	movel %d2,%d1
    3cb2:	d282           	addl %d2,%d1
    3cb4:	d281           	addl %d1,%d1
    3cb6:	41f9 0000 abb2 	lea abb2 <files>,%a0
    3cbc:	2180 1800      	movel %d0,%a0@(0,%d1:l)
    3cc0:	7020           	moveq #32,%d0
    3cc2:	d082           	addl %d2,%d0
    3cc4:	241f           	movel %sp@+,%d2
    3cc6:	261f           	movel %sp@+,%d3
    3cc8:	4e75           	rts
    3cca:	4eb9 0000 43bc 	jsr 43bc <SD_FAT_initialize>
    3cd0:	4a00           	tstb %d0
    3cd2:	6694           	bnes 3c68 <_sd_open+0xe>
    3cd4:	7006           	moveq #6,%d0
    3cd6:	23c0 0000 aba4 	movel %d0,aba4 <errno>
    3cdc:	70ff           	moveq #-1,%d0
    3cde:	241f           	movel %sp@+,%d2
    3ce0:	261f           	movel %sp@+,%d3
    3ce2:	4e75           	rts
    3ce4:	7018           	moveq #24,%d0
    3ce6:	23c0 0000 aba4 	movel %d0,aba4 <errno>
    3cec:	70ff           	moveq #-1,%d0
    3cee:	60ee           	bras 3cde <_sd_open+0x84>

00003cf0 <_open>:
    3cf0:	48e7 3020      	moveml %d2-%d3/%a2,%sp@-
    3cf4:	262f 0010      	movel %sp@(16),%d3
    3cf8:	4878 0004      	pea 4 <DUART_CRA>
    3cfc:	2f03           	movel %d3,%sp@-
    3cfe:	4879 0000 82e8 	pea 82e8 <_dtors_end>
    3d04:	45f9 0000 8104 	lea 8104 <strncmp>,%a2
    3d0a:	4e92           	jsr %a2@
    3d0c:	4fef 000c      	lea %sp@(12),%sp
    3d10:	2400           	movel %d0,%d2
    3d12:	6664           	bnes 3d78 <_open+0x88>
    3d14:	4878 0005      	pea 5 <DUART_CRA+0x1>
    3d18:	2f03           	movel %d3,%sp@-
    3d1a:	4879 0000 82ed 	pea 82ed <_dtors_end+0x5>
    3d20:	4e92           	jsr %a2@
    3d22:	4fef 000c      	lea %sp@(12),%sp
    3d26:	4a80           	tstl %d0
    3d28:	6636           	bnes 3d60 <_open+0x70>
    3d2a:	4878 0006      	pea 6 <DUART_RBA>
    3d2e:	2f03           	movel %d3,%sp@-
    3d30:	4879 0000 82f3 	pea 82f3 <_dtors_end+0xb>
    3d36:	4e92           	jsr %a2@
    3d38:	4fef 000c      	lea %sp@(12),%sp
    3d3c:	4a80           	tstl %d0
    3d3e:	6650           	bnes 3d90 <_open+0xa0>
    3d40:	4878 0006      	pea 6 <DUART_RBA>
    3d44:	2f03           	movel %d3,%sp@-
    3d46:	4879 0000 82fa 	pea 82fa <_dtors_end+0x12>
    3d4c:	4e92           	jsr %a2@
    3d4e:	4fef 000c      	lea %sp@(12),%sp
    3d52:	7402           	moveq #2,%d2
    3d54:	4a80           	tstl %d0
    3d56:	6742           	beqs 3d9a <_open+0xaa>
    3d58:	2002           	movel %d2,%d0
    3d5a:	4cdf 040c      	moveml %sp@+,%d2-%d3/%a2
    3d5e:	4e75           	rts
    3d60:	202f 0014      	movel %sp@(20),%d0
    3d64:	0280 0000 4000 	andil #16384,%d0
    3d6a:	23c0 0000 ac36 	movel %d0,ac36 <stdin_nonblock>
    3d70:	2002           	movel %d2,%d0
    3d72:	4cdf 040c      	moveml %sp@+,%d2-%d3/%a2
    3d76:	4e75           	rts
    3d78:	2f2f 0014      	movel %sp@(20),%sp@-
    3d7c:	2f03           	movel %d3,%sp@-
    3d7e:	4eb9 0000 3c5a 	jsr 3c5a <_sd_open>
    3d84:	2400           	movel %d0,%d2
    3d86:	508f           	addql #8,%sp
    3d88:	2002           	movel %d2,%d0
    3d8a:	4cdf 040c      	moveml %sp@+,%d2-%d3/%a2
    3d8e:	4e75           	rts
    3d90:	7401           	moveq #1,%d2
    3d92:	2002           	movel %d2,%d0
    3d94:	4cdf 040c      	moveml %sp@+,%d2-%d3/%a2
    3d98:	4e75           	rts
    3d9a:	23c2 0000 aba4 	movel %d2,aba4 <errno>
    3da0:	74ff           	moveq #-1,%d2
    3da2:	2002           	movel %d2,%d0
    3da4:	4cdf 040c      	moveml %sp@+,%d2-%d3/%a2
    3da8:	4e75           	rts

00003daa <_read>:
    3daa:	48e7 203c      	moveml %d2/%a2-%a5,%sp@-
    3dae:	246f 0018      	moveal %sp@(24),%a2
    3db2:	266f 001c      	moveal %sp@(28),%a3
    3db6:	242f 0020      	movel %sp@(32),%d2
    3dba:	b4fc 0000      	cmpaw #0,%a2
    3dbe:	674a           	beqs 3e0a <_read+0x60>
    3dc0:	701f           	moveq #31,%d0
    3dc2:	b08a           	cmpl %a2,%d0
    3dc4:	6c00 00f0      	bgew 3eb6 <_read+0x10c>
    3dc8:	45ea ffe0      	lea %a2@(-32),%a2
    3dcc:	7001           	moveq #1,%d0
    3dce:	220a           	movel %a2,%d1
    3dd0:	e3a8           	lsll %d1,%d0
    3dd2:	57c0           	seq %d0
    3dd4:	4880           	extw %d0
    3dd6:	48c0           	extl %d0
    3dd8:	4480           	negl %d0
    3dda:	c0b9 0000 ac32 	andl ac32 <files_bmp>,%d0
    3de0:	6600 00d4      	bnew 3eb6 <_read+0x10c>
    3de4:	d5ca           	addal %a2,%a2
    3de6:	d5ca           	addal %a2,%a2
    3de8:	41f9 0000 abb2 	lea abb2 <files>,%a0
    3dee:	2f32 8800      	movel %a2@(0,%a0:l),%sp@-
    3df2:	2f02           	movel %d2,%sp@-
    3df4:	4878 0001      	pea 1 <DUART_MR1A+0x1>
    3df8:	2f0b           	movel %a3,%sp@-
    3dfa:	4eb9 0000 54aa 	jsr 54aa <fl_fread>
    3e00:	4fef 0010      	lea %sp@(16),%sp
    3e04:	4cdf 3c04      	moveml %sp@+,%d2/%a2-%a5
    3e08:	4e75           	rts
    3e0a:	4a82           	tstl %d2
    3e0c:	6f00 00b8      	blew 3ec6 <_read+0x11c>
    3e10:	4bf9 0000 4356 	lea 4356 <mcCheckInput>,%a5
    3e16:	49f9 0000 434c 	lea 434c <mcInputchar>,%a4
    3e1c:	4ab9 0000 ac36 	tstl ac36 <stdin_nonblock>
    3e22:	6706           	beqs 3e2a <_read+0x80>
    3e24:	4e95           	jsr %a5@
    3e26:	4a00           	tstb %d0
    3e28:	671a           	beqs 3e44 <_read+0x9a>
    3e2a:	4e94           	jsr %a4@
    3e2c:	0c00 000d      	cmpib #13,%d0
    3e30:	674c           	beqs 3e7e <_read+0xd4>
    3e32:	6e18           	bgts 3e4c <_read+0xa2>
    3e34:	0c00 0008      	cmpib #8,%d0
    3e38:	6736           	beqs 3e70 <_read+0xc6>
    3e3a:	0c00 000a      	cmpib #10,%d0
    3e3e:	6612           	bnes 3e52 <_read+0xa8>
    3e40:	b5c2           	cmpal %d2,%a2
    3e42:	6dd8           	blts 3e1c <_read+0x72>
    3e44:	200a           	movel %a2,%d0
    3e46:	4cdf 3c04      	moveml %sp@+,%d2/%a2-%a5
    3e4a:	4e75           	rts
    3e4c:	0c00 007f      	cmpib #127,%d0
    3e50:	671e           	beqs 3e70 <_read+0xc6>
    3e52:	1780 a800      	moveb %d0,%a3@(0,%a2:l)
    3e56:	41f9 0000 abb0 	lea abb0 <sendbuf>,%a0
    3e5c:	1080           	moveb %d0,%a0@
    3e5e:	2f08           	movel %a0,%sp@-
    3e60:	4eb9 0000 41f8 	jsr 41f8 <mcPrint>
    3e66:	528a           	addql #1,%a2
    3e68:	588f           	addql #4,%sp
    3e6a:	b5c2           	cmpal %d2,%a2
    3e6c:	6dae           	blts 3e1c <_read+0x72>
    3e6e:	60d4           	bras 3e44 <_read+0x9a>
    3e70:	b4fc 0000      	cmpaw #0,%a2
    3e74:	6e26           	bgts 3e9c <_read+0xf2>
    3e76:	528a           	addql #1,%a2
    3e78:	b5c2           	cmpal %d2,%a2
    3e7a:	6da0           	blts 3e1c <_read+0x72>
    3e7c:	60c6           	bras 3e44 <_read+0x9a>
    3e7e:	17bc 000a a800 	moveb #10,%a3@(0,%a2:l)
    3e84:	4879 0000 82ec 	pea 82ec <_dtors_end+0x4>
    3e8a:	4eb9 0000 420a 	jsr 420a <mcPrintln>
    3e90:	200a           	movel %a2,%d0
    3e92:	5280           	addql #1,%d0
    3e94:	588f           	addql #4,%sp
    3e96:	4cdf 3c04      	moveml %sp@+,%d2/%a2-%a5
    3e9a:	4e75           	rts
    3e9c:	4233 a8ff      	clrb %a3@(ffffffffffffffff,%a2:l)
    3ea0:	4879 0000 a874 	pea a874 <backspace>
    3ea6:	4eb9 0000 41f8 	jsr 41f8 <mcPrint>
    3eac:	588f           	addql #4,%sp
    3eae:	b5c2           	cmpal %d2,%a2
    3eb0:	6d00 ff6a      	bltw 3e1c <_read+0x72>
    3eb4:	608e           	bras 3e44 <_read+0x9a>
    3eb6:	7209           	moveq #9,%d1
    3eb8:	23c1 0000 aba4 	movel %d1,aba4 <errno>
    3ebe:	70ff           	moveq #-1,%d0
    3ec0:	4cdf 3c04      	moveml %sp@+,%d2/%a2-%a5
    3ec4:	4e75           	rts
    3ec6:	7000           	moveq #0,%d0
    3ec8:	4cdf 3c04      	moveml %sp@+,%d2/%a2-%a5
    3ecc:	4e75           	rts

00003ece <_sbrk>:
    3ece:	2039 0000 ac3a 	movel ac3a <heap>,%d0
    3ed4:	672e           	beqs 3f04 <_sbrk+0x36>
    3ed6:	23c0 0000 abac 	movel %d0,abac <prev.1>
    3edc:	d0af 0004      	addl %sp@(4),%d0
    3ee0:	23c0 0000 aba8 	movel %d0,aba8 <new.0>
    3ee6:	4eb9 0000 4364 	jsr 4364 <mcGetStackPointer>
    3eec:	2239 0000 aba8 	movel aba8 <new.0>,%d1
    3ef2:	b081           	cmpl %d1,%d0
    3ef4:	633e           	blss 3f34 <_sbrk+0x66>
    3ef6:	23c1 0000 ac3a 	movel %d1,ac3a <heap>
    3efc:	2039 0000 abac 	movel abac <prev.1>,%d0
    3f02:	4e75           	rts
    3f04:	23fc 0002 0778 	movel #132984,ac3a <heap>
    3f0a:	0000 ac3a 
    3f0e:	203c 0002 0778 	movel #132984,%d0
    3f14:	23c0 0000 abac 	movel %d0,abac <prev.1>
    3f1a:	d0af 0004      	addl %sp@(4),%d0
    3f1e:	23c0 0000 aba8 	movel %d0,aba8 <new.0>
    3f24:	4eb9 0000 4364 	jsr 4364 <mcGetStackPointer>
    3f2a:	2239 0000 aba8 	movel aba8 <new.0>,%d1
    3f30:	b081           	cmpl %d1,%d0
    3f32:	62c2           	bhis 3ef6 <_sbrk+0x28>
    3f34:	700c           	moveq #12,%d0
    3f36:	23c0 0000 aba4 	movel %d0,aba4 <errno>
    3f3c:	70ff           	moveq #-1,%d0
    3f3e:	4e75           	rts

00003f40 <_sd_stat>:
    3f40:	48e7 3020      	moveml %d2-%d3/%a2,%sp@-
    3f44:	246f 0014      	moveal %sp@(20),%a2
    3f48:	42a7           	clrl %sp@-
    3f4a:	2f2f 0014      	movel %sp@(20),%sp@-
    3f4e:	4eb9 0000 3c5a 	jsr 3c5a <_sd_open>
    3f54:	2400           	movel %d0,%d2
    3f56:	508f           	addql #8,%sp
    3f58:	70ff           	moveq #-1,%d0
    3f5a:	b082           	cmpl %d2,%d0
    3f5c:	6700 00cc      	beqw 402a <_sd_stat+0xea>
    3f60:	721f           	moveq #31,%d1
    3f62:	b282           	cmpl %d2,%d1
    3f64:	6c00 00e0      	bgew 4046 <_sd_stat+0x106>
    3f68:	72e0           	moveq #-32,%d1
    3f6a:	d282           	addl %d2,%d1
    3f6c:	7001           	moveq #1,%d0
    3f6e:	e3a8           	lsll %d1,%d0
    3f70:	57c0           	seq %d0
    3f72:	4880           	extw %d0
    3f74:	48c0           	extl %d0
    3f76:	4480           	negl %d0
    3f78:	c0b9 0000 ac32 	andl ac32 <files_bmp>,%d0
    3f7e:	6600 00c6      	bnew 4046 <_sd_stat+0x106>
    3f82:	d281           	addl %d1,%d1
    3f84:	d281           	addl %d1,%d1
    3f86:	41f9 0000 abb2 	lea abb2 <files>,%a0
    3f8c:	2070 1800      	moveal %a0@(0,%d1:l),%a0
    3f90:	426a 000a      	clrw %a2@(10)
    3f94:	426a 000c      	clrw %a2@(12)
    3f98:	34bc 0080      	movew #128,%a2@
    3f9c:	3568 0006 0002 	movew %a0@(6),%a2@(2)
    3fa2:	257c 0000 8000 	movel #32768,%a2@(4)
    3fa8:	0004 
    3faa:	426a 0008      	clrw %a2@(8)
    3fae:	426a 000e      	clrw %a2@(14)
    3fb2:	2028 000c      	movel %a0@(12),%d0
    3fb6:	2540 0010      	movel %d0,%a2@(16)
    3fba:	257c 0000 0200 	movel #512,%a2@(56)
    3fc0:	0038 
    3fc2:	7209           	moveq #9,%d1
    3fc4:	e2a8           	lsrl %d1,%d0
    3fc6:	2540 003c      	movel %d0,%a2@(60)
    3fca:	95ca           	subal %a2,%a2
    3fcc:	4eb9 0000 4438 	jsr 4438 <SD_FAT_get_sd_card>
    3fd2:	4a80           	tstl %d0
    3fd4:	673a           	beqs 4010 <_sd_stat+0xd0>
    3fd6:	7601           	moveq #1,%d3
    3fd8:	e5ab           	lsll %d2,%d3
    3fda:	57c0           	seq %d0
    3fdc:	4880           	extw %d0
    3fde:	48c0           	extl %d0
    3fe0:	4480           	negl %d0
    3fe2:	c0b9 0000 ac32 	andl ac32 <files_bmp>,%d0
    3fe8:	664c           	bnes 4036 <_sd_stat+0xf6>
    3fea:	d482           	addl %d2,%d2
    3fec:	d482           	addl %d2,%d2
    3fee:	41f9 0000 abb2 	lea abb2 <files>,%a0
    3ff4:	2f30 2800      	movel %a0@(0,%d2:l),%sp@-
    3ff8:	4eb9 0000 53d4 	jsr 53d4 <fl_fclose>
    3ffe:	4683           	notl %d3
    4000:	c7b9 0000 ac32 	andl %d3,ac32 <files_bmp>
    4006:	588f           	addql #4,%sp
    4008:	200a           	movel %a2,%d0
    400a:	4cdf 040c      	moveml %sp@+,%d2-%d3/%a2
    400e:	4e75           	rts
    4010:	4eb9 0000 43bc 	jsr 43bc <SD_FAT_initialize>
    4016:	4a00           	tstb %d0
    4018:	66bc           	bnes 3fd6 <_sd_stat+0x96>
    401a:	7006           	moveq #6,%d0
    401c:	23c0 0000 aba4 	movel %d0,aba4 <errno>
    4022:	200a           	movel %a2,%d0
    4024:	4cdf 040c      	moveml %sp@+,%d2-%d3/%a2
    4028:	4e75           	rts
    402a:	347c ffff      	moveaw #-1,%a2
    402e:	200a           	movel %a2,%d0
    4030:	4cdf 040c      	moveml %sp@+,%d2-%d3/%a2
    4034:	4e75           	rts
    4036:	7209           	moveq #9,%d1
    4038:	23c1 0000 aba4 	movel %d1,aba4 <errno>
    403e:	200a           	movel %a2,%d0
    4040:	4cdf 040c      	moveml %sp@+,%d2-%d3/%a2
    4044:	4e75           	rts
    4046:	7009           	moveq #9,%d0
    4048:	23c0 0000 aba4 	movel %d0,aba4 <errno>
    404e:	347c ffff      	moveaw #-1,%a2
    4052:	4eb9 0000 4438 	jsr 4438 <SD_FAT_get_sd_card>
    4058:	4a80           	tstl %d0
    405a:	6600 ff7a      	bnew 3fd6 <_sd_stat+0x96>
    405e:	60b0           	bras 4010 <_sd_stat+0xd0>

00004060 <_stat>:
    4060:	48e7 2030      	moveml %d2/%a2-%a3,%sp@-
    4064:	242f 0010      	movel %sp@(16),%d2
    4068:	266f 0014      	moveal %sp@(20),%a3
    406c:	4878 0004      	pea 4 <DUART_CRA>
    4070:	2f02           	movel %d2,%sp@-
    4072:	4879 0000 82e8 	pea 82e8 <_dtors_end>
    4078:	45f9 0000 8104 	lea 8104 <strncmp>,%a2
    407e:	4e92           	jsr %a2@
    4080:	4fef 000c      	lea %sp@(12),%sp
    4084:	4a80           	tstl %d0
    4086:	6662           	bnes 40ea <_stat+0x8a>
    4088:	4878 0005      	pea 5 <DUART_CRA+0x1>
    408c:	4879 0000 82ed 	pea 82ed <_dtors_end+0x5>
    4092:	2f02           	movel %d2,%sp@-
    4094:	4e92           	jsr %a2@
    4096:	4fef 000c      	lea %sp@(12),%sp
    409a:	4a80           	tstl %d0
    409c:	6710           	beqs 40ae <_stat+0x4e>
    409e:	4253           	clrw %a3@
    40a0:	277c 0000 2000 	movel #8192,%a3@(4)
    40a6:	0004 
    40a8:	4cdf 0c04      	moveml %sp@+,%d2/%a2-%a3
    40ac:	4e75           	rts
    40ae:	4878 0006      	pea 6 <DUART_RBA>
    40b2:	4879 0000 82f3 	pea 82f3 <_dtors_end+0xb>
    40b8:	2f02           	movel %d2,%sp@-
    40ba:	4e92           	jsr %a2@
    40bc:	4fef 000c      	lea %sp@(12),%sp
    40c0:	4a80           	tstl %d0
    40c2:	66da           	bnes 409e <_stat+0x3e>
    40c4:	4878 0006      	pea 6 <DUART_RBA>
    40c8:	4879 0000 82fa 	pea 82fa <_dtors_end+0x12>
    40ce:	2f02           	movel %d2,%sp@-
    40d0:	4e92           	jsr %a2@
    40d2:	4fef 000c      	lea %sp@(12),%sp
    40d6:	4a80           	tstl %d0
    40d8:	66c4           	bnes 409e <_stat+0x3e>
    40da:	7009           	moveq #9,%d0
    40dc:	23c0 0000 aba4 	movel %d0,aba4 <errno>
    40e2:	70ff           	moveq #-1,%d0
    40e4:	4cdf 0c04      	moveml %sp@+,%d2/%a2-%a3
    40e8:	4e75           	rts
    40ea:	2f4b 0014      	movel %a3,%sp@(20)
    40ee:	2f42 0010      	movel %d2,%sp@(16)
    40f2:	4cdf 0c04      	moveml %sp@+,%d2/%a2-%a3
    40f6:	4ef9 0000 3f40 	jmp 3f40 <_sd_stat>

000040fc <_times>:
    40fc:	206f 0004      	moveal %sp@(4),%a0
    4100:	2039 0000 040c 	movel 40c <_TIMER_100HZ>,%d0
    4106:	2080           	movel %d0,%a0@
    4108:	42a8 0004      	clrl %a0@(4)
    410c:	42a8 000c      	clrl %a0@(12)
    4110:	42a8 0008      	clrl %a0@(8)
    4114:	4e75           	rts

00004116 <_unlink>:
    4116:	7002           	moveq #2,%d0
    4118:	23c0 0000 aba4 	movel %d0,aba4 <errno>
    411e:	70ff           	moveq #-1,%d0
    4120:	4e75           	rts

00004122 <_wait>:
    4122:	700a           	moveq #10,%d0
    4124:	23c0 0000 aba4 	movel %d0,aba4 <errno>
    412a:	70ff           	moveq #-1,%d0
    412c:	4e75           	rts

0000412e <_write>:
    412e:	48e7 3030      	moveml %d2-%d3/%a2-%a3,%sp@-
    4132:	206f 0014      	moveal %sp@(20),%a0
    4136:	242f 001c      	movel %sp@(28),%d2
    413a:	2008           	movel %a0,%d0
    413c:	5380           	subql #1,%d0
    413e:	7201           	moveq #1,%d1
    4140:	b280           	cmpl %d0,%d1
    4142:	644a           	bccs 418e <_write+0x60>
    4144:	701f           	moveq #31,%d0
    4146:	b088           	cmpl %a0,%d0
    4148:	6c00 0090      	bgew 41da <_write+0xac>
    414c:	41e8 ffe0      	lea %a0@(-32),%a0
    4150:	7201           	moveq #1,%d1
    4152:	2008           	movel %a0,%d0
    4154:	e1a9           	lsll %d0,%d1
    4156:	57c1           	seq %d1
    4158:	4881           	extw %d1
    415a:	48c1           	extl %d1
    415c:	4481           	negl %d1
    415e:	c2b9 0000 ac32 	andl ac32 <files_bmp>,%d1
    4164:	6674           	bnes 41da <_write+0xac>
    4166:	d1c8           	addal %a0,%a0
    4168:	d1c8           	addal %a0,%a0
    416a:	43f9 0000 abb2 	lea abb2 <files>,%a1
    4170:	2f30 9800      	movel %a0@(0,%a1:l),%sp@-
    4174:	2f02           	movel %d2,%sp@-
    4176:	4878 0001      	pea 1 <DUART_MR1A+0x1>
    417a:	2f2f 0024      	movel %sp@(36),%sp@-
    417e:	4eb9 0000 58ae 	jsr 58ae <fl_fwrite>
    4184:	4fef 0010      	lea %sp@(16),%sp
    4188:	4cdf 0c0c      	moveml %sp@+,%d2-%d3/%a2-%a3
    418c:	4e75           	rts
    418e:	4a82           	tstl %d2
    4190:	6f24           	bles 41b6 <_write+0x88>
    4192:	246f 0018      	moveal %sp@(24),%a2
    4196:	260a           	movel %a2,%d3
    4198:	d682           	addl %d2,%d3
    419a:	47f9 0000 421c 	lea 421c <mcPrintchar>,%a3
    41a0:	121a           	moveb %a2@+,%d1
    41a2:	0c01 000a      	cmpib #10,%d1
    41a6:	6716           	beqs 41be <_write+0x90>
    41a8:	4881           	extw %d1
    41aa:	3041           	moveaw %d1,%a0
    41ac:	2f08           	movel %a0,%sp@-
    41ae:	4e93           	jsr %a3@
    41b0:	588f           	addql #4,%sp
    41b2:	b68a           	cmpl %a2,%d3
    41b4:	66ea           	bnes 41a0 <_write+0x72>
    41b6:	2002           	movel %d2,%d0
    41b8:	4cdf 0c0c      	moveml %sp@+,%d2-%d3/%a2-%a3
    41bc:	4e75           	rts
    41be:	4878 000d      	pea d <DUART_CTUR+0x1>
    41c2:	4e93           	jsr %a3@
    41c4:	122a ffff      	moveb %a2@(-1),%d1
    41c8:	588f           	addql #4,%sp
    41ca:	4881           	extw %d1
    41cc:	3041           	moveaw %d1,%a0
    41ce:	2f08           	movel %a0,%sp@-
    41d0:	4e93           	jsr %a3@
    41d2:	588f           	addql #4,%sp
    41d4:	b68a           	cmpl %a2,%d3
    41d6:	66c8           	bnes 41a0 <_write+0x72>
    41d8:	60dc           	bras 41b6 <_write+0x88>
    41da:	7209           	moveq #9,%d1
    41dc:	23c1 0000 aba4 	movel %d1,aba4 <errno>
    41e2:	70ff           	moveq #-1,%d0
    41e4:	4cdf 0c0c      	moveml %sp@+,%d2-%d3/%a2-%a3
    41e8:	4e75           	rts

000041ea <_gettimeofday>:
    41ea:	7058           	moveq #88,%d0
    41ec:	23c0 0000 aba4 	movel %d0,aba4 <errno>
    41f2:	70ff           	moveq #-1,%d0
    41f4:	4e75           	rts

000041f6 <breakpoint>:
    41f6:	4e75           	rts

000041f8 <mcPrint>:
    41f8:	48e7 c080      	moveml %d0-%d1/%a0,%sp@-
    41fc:	206f 0010      	moveal %sp@(16),%a0
    4200:	7200           	moveq #0,%d1
    4202:	4e4e           	trap #14
    4204:	4cdf 0103      	moveml %sp@+,%d0-%d1/%a0
    4208:	4e75           	rts

0000420a <mcPrintln>:
    420a:	48e7 c080      	moveml %d0-%d1/%a0,%sp@-
    420e:	206f 0010      	moveal %sp@(16),%a0
    4212:	7201           	moveq #1,%d1
    4214:	4e4e           	trap #14
    4216:	4cdf 0103      	moveml %sp@+,%d0-%d1/%a0
    421a:	4e75           	rts

0000421c <mcPrintchar>:
    421c:	202f 0004      	movel %sp@(4),%d0
    4220:	7204           	moveq #4,%d1
    4222:	4e4e           	trap #14
    4224:	4e75           	rts

00004226 <mcSetcursor>:
    4226:	2f01           	movel %d1,%sp@-
    4228:	202f 0008      	movel %sp@(8),%d0
    422c:	7205           	moveq #5,%d1
    422e:	4e4e           	trap #14
    4230:	221f           	movel %sp@+,%d1
    4232:	4e75           	rts

00004234 <mcSendchar>:
    4234:	48e7 c000      	moveml %d0-%d1,%sp@-
    4238:	202f 000c      	movel %sp@(12),%d0
    423c:	7202           	moveq #2,%d1
    423e:	4e4e           	trap #14
    4240:	4cdf 0003      	moveml %sp@+,%d0-%d1
    4244:	4e75           	rts

00004246 <mcReadchar>:
    4246:	2f01           	movel %d1,%sp@-
    4248:	7203           	moveq #3,%d1
    424a:	4e4e           	trap #14
    424c:	221f           	movel %sp@+,%d1
    424e:	4e75           	rts

00004250 <mcCheckchar>:
    4250:	2f01           	movel %d1,%sp@-
    4252:	7206           	moveq #6,%d1
    4254:	4e4e           	trap #14
    4256:	4880           	extw %d0
    4258:	48c0           	extl %d0
    425a:	221f           	movel %sp@+,%d1
    425c:	4e75           	rts

0000425e <mcBusywait>:
    425e:	202f 0004      	movel %sp@(4),%d0
    4262:	5380           	subql #1,%d0
    4264:	4a80           	tstl %d0
    4266:	66fa           	bnes 4262 <mcBusywait+0x4>
    4268:	4e75           	rts

0000426a <mcDelaymsec10>:
    426a:	202f 0004      	movel %sp@(4),%d0
    426e:	d0b8 040c      	addl 40c <_TIMER_100HZ>,%d0
    4272:	b0b8 040c      	cmpl 40c <_TIMER_100HZ>,%d0
    4276:	64fa           	bccs 4272 <mcDelaymsec10+0x8>
    4278:	4e75           	rts

0000427a <mcDisableInterrupts>:
    427a:	40c0           	movew %sr,%d0
    427c:	007c 0700      	oriw #1792,%sr
    4280:	e048           	lsrw #8,%d0
    4282:	0200 0007      	andib #7,%d0
    4286:	4e75           	rts

00004288 <mcEnableInterrupts>:
    4288:	48e7 c000      	moveml %d0-%d1,%sp@-
    428c:	202f 000c      	movel %sp@(12),%d0
    4290:	e148           	lslw #8,%d0
    4292:	0240 0700      	andiw #1792,%d0
    4296:	40c1           	movew %sr,%d1
    4298:	0241 f8ff      	andiw #-1793,%d1
    429c:	8240           	orw %d0,%d1
    429e:	46c1           	movew %d1,%sr
    42a0:	4cdf 0003      	moveml %sp@+,%d0-%d1
    42a4:	4e75           	rts

000042a6 <mcHalt>:
    42a6:	4e72 2700      	stop #9984
    42aa:	60fa           	bras 42a6 <mcHalt>

000042ac <mcCheckDeviceSupport>:
    42ac:	2f01           	movel %d1,%sp@-
    42ae:	7207           	moveq #7,%d1
    42b0:	7000           	moveq #0,%d0
    42b2:	4e4e           	trap #14
    42b4:	b0bc 1234 fedc 	cmpl #305463004,%d0
    42ba:	6702           	beqs 42be <mcCheckDeviceSupport+0x12>
    42bc:	7000           	moveq #0,%d0
    42be:	221f           	movel %sp@+,%d1
    42c0:	4e75           	rts

000042c2 <mcGetDeviceCount>:
    42c2:	2f01           	movel %d1,%sp@-
    42c4:	7208           	moveq #8,%d1
    42c6:	4e4e           	trap #14
    42c8:	221f           	movel %sp@+,%d1
    42ca:	4e75           	rts

000042cc <mcGetDevice>:
    42cc:	2f01           	movel %d1,%sp@-
    42ce:	202f 0008      	movel %sp@(8),%d0
    42d2:	206f 000c      	moveal %sp@(12),%a0
    42d6:	7209           	moveq #9,%d1
    42d8:	4e4e           	trap #14
    42da:	221f           	movel %sp@+,%d1
    42dc:	4e75           	rts

000042de <mcAddDevice>:
    42de:	2f01           	movel %d1,%sp@-
    42e0:	206f 0008      	moveal %sp@(8),%a0
    42e4:	720a           	moveq #10,%d1
    42e6:	4e4e           	trap #14
    42e8:	221f           	movel %sp@+,%d1
    42ea:	4e75           	rts

000042ec <mcCheckDevice>:
    42ec:	2f01           	movel %d1,%sp@-
    42ee:	206f 0008      	moveal %sp@(8),%a0
    42f2:	720d           	moveq #13,%d1
    42f4:	4e4e           	trap #14
    42f6:	221f           	movel %sp@+,%d1
    42f8:	4e75           	rts

000042fa <mcReadDevice>:
    42fa:	2f01           	movel %d1,%sp@-
    42fc:	206f 0008      	moveal %sp@(8),%a0
    4300:	720b           	moveq #11,%d1
    4302:	4e4e           	trap #14
    4304:	221f           	movel %sp@+,%d1
    4306:	4e75           	rts

00004308 <mcSendDevice>:
    4308:	2f01           	movel %d1,%sp@-
    430a:	202f 0008      	movel %sp@(8),%d0
    430e:	206f 000c      	moveal %sp@(12),%a0
    4312:	720c           	moveq #12,%d1
    4314:	4e4e           	trap #14
    4316:	221f           	movel %sp@+,%d1
    4318:	4e75           	rts

0000431a <mcDeviceCtrl>:
    431a:	2f01           	movel %d1,%sp@-
    431c:	2f02           	movel %d2,%sp@-
    431e:	202f 000c      	movel %sp@(12),%d0
    4322:	242f 0010      	movel %sp@(16),%d2
    4326:	206f 0014      	moveal %sp@(20),%a0
    432a:	7210           	moveq #16,%d1
    432c:	4e4e           	trap #14
    432e:	241f           	movel %sp@+,%d2
    4330:	221f           	movel %sp@+,%d1
    4332:	4e75           	rts

00004334 <mcGetVecBase>:
    4334:	2038 041c      	movel 41c <SDB_CPUINFO>,%d0
    4338:	c0bc e000 0000 	andl #-536870912,%d0
    433e:	4a80           	tstl %d0
    4340:	6706           	beqs 4348 <mcGetVecBase+0x14>
    4342:	4e7a           	.short 0x4e7a
    4344:	0801 4e75      	btst #117,%d1
    4348:	7000           	moveq #0,%d0
    434a:	4e75           	rts

0000434c <mcInputchar>:
    434c:	2f01           	movel %d1,%sp@-
    434e:	7211           	moveq #17,%d1
    4350:	4e4e           	trap #14
    4352:	221f           	movel %sp@+,%d1
    4354:	4e75           	rts

00004356 <mcCheckInput>:
    4356:	2f01           	movel %d1,%sp@-
    4358:	7212           	moveq #18,%d1
    435a:	4e4e           	trap #14
    435c:	4880           	extw %d0
    435e:	48c0           	extl %d0
    4360:	221f           	movel %sp@+,%d1
    4362:	4e75           	rts

00004364 <mcGetStackPointer>:
    4364:	200f           	movel %sp,%d0
    4366:	5880           	addql #4,%d0
    4368:	4e75           	rts
	...

0000436c <__sd_fat_shutdown>:
    436c:	4a39 0000 ac44 	tstb ac44 <initialized>
    4372:	6602           	bnes 4376 <__sd_fat_shutdown+0xa>
    4374:	4e75           	rts
    4376:	4ef9 0000 4ee2 	jmp 4ee2 <fl_shutdown>

0000437c <FAT_media_write>:
    437c:	2f2f 000c      	movel %sp@(12),%sp@-
    4380:	2f2f 0008      	movel %sp@(8),%sp@-
    4384:	2f2f 0010      	movel %sp@(16),%sp@-
    4388:	42a7           	clrl %sp@-
    438a:	4879 0000 ac46 	pea ac46 <part>
    4390:	4eb9 0000 4608 	jsr 4608 <Part_write>
    4396:	4fef 0014      	lea %sp@(20),%sp
    439a:	4e75           	rts

0000439c <FAT_media_read>:
    439c:	2f2f 000c      	movel %sp@(12),%sp@-
    43a0:	2f2f 0008      	movel %sp@(8),%sp@-
    43a4:	2f2f 0010      	movel %sp@(16),%sp@-
    43a8:	42a7           	clrl %sp@-
    43aa:	4879 0000 ac46 	pea ac46 <part>
    43b0:	4eb9 0000 4548 	jsr 4548 <Part_read>
    43b6:	4fef 0014      	lea %sp@(20),%sp
    43ba:	4e75           	rts

000043bc <SD_FAT_initialize>:
    43bc:	2f02           	movel %d2,%sp@-
    43be:	4879 0000 ac76 	pea ac76 <sdcard>
    43c4:	4eb9 0000 4460 	jsr 4460 <SD_initialize>
    43ca:	588f           	addql #4,%sp
    43cc:	4a80           	tstl %d0
    43ce:	6708           	beqs 43d8 <SD_FAT_initialize+0x1c>
    43d0:	4202           	clrb %d2
    43d2:	1002           	moveb %d2,%d0
    43d4:	241f           	movel %sp@+,%d2
    43d6:	4e75           	rts
    43d8:	4879 0000 ac76 	pea ac76 <sdcard>
    43de:	4879 0000 ac46 	pea ac46 <part>
    43e4:	4eb9 0000 44c0 	jsr 44c0 <Part_init_SD>
    43ea:	508f           	addql #8,%sp
    43ec:	4a80           	tstl %d0
    43ee:	66e0           	bnes 43d0 <SD_FAT_initialize+0x14>
    43f0:	42a7           	clrl %sp@-
    43f2:	4879 0000 ac46 	pea ac46 <part>
    43f8:	4eb9 0000 46c8 	jsr 46c8 <Part_valid>
    43fe:	1400           	moveb %d0,%d2
    4400:	508f           	addql #8,%sp
    4402:	67cc           	beqs 43d0 <SD_FAT_initialize+0x14>
    4404:	4879 0000 437c 	pea 437c <FAT_media_write>
    440a:	4879 0000 439c 	pea 439c <FAT_media_read>
    4410:	4eb9 0000 4ea6 	jsr 4ea6 <fl_attach_media>
    4416:	508f           	addql #8,%sp
    4418:	4a80           	tstl %d0
    441a:	66b4           	bnes 43d0 <SD_FAT_initialize+0x14>
    441c:	13fc 0001 0000 	moveb #1,ac44 <initialized>
    4422:	ac44 
    4424:	4879 0000 436c 	pea 436c <__sd_fat_shutdown>
    442a:	4eb9 0000 2250 	jsr 2250 <atexit>
    4430:	588f           	addql #4,%sp
    4432:	1002           	moveb %d2,%d0
    4434:	241f           	movel %sp@+,%d2
    4436:	4e75           	rts

00004438 <SD_FAT_get_sd_card>:
    4438:	4a39 0000 ac44 	tstb ac44 <initialized>
    443e:	6708           	beqs 4448 <SD_FAT_get_sd_card+0x10>
    4440:	203c 0000 ac76 	movel #44150,%d0
    4446:	4e75           	rts
    4448:	7000           	moveq #0,%d0
    444a:	4e75           	rts

0000444c <SD_check_support>:
    444c:	7000           	moveq #0,%d0
    444e:	4e4d           	trap #13
    4450:	b0bc 1234 fedc 	cmpl #305463004,%d0
    4456:	6704           	beqs 445c <SD_check_support+0x10>
    4458:	7000           	moveq #0,%d0
    445a:	6002           	bras 445e <SD_check_support+0x12>
    445c:	7001           	moveq #1,%d0
    445e:	4e75           	rts

00004460 <SD_initialize>:
    4460:	2f08           	movel %a0,%sp@-
    4462:	2f09           	movel %a1,%sp@-
    4464:	226f 000c      	moveal %sp@(12),%a1
    4468:	7001           	moveq #1,%d0
    446a:	4e4d           	trap #13
    446c:	225f           	moveal %sp@+,%a1
    446e:	205f           	moveal %sp@+,%a0
    4470:	4e75           	rts

00004472 <SD_read_block>:
    4472:	48e7 40e0      	moveml %d1/%a0-%a2,%sp@-
    4476:	226f 0014      	moveal %sp@(20),%a1
    447a:	222f 0018      	movel %sp@(24),%d1
    447e:	246f 001c      	moveal %sp@(28),%a2
    4482:	7002           	moveq #2,%d0
    4484:	4e4d           	trap #13
    4486:	4cdf 0702      	moveml %sp@+,%d1/%a0-%a2
    448a:	4e75           	rts

0000448c <SD_write_block>:
    448c:	48e7 40e0      	moveml %d1/%a0-%a2,%sp@-
    4490:	226f 0014      	moveal %sp@(20),%a1
    4494:	222f 0018      	movel %sp@(24),%d1
    4498:	246f 001c      	moveal %sp@(28),%a2
    449c:	7003           	moveq #3,%d0
    449e:	4e4d           	trap #13
    44a0:	4cdf 0702      	moveml %sp@+,%d1/%a0-%a2
    44a4:	4e75           	rts

000044a6 <SD_read_register>:
    44a6:	48e7 40e0      	moveml %d1/%a0-%a2,%sp@-
    44aa:	226f 0014      	moveal %sp@(20),%a1
    44ae:	222f 0018      	movel %sp@(24),%d1
    44b2:	246f 001c      	moveal %sp@(28),%a2
    44b6:	7004           	moveq #4,%d0
    44b8:	4e4d           	trap #13
    44ba:	4cdf 0702      	moveml %sp@+,%d1/%a0-%a2
    44be:	4e75           	rts

000044c0 <Part_init_SD>:
    44c0:	2f0a           	movel %a2,%sp@-
    44c2:	4879 0000 ac8c 	pea ac8c <buffer>
    44c8:	42a7           	clrl %sp@-
    44ca:	2f2f 0014      	movel %sp@(20),%sp@-
    44ce:	4eb9 0000 4472 	jsr 4472 <SD_read_block>
    44d4:	4fef 000c      	lea %sp@(12),%sp
    44d8:	4a00           	tstb %d0
    44da:	6766           	beqs 4542 <Part_init_SD+0x82>
    44dc:	0c79 55aa 0000 	cmpiw #21930,ae8a <buffer+0x1fe>
    44e2:	ae8a 
    44e4:	6706           	beqs 44ec <Part_init_SD+0x2c>
    44e6:	7002           	moveq #2,%d0
    44e8:	245f           	moveal %sp@+,%a2
    44ea:	4e75           	rts
    44ec:	206f 0008      	moveal %sp@(8),%a0
    44f0:	4290           	clrl %a0@
    44f2:	216f 000c 0004 	movel %sp@(12),%a0@(4)
    44f8:	43f9 0000 ae4a 	lea ae4a <buffer+0x1be>,%a1
    44fe:	5088           	addql #8,%a0
    4500:	347c 0030      	moveaw #48,%a2
    4504:	d5ef 0008      	addal %sp@(8),%a2
    4508:	4240           	clrw %d0
    450a:	1011           	moveb %a1@,%d0
    450c:	e148           	lslw #8,%d0
    450e:	1029 0004      	moveb %a1@(4),%d0
    4512:	3080           	movew %d0,%a0@
    4514:	2029 0008      	movel %a1@(8),%d0
    4518:	e058           	rorw #8,%d0
    451a:	4840           	swap %d0
    451c:	e058           	rorw #8,%d0
    451e:	2140 0002      	movel %d0,%a0@(2)
    4522:	2029 000c      	movel %a1@(12),%d0
    4526:	e058           	rorw #8,%d0
    4528:	4840           	swap %d0
    452a:	e058           	rorw #8,%d0
    452c:	2140 0006      	movel %d0,%a0@(6)
    4530:	43e9 0010      	lea %a1@(16),%a1
    4534:	41e8 000a      	lea %a0@(10),%a0
    4538:	b5c8           	cmpal %a0,%a2
    453a:	66cc           	bnes 4508 <Part_init_SD+0x48>
    453c:	7000           	moveq #0,%d0
    453e:	245f           	moveal %sp@+,%a2
    4540:	4e75           	rts
    4542:	7001           	moveq #1,%d0
    4544:	245f           	moveal %sp@+,%a2
    4546:	4e75           	rts

00004548 <Part_read>:
    4548:	48e7 3838      	moveml %d2-%d4/%a2-%a4,%sp@-
    454c:	266f 001c      	moveal %sp@(28),%a3
    4550:	202f 0020      	movel %sp@(32),%d0
    4554:	242f 0024      	movel %sp@(36),%d2
    4558:	2453           	moveal %a3@,%a2
    455a:	b4fc 0000      	cmpaw #0,%a2
    455e:	670a           	beqs 456a <Part_read+0x22>
    4560:	95ca           	subal %a2,%a2
    4562:	200a           	movel %a2,%d0
    4564:	4cdf 1c1c      	moveml %sp@+,%d2-%d4/%a2-%a4
    4568:	4e75           	rts
    456a:	0c00 0003      	cmpib #3,%d0
    456e:	6200 0084      	bhiw 45f4 <Part_read+0xac>
    4572:	0280 0000 00ff 	andil #255,%d0
    4578:	2200           	movel %d0,%d1
    457a:	d280           	addl %d0,%d1
    457c:	d281           	addl %d1,%d1
    457e:	d280           	addl %d0,%d1
    4580:	d281           	addl %d1,%d1
    4582:	41f3 1800      	lea %a3@(0,%d1:l),%a0
    4586:	4a28 0009      	tstb %a0@(9)
    458a:	675a           	beqs 45e6 <Part_read+0x9e>
    458c:	2828 000e      	movel %a0@(14),%d4
    4590:	b8af 0028      	cmpl %sp@(40),%d4
    4594:	63ca           	blss 4560 <Part_read+0x18>
    4596:	98af 0028      	subl %sp@(40),%d4
    459a:	b8af 002c      	cmpl %sp@(44),%d4
    459e:	6262           	bhis 4602 <Part_read+0xba>
    45a0:	4a84           	tstl %d4
    45a2:	67bc           	beqs 4560 <Part_read+0x18>
    45a4:	5280           	addql #1,%d0
    45a6:	49f9 0000 4472 	lea 4472 <SD_read_block>,%a4
    45ac:	2600           	movel %d0,%d3
    45ae:	d680           	addl %d0,%d3
    45b0:	d683           	addl %d3,%d3
    45b2:	d680           	addl %d0,%d3
    45b4:	d683           	addl %d3,%d3
    45b6:	2f02           	movel %d2,%sp@-
    45b8:	206f 002c      	moveal %sp@(44),%a0
    45bc:	d1f3 3800      	addal %a3@(0,%d3:l),%a0
    45c0:	4870 a800      	pea %a0@(0,%a2:l)
    45c4:	2f2b 0004      	movel %a3@(4),%sp@-
    45c8:	4e94           	jsr %a4@
    45ca:	4fef 000c      	lea %sp@(12),%sp
    45ce:	4a00           	tstb %d0
    45d0:	6790           	beqs 4562 <Part_read+0x1a>
    45d2:	0682 0000 0200 	addil #512,%d2
    45d8:	528a           	addql #1,%a2
    45da:	b5c4           	cmpal %d4,%a2
    45dc:	66d8           	bnes 45b6 <Part_read+0x6e>
    45de:	200a           	movel %a2,%d0
    45e0:	4cdf 1c1c      	moveml %sp@+,%d2-%d4/%a2-%a4
    45e4:	4e75           	rts
    45e6:	7006           	moveq #6,%d0
    45e8:	23c0 0000 aba4 	movel %d0,aba4 <errno>
    45ee:	95ca           	subal %a2,%a2
    45f0:	6000 ff70      	braw 4562 <Part_read+0x1a>
    45f4:	7016           	moveq #22,%d0
    45f6:	23c0 0000 aba4 	movel %d0,aba4 <errno>
    45fc:	95ca           	subal %a2,%a2
    45fe:	6000 ff62      	braw 4562 <Part_read+0x1a>
    4602:	282f 002c      	movel %sp@(44),%d4
    4606:	6098           	bras 45a0 <Part_read+0x58>

00004608 <Part_write>:
    4608:	48e7 3838      	moveml %d2-%d4/%a2-%a4,%sp@-
    460c:	266f 001c      	moveal %sp@(28),%a3
    4610:	202f 0020      	movel %sp@(32),%d0
    4614:	242f 0024      	movel %sp@(36),%d2
    4618:	2453           	moveal %a3@,%a2
    461a:	b4fc 0000      	cmpaw #0,%a2
    461e:	670a           	beqs 462a <Part_write+0x22>
    4620:	95ca           	subal %a2,%a2
    4622:	200a           	movel %a2,%d0
    4624:	4cdf 1c1c      	moveml %sp@+,%d2-%d4/%a2-%a4
    4628:	4e75           	rts
    462a:	0c00 0003      	cmpib #3,%d0
    462e:	6200 0084      	bhiw 46b4 <Part_write+0xac>
    4632:	0280 0000 00ff 	andil #255,%d0
    4638:	2200           	movel %d0,%d1
    463a:	d280           	addl %d0,%d1
    463c:	d281           	addl %d1,%d1
    463e:	d280           	addl %d0,%d1
    4640:	d281           	addl %d1,%d1
    4642:	41f3 1800      	lea %a3@(0,%d1:l),%a0
    4646:	4a28 0009      	tstb %a0@(9)
    464a:	675a           	beqs 46a6 <Part_write+0x9e>
    464c:	2828 000e      	movel %a0@(14),%d4
    4650:	b8af 0028      	cmpl %sp@(40),%d4
    4654:	63ca           	blss 4620 <Part_write+0x18>
    4656:	98af 0028      	subl %sp@(40),%d4
    465a:	b8af 002c      	cmpl %sp@(44),%d4
    465e:	6262           	bhis 46c2 <Part_write+0xba>
    4660:	4a84           	tstl %d4
    4662:	67bc           	beqs 4620 <Part_write+0x18>
    4664:	5280           	addql #1,%d0
    4666:	49f9 0000 448c 	lea 448c <SD_write_block>,%a4
    466c:	2600           	movel %d0,%d3
    466e:	d680           	addl %d0,%d3
    4670:	d683           	addl %d3,%d3
    4672:	d680           	addl %d0,%d3
    4674:	d683           	addl %d3,%d3
    4676:	2f02           	movel %d2,%sp@-
    4678:	206f 002c      	moveal %sp@(44),%a0
    467c:	d1f3 3800      	addal %a3@(0,%d3:l),%a0
    4680:	4870 a800      	pea %a0@(0,%a2:l)
    4684:	2f2b 0004      	movel %a3@(4),%sp@-
    4688:	4e94           	jsr %a4@
    468a:	4fef 000c      	lea %sp@(12),%sp
    468e:	4a00           	tstb %d0
    4690:	6790           	beqs 4622 <Part_write+0x1a>
    4692:	0682 0000 0200 	addil #512,%d2
    4698:	528a           	addql #1,%a2
    469a:	b5c4           	cmpal %d4,%a2
    469c:	66d8           	bnes 4676 <Part_write+0x6e>
    469e:	200a           	movel %a2,%d0
    46a0:	4cdf 1c1c      	moveml %sp@+,%d2-%d4/%a2-%a4
    46a4:	4e75           	rts
    46a6:	7006           	moveq #6,%d0
    46a8:	23c0 0000 aba4 	movel %d0,aba4 <errno>
    46ae:	95ca           	subal %a2,%a2
    46b0:	6000 ff70      	braw 4622 <Part_write+0x1a>
    46b4:	7016           	moveq #22,%d0
    46b6:	23c0 0000 aba4 	movel %d0,aba4 <errno>
    46bc:	95ca           	subal %a2,%a2
    46be:	6000 ff62      	braw 4622 <Part_write+0x1a>
    46c2:	282f 002c      	movel %sp@(44),%d4
    46c6:	6098           	bras 4660 <Part_write+0x58>

000046c8 <Part_valid>:
    46c8:	7000           	moveq #0,%d0
    46ca:	102f 000b      	moveb %sp@(11),%d0
    46ce:	2200           	movel %d0,%d1
    46d0:	d280           	addl %d0,%d1
    46d2:	d281           	addl %d1,%d1
    46d4:	d081           	addl %d1,%d0
    46d6:	d080           	addl %d0,%d0
    46d8:	206f 0004      	moveal %sp@(4),%a0
    46dc:	d1c0           	addal %d0,%a0
    46de:	4a28 0009      	tstb %a0@(9)
    46e2:	56c0           	sne %d0
    46e4:	4400           	negb %d0
    46e6:	4e75           	rts

000046e8 <_open_directory>:
    46e8:	4fef fedc      	lea %sp@(-292),%sp
    46ec:	48e7 3e38      	moveml %d2-%d6/%a2-%a4,%sp@-
    46f0:	2c2f 0148      	movel %sp@(328),%d6
    46f4:	4879 0000 ae9c 	pea ae9c <_fs>
    46fa:	4eb9 0000 7bf4 	jsr 7bf4 <fatfs_get_root_cluster>
    4700:	2400           	movel %d0,%d2
    4702:	2f06           	movel %d6,%sp@-
    4704:	4eb9 0000 672e 	jsr 672e <fatfs_total_path_levels>
    470a:	2a00           	movel %d0,%d5
    470c:	508f           	addql #8,%sp
    470e:	6b6e           	bmis 477e <_open_directory+0x96>
    4710:	7600           	moveq #0,%d3
    4712:	7840           	moveq #64,%d4
    4714:	d88f           	addl %sp,%d4
    4716:	45f9 0000 6794 	lea 6794 <fatfs_get_substring>,%a2
    471c:	47f9 0000 7bfe 	lea 7bfe <fatfs_get_file_entry>,%a3
    4722:	49f9 0000 609a 	lea 609a <fatfs_entry_is_dir>,%a4
    4728:	4878 0104      	pea 104 <R_STOPCNTCMD+0xe6>
    472c:	2f04           	movel %d4,%sp@-
    472e:	2f03           	movel %d3,%sp@-
    4730:	2f06           	movel %d6,%sp@-
    4732:	4e92           	jsr %a2@
    4734:	4fef 0010      	lea %sp@(16),%sp
    4738:	5280           	addql #1,%d0
    473a:	6754           	beqs 4790 <_open_directory+0xa8>
    473c:	486f 0020      	pea %sp@(32)
    4740:	2f04           	movel %d4,%sp@-
    4742:	2f02           	movel %d2,%sp@-
    4744:	4879 0000 ae9c 	pea ae9c <_fs>
    474a:	4e93           	jsr %a3@
    474c:	4fef 0010      	lea %sp@(16),%sp
    4750:	4a80           	tstl %d0
    4752:	673c           	beqs 4790 <_open_directory+0xa8>
    4754:	486f 0020      	pea %sp@(32)
    4758:	4e94           	jsr %a4@
    475a:	588f           	addql #4,%sp
    475c:	4a80           	tstl %d0
    475e:	6730           	beqs 4790 <_open_directory+0xa8>
    4760:	342f 0034      	movew %sp@(52),%d2
    4764:	e05a           	rorw #8,%d2
    4766:	4842           	swap %d2
    4768:	4242           	clrw %d2
    476a:	302f 003a      	movew %sp@(58),%d0
    476e:	e058           	rorw #8,%d0
    4770:	0280 0000 ffff 	andil #65535,%d0
    4776:	d480           	addl %d0,%d2
    4778:	5283           	addql #1,%d3
    477a:	b685           	cmpl %d5,%d3
    477c:	6faa           	bles 4728 <_open_directory+0x40>
    477e:	206f 014c      	moveal %sp@(332),%a0
    4782:	2082           	movel %d2,%a0@
    4784:	7001           	moveq #1,%d0
    4786:	4cdf 1c7c      	moveml %sp@+,%d2-%d6/%a2-%a4
    478a:	4fef 0124      	lea %sp@(292),%sp
    478e:	4e75           	rts
    4790:	7000           	moveq #0,%d0
    4792:	4cdf 1c7c      	moveml %sp@+,%d2-%d6/%a2-%a4
    4796:	4fef 0124      	lea %sp@(292),%sp
    479a:	4e75           	rts

0000479c <_write_sectors>:
    479c:	4e56 fff8      	linkw %fp,#-8
    47a0:	48e7 3f3c      	moveml %d2-%d7/%a2-%a5,%sp@-
    47a4:	246e 0008      	moveal %fp@(8),%a2
    47a8:	266e 000c      	moveal %fp@(12),%a3
    47ac:	70ff           	moveq #-1,%d0
    47ae:	2d40 fff8      	movel %d0,%fp@(-8)
    47b2:	2c3c 0000 ae9c 	movel #44700,%d6
    47b8:	2046           	moveal %d6,%a0
    47ba:	7800           	moveq #0,%d4
    47bc:	1810           	moveb %a0@,%d4
    47be:	2f04           	movel %d4,%sp@-
    47c0:	2f0b           	movel %a3,%sp@-
    47c2:	4eb9 0000 21f4 	jsr 21f4 <__udivsi3>
    47c8:	508f           	addql #8,%sp
    47ca:	2600           	movel %d0,%d3
    47cc:	2f04           	movel %d4,%sp@-
    47ce:	2f0b           	movel %a3,%sp@-
    47d0:	4eb9 0000 8254 	jsr 8254 <__umodsi3>
    47d6:	508f           	addql #8,%sp
    47d8:	2840           	moveal %d0,%a4
    47da:	202e 0014      	movel %fp@(20),%d0
    47de:	d08c           	addl %a4,%d0
    47e0:	b084           	cmpl %d4,%d0
    47e2:	6300 0132      	blsw 4916 <_write_sectors+0x17a>
    47e6:	2f03           	movel %d3,%sp@-
    47e8:	2f04           	movel %d4,%sp@-
    47ea:	4eb9 0000 8230 	jsr 8230 <__mulsi3>
    47f0:	508f           	addql #8,%sp
    47f2:	2204           	movel %d4,%d1
    47f4:	928b           	subl %a3,%d1
    47f6:	2a00           	movel %d0,%d5
    47f8:	da81           	addl %d1,%d5
    47fa:	242a 0628      	movel %a2@(1576),%d2
    47fe:	b682           	cmpl %d2,%d3
    4800:	6700 0122      	beqw 4924 <_write_sectors+0x188>
    4804:	b7c4           	cmpal %d4,%a3
    4806:	650a           	bcss 4812 <_write_sectors+0x76>
    4808:	2002           	movel %d2,%d0
    480a:	5280           	addql #1,%d0
    480c:	b680           	cmpl %d0,%d3
    480e:	6700 0148      	beqw 4958 <_write_sectors+0x1bc>
    4812:	2e2a 0004      	movel %a2@(4),%d7
    4816:	7400           	moveq #0,%d2
    4818:	b483           	cmpl %d3,%d2
    481a:	6400 0144      	bccw 4960 <_write_sectors+0x1c4>
    481e:	280e           	movel %fp,%d4
    4820:	5984           	subql #4,%d4
    4822:	47f9 0000 80b4 	lea 80b4 <fatfs_cache_get_next_cluster>,%a3
    4828:	4bf9 0000 80dc 	lea 80dc <fatfs_cache_set_next_cluster>,%a5
    482e:	2f04           	movel %d4,%sp@-
    4830:	2f02           	movel %d2,%sp@-
    4832:	2f0a           	movel %a2,%sp@-
    4834:	4879 0000 ae9c 	pea ae9c <_fs>
    483a:	4e93           	jsr %a3@
    483c:	4fef 0010      	lea %sp@(16),%sp
    4840:	4a80           	tstl %d0
    4842:	6754           	beqs 4898 <_write_sectors+0xfc>
    4844:	2d47 fff8      	movel %d7,%fp@(-8)
    4848:	2e2e fffc      	movel %fp@(-4),%d7
    484c:	70ff           	moveq #-1,%d0
    484e:	b087           	cmpl %d7,%d0
    4850:	6778           	beqs 48ca <_write_sectors+0x12e>
    4852:	5282           	addql #1,%d2
    4854:	b483           	cmpl %d3,%d2
    4856:	66d6           	bnes 482e <_write_sectors+0x92>
    4858:	2547 062c      	movel %d7,%a2@(1580)
    485c:	2543 0628      	movel %d3,%a2@(1576)
    4860:	2f07           	movel %d7,%sp@-
    4862:	4879 0000 ae9c 	pea ae9c <_fs>
    4868:	4eb9 0000 789e 	jsr 789e <fatfs_lba_of_cluster>
    486e:	2f05           	movel %d5,%sp@-
    4870:	2f2e 0010      	movel %fp@(16),%sp@-
    4874:	4874 0800      	pea %a4@(0,%d0:l)
    4878:	4879 0000 ae9c 	pea ae9c <_fs>
    487e:	4eb9 0000 78f2 	jsr 78f2 <fatfs_sector_write>
    4884:	4fef 0018      	lea %sp@(24),%sp
    4888:	4a80           	tstl %d0
    488a:	677c           	beqs 4908 <_write_sectors+0x16c>
    488c:	2005           	movel %d5,%d0
    488e:	4cee 3cfc ffd0 	moveml %fp@(-48),%d2-%d7/%a2-%a5
    4894:	4e5e           	unlk %fp
    4896:	4e75           	rts
    4898:	2f07           	movel %d7,%sp@-
    489a:	4879 0000 ae9c 	pea ae9c <_fs>
    48a0:	4eb9 0000 6dee 	jsr 6dee <fatfs_find_next_cluster>
    48a6:	2d40 fffc      	movel %d0,%fp@(-4)
    48aa:	2f00           	movel %d0,%sp@-
    48ac:	2f02           	movel %d2,%sp@-
    48ae:	2f0a           	movel %a2,%sp@-
    48b0:	4879 0000 ae9c 	pea ae9c <_fs>
    48b6:	4e95           	jsr %a5@
    48b8:	4fef 0018      	lea %sp@(24),%sp
    48bc:	2d47 fff8      	movel %d7,%fp@(-8)
    48c0:	2e2e fffc      	movel %fp@(-4),%d7
    48c4:	70ff           	moveq #-1,%d0
    48c6:	b087           	cmpl %d7,%d0
    48c8:	6688           	bnes 4852 <_write_sectors+0xb6>
    48ca:	2046           	moveal %d6,%a0
    48cc:	7000           	moveq #0,%d0
    48ce:	1010           	moveb %a0@,%d0
    48d0:	2f00           	movel %d0,%sp@-
    48d2:	206e 0014      	moveal %fp@(20),%a0
    48d6:	4870 08ff      	pea %a0@(ffffffffffffffff,%d0:l)
    48da:	4eb9 0000 21f4 	jsr 21f4 <__udivsi3>
    48e0:	588f           	addql #4,%sp
    48e2:	2e80           	movel %d0,%sp@
    48e4:	486e fff8      	pea %fp@(-8)
    48e8:	2f06           	movel %d6,%sp@-
    48ea:	4eb9 0000 7264 	jsr 7264 <fatfs_add_free_space>
    48f0:	4fef 000c      	lea %sp@(12),%sp
    48f4:	4a80           	tstl %d0
    48f6:	6710           	beqs 4908 <_write_sectors+0x16c>
    48f8:	2e2e fff8      	movel %fp@(-8),%d7
    48fc:	2547 062c      	movel %d7,%a2@(1580)
    4900:	2543 0628      	movel %d3,%a2@(1576)
    4904:	6000 ff5a      	braw 4860 <_write_sectors+0xc4>
    4908:	7a00           	moveq #0,%d5
    490a:	2005           	movel %d5,%d0
    490c:	4cee 3cfc ffd0 	moveml %fp@(-48),%d2-%d7/%a2-%a5
    4912:	4e5e           	unlk %fp
    4914:	4e75           	rts
    4916:	2a2e 0014      	movel %fp@(20),%d5
    491a:	242a 0628      	movel %a2@(1576),%d2
    491e:	b682           	cmpl %d2,%d3
    4920:	6600 fee2      	bnew 4804 <_write_sectors+0x68>
    4924:	2e2a 062c      	movel %a2@(1580),%d7
    4928:	2f07           	movel %d7,%sp@-
    492a:	4879 0000 ae9c 	pea ae9c <_fs>
    4930:	4eb9 0000 789e 	jsr 789e <fatfs_lba_of_cluster>
    4936:	2f05           	movel %d5,%sp@-
    4938:	2f2e 0010      	movel %fp@(16),%sp@-
    493c:	4874 0800      	pea %a4@(0,%d0:l)
    4940:	4879 0000 ae9c 	pea ae9c <_fs>
    4946:	4eb9 0000 78f2 	jsr 78f2 <fatfs_sector_write>
    494c:	4fef 0018      	lea %sp@(24),%sp
    4950:	4a80           	tstl %d0
    4952:	67b4           	beqs 4908 <_write_sectors+0x16c>
    4954:	6000 ff36      	braw 488c <_write_sectors+0xf0>
    4958:	2e2a 062c      	movel %a2@(1580),%d7
    495c:	6000 feba      	braw 4818 <_write_sectors+0x7c>
    4960:	70ff           	moveq #-1,%d0
    4962:	b087           	cmpl %d7,%d0
    4964:	6700 ff64      	beqw 48ca <_write_sectors+0x12e>
    4968:	2547 062c      	movel %d7,%a2@(1580)
    496c:	2543 0628      	movel %d3,%a2@(1576)
    4970:	6000 feee      	braw 4860 <_write_sectors+0xc4>

00004974 <_read_sectors>:
    4974:	598f           	subql #4,%sp
    4976:	48e7 3c3e      	moveml %d2-%d5/%a2-%fp,%sp@-
    497a:	246f 002c      	moveal %sp@(44),%a2
    497e:	266f 0030      	moveal %sp@(48),%a3
    4982:	2a2f 0038      	movel %sp@(56),%d5
    4986:	7800           	moveq #0,%d4
    4988:	1839 0000 ae9c 	moveb ae9c <_fs>,%d4
    498e:	2f04           	movel %d4,%sp@-
    4990:	2f0b           	movel %a3,%sp@-
    4992:	4eb9 0000 21f4 	jsr 21f4 <__udivsi3>
    4998:	508f           	addql #8,%sp
    499a:	2600           	movel %d0,%d3
    499c:	2f04           	movel %d4,%sp@-
    499e:	2f0b           	movel %a3,%sp@-
    49a0:	4eb9 0000 8254 	jsr 8254 <__umodsi3>
    49a6:	508f           	addql #8,%sp
    49a8:	2840           	moveal %d0,%a4
    49aa:	2005           	movel %d5,%d0
    49ac:	d08c           	addl %a4,%d0
    49ae:	b084           	cmpl %d4,%d0
    49b0:	6314           	blss 49c6 <_read_sectors+0x52>
    49b2:	2f03           	movel %d3,%sp@-
    49b4:	2f04           	movel %d4,%sp@-
    49b6:	4eb9 0000 8230 	jsr 8230 <__mulsi3>
    49bc:	508f           	addql #8,%sp
    49be:	2204           	movel %d4,%d1
    49c0:	928b           	subl %a3,%d1
    49c2:	2a00           	movel %d0,%d5
    49c4:	da81           	addl %d1,%d5
    49c6:	242a 0628      	movel %a2@(1576),%d2
    49ca:	b682           	cmpl %d2,%d3
    49cc:	6700 00c0      	beqw 4a8e <_read_sectors+0x11a>
    49d0:	b7c4           	cmpal %d4,%a3
    49d2:	650a           	bcss 49de <_read_sectors+0x6a>
    49d4:	2002           	movel %d2,%d0
    49d6:	5280           	addql #1,%d0
    49d8:	b680           	cmpl %d0,%d3
    49da:	6700 00c6      	beqw 4aa2 <_read_sectors+0x12e>
    49de:	282a 0004      	movel %a2@(4),%d4
    49e2:	7400           	moveq #0,%d2
    49e4:	b483           	cmpl %d3,%d2
    49e6:	6434           	bccs 4a1c <_read_sectors+0xa8>
    49e8:	47f9 0000 80b4 	lea 80b4 <fatfs_cache_get_next_cluster>,%a3
    49ee:	4df9 0000 6dee 	lea 6dee <fatfs_find_next_cluster>,%fp
    49f4:	4bf9 0000 80dc 	lea 80dc <fatfs_cache_set_next_cluster>,%a5
    49fa:	486f 0024      	pea %sp@(36)
    49fe:	2f02           	movel %d2,%sp@-
    4a00:	2f0a           	movel %a2,%sp@-
    4a02:	4879 0000 ae9c 	pea ae9c <_fs>
    4a08:	4e93           	jsr %a3@
    4a0a:	4fef 0010      	lea %sp@(16),%sp
    4a0e:	4a80           	tstl %d0
    4a10:	674e           	beqs 4a60 <_read_sectors+0xec>
    4a12:	282f 0024      	movel %sp@(36),%d4
    4a16:	5282           	addql #1,%d2
    4a18:	b483           	cmpl %d3,%d2
    4a1a:	66de           	bnes 49fa <_read_sectors+0x86>
    4a1c:	70ff           	moveq #-1,%d0
    4a1e:	b084           	cmpl %d4,%d0
    4a20:	6776           	beqs 4a98 <_read_sectors+0x124>
    4a22:	2544 062c      	movel %d4,%a2@(1580)
    4a26:	2543 0628      	movel %d3,%a2@(1576)
    4a2a:	2f04           	movel %d4,%sp@-
    4a2c:	4879 0000 ae9c 	pea ae9c <_fs>
    4a32:	4eb9 0000 789e 	jsr 789e <fatfs_lba_of_cluster>
    4a38:	2f05           	movel %d5,%sp@-
    4a3a:	2f2f 0040      	movel %sp@(64),%sp@-
    4a3e:	4874 0800      	pea %a4@(0,%d0:l)
    4a42:	4879 0000 ae9c 	pea ae9c <_fs>
    4a48:	4eb9 0000 78d2 	jsr 78d2 <fatfs_sector_read>
    4a4e:	4fef 0018      	lea %sp@(24),%sp
    4a52:	4a80           	tstl %d0
    4a54:	6742           	beqs 4a98 <_read_sectors+0x124>
    4a56:	2005           	movel %d5,%d0
    4a58:	4cdf 7c3c      	moveml %sp@+,%d2-%d5/%a2-%fp
    4a5c:	588f           	addql #4,%sp
    4a5e:	4e75           	rts
    4a60:	2f04           	movel %d4,%sp@-
    4a62:	4879 0000 ae9c 	pea ae9c <_fs>
    4a68:	4e96           	jsr %fp@
    4a6a:	2f40 002c      	movel %d0,%sp@(44)
    4a6e:	2f00           	movel %d0,%sp@-
    4a70:	2f02           	movel %d2,%sp@-
    4a72:	2f0a           	movel %a2,%sp@-
    4a74:	4879 0000 ae9c 	pea ae9c <_fs>
    4a7a:	4e95           	jsr %a5@
    4a7c:	4fef 0018      	lea %sp@(24),%sp
    4a80:	282f 0024      	movel %sp@(36),%d4
    4a84:	5282           	addql #1,%d2
    4a86:	b483           	cmpl %d3,%d2
    4a88:	6600 ff70      	bnew 49fa <_read_sectors+0x86>
    4a8c:	608e           	bras 4a1c <_read_sectors+0xa8>
    4a8e:	282a 062c      	movel %a2@(1580),%d4
    4a92:	70ff           	moveq #-1,%d0
    4a94:	b084           	cmpl %d4,%d0
    4a96:	6692           	bnes 4a2a <_read_sectors+0xb6>
    4a98:	7000           	moveq #0,%d0
    4a9a:	4cdf 7c3c      	moveml %sp@+,%d2-%d5/%a2-%fp
    4a9e:	588f           	addql #4,%sp
    4aa0:	4e75           	rts
    4aa2:	282a 062c      	movel %a2@(1580),%d4
    4aa6:	6000 ff3c      	braw 49e4 <_read_sectors+0x70>

00004aaa <_allocate_file>:
    4aaa:	2f0b           	movel %a3,%sp@-
    4aac:	2f0a           	movel %a2,%sp@-
    4aae:	47f9 0000 ae8c 	lea ae8c <_free_file_list>,%a3
    4ab4:	2053           	moveal %a3@,%a0
    4ab6:	b0fc 0000      	cmpaw #0,%a0
    4aba:	674a           	beqs 4b06 <_allocate_file+0x5c>
    4abc:	2450           	moveal %a0@,%a2
    4abe:	2268 0004      	moveal %a0@(4),%a1
    4ac2:	b4fc 0000      	cmpaw #0,%a2
    4ac6:	6746           	beqs 4b0e <_allocate_file+0x64>
    4ac8:	2549 0004      	movel %a1,%a2@(4)
    4acc:	2268 0004      	moveal %a0@(4),%a1
    4ad0:	b2fc 0000      	cmpaw #0,%a1
    4ad4:	673c           	beqs 4b12 <_allocate_file+0x68>
    4ad6:	228a           	movel %a2,%a1@
    4ad8:	45f9 0000 ae94 	lea ae94 <_open_file_list>,%a2
    4ade:	2279 0000 ae98 	moveal ae98 <_open_file_list+0x4>,%a1
    4ae4:	b2fc 0000      	cmpaw #0,%a1
    4ae8:	6740           	beqs 4b2a <_allocate_file+0x80>
    4aea:	2089           	movel %a1,%a0@
    4aec:	2169 0004 0004 	movel %a1@(4),%a0@(4)
    4af2:	2469 0004      	moveal %a1@(4),%a2
    4af6:	b4fc 0000      	cmpaw #0,%a2
    4afa:	6750           	beqs 4b4c <_allocate_file+0xa2>
    4afc:	2488           	movel %a0,%a2@
    4afe:	2348 0004      	movel %a0,%a1@(4)
    4b02:	41e8 f7c6      	lea %a0@(-2106),%a0
    4b06:	2008           	movel %a0,%d0
    4b08:	245f           	moveal %sp@+,%a2
    4b0a:	265f           	moveal %sp@+,%a3
    4b0c:	4e75           	rts
    4b0e:	2689           	movel %a1,%a3@
    4b10:	66c4           	bnes 4ad6 <_allocate_file+0x2c>
    4b12:	23ca 0000 ae90 	movel %a2,ae90 <_free_file_list+0x4>
    4b18:	45f9 0000 ae94 	lea ae94 <_open_file_list>,%a2
    4b1e:	2279 0000 ae98 	moveal ae98 <_open_file_list+0x4>,%a1
    4b24:	b2fc 0000      	cmpaw #0,%a1
    4b28:	66c0           	bnes 4aea <_allocate_file+0x40>
    4b2a:	2252           	moveal %a2@,%a1
    4b2c:	b2fc 0000      	cmpaw #0,%a1
    4b30:	6726           	beqs 4b58 <_allocate_file+0xae>
    4b32:	2091           	movel %a1@,%a0@
    4b34:	2149 0004      	movel %a1,%a0@(4)
    4b38:	2651           	moveal %a1@,%a3
    4b3a:	b6fc 0000      	cmpaw #0,%a3
    4b3e:	672c           	beqs 4b6c <_allocate_file+0xc2>
    4b40:	2748 0004      	movel %a0,%a3@(4)
    4b44:	2288           	movel %a0,%a1@
    4b46:	41e8 f7c6      	lea %a0@(-2106),%a0
    4b4a:	60ba           	bras 4b06 <_allocate_file+0x5c>
    4b4c:	23c8 0000 ae98 	movel %a0,ae98 <_open_file_list+0x4>
    4b52:	2348 0004      	movel %a0,%a1@(4)
    4b56:	60aa           	bras 4b02 <_allocate_file+0x58>
    4b58:	2488           	movel %a0,%a2@
    4b5a:	23c8 0000 ae98 	movel %a0,ae98 <_open_file_list+0x4>
    4b60:	4290           	clrl %a0@
    4b62:	42a8 0004      	clrl %a0@(4)
    4b66:	41e8 f7c6      	lea %a0@(-2106),%a0
    4b6a:	609a           	bras 4b06 <_allocate_file+0x5c>
    4b6c:	2488           	movel %a0,%a2@
    4b6e:	2288           	movel %a0,%a1@
    4b70:	60d4           	bras 4b46 <_allocate_file+0x9c>

00004b72 <_free_file>:
    4b72:	2f0a           	movel %a2,%sp@-
    4b74:	206f 0008      	moveal %sp@(8),%a0
    4b78:	2468 083a      	moveal %a0@(2106),%a2
    4b7c:	2268 083e      	moveal %a0@(2110),%a1
    4b80:	b4fc 0000      	cmpaw #0,%a2
    4b84:	6748           	beqs 4bce <_free_file+0x5c>
    4b86:	2549 0004      	movel %a1,%a2@(4)
    4b8a:	2268 083e      	moveal %a0@(2110),%a1
    4b8e:	b2fc 0000      	cmpaw #0,%a1
    4b92:	6742           	beqs 4bd6 <_free_file+0x64>
    4b94:	228a           	movel %a2,%a1@
    4b96:	2008           	movel %a0,%d0
    4b98:	0680 0000 083a 	addil #2106,%d0
    4b9e:	45f9 0000 ae8c 	lea ae8c <_free_file_list>,%a2
    4ba4:	2279 0000 ae90 	moveal ae90 <_free_file_list+0x4>,%a1
    4baa:	b2fc 0000      	cmpaw #0,%a1
    4bae:	6746           	beqs 4bf6 <_free_file+0x84>
    4bb0:	2149 083a      	movel %a1,%a0@(2106)
    4bb4:	2169 0004 083e 	movel %a1@(4),%a0@(2110)
    4bba:	2069 0004      	moveal %a1@(4),%a0
    4bbe:	b0fc 0000      	cmpaw #0,%a0
    4bc2:	6754           	beqs 4c18 <_free_file+0xa6>
    4bc4:	2080           	movel %d0,%a0@
    4bc6:	2340 0004      	movel %d0,%a1@(4)
    4bca:	245f           	moveal %sp@+,%a2
    4bcc:	4e75           	rts
    4bce:	23c9 0000 ae94 	movel %a1,ae94 <_open_file_list>
    4bd4:	66be           	bnes 4b94 <_free_file+0x22>
    4bd6:	23ca 0000 ae98 	movel %a2,ae98 <_open_file_list+0x4>
    4bdc:	2008           	movel %a0,%d0
    4bde:	0680 0000 083a 	addil #2106,%d0
    4be4:	45f9 0000 ae8c 	lea ae8c <_free_file_list>,%a2
    4bea:	2279 0000 ae90 	moveal ae90 <_free_file_list+0x4>,%a1
    4bf0:	b2fc 0000      	cmpaw #0,%a1
    4bf4:	66ba           	bnes 4bb0 <_free_file+0x3e>
    4bf6:	2252           	moveal %a2@,%a1
    4bf8:	b2fc 0000      	cmpaw #0,%a1
    4bfc:	6726           	beqs 4c24 <_free_file+0xb2>
    4bfe:	2151 083a      	movel %a1@,%a0@(2106)
    4c02:	2149 083e      	movel %a1,%a0@(2110)
    4c06:	2051           	moveal %a1@,%a0
    4c08:	b0fc 0000      	cmpaw #0,%a0
    4c0c:	672a           	beqs 4c38 <_free_file+0xc6>
    4c0e:	2140 0004      	movel %d0,%a0@(4)
    4c12:	2280           	movel %d0,%a1@
    4c14:	245f           	moveal %sp@+,%a2
    4c16:	4e75           	rts
    4c18:	23c0 0000 ae90 	movel %d0,ae90 <_free_file_list+0x4>
    4c1e:	2340 0004      	movel %d0,%a1@(4)
    4c22:	60a6           	bras 4bca <_free_file+0x58>
    4c24:	2480           	movel %d0,%a2@
    4c26:	23c0 0000 ae90 	movel %d0,ae90 <_free_file_list+0x4>
    4c2c:	42a8 083a      	clrl %a0@(2106)
    4c30:	42a8 083e      	clrl %a0@(2110)
    4c34:	245f           	moveal %sp@+,%a2
    4c36:	4e75           	rts
    4c38:	2480           	movel %d0,%a2@
    4c3a:	2280           	movel %d0,%a1@
    4c3c:	60d6           	bras 4c14 <_free_file+0xa2>

00004c3e <_open_file>:
    4c3e:	4fef ffe0      	lea %sp@(-32),%sp
    4c42:	48e7 3038      	moveml %d2-%d3/%a2-%a4,%sp@-
    4c46:	4eb9 0000 4aaa 	jsr 4aaa <_allocate_file>
    4c4c:	2440           	moveal %d0,%a2
    4c4e:	4a80           	tstl %d0
    4c50:	6700 015c      	beqw 4dae <_open_file+0x170>
    4c54:	47ea 0014      	lea %a2@(20),%a3
    4c58:	243c 0000 0104 	movel #260,%d2
    4c5e:	2f02           	movel %d2,%sp@-
    4c60:	42a7           	clrl %sp@-
    4c62:	2f0b           	movel %a3,%sp@-
    4c64:	49f9 0000 2634 	lea 2634 <memset>,%a4
    4c6a:	4e94           	jsr %a4@
    4c6c:	260a           	movel %a2,%d3
    4c6e:	0683 0000 0118 	addil #280,%d3
    4c74:	2f02           	movel %d2,%sp@-
    4c76:	42a7           	clrl %sp@-
    4c78:	2f03           	movel %d3,%sp@-
    4c7a:	4e94           	jsr %a4@
    4c7c:	2f02           	movel %d2,%sp@-
    4c7e:	2f03           	movel %d3,%sp@-
    4c80:	2f02           	movel %d2,%sp@-
    4c82:	2f0b           	movel %a3,%sp@-
    4c84:	2f2f 0060      	movel %sp@(96),%sp@-
    4c88:	4eb9 0000 6852 	jsr 6852 <fatfs_split_path>
    4c8e:	4fef 002c      	lea %sp@(44),%sp
    4c92:	5280           	addql #1,%d0
    4c94:	6700 0126      	beqw 4dbc <_open_file+0x17e>
    4c98:	4a2a 0014      	tstb %a2@(20)
    4c9c:	675e           	beqs 4cfc <_open_file+0xbe>
    4c9e:	2f0a           	movel %a2,%sp@-
    4ca0:	2f0b           	movel %a3,%sp@-
    4ca2:	4eb9 0000 46e8 	jsr 46e8 <_open_directory>
    4ca8:	508f           	addql #8,%sp
    4caa:	4a80           	tstl %d0
    4cac:	672e           	beqs 4cdc <_open_file+0x9e>
    4cae:	2012           	movel %a2@,%d0
    4cb0:	486f 0014      	pea %sp@(20)
    4cb4:	2f03           	movel %d3,%sp@-
    4cb6:	2f00           	movel %d0,%sp@-
    4cb8:	4879 0000 ae9c 	pea ae9c <_fs>
    4cbe:	4eb9 0000 7bfe 	jsr 7bfe <fatfs_get_file_entry>
    4cc4:	4fef 0010      	lea %sp@(16),%sp
    4cc8:	4a80           	tstl %d0
    4cca:	6710           	beqs 4cdc <_open_file+0x9e>
    4ccc:	486f 0014      	pea %sp@(20)
    4cd0:	4eb9 0000 60aa 	jsr 60aa <fatfs_entry_is_file>
    4cd6:	588f           	addql #4,%sp
    4cd8:	4a80           	tstl %d0
    4cda:	6632           	bnes 4d0e <_open_file+0xd0>
    4cdc:	2f0a           	movel %a2,%sp@-
    4cde:	4eb9 0000 4b72 	jsr 4b72 <_free_file>
    4ce4:	7202           	moveq #2,%d1
    4ce6:	23c1 0000 aba4 	movel %d1,aba4 <errno>
    4cec:	588f           	addql #4,%sp
    4cee:	95ca           	subal %a2,%a2
    4cf0:	200a           	movel %a2,%d0
    4cf2:	4cdf 1c0c      	moveml %sp@+,%d2-%d3/%a2-%a4
    4cf6:	4fef 0020      	lea %sp@(32),%sp
    4cfa:	4e75           	rts
    4cfc:	4879 0000 ae9c 	pea ae9c <_fs>
    4d02:	4eb9 0000 7bf4 	jsr 7bf4 <fatfs_get_root_cluster>
    4d08:	2480           	movel %d0,%a2@
    4d0a:	588f           	addql #4,%sp
    4d0c:	60a2           	bras 4cb0 <_open_file+0x72>
    4d0e:	41ea 021c      	lea %a2@(540),%a0
    4d12:	10ef 0014      	moveb %sp@(20),%a0@+
    4d16:	10ef 0015      	moveb %sp@(21),%a0@+
    4d1a:	10ef 0016      	moveb %sp@(22),%a0@+
    4d1e:	10ef 0017      	moveb %sp@(23),%a0@+
    4d22:	10ef 0018      	moveb %sp@(24),%a0@+
    4d26:	10ef 0019      	moveb %sp@(25),%a0@+
    4d2a:	10ef 001a      	moveb %sp@(26),%a0@+
    4d2e:	10ef 001b      	moveb %sp@(27),%a0@+
    4d32:	10ef 001c      	moveb %sp@(28),%a0@+
    4d36:	10ef 001d      	moveb %sp@(29),%a0@+
    4d3a:	10af 001e      	moveb %sp@(30),%a0@
    4d3e:	202f 0030      	movel %sp@(48),%d0
    4d42:	e058           	rorw #8,%d0
    4d44:	4840           	swap %d0
    4d46:	e058           	rorw #8,%d0
    4d48:	2540 000c      	movel %d0,%a2@(12)
    4d4c:	42aa 0008      	clrl %a2@(8)
    4d50:	302f 0028      	movew %sp@(40),%d0
    4d54:	e058           	rorw #8,%d0
    4d56:	2200           	movel %d0,%d1
    4d58:	4841           	swap %d1
    4d5a:	4241           	clrw %d1
    4d5c:	302f 002e      	movew %sp@(46),%d0
    4d60:	e058           	rorw #8,%d0
    4d62:	0280 0000 ffff 	andil #65535,%d0
    4d68:	d280           	addl %d0,%d1
    4d6a:	2541 0004      	movel %d1,%a2@(4)
    4d6e:	70ff           	moveq #-1,%d0
    4d70:	2540 0830      	movel %d0,%a2@(2096)
    4d74:	42aa 0834      	clrl %a2@(2100)
    4d78:	42aa 0010      	clrl %a2@(16)
    4d7c:	2540 0628      	movel %d0,%a2@(1576)
    4d80:	2540 062c      	movel %d0,%a2@(1580)
    4d84:	2f0a           	movel %a2,%sp@-
    4d86:	4879 0000 ae9c 	pea ae9c <_fs>
    4d8c:	4eb9 0000 8080 	jsr 8080 <fatfs_cache_init>
    4d92:	4879 0000 ae9c 	pea ae9c <_fs>
    4d98:	4eb9 0000 6d6a 	jsr 6d6a <fatfs_fat_purge>
    4d9e:	4fef 000c      	lea %sp@(12),%sp
    4da2:	200a           	movel %a2,%d0
    4da4:	4cdf 1c0c      	moveml %sp@+,%d2-%d3/%a2-%a4
    4da8:	4fef 0020      	lea %sp@(32),%sp
    4dac:	4e75           	rts
    4dae:	7018           	moveq #24,%d0
    4db0:	23c0 0000 aba4 	movel %d0,aba4 <errno>
    4db6:	95ca           	subal %a2,%a2
    4db8:	6000 ff36      	braw 4cf0 <_open_file+0xb2>
    4dbc:	2f0a           	movel %a2,%sp@-
    4dbe:	4eb9 0000 4b72 	jsr 4b72 <_free_file>
    4dc4:	705b           	moveq #91,%d0
    4dc6:	23c0 0000 aba4 	movel %d0,aba4 <errno>
    4dcc:	588f           	addql #4,%sp
    4dce:	95ca           	subal %a2,%a2
    4dd0:	6000 ff1e      	braw 4cf0 <_open_file+0xb2>

00004dd4 <fl_init>:
    4dd4:	48e7 0038      	moveml %a2-%a4,%sp@-
    4dd8:	42b9 0000 ae90 	clrl ae90 <_free_file_list+0x4>
    4dde:	42b9 0000 ae8c 	clrl ae8c <_free_file_list>
    4de4:	42b9 0000 ae98 	clrl ae98 <_open_file_list+0x4>
    4dea:	42b9 0000 ae94 	clrl ae94 <_open_file_list>
    4df0:	41f9 0001 0770 	lea 10770 <_files+0x83a>,%a0
    4df6:	45f9 0001 0774 	lea 10774 <_files+0x83e>,%a2
    4dfc:	93c9           	subal %a1,%a1
    4dfe:	49f9 0000 ae8c 	lea ae8c <_free_file_list>,%a4
    4e04:	b2fc 0000      	cmpaw #0,%a1
    4e08:	6732           	beqs 4e3c <fl_init+0x68>
    4e0a:	2089           	movel %a1,%a0@
    4e0c:	24a9 0004      	movel %a1@(4),%a2@
    4e10:	2669 0004      	moveal %a1@(4),%a3
    4e14:	b6fc 0000      	cmpaw #0,%a3
    4e18:	675a           	beqs 4e74 <fl_init+0xa0>
    4e1a:	2688           	movel %a0,%a3@
    4e1c:	2348 0004      	movel %a0,%a1@(4)
    4e20:	41e8 0842      	lea %a0@(2114),%a0
    4e24:	45ea 0842      	lea %a2@(2114),%a2
    4e28:	b1fc 0002 0fb0 	cmpal #135088,%a0
    4e2e:	6736           	beqs 4e66 <fl_init+0x92>
    4e30:	2279 0000 ae90 	moveal ae90 <_free_file_list+0x4>,%a1
    4e36:	b2fc 0000      	cmpaw #0,%a1
    4e3a:	66ce           	bnes 4e0a <fl_init+0x36>
    4e3c:	2254           	moveal %a4@,%a1
    4e3e:	b2fc 0000      	cmpaw #0,%a1
    4e42:	673c           	beqs 4e80 <fl_init+0xac>
    4e44:	2091           	movel %a1@,%a0@
    4e46:	2489           	movel %a1,%a2@
    4e48:	2651           	moveal %a1@,%a3
    4e4a:	b6fc 0000      	cmpaw #0,%a3
    4e4e:	673e           	beqs 4e8e <fl_init+0xba>
    4e50:	2748 0004      	movel %a0,%a3@(4)
    4e54:	2288           	movel %a0,%a1@
    4e56:	41e8 0842      	lea %a0@(2114),%a0
    4e5a:	45ea 0842      	lea %a2@(2114),%a2
    4e5e:	b1fc 0002 0fb0 	cmpal #135088,%a0
    4e64:	66ca           	bnes 4e30 <fl_init+0x5c>
    4e66:	7001           	moveq #1,%d0
    4e68:	23c0 0000 ff32 	movel %d0,ff32 <_filelib_init>
    4e6e:	4cdf 1c00      	moveml %sp@+,%a2-%a4
    4e72:	4e75           	rts
    4e74:	23c8 0000 ae90 	movel %a0,ae90 <_free_file_list+0x4>
    4e7a:	2348 0004      	movel %a0,%a1@(4)
    4e7e:	60a0           	bras 4e20 <fl_init+0x4c>
    4e80:	2888           	movel %a0,%a4@
    4e82:	23c8 0000 ae90 	movel %a0,ae90 <_free_file_list+0x4>
    4e88:	4290           	clrl %a0@
    4e8a:	4292           	clrl %a2@
    4e8c:	6092           	bras 4e20 <fl_init+0x4c>
    4e8e:	2888           	movel %a0,%a4@
    4e90:	2288           	movel %a0,%a1@
    4e92:	60c2           	bras 4e56 <fl_init+0x82>

00004e94 <fl_attach_locks>:
    4e94:	23ef 0004 0000 	movel %sp@(4),aed2 <_fs+0x36>
    4e9a:	aed2 
    4e9c:	23ef 0008 0000 	movel %sp@(8),aed6 <_fs+0x3a>
    4ea2:	aed6 
    4ea4:	4e75           	rts

00004ea6 <fl_attach_media>:
    4ea6:	4ab9 0000 ff32 	tstl ff32 <_filelib_init>
    4eac:	672c           	beqs 4eda <fl_attach_media+0x34>
    4eae:	23ef 0004 0000 	movel %sp@(4),aeca <_fs+0x2e>
    4eb4:	aeca 
    4eb6:	23ef 0008 0000 	movel %sp@(8),aece <_fs+0x32>
    4ebc:	aece 
    4ebe:	4879 0000 ae9c 	pea ae9c <_fs>
    4ec4:	4eb9 0000 769c 	jsr 769c <fatfs_init>
    4eca:	588f           	addql #4,%sp
    4ecc:	4a80           	tstl %d0
    4ece:	6608           	bnes 4ed8 <fl_attach_media+0x32>
    4ed0:	7201           	moveq #1,%d1
    4ed2:	23c1 0000 ff2e 	movel %d1,ff2e <_filelib_valid>
    4ed8:	4e75           	rts
    4eda:	4eb9 0000 4dd4 	jsr 4dd4 <fl_init>
    4ee0:	60cc           	bras 4eae <fl_attach_media+0x8>

00004ee2 <fl_shutdown>:
    4ee2:	4ab9 0000 ff32 	tstl ff32 <_filelib_init>
    4ee8:	672a           	beqs 4f14 <fl_shutdown+0x32>
    4eea:	2079 0000 aed2 	moveal aed2 <_fs+0x36>,%a0
    4ef0:	b0fc 0000      	cmpaw #0,%a0
    4ef4:	6702           	beqs 4ef8 <fl_shutdown+0x16>
    4ef6:	4e90           	jsr %a0@
    4ef8:	4879 0000 ae9c 	pea ae9c <_fs>
    4efe:	4eb9 0000 6d6a 	jsr 6d6a <fatfs_fat_purge>
    4f04:	2279 0000 aed6 	moveal aed6 <_fs+0x3a>,%a1
    4f0a:	588f           	addql #4,%sp
    4f0c:	b2fc 0000      	cmpaw #0,%a1
    4f10:	670a           	beqs 4f1c <fl_shutdown+0x3a>
    4f12:	4ed1           	jmp %a1@
    4f14:	4eb9 0000 4dd4 	jsr 4dd4 <fl_init>
    4f1a:	60ce           	bras 4eea <fl_shutdown+0x8>
    4f1c:	4e75           	rts

00004f1e <fl_fopen>:
    4f1e:	4e56 ffd4      	linkw %fp,#-44
    4f22:	48e7 3f3c      	moveml %d2-%d7/%a2-%a5,%sp@-
    4f26:	262e 000c      	movel %fp@(12),%d3
    4f2a:	4ab9 0000 ff32 	tstl ff32 <_filelib_init>
    4f30:	6700 0098      	beqw 4fca <fl_fopen+0xac>
    4f34:	4ab9 0000 ff2e 	tstl ff2e <_filelib_valid>
    4f3a:	6700 009e      	beqw 4fda <fl_fopen+0xbc>
    4f3e:	7016           	moveq #22,%d0
    4f40:	4aae 0008      	tstl %fp@(8)
    4f44:	6700 0096      	beqw 4fdc <fl_fopen+0xbe>
    4f48:	7003           	moveq #3,%d0
    4f4a:	c083           	andl %d3,%d0
    4f4c:	6778           	beqs 4fc6 <fl_fopen+0xa8>
    4f4e:	7201           	moveq #1,%d1
    4f50:	b280           	cmpl %d0,%d1
    4f52:	6700 0196      	beqw 50ea <fl_fopen+0x1cc>
    4f56:	5580           	subql #2,%d0
    4f58:	6700 00bc      	beqw 5016 <fl_fopen+0xf8>
    4f5c:	4202           	clrb %d2
    4f5e:	0803 0003      	btst #3,%d3
    4f62:	6704           	beqs 4f68 <fl_fopen+0x4a>
    4f64:	0002 0004      	orib #4,%d2
    4f68:	0803 0009      	btst #9,%d3
    4f6c:	6704           	beqs 4f72 <fl_fopen+0x54>
    4f6e:	0002 0020      	orib #32,%d2
    4f72:	0803 000a      	btst #10,%d3
    4f76:	6704           	beqs 4f7c <fl_fopen+0x5e>
    4f78:	0002 0010      	orib #16,%d2
    4f7c:	4ab9 0000 aece 	tstl aece <_fs+0x32>
    4f82:	6700 016c      	beqw 50f0 <fl_fopen+0x1d2>
    4f86:	2079 0000 aed2 	moveal aed2 <_fs+0x36>,%a0
    4f8c:	b0fc 0000      	cmpaw #0,%a0
    4f90:	6702           	beqs 4f94 <fl_fopen+0x76>
    4f92:	4e90           	jsr %a0@
    4f94:	1e02           	moveb %d2,%d7
    4f96:	0207 0001      	andib #1,%d7
    4f9a:	1802           	moveb %d2,%d4
    4f9c:	0204 0020      	andib #32,%d4
    4fa0:	0802 0000      	btst #0,%d2
    4fa4:	664a           	bnes 4ff0 <fl_fopen+0xd2>
    4fa6:	4a04           	tstb %d4
    4fa8:	6672           	bnes 501c <fl_fopen+0xfe>
    4faa:	95ca           	subal %a2,%a2
    4fac:	2079 0000 aed6 	moveal aed6 <_fs+0x3a>,%a0
    4fb2:	b0fc 0000      	cmpaw #0,%a0
    4fb6:	6702           	beqs 4fba <fl_fopen+0x9c>
    4fb8:	4e90           	jsr %a0@
    4fba:	200a           	movel %a2,%d0
    4fbc:	4cee 3cfc ffac 	moveml %fp@(-84),%d2-%d7/%a2-%a5
    4fc2:	4e5e           	unlk %fp
    4fc4:	4e75           	rts
    4fc6:	7401           	moveq #1,%d2
    4fc8:	6094           	bras 4f5e <fl_fopen+0x40>
    4fca:	4eb9 0000 4dd4 	jsr 4dd4 <fl_init>
    4fd0:	4ab9 0000 ff2e 	tstl ff2e <_filelib_valid>
    4fd6:	6600 ff66      	bnew 4f3e <fl_fopen+0x20>
    4fda:	7006           	moveq #6,%d0
    4fdc:	23c0 0000 aba4 	movel %d0,aba4 <errno>
    4fe2:	95ca           	subal %a2,%a2
    4fe4:	200a           	movel %a2,%d0
    4fe6:	4cee 3cfc ffac 	moveml %fp@(-84),%d2-%d7/%a2-%a5
    4fec:	4e5e           	unlk %fp
    4fee:	4e75           	rts
    4ff0:	2f2e 0008      	movel %fp@(8),%sp@-
    4ff4:	4eb9 0000 4c3e 	jsr 4c3e <_open_file>
    4ffa:	2440           	moveal %d0,%a2
    4ffc:	588f           	addql #4,%sp
    4ffe:	4a80           	tstl %d0
    5000:	6700 00fc      	beqw 50fe <fl_fopen+0x1e0>
    5004:	4a04           	tstb %d4
    5006:	6708           	beqs 5010 <fl_fopen+0xf2>
    5008:	0803 000b      	btst #11,%d3
    500c:	6600 00c4      	bnew 50d2 <fl_fopen+0x1b4>
    5010:	1542 0838      	moveb %d2,%a2@(2104)
    5014:	6096           	bras 4fac <fl_fopen+0x8e>
    5016:	7403           	moveq #3,%d2
    5018:	6000 ff44      	braw 4f5e <fl_fopen+0x40>
    501c:	0283 0000 0800 	andil #2048,%d3
    5022:	4ab9 0000 aece 	tstl aece <_fs+0x32>
    5028:	6700 0084      	beqw 50ae <fl_fopen+0x190>
    502c:	4eb9 0000 4aaa 	jsr 4aaa <_allocate_file>
    5032:	2440           	moveal %d0,%a2
    5034:	4a80           	tstl %d0
    5036:	6776           	beqs 50ae <fl_fopen+0x190>
    5038:	47ea 0014      	lea %a2@(20),%a3
    503c:	283c 0000 0104 	movel #260,%d4
    5042:	2f04           	movel %d4,%sp@-
    5044:	42a7           	clrl %sp@-
    5046:	2f0b           	movel %a3,%sp@-
    5048:	49f9 0000 2634 	lea 2634 <memset>,%a4
    504e:	4e94           	jsr %a4@
    5050:	2c0a           	movel %a2,%d6
    5052:	0686 0000 0118 	addil #280,%d6
    5058:	2f04           	movel %d4,%sp@-
    505a:	42a7           	clrl %sp@-
    505c:	2f06           	movel %d6,%sp@-
    505e:	4e94           	jsr %a4@
    5060:	2f04           	movel %d4,%sp@-
    5062:	2f06           	movel %d6,%sp@-
    5064:	2f04           	movel %d4,%sp@-
    5066:	2f0b           	movel %a3,%sp@-
    5068:	2f2e 0008      	movel %fp@(8),%sp@-
    506c:	4eb9 0000 6852 	jsr 6852 <fatfs_split_path>
    5072:	4fef 002c      	lea %sp@(44),%sp
    5076:	5280           	addql #1,%d0
    5078:	6700 01d4      	beqw 524e <fl_fopen+0x330>
    507c:	4a2a 0014      	tstb %a2@(20)
    5080:	6700 00ee      	beqw 5170 <fl_fopen+0x252>
    5084:	2f0a           	movel %a2,%sp@-
    5086:	2f0b           	movel %a3,%sp@-
    5088:	4eb9 0000 46e8 	jsr 46e8 <_open_directory>
    508e:	508f           	addql #8,%sp
    5090:	4a80           	tstl %d0
    5092:	6600 00ec      	bnew 5180 <fl_fopen+0x262>
    5096:	2f0a           	movel %a2,%sp@-
    5098:	4eb9 0000 4b72 	jsr 4b72 <_free_file>
    509e:	7002           	moveq #2,%d0
    50a0:	23c0 0000 aba4 	movel %d0,aba4 <errno>
    50a6:	588f           	addql #4,%sp
    50a8:	4a07           	tstb %d7
    50aa:	6600 fefe      	bnew 4faa <fl_fopen+0x8c>
    50ae:	1002           	moveb %d2,%d0
    50b0:	0200 0006      	andib #6,%d0
    50b4:	6700 fef4      	beqw 4faa <fl_fopen+0x8c>
    50b8:	2f2e 0008      	movel %fp@(8),%sp@-
    50bc:	4eb9 0000 4c3e 	jsr 4c3e <_open_file>
    50c2:	2440           	moveal %d0,%a2
    50c4:	588f           	addql #4,%sp
    50c6:	4a80           	tstl %d0
    50c8:	6700 fee0      	beqw 4faa <fl_fopen+0x8c>
    50cc:	4a83           	tstl %d3
    50ce:	6700 ff40      	beqw 5010 <fl_fopen+0xf2>
    50d2:	2f0a           	movel %a2,%sp@-
    50d4:	4eb9 0000 4b72 	jsr 4b72 <_free_file>
    50da:	588f           	addql #4,%sp
    50dc:	7011           	moveq #17,%d0
    50de:	23c0 0000 aba4 	movel %d0,aba4 <errno>
    50e4:	95ca           	subal %a2,%a2
    50e6:	6000 fefc      	braw 4fe4 <fl_fopen+0xc6>
    50ea:	7402           	moveq #2,%d2
    50ec:	6000 fe70      	braw 4f5e <fl_fopen+0x40>
    50f0:	700d           	moveq #13,%d0
    50f2:	23c0 0000 aba4 	movel %d0,aba4 <errno>
    50f8:	95ca           	subal %a2,%a2
    50fa:	6000 fee8      	braw 4fe4 <fl_fopen+0xc6>
    50fe:	4a04           	tstb %d4
    5100:	6700 fea8      	beqw 4faa <fl_fopen+0x8c>
    5104:	4ab9 0000 aece 	tstl aece <_fs+0x32>
    510a:	6700 fe9e      	beqw 4faa <fl_fopen+0x8c>
    510e:	4eb9 0000 4aaa 	jsr 4aaa <_allocate_file>
    5114:	2440           	moveal %d0,%a2
    5116:	4a80           	tstl %d0
    5118:	6700 fe90      	beqw 4faa <fl_fopen+0x8c>
    511c:	47ea 0014      	lea %a2@(20),%a3
    5120:	283c 0000 0104 	movel #260,%d4
    5126:	2f04           	movel %d4,%sp@-
    5128:	42a7           	clrl %sp@-
    512a:	2f0b           	movel %a3,%sp@-
    512c:	49f9 0000 2634 	lea 2634 <memset>,%a4
    5132:	4e94           	jsr %a4@
    5134:	2c0a           	movel %a2,%d6
    5136:	0686 0000 0118 	addil #280,%d6
    513c:	2f04           	movel %d4,%sp@-
    513e:	42a7           	clrl %sp@-
    5140:	2f06           	movel %d6,%sp@-
    5142:	4e94           	jsr %a4@
    5144:	2f04           	movel %d4,%sp@-
    5146:	2f06           	movel %d6,%sp@-
    5148:	2f04           	movel %d4,%sp@-
    514a:	2f0b           	movel %a3,%sp@-
    514c:	2f2e 0008      	movel %fp@(8),%sp@-
    5150:	4eb9 0000 6852 	jsr 6852 <fatfs_split_path>
    5156:	4fef 002c      	lea %sp@(44),%sp
    515a:	5280           	addql #1,%d0
    515c:	6600 01f2      	bnew 5350 <fl_fopen+0x432>
    5160:	2f0a           	movel %a2,%sp@-
    5162:	4eb9 0000 4b72 	jsr 4b72 <_free_file>
    5168:	588f           	addql #4,%sp
    516a:	95ca           	subal %a2,%a2
    516c:	6000 fe3e      	braw 4fac <fl_fopen+0x8e>
    5170:	4879 0000 ae9c 	pea ae9c <_fs>
    5176:	4eb9 0000 7bf4 	jsr 7bf4 <fatfs_get_root_cluster>
    517c:	2480           	movel %d0,%a2@
    517e:	588f           	addql #4,%sp
    5180:	4a83           	tstl %d3
    5182:	671e           	beqs 51a2 <fl_fopen+0x284>
    5184:	486e ffe0      	pea %fp@(-32)
    5188:	2f06           	movel %d6,%sp@-
    518a:	2f12           	movel %a2@,%sp@-
    518c:	4879 0000 ae9c 	pea ae9c <_fs>
    5192:	4eb9 0000 7bfe 	jsr 7bfe <fatfs_get_file_entry>
    5198:	4fef 0010      	lea %sp@(16),%sp
    519c:	5380           	subql #1,%d0
    519e:	6700 00c6      	beqw 5266 <fl_fopen+0x348>
    51a2:	42aa 0004      	clrl %a2@(4)
    51a6:	4878 0001      	pea 1 <DUART_MR1A+0x1>
    51aa:	486a 0004      	pea %a2@(4)
    51ae:	4878 0001      	pea 1 <DUART_MR1A+0x1>
    51b2:	4879 0000 ae9c 	pea ae9c <_fs>
    51b8:	4eb9 0000 7300 	jsr 7300 <fatfs_allocate_free_space>
    51be:	4fef 0010      	lea %sp@(16),%sp
    51c2:	4a80           	tstl %d0
    51c4:	6700 0164      	beqw 532a <fl_fopen+0x40c>
    51c8:	2f06           	movel %d6,%sp@-
    51ca:	47ee ffd5      	lea %fp@(-43),%a3
    51ce:	2f0b           	movel %a3,%sp@-
    51d0:	49f9 0000 63f4 	lea 63f4 <fatfs_lfn_create_sfn>,%a4
    51d6:	4e94           	jsr %a4@
    51d8:	2a0a           	movel %a2,%d5
    51da:	0685 0000 021c 	addil #540,%d5
    51e0:	2045           	moveal %d5,%a0
    51e2:	10d3           	moveb %a3@,%a0@+
    51e4:	10ee ffd6      	moveb %fp@(-42),%a0@+
    51e8:	10ee ffd7      	moveb %fp@(-41),%a0@+
    51ec:	10ee ffd8      	moveb %fp@(-40),%a0@+
    51f0:	10ee ffd9      	moveb %fp@(-39),%a0@+
    51f4:	10ee ffda      	moveb %fp@(-38),%a0@+
    51f8:	10ee ffdb      	moveb %fp@(-37),%a0@+
    51fc:	10ee ffdc      	moveb %fp@(-36),%a0@+
    5200:	10ee ffdd      	moveb %fp@(-35),%a0@+
    5204:	10ee ffde      	moveb %fp@(-34),%a0@+
    5208:	10ae ffdf      	moveb %fp@(-33),%a0@
    520c:	508f           	addql #8,%sp
    520e:	7800           	moveq #0,%d4
    5210:	4bf9 0000 7dec 	lea 7dec <fatfs_sfn_exists>,%a5
    5216:	2f05           	movel %d5,%sp@-
    5218:	2f12           	movel %a2@,%sp@-
    521a:	4879 0000 ae9c 	pea ae9c <_fs>
    5220:	4e95           	jsr %a5@
    5222:	4fef 000c      	lea %sp@(12),%sp
    5226:	4a80           	tstl %d0
    5228:	6762           	beqs 528c <fl_fopen+0x36e>
    522a:	5284           	addql #1,%d4
    522c:	0c84 0000 270f 	cmpil #9999,%d4
    5232:	6700 00be      	beqw 52f2 <fl_fopen+0x3d4>
    5236:	2f06           	movel %d6,%sp@-
    5238:	2f0b           	movel %a3,%sp@-
    523a:	4e94           	jsr %a4@
    523c:	2f04           	movel %d4,%sp@-
    523e:	2f0b           	movel %a3,%sp@-
    5240:	2f05           	movel %d5,%sp@-
    5242:	4eb9 0000 6524 	jsr 6524 <fatfs_lfn_generate_tail>
    5248:	4fef 0014      	lea %sp@(20),%sp
    524c:	60c8           	bras 5216 <fl_fopen+0x2f8>
    524e:	2f0a           	movel %a2,%sp@-
    5250:	4eb9 0000 4b72 	jsr 4b72 <_free_file>
    5256:	588f           	addql #4,%sp
    5258:	1002           	moveb %d2,%d0
    525a:	0200 0006      	andib #6,%d0
    525e:	6700 fd4a      	beqw 4faa <fl_fopen+0x8c>
    5262:	6000 fe54      	braw 50b8 <fl_fopen+0x19a>
    5266:	2f0a           	movel %a2,%sp@-
    5268:	4eb9 0000 4b72 	jsr 4b72 <_free_file>
    526e:	7011           	moveq #17,%d0
    5270:	23c0 0000 aba4 	movel %d0,aba4 <errno>
    5276:	588f           	addql #4,%sp
    5278:	4a07           	tstb %d7
    527a:	6600 fd2e      	bnew 4faa <fl_fopen+0x8c>
    527e:	1002           	moveb %d2,%d0
    5280:	0200 0006      	andib #6,%d0
    5284:	6700 fd24      	beqw 4faa <fl_fopen+0x8c>
    5288:	6000 fe2e      	braw 50b8 <fl_fopen+0x19a>
    528c:	42a7           	clrl %sp@-
    528e:	42a7           	clrl %sp@-
    5290:	2f2a 0004      	movel %a2@(4),%sp@-
    5294:	2f05           	movel %d5,%sp@-
    5296:	2f06           	movel %d6,%sp@-
    5298:	2f12           	movel %a2@,%sp@-
    529a:	4879 0000 ae9c 	pea ae9c <_fs>
    52a0:	4eb9 0000 740e 	jsr 740e <fatfs_add_file_entry>
    52a6:	4fef 001c      	lea %sp@(28),%sp
    52aa:	4a80           	tstl %d0
    52ac:	6744           	beqs 52f2 <fl_fopen+0x3d4>
    52ae:	42aa 000c      	clrl %a2@(12)
    52b2:	42aa 0008      	clrl %a2@(8)
    52b6:	72ff           	moveq #-1,%d1
    52b8:	2541 0830      	movel %d1,%a2@(2096)
    52bc:	42aa 0834      	clrl %a2@(2100)
    52c0:	42aa 0010      	clrl %a2@(16)
    52c4:	2541 0628      	movel %d1,%a2@(1576)
    52c8:	2541 062c      	movel %d1,%a2@(1580)
    52cc:	2f0a           	movel %a2,%sp@-
    52ce:	4879 0000 ae9c 	pea ae9c <_fs>
    52d4:	4eb9 0000 8080 	jsr 8080 <fatfs_cache_init>
    52da:	4879 0000 ae9c 	pea ae9c <_fs>
    52e0:	4eb9 0000 6d6a 	jsr 6d6a <fatfs_fat_purge>
    52e6:	4fef 000c      	lea %sp@(12),%sp
    52ea:	1542 0838      	moveb %d2,%a2@(2104)
    52ee:	6000 fcbc      	braw 4fac <fl_fopen+0x8e>
    52f2:	2f2a 0004      	movel %a2@(4),%sp@-
    52f6:	4879 0000 ae9c 	pea ae9c <_fs>
    52fc:	4eb9 0000 710a 	jsr 710a <fatfs_free_cluster_chain>
    5302:	2f0a           	movel %a2,%sp@-
    5304:	4eb9 0000 4b72 	jsr 4b72 <_free_file>
    530a:	701c           	moveq #28,%d0
    530c:	23c0 0000 aba4 	movel %d0,aba4 <errno>
    5312:	4fef 000c      	lea %sp@(12),%sp
    5316:	4a07           	tstb %d7
    5318:	6600 fc90      	bnew 4faa <fl_fopen+0x8c>
    531c:	1002           	moveb %d2,%d0
    531e:	0200 0006      	andib #6,%d0
    5322:	6700 fc86      	beqw 4faa <fl_fopen+0x8c>
    5326:	6000 fd90      	braw 50b8 <fl_fopen+0x19a>
    532a:	2f0a           	movel %a2,%sp@-
    532c:	4eb9 0000 4b72 	jsr 4b72 <_free_file>
    5332:	721c           	moveq #28,%d1
    5334:	23c1 0000 aba4 	movel %d1,aba4 <errno>
    533a:	588f           	addql #4,%sp
    533c:	4a07           	tstb %d7
    533e:	6600 fc6a      	bnew 4faa <fl_fopen+0x8c>
    5342:	1002           	moveb %d2,%d0
    5344:	0200 0006      	andib #6,%d0
    5348:	6700 fc60      	beqw 4faa <fl_fopen+0x8c>
    534c:	6000 fd6a      	braw 50b8 <fl_fopen+0x19a>
    5350:	0283 0000 0800 	andil #2048,%d3
    5356:	4a2a 0014      	tstb %a2@(20)
    535a:	6600 fd28      	bnew 5084 <fl_fopen+0x166>
    535e:	6000 fe10      	braw 5170 <fl_fopen+0x252>

00005362 <fl_fflush>:
    5362:	2f0a           	movel %a2,%sp@-
    5364:	246f 0008      	moveal %sp@(8),%a2
    5368:	4ab9 0000 ff32 	tstl ff32 <_filelib_init>
    536e:	672e           	beqs 539e <fl_fflush+0x3c>
    5370:	b4fc 0000      	cmpaw #0,%a2
    5374:	6722           	beqs 5398 <fl_fflush+0x36>
    5376:	2079 0000 aed2 	moveal aed2 <_fs+0x36>,%a0
    537c:	b0fc 0000      	cmpaw #0,%a0
    5380:	6702           	beqs 5384 <fl_fflush+0x22>
    5382:	4e90           	jsr %a0@
    5384:	4aaa 0834      	tstl %a2@(2100)
    5388:	661c           	bnes 53a6 <fl_fflush+0x44>
    538a:	2079 0000 aed6 	moveal aed6 <_fs+0x3a>,%a0
    5390:	b0fc 0000      	cmpaw #0,%a0
    5394:	6702           	beqs 5398 <fl_fflush+0x36>
    5396:	4e90           	jsr %a0@
    5398:	7000           	moveq #0,%d0
    539a:	245f           	moveal %sp@+,%a2
    539c:	4e75           	rts
    539e:	4eb9 0000 4dd4 	jsr 4dd4 <fl_init>
    53a4:	60ca           	bras 5370 <fl_fflush+0xe>
    53a6:	4878 0001      	pea 1 <DUART_MR1A+0x1>
    53aa:	486a 0630      	pea %a2@(1584)
    53ae:	2f2a 0830      	movel %a2@(2096),%sp@-
    53b2:	2f0a           	movel %a2,%sp@-
    53b4:	4eb9 0000 479c 	jsr 479c <_write_sectors>
    53ba:	4fef 0010      	lea %sp@(16),%sp
    53be:	4a80           	tstl %d0
    53c0:	67c8           	beqs 538a <fl_fflush+0x28>
    53c2:	42aa 0834      	clrl %a2@(2100)
    53c6:	2079 0000 aed6 	moveal aed6 <_fs+0x3a>,%a0
    53cc:	b0fc 0000      	cmpaw #0,%a0
    53d0:	66c4           	bnes 5396 <fl_fflush+0x34>
    53d2:	60c4           	bras 5398 <fl_fflush+0x36>

000053d4 <fl_fclose>:
    53d4:	2f0a           	movel %a2,%sp@-
    53d6:	246f 0008      	moveal %sp@(8),%a2
    53da:	4ab9 0000 ff32 	tstl ff32 <_filelib_init>
    53e0:	6768           	beqs 544a <fl_fclose+0x76>
    53e2:	b4fc 0000      	cmpaw #0,%a2
    53e6:	675e           	beqs 5446 <fl_fclose+0x72>
    53e8:	2079 0000 aed2 	moveal aed2 <_fs+0x36>,%a0
    53ee:	b0fc 0000      	cmpaw #0,%a0
    53f2:	6702           	beqs 53f6 <fl_fclose+0x22>
    53f4:	4e90           	jsr %a0@
    53f6:	2f0a           	movel %a2,%sp@-
    53f8:	4eb9 0000 5362 	jsr 5362 <fl_fflush>
    53fe:	588f           	addql #4,%sp
    5400:	4aaa 0010      	tstl %a2@(16)
    5404:	664c           	bnes 5452 <fl_fclose+0x7e>
    5406:	42aa 0008      	clrl %a2@(8)
    540a:	42aa 000c      	clrl %a2@(12)
    540e:	42aa 0004      	clrl %a2@(4)
    5412:	70ff           	moveq #-1,%d0
    5414:	2540 0830      	movel %d0,%a2@(2096)
    5418:	42aa 0834      	clrl %a2@(2100)
    541c:	42aa 0010      	clrl %a2@(16)
    5420:	2f0a           	movel %a2,%sp@-
    5422:	4eb9 0000 4b72 	jsr 4b72 <_free_file>
    5428:	4879 0000 ae9c 	pea ae9c <_fs>
    542e:	4eb9 0000 6d6a 	jsr 6d6a <fatfs_fat_purge>
    5434:	2279 0000 aed6 	moveal aed6 <_fs+0x3a>,%a1
    543a:	508f           	addql #8,%sp
    543c:	b2fc 0000      	cmpaw #0,%a1
    5440:	6704           	beqs 5446 <fl_fclose+0x72>
    5442:	245f           	moveal %sp@+,%a2
    5444:	4ed1           	jmp %a1@
    5446:	245f           	moveal %sp@+,%a2
    5448:	4e75           	rts
    544a:	4eb9 0000 4dd4 	jsr 4dd4 <fl_init>
    5450:	6090           	bras 53e2 <fl_fclose+0xe>
    5452:	2f2a 000c      	movel %a2@(12),%sp@-
    5456:	486a 021c      	pea %a2@(540)
    545a:	2f12           	movel %a2@,%sp@-
    545c:	4879 0000 ae9c 	pea ae9c <_fs>
    5462:	4eb9 0000 7e96 	jsr 7e96 <fatfs_update_file_length>
    5468:	4fef 0010      	lea %sp@(16),%sp
    546c:	42aa 0008      	clrl %a2@(8)
    5470:	42aa 000c      	clrl %a2@(12)
    5474:	42aa 0004      	clrl %a2@(4)
    5478:	70ff           	moveq #-1,%d0
    547a:	2540 0830      	movel %d0,%a2@(2096)
    547e:	42aa 0834      	clrl %a2@(2100)
    5482:	42aa 0010      	clrl %a2@(16)
    5486:	2f0a           	movel %a2,%sp@-
    5488:	4eb9 0000 4b72 	jsr 4b72 <_free_file>
    548e:	4879 0000 ae9c 	pea ae9c <_fs>
    5494:	4eb9 0000 6d6a 	jsr 6d6a <fatfs_fat_purge>
    549a:	2279 0000 aed6 	moveal aed6 <_fs+0x3a>,%a1
    54a0:	508f           	addql #8,%sp
    54a2:	b2fc 0000      	cmpaw #0,%a1
    54a6:	669a           	bnes 5442 <fl_fclose+0x6e>
    54a8:	609c           	bras 5446 <fl_fclose+0x72>

000054aa <fl_fread>:
    54aa:	48e7 3f38      	moveml %d2-%d7/%a2-%a4,%sp@-
    54ae:	286f 0028      	moveal %sp@(40),%a4
    54b2:	246f 0034      	moveal %sp@(52),%a2
    54b6:	2f2f 0030      	movel %sp@(48),%sp@-
    54ba:	2f2f 0030      	movel %sp@(48),%sp@-
    54be:	4eb9 0000 8230 	jsr 8230 <__mulsi3>
    54c4:	508f           	addql #8,%sp
    54c6:	2400           	movel %d0,%d2
    54c8:	4ab9 0000 ff32 	tstl ff32 <_filelib_init>
    54ce:	6700 00de      	beqw 55ae <fl_fread+0x104>
    54d2:	b4fc 0000      	cmpaw #0,%a2
    54d6:	6700 0138      	beqw 5610 <fl_fread+0x166>
    54da:	082a 0000 0838 	btst #0,%a2@(2104)
    54e0:	6700 011c      	beqw 55fe <fl_fread+0x154>
    54e4:	4a82           	tstl %d2
    54e6:	6700 00be      	beqw 55a6 <fl_fread+0xfc>
    54ea:	2c2a 0008      	movel %a2@(8),%d6
    54ee:	2a2a 000c      	movel %a2@(12),%d5
    54f2:	ba86           	cmpl %d6,%d5
    54f4:	6300 00ae      	blsw 55a4 <fl_fread+0xfa>
    54f8:	b8fc 0000      	cmpaw #0,%a4
    54fc:	6700 011e      	beqw 561c <fl_fread+0x172>
    5500:	2002           	movel %d2,%d0
    5502:	d086           	addl %d6,%d0
    5504:	b085           	cmpl %d5,%d0
    5506:	6300 00f0      	blsw 55f8 <fl_fread+0x14e>
    550a:	9a86           	subl %d6,%d5
    550c:	2806           	movel %d6,%d4
    550e:	7009           	moveq #9,%d0
    5510:	e0ac           	lsrl %d0,%d4
    5512:	0286 0000 01ff 	andil #511,%d6
    5518:	4a85           	tstl %d5
    551a:	6f00 0088      	blew 55a4 <fl_fread+0xfa>
    551e:	7400           	moveq #0,%d2
    5520:	4a86           	tstl %d6
    5522:	6766           	beqs 558a <fl_fread+0xe0>
    5524:	b8aa 0830      	cmpl %a2@(2096),%d4
    5528:	6774           	beqs 559e <fl_fread+0xf4>
    552a:	4aaa 0834      	tstl %a2@(2100)
    552e:	6600 0088      	bnew 55b8 <fl_fread+0x10e>
    5532:	4878 0001      	pea 1 <DUART_MR1A+0x1>
    5536:	47ea 0630      	lea %a2@(1584),%a3
    553a:	2f0b           	movel %a3,%sp@-
    553c:	2f04           	movel %d4,%sp@-
    553e:	2f0a           	movel %a2,%sp@-
    5540:	4eb9 0000 4974 	jsr 4974 <_read_sectors>
    5546:	4fef 0010      	lea %sp@(16),%sp
    554a:	4a80           	tstl %d0
    554c:	6758           	beqs 55a6 <fl_fread+0xfc>
    554e:	2544 0830      	movel %d4,%a2@(2096)
    5552:	42aa 0834      	clrl %a2@(2100)
    5556:	203c 0000 0200 	movel #512,%d0
    555c:	9086           	subl %d6,%d0
    555e:	2605           	movel %d5,%d3
    5560:	9682           	subl %d2,%d3
    5562:	b083           	cmpl %d3,%d0
    5564:	6c02           	bges 5568 <fl_fread+0xbe>
    5566:	2600           	movel %d0,%d3
    5568:	2e03           	movel %d3,%d7
    556a:	2f03           	movel %d3,%sp@-
    556c:	4873 6800      	pea %a3@(0,%d6:l)
    5570:	4874 2800      	pea %a4@(0,%d2:l)
    5574:	4eb9 0000 81c0 	jsr 81c0 <memcpy>
    557a:	5284           	addql #1,%d4
    557c:	4fef 000c      	lea %sp@(12),%sp
    5580:	d483           	addl %d3,%d2
    5582:	dfaa 0008      	addl %d7,%a2@(8)
    5586:	b485           	cmpl %d5,%d2
    5588:	6c1c           	bges 55a6 <fl_fread+0xfc>
    558a:	2005           	movel %d5,%d0
    558c:	9082           	subl %d2,%d0
    558e:	0c80 0000 01ff 	cmpil #511,%d0
    5594:	6e30           	bgts 55c6 <fl_fread+0x11c>
    5596:	7c00           	moveq #0,%d6
    5598:	b8aa 0830      	cmpl %a2@(2096),%d4
    559c:	668c           	bnes 552a <fl_fread+0x80>
    559e:	47ea 0630      	lea %a2@(1584),%a3
    55a2:	60b2           	bras 5556 <fl_fread+0xac>
    55a4:	7400           	moveq #0,%d2
    55a6:	2002           	movel %d2,%d0
    55a8:	4cdf 1cfc      	moveml %sp@+,%d2-%d7/%a2-%a4
    55ac:	4e75           	rts
    55ae:	4eb9 0000 4dd4 	jsr 4dd4 <fl_init>
    55b4:	6000 ff1c      	braw 54d2 <fl_fread+0x28>
    55b8:	2f0a           	movel %a2,%sp@-
    55ba:	4eb9 0000 5362 	jsr 5362 <fl_fflush>
    55c0:	588f           	addql #4,%sp
    55c2:	6000 ff6e      	braw 5532 <fl_fread+0x88>
    55c6:	7209           	moveq #9,%d1
    55c8:	e2a0           	asrl %d1,%d0
    55ca:	2f00           	movel %d0,%sp@-
    55cc:	4874 2800      	pea %a4@(0,%d2:l)
    55d0:	2f04           	movel %d4,%sp@-
    55d2:	2f0a           	movel %a2,%sp@-
    55d4:	4eb9 0000 4974 	jsr 4974 <_read_sectors>
    55da:	4fef 0010      	lea %sp@(16),%sp
    55de:	4a80           	tstl %d0
    55e0:	67c4           	beqs 55a6 <fl_fread+0xfc>
    55e2:	2e00           	movel %d0,%d7
    55e4:	7209           	moveq #9,%d1
    55e6:	e3af           	lsll %d1,%d7
    55e8:	2607           	movel %d7,%d3
    55ea:	d880           	addl %d0,%d4
    55ec:	d483           	addl %d3,%d2
    55ee:	dfaa 0008      	addl %d7,%a2@(8)
    55f2:	b485           	cmpl %d5,%d2
    55f4:	6d94           	blts 558a <fl_fread+0xe0>
    55f6:	60ae           	bras 55a6 <fl_fread+0xfc>
    55f8:	2a02           	movel %d2,%d5
    55fa:	6000 ff10      	braw 550c <fl_fread+0x62>
    55fe:	700d           	moveq #13,%d0
    5600:	23c0 0000 aba4 	movel %d0,aba4 <errno>
    5606:	74ff           	moveq #-1,%d2
    5608:	2002           	movel %d2,%d0
    560a:	4cdf 1cfc      	moveml %sp@+,%d2-%d7/%a2-%a4
    560e:	4e75           	rts
    5610:	7009           	moveq #9,%d0
    5612:	23c0 0000 aba4 	movel %d0,aba4 <errno>
    5618:	74ff           	moveq #-1,%d2
    561a:	60ec           	bras 5608 <fl_fread+0x15e>
    561c:	700c           	moveq #12,%d0
    561e:	23c0 0000 aba4 	movel %d0,aba4 <errno>
    5624:	74ff           	moveq #-1,%d2
    5626:	60e0           	bras 5608 <fl_fread+0x15e>

00005628 <fl_fgetc>:
    5628:	4e56 fffc      	linkw %fp,#-4
    562c:	422e ffff      	clrb %fp@(-1)
    5630:	2f2e 0008      	movel %fp@(8),%sp@-
    5634:	4878 0001      	pea 1 <DUART_MR1A+0x1>
    5638:	4878 0001      	pea 1 <DUART_MR1A+0x1>
    563c:	486e ffff      	pea %fp@(-1)
    5640:	4eb9 0000 54aa 	jsr 54aa <fl_fread>
    5646:	4fef 0010      	lea %sp@(16),%sp
    564a:	7201           	moveq #1,%d1
    564c:	b280           	cmpl %d0,%d1
    564e:	6704           	beqs 5654 <fl_fgetc+0x2c>
    5650:	4e5e           	unlk %fp
    5652:	4e75           	rts
    5654:	7000           	moveq #0,%d0
    5656:	102e ffff      	moveb %fp@(-1),%d0
    565a:	4e5e           	unlk %fp
    565c:	4e75           	rts

0000565e <fl_fgets>:
    565e:	598f           	subql #4,%sp
    5660:	48e7 3c38      	moveml %d2-%d5/%a2-%a4,%sp@-
    5664:	286f 0024      	moveal %sp@(36),%a4
    5668:	282f 002c      	movel %sp@(44),%d4
    566c:	4aaf 0028      	tstl %sp@(40)
    5670:	6f54           	bles 56c6 <fl_fgets+0x68>
    5672:	244c           	moveal %a4,%a2
    5674:	262f 0028      	movel %sp@(40),%d3
    5678:	5383           	subql #1,%d3
    567a:	7400           	moveq #0,%d2
    567c:	7a1f           	moveq #31,%d5
    567e:	da8f           	addl %sp,%d5
    5680:	47f9 0000 54aa 	lea 54aa <fl_fread>,%a3
    5686:	b682           	cmpl %d2,%d3
    5688:	6738           	beqs 56c2 <fl_fgets+0x64>
    568a:	422f 001f      	clrb %sp@(31)
    568e:	2f04           	movel %d4,%sp@-
    5690:	4878 0001      	pea 1 <DUART_MR1A+0x1>
    5694:	4878 0001      	pea 1 <DUART_MR1A+0x1>
    5698:	2f05           	movel %d5,%sp@-
    569a:	4e93           	jsr %a3@
    569c:	4fef 0010      	lea %sp@(16),%sp
    56a0:	7201           	moveq #1,%d1
    56a2:	b280           	cmpl %d0,%d1
    56a4:	672a           	beqs 56d0 <fl_fgets+0x72>
    56a6:	4a80           	tstl %d0
    56a8:	6d18           	blts 56c2 <fl_fgets+0x64>
    56aa:	5282           	addql #1,%d2
    56ac:	14c0           	moveb %d0,%a2@+
    56ae:	720a           	moveq #10,%d1
    56b0:	b280           	cmpl %d0,%d1
    56b2:	66d2           	bnes 5686 <fl_fgets+0x28>
    56b4:	4234 2800      	clrb %a4@(0,%d2:l)
    56b8:	200c           	movel %a4,%d0
    56ba:	4cdf 1c3c      	moveml %sp@+,%d2-%d5/%a2-%a4
    56be:	588f           	addql #4,%sp
    56c0:	4e75           	rts
    56c2:	4a82           	tstl %d2
    56c4:	66ee           	bnes 56b4 <fl_fgets+0x56>
    56c6:	7000           	moveq #0,%d0
    56c8:	4cdf 1c3c      	moveml %sp@+,%d2-%d5/%a2-%a4
    56cc:	588f           	addql #4,%sp
    56ce:	4e75           	rts
    56d0:	7000           	moveq #0,%d0
    56d2:	102f 001f      	moveb %sp@(31),%d0
    56d6:	5282           	addql #1,%d2
    56d8:	14c0           	moveb %d0,%a2@+
    56da:	720a           	moveq #10,%d1
    56dc:	b280           	cmpl %d0,%d1
    56de:	66a6           	bnes 5686 <fl_fgets+0x28>
    56e0:	60d2           	bras 56b4 <fl_fgets+0x56>

000056e2 <fl_fseek>:
    56e2:	48e7 3020      	moveml %d2-%d3/%a2,%sp@-
    56e6:	246f 0010      	moveal %sp@(16),%a2
    56ea:	262f 0014      	movel %sp@(20),%d3
    56ee:	242f 0018      	movel %sp@(24),%d2
    56f2:	4ab9 0000 ff32 	tstl ff32 <_filelib_init>
    56f8:	6752           	beqs 574c <fl_fseek+0x6a>
    56fa:	b4fc 0000      	cmpaw #0,%a2
    56fe:	6700 00e4      	beqw 57e4 <fl_fseek+0x102>
    5702:	7002           	moveq #2,%d0
    5704:	b082           	cmpl %d2,%d0
    5706:	675a           	beqs 5762 <fl_fseek+0x80>
    5708:	2079 0000 aed2 	moveal aed2 <_fs+0x36>,%a0
    570e:	b0fc 0000      	cmpaw #0,%a0
    5712:	6774           	beqs 5788 <fl_fseek+0xa6>
    5714:	4e90           	jsr %a0@
    5716:	70ff           	moveq #-1,%d0
    5718:	2540 0830      	movel %d0,%a2@(2096)
    571c:	42aa 0834      	clrl %a2@(2100)
    5720:	4a82           	tstl %d2
    5722:	6630           	bnes 5754 <fl_fseek+0x72>
    5724:	2543 0008      	movel %d3,%a2@(8)
    5728:	202a 000c      	movel %a2@(12),%d0
    572c:	b083           	cmpl %d3,%d0
    572e:	6404           	bccs 5734 <fl_fseek+0x52>
    5730:	2540 0008      	movel %d0,%a2@(8)
    5734:	7400           	moveq #0,%d2
    5736:	2079 0000 aed6 	moveal aed6 <_fs+0x3a>,%a0
    573c:	b0fc 0000      	cmpaw #0,%a0
    5740:	6702           	beqs 5744 <fl_fseek+0x62>
    5742:	4e90           	jsr %a0@
    5744:	2002           	movel %d2,%d0
    5746:	4cdf 040c      	moveml %sp@+,%d2-%d3/%a2
    574a:	4e75           	rts
    574c:	4eb9 0000 4dd4 	jsr 4dd4 <fl_init>
    5752:	60a6           	bras 56fa <fl_fseek+0x18>
    5754:	7001           	moveq #1,%d0
    5756:	b082           	cmpl %d2,%d0
    5758:	6740           	beqs 579a <fl_fseek+0xb8>
    575a:	5582           	subql #2,%d2
    575c:	6720           	beqs 577e <fl_fseek+0x9c>
    575e:	74ff           	moveq #-1,%d2
    5760:	60d4           	bras 5736 <fl_fseek+0x54>
    5762:	4a83           	tstl %d3
    5764:	667e           	bnes 57e4 <fl_fseek+0x102>
    5766:	2079 0000 aed2 	moveal aed2 <_fs+0x36>,%a0
    576c:	b0fc 0000      	cmpaw #0,%a0
    5770:	6742           	beqs 57b4 <fl_fseek+0xd2>
    5772:	4e90           	jsr %a0@
    5774:	70ff           	moveq #-1,%d0
    5776:	2540 0830      	movel %d0,%a2@(2096)
    577a:	42aa 0834      	clrl %a2@(2100)
    577e:	256a 000c 0008 	movel %a2@(12),%a2@(8)
    5784:	7400           	moveq #0,%d2
    5786:	60ae           	bras 5736 <fl_fseek+0x54>
    5788:	70ff           	moveq #-1,%d0
    578a:	2540 0830      	movel %d0,%a2@(2096)
    578e:	42aa 0834      	clrl %a2@(2100)
    5792:	4a82           	tstl %d2
    5794:	678e           	beqs 5724 <fl_fseek+0x42>
    5796:	5382           	subql #1,%d2
    5798:	66c4           	bnes 575e <fl_fseek+0x7c>
    579a:	202a 0008      	movel %a2@(8),%d0
    579e:	4a83           	tstl %d3
    57a0:	6d24           	blts 57c6 <fl_fseek+0xe4>
    57a2:	d680           	addl %d0,%d3
    57a4:	2543 0008      	movel %d3,%a2@(8)
    57a8:	202a 000c      	movel %a2@(12),%d0
    57ac:	b083           	cmpl %d3,%d0
    57ae:	6484           	bccs 5734 <fl_fseek+0x52>
    57b0:	6000 ff7e      	braw 5730 <fl_fseek+0x4e>
    57b4:	70ff           	moveq #-1,%d0
    57b6:	2540 0830      	movel %d0,%a2@(2096)
    57ba:	42aa 0834      	clrl %a2@(2100)
    57be:	256a 000c 0008 	movel %a2@(12),%a2@(8)
    57c4:	60be           	bras 5784 <fl_fseek+0xa2>
    57c6:	2203           	movel %d3,%d1
    57c8:	4481           	negl %d1
    57ca:	b081           	cmpl %d1,%d0
    57cc:	640a           	bccs 57d8 <fl_fseek+0xf6>
    57ce:	42aa 0008      	clrl %a2@(8)
    57d2:	7400           	moveq #0,%d2
    57d4:	6000 ff60      	braw 5736 <fl_fseek+0x54>
    57d8:	d680           	addl %d0,%d3
    57da:	2543 0008      	movel %d3,%a2@(8)
    57de:	7400           	moveq #0,%d2
    57e0:	6000 ff54      	braw 5736 <fl_fseek+0x54>
    57e4:	74ff           	moveq #-1,%d2
    57e6:	2002           	movel %d2,%d0
    57e8:	4cdf 040c      	moveml %sp@+,%d2-%d3/%a2
    57ec:	4e75           	rts

000057ee <fl_fgetpos>:
    57ee:	2f0a           	movel %a2,%sp@-
    57f0:	246f 0008      	moveal %sp@(8),%a2
    57f4:	b4fc 0000      	cmpaw #0,%a2
    57f8:	672a           	beqs 5824 <fl_fgetpos+0x36>
    57fa:	2079 0000 aed2 	moveal aed2 <_fs+0x36>,%a0
    5800:	b0fc 0000      	cmpaw #0,%a0
    5804:	6702           	beqs 5808 <fl_fgetpos+0x1a>
    5806:	4e90           	jsr %a0@
    5808:	206f 000c      	moveal %sp@(12),%a0
    580c:	20aa 0008      	movel %a2@(8),%a0@
    5810:	2079 0000 aed6 	moveal aed6 <_fs+0x3a>,%a0
    5816:	b0fc 0000      	cmpaw #0,%a0
    581a:	6702           	beqs 581e <fl_fgetpos+0x30>
    581c:	4e90           	jsr %a0@
    581e:	7000           	moveq #0,%d0
    5820:	245f           	moveal %sp@+,%a2
    5822:	4e75           	rts
    5824:	70ff           	moveq #-1,%d0
    5826:	245f           	moveal %sp@+,%a2
    5828:	4e75           	rts

0000582a <fl_ftell>:
    582a:	2f0a           	movel %a2,%sp@-
    582c:	246f 0008      	moveal %sp@(8),%a2
    5830:	b4fc 0000      	cmpaw #0,%a2
    5834:	6726           	beqs 585c <fl_ftell+0x32>
    5836:	2079 0000 aed2 	moveal aed2 <_fs+0x36>,%a0
    583c:	b0fc 0000      	cmpaw #0,%a0
    5840:	6702           	beqs 5844 <fl_ftell+0x1a>
    5842:	4e90           	jsr %a0@
    5844:	2079 0000 aed6 	moveal aed6 <_fs+0x3a>,%a0
    584a:	246a 0008      	moveal %a2@(8),%a2
    584e:	b0fc 0000      	cmpaw #0,%a0
    5852:	6702           	beqs 5856 <fl_ftell+0x2c>
    5854:	4e90           	jsr %a0@
    5856:	200a           	movel %a2,%d0
    5858:	245f           	moveal %sp@+,%a2
    585a:	4e75           	rts
    585c:	95ca           	subal %a2,%a2
    585e:	200a           	movel %a2,%d0
    5860:	245f           	moveal %sp@+,%a2
    5862:	4e75           	rts

00005864 <fl_feof>:
    5864:	2f0a           	movel %a2,%sp@-
    5866:	2f02           	movel %d2,%sp@-
    5868:	246f 000c      	moveal %sp@(12),%a2
    586c:	b4fc 0000      	cmpaw #0,%a2
    5870:	6732           	beqs 58a4 <fl_feof+0x40>
    5872:	2079 0000 aed2 	moveal aed2 <_fs+0x36>,%a0
    5878:	b0fc 0000      	cmpaw #0,%a0
    587c:	6702           	beqs 5880 <fl_feof+0x1c>
    587e:	4e90           	jsr %a0@
    5880:	202a 0008      	movel %a2@(8),%d0
    5884:	b0aa 000c      	cmpl %a2@(12),%d0
    5888:	57c2           	seq %d2
    588a:	4882           	extw %d2
    588c:	48c2           	extl %d2
    588e:	2079 0000 aed6 	moveal aed6 <_fs+0x3a>,%a0
    5894:	b0fc 0000      	cmpaw #0,%a0
    5898:	6702           	beqs 589c <fl_feof+0x38>
    589a:	4e90           	jsr %a0@
    589c:	2002           	movel %d2,%d0
    589e:	241f           	movel %sp@+,%d2
    58a0:	245f           	moveal %sp@+,%a2
    58a2:	4e75           	rts
    58a4:	74ff           	moveq #-1,%d2
    58a6:	2002           	movel %d2,%d0
    58a8:	241f           	movel %sp@+,%d2
    58aa:	245f           	moveal %sp@+,%a2
    58ac:	4e75           	rts

000058ae <fl_fwrite>:
    58ae:	48e7 3e38      	moveml %d2-%d6/%a2-%a4,%sp@-
    58b2:	266f 0024      	moveal %sp@(36),%a3
    58b6:	246f 0030      	moveal %sp@(48),%a2
    58ba:	2f2f 002c      	movel %sp@(44),%sp@-
    58be:	2f2f 002c      	movel %sp@(44),%sp@-
    58c2:	4eb9 0000 8230 	jsr 8230 <__mulsi3>
    58c8:	508f           	addql #8,%sp
    58ca:	2a00           	movel %d0,%d5
    58cc:	4ab9 0000 ff32 	tstl ff32 <_filelib_init>
    58d2:	6700 01f8      	beqw 5acc <fl_fwrite+0x21e>
    58d6:	b4fc 0000      	cmpaw #0,%a2
    58da:	6700 0222      	beqw 5afe <fl_fwrite+0x250>
    58de:	2079 0000 aed2 	moveal aed2 <_fs+0x36>,%a0
    58e4:	b0fc 0000      	cmpaw #0,%a0
    58e8:	6702           	beqs 58ec <fl_fwrite+0x3e>
    58ea:	4e90           	jsr %a0@
    58ec:	102a 0838      	moveb %a2@(2104),%d0
    58f0:	0800 0001      	btst #1,%d0
    58f4:	6700 01e8      	beqw 5ade <fl_fwrite+0x230>
    58f8:	0800 0002      	btst #2,%d0
    58fc:	6700 010e      	beqw 5a0c <fl_fwrite+0x15e>
    5900:	2c2a 000c      	movel %a2@(12),%d6
    5904:	2546 0008      	movel %d6,%a2@(8)
    5908:	2806           	movel %d6,%d4
    590a:	7009           	moveq #9,%d0
    590c:	e0ac           	lsrl %d0,%d4
    590e:	0286 0000 01ff 	andil #511,%d6
    5914:	4a85           	tstl %d5
    5916:	6700 00de      	beqw 59f6 <fl_fwrite+0x148>
    591a:	202a 0830      	movel %a2@(2096),%d0
    591e:	4a86           	tstl %d6
    5920:	6700 010a      	beqw 5a2c <fl_fwrite+0x17e>
    5924:	263c 0000 0200 	movel #512,%d3
    592a:	9686           	subl %d6,%d3
    592c:	ba83           	cmpl %d3,%d5
    592e:	6402           	bccs 5932 <fl_fwrite+0x84>
    5930:	2605           	movel %d5,%d3
    5932:	7400           	moveq #0,%d2
    5934:	b084           	cmpl %d4,%d0
    5936:	6700 010a      	beqw 5a42 <fl_fwrite+0x194>
    593a:	4aaa 0834      	tstl %a2@(2100)
    593e:	6600 014a      	bnew 5a8a <fl_fwrite+0x1dc>
    5942:	49ea 0630      	lea %a2@(1584),%a4
    5946:	4878 0001      	pea 1 <DUART_MR1A+0x1>
    594a:	2f0c           	movel %a4,%sp@-
    594c:	2f04           	movel %d4,%sp@-
    594e:	2f0a           	movel %a2,%sp@-
    5950:	4eb9 0000 4974 	jsr 4974 <_read_sectors>
    5956:	4fef 0010      	lea %sp@(16),%sp
    595a:	4a80           	tstl %d0
    595c:	6700 010e      	beqw 5a6c <fl_fwrite+0x1be>
    5960:	2544 0830      	movel %d4,%a2@(2096)
    5964:	42aa 0834      	clrl %a2@(2100)
    5968:	2f03           	movel %d3,%sp@-
    596a:	4873 2800      	pea %a3@(0,%d2:l)
    596e:	4874 6800      	pea %a4@(0,%d6:l)
    5972:	4eb9 0000 81c0 	jsr 81c0 <memcpy>
    5978:	7001           	moveq #1,%d0
    597a:	2540 0834      	movel %d0,%a2@(2100)
    597e:	d483           	addl %d3,%d2
    5980:	d7aa 0008      	addl %d3,%a2@(8)
    5984:	5284           	addql #1,%d4
    5986:	4fef 000c      	lea %sp@(12),%sp
    598a:	ba82           	cmpl %d2,%d5
    598c:	6300 0148      	blsw 5ad6 <fl_fwrite+0x228>
    5990:	2605           	movel %d5,%d3
    5992:	9682           	subl %d2,%d3
    5994:	202a 0830      	movel %a2@(2096),%d0
    5998:	0c83 0000 01ff 	cmpil #511,%d3
    599e:	6300 009a      	blsw 5a3a <fl_fwrite+0x18c>
    59a2:	5280           	addql #1,%d0
    59a4:	6712           	beqs 59b8 <fl_fwrite+0x10a>
    59a6:	4aaa 0834      	tstl %a2@(2100)
    59aa:	6600 0108      	bnew 5ab4 <fl_fwrite+0x206>
    59ae:	70ff           	moveq #-1,%d0
    59b0:	2540 0830      	movel %d0,%a2@(2096)
    59b4:	42aa 0834      	clrl %a2@(2100)
    59b8:	7209           	moveq #9,%d1
    59ba:	e2ab           	lsrl %d1,%d3
    59bc:	2f03           	movel %d3,%sp@-
    59be:	4873 2800      	pea %a3@(0,%d2:l)
    59c2:	2f04           	movel %d4,%sp@-
    59c4:	2f0a           	movel %a2,%sp@-
    59c6:	4eb9 0000 479c 	jsr 479c <_write_sectors>
    59cc:	2200           	movel %d0,%d1
    59ce:	7609           	moveq #9,%d3
    59d0:	e7a9           	lsll %d3,%d1
    59d2:	d481           	addl %d1,%d2
    59d4:	d2aa 0008      	addl %a2@(8),%d1
    59d8:	2541 0008      	movel %d1,%a2@(8)
    59dc:	d880           	addl %d0,%d4
    59de:	4fef 0010      	lea %sp@(16),%sp
    59e2:	4a80           	tstl %d0
    59e4:	66a4           	bnes 598a <fl_fwrite+0xdc>
    59e6:	b2aa 000c      	cmpl %a2@(12),%d1
    59ea:	630a           	blss 59f6 <fl_fwrite+0x148>
    59ec:	2541 000c      	movel %d1,%a2@(12)
    59f0:	7201           	moveq #1,%d1
    59f2:	2541 0010      	movel %d1,%a2@(16)
    59f6:	2079 0000 aed6 	moveal aed6 <_fs+0x3a>,%a0
    59fc:	b0fc 0000      	cmpaw #0,%a0
    5a00:	6702           	beqs 5a04 <fl_fwrite+0x156>
    5a02:	4e90           	jsr %a0@
    5a04:	2005           	movel %d5,%d0
    5a06:	4cdf 1c7c      	moveml %sp@+,%d2-%d6/%a2-%a4
    5a0a:	4e75           	rts
    5a0c:	222a 0008      	movel %a2@(8),%d1
    5a10:	2801           	movel %d1,%d4
    5a12:	7609           	moveq #9,%d3
    5a14:	e6ac           	lsrl %d3,%d4
    5a16:	2c01           	movel %d1,%d6
    5a18:	0286 0000 01ff 	andil #511,%d6
    5a1e:	4a85           	tstl %d5
    5a20:	67c4           	beqs 59e6 <fl_fwrite+0x138>
    5a22:	202a 0830      	movel %a2@(2096),%d0
    5a26:	4a86           	tstl %d6
    5a28:	6600 fefa      	bnew 5924 <fl_fwrite+0x76>
    5a2c:	2605           	movel %d5,%d3
    5a2e:	7400           	moveq #0,%d2
    5a30:	0c83 0000 01ff 	cmpil #511,%d3
    5a36:	6200 ff6a      	bhiw 59a2 <fl_fwrite+0xf4>
    5a3a:	7c00           	moveq #0,%d6
    5a3c:	b084           	cmpl %d4,%d0
    5a3e:	6600 fefa      	bnew 593a <fl_fwrite+0x8c>
    5a42:	49ea 0630      	lea %a2@(1584),%a4
    5a46:	2f03           	movel %d3,%sp@-
    5a48:	4873 2800      	pea %a3@(0,%d2:l)
    5a4c:	4874 6800      	pea %a4@(0,%d6:l)
    5a50:	4eb9 0000 81c0 	jsr 81c0 <memcpy>
    5a56:	7001           	moveq #1,%d0
    5a58:	2540 0834      	movel %d0,%a2@(2100)
    5a5c:	d483           	addl %d3,%d2
    5a5e:	d7aa 0008      	addl %d3,%a2@(8)
    5a62:	5284           	addql #1,%d4
    5a64:	4fef 000c      	lea %sp@(12),%sp
    5a68:	6000 ff20      	braw 598a <fl_fwrite+0xdc>
    5a6c:	4878 0200      	pea 200 <R_STOPCNTCMD+0x1e2>
    5a70:	42a7           	clrl %sp@-
    5a72:	2f0c           	movel %a4,%sp@-
    5a74:	4eb9 0000 2634 	jsr 2634 <memset>
    5a7a:	4fef 000c      	lea %sp@(12),%sp
    5a7e:	2544 0830      	movel %d4,%a2@(2096)
    5a82:	42aa 0834      	clrl %a2@(2100)
    5a86:	6000 fee0      	braw 5968 <fl_fwrite+0xba>
    5a8a:	2f0a           	movel %a2,%sp@-
    5a8c:	4eb9 0000 5362 	jsr 5362 <fl_fflush>
    5a92:	588f           	addql #4,%sp
    5a94:	49ea 0630      	lea %a2@(1584),%a4
    5a98:	4878 0001      	pea 1 <DUART_MR1A+0x1>
    5a9c:	2f0c           	movel %a4,%sp@-
    5a9e:	2f04           	movel %d4,%sp@-
    5aa0:	2f0a           	movel %a2,%sp@-
    5aa2:	4eb9 0000 4974 	jsr 4974 <_read_sectors>
    5aa8:	4fef 0010      	lea %sp@(16),%sp
    5aac:	4a80           	tstl %d0
    5aae:	6600 feb0      	bnew 5960 <fl_fwrite+0xb2>
    5ab2:	60b8           	bras 5a6c <fl_fwrite+0x1be>
    5ab4:	2f0a           	movel %a2,%sp@-
    5ab6:	4eb9 0000 5362 	jsr 5362 <fl_fflush>
    5abc:	588f           	addql #4,%sp
    5abe:	70ff           	moveq #-1,%d0
    5ac0:	2540 0830      	movel %d0,%a2@(2096)
    5ac4:	42aa 0834      	clrl %a2@(2100)
    5ac8:	6000 feee      	braw 59b8 <fl_fwrite+0x10a>
    5acc:	4eb9 0000 4dd4 	jsr 4dd4 <fl_init>
    5ad2:	6000 fe02      	braw 58d6 <fl_fwrite+0x28>
    5ad6:	222a 0008      	movel %a2@(8),%d1
    5ada:	6000 ff0a      	braw 59e6 <fl_fwrite+0x138>
    5ade:	2079 0000 aed6 	moveal aed6 <_fs+0x3a>,%a0
    5ae4:	b0fc 0000      	cmpaw #0,%a0
    5ae8:	6702           	beqs 5aec <fl_fwrite+0x23e>
    5aea:	4e90           	jsr %a0@
    5aec:	700d           	moveq #13,%d0
    5aee:	23c0 0000 aba4 	movel %d0,aba4 <errno>
    5af4:	7aff           	moveq #-1,%d5
    5af6:	2005           	movel %d5,%d0
    5af8:	4cdf 1c7c      	moveml %sp@+,%d2-%d6/%a2-%a4
    5afc:	4e75           	rts
    5afe:	7009           	moveq #9,%d0
    5b00:	23c0 0000 aba4 	movel %d0,aba4 <errno>
    5b06:	7aff           	moveq #-1,%d5
    5b08:	60ec           	bras 5af6 <fl_fwrite+0x248>

00005b0a <fl_fputc>:
    5b0a:	4e56 fffc      	linkw %fp,#-4
    5b0e:	2f02           	movel %d2,%sp@-
    5b10:	242e 0008      	movel %fp@(8),%d2
    5b14:	1d42 ffff      	moveb %d2,%fp@(-1)
    5b18:	2f2e 000c      	movel %fp@(12),%sp@-
    5b1c:	4878 0001      	pea 1 <DUART_MR1A+0x1>
    5b20:	4878 0001      	pea 1 <DUART_MR1A+0x1>
    5b24:	486e ffff      	pea %fp@(-1)
    5b28:	4eb9 0000 58ae 	jsr 58ae <fl_fwrite>
    5b2e:	4fef 0010      	lea %sp@(16),%sp
    5b32:	7201           	moveq #1,%d1
    5b34:	b280           	cmpl %d0,%d1
    5b36:	6708           	beqs 5b40 <fl_fputc+0x36>
    5b38:	242e fff8      	movel %fp@(-8),%d2
    5b3c:	4e5e           	unlk %fp
    5b3e:	4e75           	rts
    5b40:	2002           	movel %d2,%d0
    5b42:	242e fff8      	movel %fp@(-8),%d2
    5b46:	4e5e           	unlk %fp
    5b48:	4e75           	rts

00005b4a <fl_fputs>:
    5b4a:	2f02           	movel %d2,%sp@-
    5b4c:	242f 0008      	movel %sp@(8),%d2
    5b50:	2f02           	movel %d2,%sp@-
    5b52:	4eb9 0000 81ac 	jsr 81ac <strlen>
    5b58:	588f           	addql #4,%sp
    5b5a:	2f2f 000c      	movel %sp@(12),%sp@-
    5b5e:	2f00           	movel %d0,%sp@-
    5b60:	4878 0001      	pea 1 <DUART_MR1A+0x1>
    5b64:	2f02           	movel %d2,%sp@-
    5b66:	4eb9 0000 58ae 	jsr 58ae <fl_fwrite>
    5b6c:	4fef 0010      	lea %sp@(16),%sp
    5b70:	241f           	movel %sp@+,%d2
    5b72:	4e75           	rts

00005b74 <fl_remove>:
    5b74:	48e7 203c      	moveml %d2/%a2-%a5,%sp@-
    5b78:	2079 0000 aed2 	moveal aed2 <_fs+0x36>,%a0
    5b7e:	b0fc 0000      	cmpaw #0,%a0
    5b82:	6702           	beqs 5b86 <fl_remove+0x12>
    5b84:	4e90           	jsr %a0@
    5b86:	42a7           	clrl %sp@-
    5b88:	2f2f 001c      	movel %sp@(28),%sp@-
    5b8c:	4eb9 0000 4f1e 	jsr 4f1e <fl_fopen>
    5b92:	2640           	moveal %d0,%a3
    5b94:	508f           	addql #8,%sp
    5b96:	4a80           	tstl %d0
    5b98:	6700 00a0      	beqw 5c3a <fl_remove+0xc6>
    5b9c:	2479 0000 ae94 	moveal ae94 <_open_file_list>,%a2
    5ba2:	b4fc 0000      	cmpaw #0,%a2
    5ba6:	6732           	beqs 5bda <fl_remove+0x66>
    5ba8:	4beb 0014      	lea %a3@(20),%a5
    5bac:	49f9 0000 68f6 	lea 68f6 <fatfs_compare_names>,%a4
    5bb2:	2400           	movel %d0,%d2
    5bb4:	0682 0000 0118 	addil #280,%d2
    5bba:	41ea f7c6      	lea %a2@(-2106),%a0
    5bbe:	b1cb           	cmpal %a3,%a0
    5bc0:	670e           	beqs 5bd0 <fl_remove+0x5c>
    5bc2:	2f0d           	movel %a5,%sp@-
    5bc4:	4868 0014      	pea %a0@(20)
    5bc8:	4e94           	jsr %a4@
    5bca:	508f           	addql #8,%sp
    5bcc:	4a80           	tstl %d0
    5bce:	665c           	bnes 5c2c <fl_remove+0xb8>
    5bd0:	246a 0004      	moveal %a2@(4),%a2
    5bd4:	b4fc 0000      	cmpaw #0,%a2
    5bd8:	66e0           	bnes 5bba <fl_remove+0x46>
    5bda:	2f2b 0004      	movel %a3@(4),%sp@-
    5bde:	4879 0000 ae9c 	pea ae9c <_fs>
    5be4:	4eb9 0000 710a 	jsr 710a <fatfs_free_cluster_chain>
    5bea:	508f           	addql #8,%sp
    5bec:	4a80           	tstl %d0
    5bee:	674a           	beqs 5c3a <fl_remove+0xc6>
    5bf0:	486b 021c      	pea %a3@(540)
    5bf4:	2f13           	movel %a3@,%sp@-
    5bf6:	4879 0000 ae9c 	pea ae9c <_fs>
    5bfc:	4eb9 0000 7fb6 	jsr 7fb6 <fatfs_mark_file_deleted>
    5c02:	4fef 000c      	lea %sp@(12),%sp
    5c06:	4a80           	tstl %d0
    5c08:	6730           	beqs 5c3a <fl_remove+0xc6>
    5c0a:	2f0b           	movel %a3,%sp@-
    5c0c:	4eb9 0000 53d4 	jsr 53d4 <fl_fclose>
    5c12:	588f           	addql #4,%sp
    5c14:	7400           	moveq #0,%d2
    5c16:	2079 0000 aed6 	moveal aed6 <_fs+0x3a>,%a0
    5c1c:	b0fc 0000      	cmpaw #0,%a0
    5c20:	6702           	beqs 5c24 <fl_remove+0xb0>
    5c22:	4e90           	jsr %a0@
    5c24:	2002           	movel %d2,%d0
    5c26:	4cdf 3c04      	moveml %sp@+,%d2/%a2-%a5
    5c2a:	4e75           	rts
    5c2c:	2f02           	movel %d2,%sp@-
    5c2e:	486a f8de      	pea %a2@(-1826)
    5c32:	4e94           	jsr %a4@
    5c34:	508f           	addql #8,%sp
    5c36:	4a80           	tstl %d0
    5c38:	6796           	beqs 5bd0 <fl_remove+0x5c>
    5c3a:	74ff           	moveq #-1,%d2
    5c3c:	60d8           	bras 5c16 <fl_remove+0xa2>

00005c3e <fl_createdirectory>:
    5c3e:	4e56 ffd4      	linkw %fp,#-44
    5c42:	48e7 383c      	moveml %d2-%d4/%a2-%a5,%sp@-
    5c46:	4ab9 0000 ff32 	tstl ff32 <_filelib_init>
    5c4c:	6700 022c      	beqw 5e7a <fl_createdirectory+0x23c>
    5c50:	2079 0000 aed2 	moveal aed2 <_fs+0x36>,%a0
    5c56:	b0fc 0000      	cmpaw #0,%a0
    5c5a:	6702           	beqs 5c5e <fl_createdirectory+0x20>
    5c5c:	4e90           	jsr %a0@
    5c5e:	4eb9 0000 4aaa 	jsr 4aaa <_allocate_file>
    5c64:	2440           	moveal %d0,%a2
    5c66:	4a80           	tstl %d0
    5c68:	6700 020c      	beqw 5e76 <fl_createdirectory+0x238>
    5c6c:	47ea 0014      	lea %a2@(20),%a3
    5c70:	243c 0000 0104 	movel #260,%d2
    5c76:	2f02           	movel %d2,%sp@-
    5c78:	42a7           	clrl %sp@-
    5c7a:	2f0b           	movel %a3,%sp@-
    5c7c:	49f9 0000 2634 	lea 2634 <memset>,%a4
    5c82:	4e94           	jsr %a4@
    5c84:	260a           	movel %a2,%d3
    5c86:	0683 0000 0118 	addil #280,%d3
    5c8c:	2f02           	movel %d2,%sp@-
    5c8e:	42a7           	clrl %sp@-
    5c90:	2f03           	movel %d3,%sp@-
    5c92:	4e94           	jsr %a4@
    5c94:	2f02           	movel %d2,%sp@-
    5c96:	2f03           	movel %d3,%sp@-
    5c98:	2f02           	movel %d2,%sp@-
    5c9a:	2f0b           	movel %a3,%sp@-
    5c9c:	2f2e 0008      	movel %fp@(8),%sp@-
    5ca0:	4eb9 0000 6852 	jsr 6852 <fatfs_split_path>
    5ca6:	4fef 002c      	lea %sp@(44),%sp
    5caa:	5280           	addql #1,%d0
    5cac:	6700 01be      	beqw 5e6c <fl_createdirectory+0x22e>
    5cb0:	4a2a 0014      	tstb %a2@(20)
    5cb4:	6700 01ce      	beqw 5e84 <fl_createdirectory+0x246>
    5cb8:	2f0a           	movel %a2,%sp@-
    5cba:	2f0b           	movel %a3,%sp@-
    5cbc:	4eb9 0000 46e8 	jsr 46e8 <_open_directory>
    5cc2:	508f           	addql #8,%sp
    5cc4:	4a80           	tstl %d0
    5cc6:	6700 01a4      	beqw 5e6c <fl_createdirectory+0x22e>
    5cca:	2012           	movel %a2@,%d0
    5ccc:	486e ffe0      	pea %fp@(-32)
    5cd0:	2f03           	movel %d3,%sp@-
    5cd2:	2f00           	movel %d0,%sp@-
    5cd4:	4879 0000 ae9c 	pea ae9c <_fs>
    5cda:	4eb9 0000 7bfe 	jsr 7bfe <fatfs_get_file_entry>
    5ce0:	4fef 0010      	lea %sp@(16),%sp
    5ce4:	5380           	subql #1,%d0
    5ce6:	6700 0184      	beqw 5e6c <fl_createdirectory+0x22e>
    5cea:	42aa 0004      	clrl %a2@(4)
    5cee:	4878 0001      	pea 1 <DUART_MR1A+0x1>
    5cf2:	486a 0004      	pea %a2@(4)
    5cf6:	4878 0001      	pea 1 <DUART_MR1A+0x1>
    5cfa:	4879 0000 ae9c 	pea ae9c <_fs>
    5d00:	4eb9 0000 7300 	jsr 7300 <fatfs_allocate_free_space>
    5d06:	4fef 0010      	lea %sp@(16),%sp
    5d0a:	4a80           	tstl %d0
    5d0c:	6700 015e      	beqw 5e6c <fl_createdirectory+0x22e>
    5d10:	280a           	movel %a2,%d4
    5d12:	0684 0000 0630 	addil #1584,%d4
    5d18:	4878 0200      	pea 200 <R_STOPCNTCMD+0x1e2>
    5d1c:	42a7           	clrl %sp@-
    5d1e:	2f04           	movel %d4,%sp@-
    5d20:	4e94           	jsr %a4@
    5d22:	4fef 000c      	lea %sp@(12),%sp
    5d26:	4a39 0000 ae9c 	tstb ae9c <_fs>
    5d2c:	6732           	beqs 5d60 <fl_createdirectory+0x122>
    5d2e:	7400           	moveq #0,%d2
    5d30:	47f9 0000 7b04 	lea 7b04 <fatfs_write_sector>,%a3
    5d36:	49f9 0000 ae9c 	lea ae9c <_fs>,%a4
    5d3c:	2f04           	movel %d4,%sp@-
    5d3e:	2f02           	movel %d2,%sp@-
    5d40:	2f2a 0004      	movel %a2@(4),%sp@-
    5d44:	4879 0000 ae9c 	pea ae9c <_fs>
    5d4a:	4e93           	jsr %a3@
    5d4c:	4fef 0010      	lea %sp@(16),%sp
    5d50:	4a80           	tstl %d0
    5d52:	6700 0118      	beqw 5e6c <fl_createdirectory+0x22e>
    5d56:	5282           	addql #1,%d2
    5d58:	7000           	moveq #0,%d0
    5d5a:	1014           	moveb %a4@,%d0
    5d5c:	b082           	cmpl %d2,%d0
    5d5e:	6edc           	bgts 5d3c <fl_createdirectory+0xfe>
    5d60:	2f03           	movel %d3,%sp@-
    5d62:	47ee ffd5      	lea %fp@(-43),%a3
    5d66:	2f0b           	movel %a3,%sp@-
    5d68:	4bf9 0000 63f4 	lea 63f4 <fatfs_lfn_create_sfn>,%a5
    5d6e:	4e95           	jsr %a5@
    5d70:	280a           	movel %a2,%d4
    5d72:	0684 0000 021c 	addil #540,%d4
    5d78:	2044           	moveal %d4,%a0
    5d7a:	10d3           	moveb %a3@,%a0@+
    5d7c:	10ee ffd6      	moveb %fp@(-42),%a0@+
    5d80:	10ee ffd7      	moveb %fp@(-41),%a0@+
    5d84:	10ee ffd8      	moveb %fp@(-40),%a0@+
    5d88:	10ee ffd9      	moveb %fp@(-39),%a0@+
    5d8c:	10ee ffda      	moveb %fp@(-38),%a0@+
    5d90:	10ee ffdb      	moveb %fp@(-37),%a0@+
    5d94:	10ee ffdc      	moveb %fp@(-36),%a0@+
    5d98:	10ee ffdd      	moveb %fp@(-35),%a0@+
    5d9c:	10ee ffde      	moveb %fp@(-34),%a0@+
    5da0:	10ae ffdf      	moveb %fp@(-33),%a0@
    5da4:	508f           	addql #8,%sp
    5da6:	7400           	moveq #0,%d2
    5da8:	49f9 0000 7dec 	lea 7dec <fatfs_sfn_exists>,%a4
    5dae:	2f04           	movel %d4,%sp@-
    5db0:	2f12           	movel %a2@,%sp@-
    5db2:	4879 0000 ae9c 	pea ae9c <_fs>
    5db8:	4e94           	jsr %a4@
    5dba:	4fef 000c      	lea %sp@(12),%sp
    5dbe:	4a80           	tstl %d0
    5dc0:	6736           	beqs 5df8 <fl_createdirectory+0x1ba>
    5dc2:	5282           	addql #1,%d2
    5dc4:	0c82 0000 270f 	cmpil #9999,%d2
    5dca:	6700 00cc      	beqw 5e98 <fl_createdirectory+0x25a>
    5dce:	2f03           	movel %d3,%sp@-
    5dd0:	2f0b           	movel %a3,%sp@-
    5dd2:	4e95           	jsr %a5@
    5dd4:	2f02           	movel %d2,%sp@-
    5dd6:	2f0b           	movel %a3,%sp@-
    5dd8:	2f04           	movel %d4,%sp@-
    5dda:	4eb9 0000 6524 	jsr 6524 <fatfs_lfn_generate_tail>
    5de0:	4fef 0014      	lea %sp@(20),%sp
    5de4:	2f04           	movel %d4,%sp@-
    5de6:	2f12           	movel %a2@,%sp@-
    5de8:	4879 0000 ae9c 	pea ae9c <_fs>
    5dee:	4e94           	jsr %a4@
    5df0:	4fef 000c      	lea %sp@(12),%sp
    5df4:	4a80           	tstl %d0
    5df6:	66ca           	bnes 5dc2 <fl_createdirectory+0x184>
    5df8:	4878 0001      	pea 1 <DUART_MR1A+0x1>
    5dfc:	42a7           	clrl %sp@-
    5dfe:	2f2a 0004      	movel %a2@(4),%sp@-
    5e02:	2f04           	movel %d4,%sp@-
    5e04:	2f03           	movel %d3,%sp@-
    5e06:	2f12           	movel %a2@,%sp@-
    5e08:	4879 0000 ae9c 	pea ae9c <_fs>
    5e0e:	4eb9 0000 740e 	jsr 740e <fatfs_add_file_entry>
    5e14:	4fef 001c      	lea %sp@(28),%sp
    5e18:	4a80           	tstl %d0
    5e1a:	677c           	beqs 5e98 <fl_createdirectory+0x25a>
    5e1c:	42aa 000c      	clrl %a2@(12)
    5e20:	42aa 0008      	clrl %a2@(8)
    5e24:	70ff           	moveq #-1,%d0
    5e26:	2540 0830      	movel %d0,%a2@(2096)
    5e2a:	42aa 0834      	clrl %a2@(2100)
    5e2e:	42aa 0010      	clrl %a2@(16)
    5e32:	2540 0628      	movel %d0,%a2@(1576)
    5e36:	2540 062c      	movel %d0,%a2@(1580)
    5e3a:	4879 0000 ae9c 	pea ae9c <_fs>
    5e40:	4eb9 0000 6d6a 	jsr 6d6a <fatfs_fat_purge>
    5e46:	2f0a           	movel %a2,%sp@-
    5e48:	4eb9 0000 4b72 	jsr 4b72 <_free_file>
    5e4e:	508f           	addql #8,%sp
    5e50:	7401           	moveq #1,%d2
    5e52:	2079 0000 aed6 	moveal aed6 <_fs+0x3a>,%a0
    5e58:	b0fc 0000      	cmpaw #0,%a0
    5e5c:	6702           	beqs 5e60 <fl_createdirectory+0x222>
    5e5e:	4e90           	jsr %a0@
    5e60:	2002           	movel %d2,%d0
    5e62:	4cee 3c1c ffb8 	moveml %fp@(-72),%d2-%d4/%a2-%a5
    5e68:	4e5e           	unlk %fp
    5e6a:	4e75           	rts
    5e6c:	2f0a           	movel %a2,%sp@-
    5e6e:	4eb9 0000 4b72 	jsr 4b72 <_free_file>
    5e74:	588f           	addql #4,%sp
    5e76:	7400           	moveq #0,%d2
    5e78:	60d8           	bras 5e52 <fl_createdirectory+0x214>
    5e7a:	4eb9 0000 4dd4 	jsr 4dd4 <fl_init>
    5e80:	6000 fdce      	braw 5c50 <fl_createdirectory+0x12>
    5e84:	4879 0000 ae9c 	pea ae9c <_fs>
    5e8a:	4eb9 0000 7bf4 	jsr 7bf4 <fatfs_get_root_cluster>
    5e90:	2480           	movel %d0,%a2@
    5e92:	588f           	addql #4,%sp
    5e94:	6000 fe36      	braw 5ccc <fl_createdirectory+0x8e>
    5e98:	2f2a 0004      	movel %a2@(4),%sp@-
    5e9c:	4879 0000 ae9c 	pea ae9c <_fs>
    5ea2:	4eb9 0000 710a 	jsr 710a <fatfs_free_cluster_chain>
    5ea8:	2f0a           	movel %a2,%sp@-
    5eaa:	4eb9 0000 4b72 	jsr 4b72 <_free_file>
    5eb0:	4fef 000c      	lea %sp@(12),%sp
    5eb4:	7400           	moveq #0,%d2
    5eb6:	609a           	bras 5e52 <fl_createdirectory+0x214>

00005eb8 <fatfs_lfn_cache_init>:
    5eb8:	226f 0004      	moveal %sp@(4),%a1
    5ebc:	4229 0105      	clrb %a1@(261)
    5ec0:	4aaf 0008      	tstl %sp@(8)
    5ec4:	672c           	beqs 5ef2 <fatfs_lfn_cache_init+0x3a>
    5ec6:	2009           	movel %a1,%d0
    5ec8:	0680 0000 0104 	addil #260,%d0
    5ece:	2049           	moveal %a1,%a0
    5ed0:	4218           	clrb %a0@+
    5ed2:	4218           	clrb %a0@+
    5ed4:	4218           	clrb %a0@+
    5ed6:	4218           	clrb %a0@+
    5ed8:	4218           	clrb %a0@+
    5eda:	4218           	clrb %a0@+
    5edc:	4218           	clrb %a0@+
    5ede:	4218           	clrb %a0@+
    5ee0:	4218           	clrb %a0@+
    5ee2:	4218           	clrb %a0@+
    5ee4:	4218           	clrb %a0@+
    5ee6:	4218           	clrb %a0@+
    5ee8:	4210           	clrb %a0@
    5eea:	43e9 000d      	lea %a1@(13),%a1
    5eee:	b089           	cmpl %a1,%d0
    5ef0:	66dc           	bnes 5ece <fatfs_lfn_cache_init+0x16>
    5ef2:	4e75           	rts

00005ef4 <fatfs_lfn_cache_entry>:
    5ef4:	2f0a           	movel %a2,%sp@-
    5ef6:	246f 0008      	moveal %sp@(8),%a2
    5efa:	226f 000c      	moveal %sp@(12),%a1
    5efe:	1011           	moveb %a1@,%d0
    5f00:	0200 001f      	andib #31,%d0
    5f04:	1200           	moveb %d0,%d1
    5f06:	5301           	subqb #1,%d1
    5f08:	0c01 0013      	cmpib #19,%d1
    5f0c:	627c           	bhis 5f8a <fatfs_lfn_cache_entry+0x96>
    5f0e:	4a2a 0105      	tstb %a2@(261)
    5f12:	6604           	bnes 5f18 <fatfs_lfn_cache_entry+0x24>
    5f14:	1540 0105      	moveb %d0,%a2@(261)
    5f18:	7200           	moveq #0,%d1
    5f1a:	1200           	moveb %d0,%d1
    5f1c:	5381           	subql #1,%d1
    5f1e:	2001           	movel %d1,%d0
    5f20:	d081           	addl %d1,%d0
    5f22:	d081           	addl %d1,%d0
    5f24:	d080           	addl %d0,%d0
    5f26:	d080           	addl %d0,%d0
    5f28:	d081           	addl %d1,%d0
    5f2a:	15a9 0001 0800 	moveb %a1@(1),%a2@(0,%d0:l)
    5f30:	41f2 0800      	lea %a2@(0,%d0:l),%a0
    5f34:	1169 0003 0001 	moveb %a1@(3),%a0@(1)
    5f3a:	1169 0005 0002 	moveb %a1@(5),%a0@(2)
    5f40:	1169 0007 0003 	moveb %a1@(7),%a0@(3)
    5f46:	1169 0009 0004 	moveb %a1@(9),%a0@(4)
    5f4c:	1169 000e 0005 	moveb %a1@(14),%a0@(5)
    5f52:	1169 0010 0006 	moveb %a1@(16),%a0@(6)
    5f58:	1169 0012 0007 	moveb %a1@(18),%a0@(7)
    5f5e:	1169 0014 0008 	moveb %a1@(20),%a0@(8)
    5f64:	1169 0016 0009 	moveb %a1@(22),%a0@(9)
    5f6a:	1169 0018 000a 	moveb %a1@(24),%a0@(10)
    5f70:	1169 001c 000b 	moveb %a1@(28),%a0@(11)
    5f76:	1169 001e 000c 	moveb %a1@(30),%a0@(12)
    5f7c:	43f2 080d      	lea %a2@(d,%d0:l),%a1
    5f80:	0c18 ffff      	cmpib #-1,%a0@+
    5f84:	6708           	beqs 5f8e <fatfs_lfn_cache_entry+0x9a>
    5f86:	b3c8           	cmpal %a0,%a1
    5f88:	66f6           	bnes 5f80 <fatfs_lfn_cache_entry+0x8c>
    5f8a:	245f           	moveal %sp@+,%a2
    5f8c:	4e75           	rts
    5f8e:	117c 0020 ffff 	moveb #32,%a0@(-1)
    5f94:	b3c8           	cmpal %a0,%a1
    5f96:	66e8           	bnes 5f80 <fatfs_lfn_cache_entry+0x8c>
    5f98:	60f0           	bras 5f8a <fatfs_lfn_cache_entry+0x96>

00005f9a <fatfs_lfn_cache_get>:
    5f9a:	202f 0004      	movel %sp@(4),%d0
    5f9e:	2040           	moveal %d0,%a0
    5fa0:	1228 0105      	moveb %a0@(261),%d1
    5fa4:	0c01 0014      	cmpib #20,%d1
    5fa8:	6722           	beqs 5fcc <fatfs_lfn_cache_get+0x32>
    5faa:	4a01           	tstb %d1
    5fac:	671a           	beqs 5fc8 <fatfs_lfn_cache_get+0x2e>
    5fae:	0281 0000 00ff 	andil #255,%d1
    5fb4:	2041           	moveal %d1,%a0
    5fb6:	d1c1           	addal %d1,%a0
    5fb8:	d1c1           	addal %d1,%a0
    5fba:	d1c8           	addal %a0,%a0
    5fbc:	d1c8           	addal %a0,%a0
    5fbe:	d288           	addl %a0,%d1
    5fc0:	2041           	moveal %d1,%a0
    5fc2:	4230 0800      	clrb %a0@(0,%d0:l)
    5fc6:	4e75           	rts
    5fc8:	4210           	clrb %a0@
    5fca:	4e75           	rts
    5fcc:	4228 0104      	clrb %a0@(260)
    5fd0:	4e75           	rts

00005fd2 <fatfs_entry_lfn_text>:
    5fd2:	206f 0004      	moveal %sp@(4),%a0
    5fd6:	1028 000b      	moveb %a0@(11),%d0
    5fda:	0200 000f      	andib #15,%d0
    5fde:	0c00 000f      	cmpib #15,%d0
    5fe2:	57c0           	seq %d0
    5fe4:	4880           	extw %d0
    5fe6:	48c0           	extl %d0
    5fe8:	4480           	negl %d0
    5fea:	4e75           	rts

00005fec <fatfs_entry_lfn_invalid>:
    5fec:	206f 0004      	moveal %sp@(4),%a0
    5ff0:	1010           	moveb %a0@,%d0
    5ff2:	6724           	beqs 6018 <fatfs_entry_lfn_invalid+0x2c>
    5ff4:	1010           	moveb %a0@,%d0
    5ff6:	0c00 ffe5      	cmpib #-27,%d0
    5ffa:	671c           	beqs 6018 <fatfs_entry_lfn_invalid+0x2c>
    5ffc:	1028 000b      	moveb %a0@(11),%d0
    6000:	0c00 0008      	cmpib #8,%d0
    6004:	6712           	beqs 6018 <fatfs_entry_lfn_invalid+0x2c>
    6006:	1028 000b      	moveb %a0@(11),%d0
    600a:	0200 0006      	andib #6,%d0
    600e:	56c0           	sne %d0
    6010:	4880           	extw %d0
    6012:	48c0           	extl %d0
    6014:	4480           	negl %d0
    6016:	4e75           	rts
    6018:	7001           	moveq #1,%d0
    601a:	4e75           	rts

0000601c <fatfs_entry_lfn_exists>:
    601c:	206f 0008      	moveal %sp@(8),%a0
    6020:	1028 000b      	moveb %a0@(11),%d0
    6024:	0c00 000f      	cmpib #15,%d0
    6028:	6732           	beqs 605c <fatfs_entry_lfn_exists+0x40>
    602a:	1010           	moveb %a0@,%d0
    602c:	672e           	beqs 605c <fatfs_entry_lfn_exists+0x40>
    602e:	1010           	moveb %a0@,%d0
    6030:	0c00 ffe5      	cmpib #-27,%d0
    6034:	6726           	beqs 605c <fatfs_entry_lfn_exists+0x40>
    6036:	1028 000b      	moveb %a0@(11),%d0
    603a:	0c00 0008      	cmpib #8,%d0
    603e:	671c           	beqs 605c <fatfs_entry_lfn_exists+0x40>
    6040:	1028 000b      	moveb %a0@(11),%d0
    6044:	0200 0006      	andib #6,%d0
    6048:	6612           	bnes 605c <fatfs_entry_lfn_exists+0x40>
    604a:	206f 0004      	moveal %sp@(4),%a0
    604e:	4a28 0105      	tstb %a0@(261)
    6052:	56c0           	sne %d0
    6054:	4880           	extw %d0
    6056:	48c0           	extl %d0
    6058:	4480           	negl %d0
    605a:	4e75           	rts
    605c:	7000           	moveq #0,%d0
    605e:	4e75           	rts

00006060 <fatfs_entry_sfn_only>:
    6060:	206f 0004      	moveal %sp@(4),%a0
    6064:	1028 000b      	moveb %a0@(11),%d0
    6068:	0c00 000f      	cmpib #15,%d0
    606c:	6728           	beqs 6096 <fatfs_entry_sfn_only+0x36>
    606e:	1010           	moveb %a0@,%d0
    6070:	6724           	beqs 6096 <fatfs_entry_sfn_only+0x36>
    6072:	1010           	moveb %a0@,%d0
    6074:	0c00 ffe5      	cmpib #-27,%d0
    6078:	671c           	beqs 6096 <fatfs_entry_sfn_only+0x36>
    607a:	1028 000b      	moveb %a0@(11),%d0
    607e:	0c00 0008      	cmpib #8,%d0
    6082:	6712           	beqs 6096 <fatfs_entry_sfn_only+0x36>
    6084:	1028 000b      	moveb %a0@(11),%d0
    6088:	0200 0006      	andib #6,%d0
    608c:	57c0           	seq %d0
    608e:	4880           	extw %d0
    6090:	48c0           	extl %d0
    6092:	4480           	negl %d0
    6094:	4e75           	rts
    6096:	7000           	moveq #0,%d0
    6098:	4e75           	rts

0000609a <fatfs_entry_is_dir>:
    609a:	206f 0004      	moveal %sp@(4),%a0
    609e:	1028 000b      	moveb %a0@(11),%d0
    60a2:	e808           	lsrb #4,%d0
    60a4:	7201           	moveq #1,%d1
    60a6:	c081           	andl %d1,%d0
    60a8:	4e75           	rts

000060aa <fatfs_entry_is_file>:
    60aa:	206f 0004      	moveal %sp@(4),%a0
    60ae:	1028 000b      	moveb %a0@(11),%d0
    60b2:	ea08           	lsrb #5,%d0
    60b4:	7201           	moveq #1,%d1
    60b6:	c081           	andl %d1,%d0
    60b8:	4e75           	rts

000060ba <fatfs_lfn_entries_required>:
    60ba:	2f2f 0004      	movel %sp@(4),%sp@-
    60be:	4eb9 0000 81ac 	jsr 81ac <strlen>
    60c4:	588f           	addql #4,%sp
    60c6:	4a80           	tstl %d0
    60c8:	6714           	beqs 60de <fatfs_lfn_entries_required+0x24>
    60ca:	4878 000d      	pea d <DUART_CTUR+0x1>
    60ce:	2040           	moveal %d0,%a0
    60d0:	4868 000c      	pea %a0@(12)
    60d4:	4eb9 0000 21c4 	jsr 21c4 <__divsi3>
    60da:	508f           	addql #8,%sp
    60dc:	4e75           	rts
    60de:	7000           	moveq #0,%d0
    60e0:	4e75           	rts

000060e2 <fatfs_filename_to_lfn>:
    60e2:	4fef ffcc      	lea %sp@(-52),%sp
    60e6:	48e7 383e      	moveml %d2-%d4/%a2-%fp,%sp@-
    60ea:	2a6f 0058      	moveal %sp@(88),%a5
    60ee:	286f 005c      	moveal %sp@(92),%a4
    60f2:	262f 0060      	movel %sp@(96),%d3
    60f6:	282f 0064      	movel %sp@(100),%d4
    60fa:	7003           	moveq #3,%d0
    60fc:	2f40 0024      	movel %d0,%sp@(36)
    6100:	7005           	moveq #5,%d0
    6102:	2f40 0028      	movel %d0,%sp@(40)
    6106:	7007           	moveq #7,%d0
    6108:	2f40 002c      	movel %d0,%sp@(44)
    610c:	7009           	moveq #9,%d0
    610e:	2f40 0030      	movel %d0,%sp@(48)
    6112:	700e           	moveq #14,%d0
    6114:	2f40 0034      	movel %d0,%sp@(52)
    6118:	7010           	moveq #16,%d0
    611a:	2f40 0038      	movel %d0,%sp@(56)
    611e:	7012           	moveq #18,%d0
    6120:	2f40 003c      	movel %d0,%sp@(60)
    6124:	7014           	moveq #20,%d0
    6126:	2f40 0040      	movel %d0,%sp@(64)
    612a:	7016           	moveq #22,%d0
    612c:	2f40 0044      	movel %d0,%sp@(68)
    6130:	7018           	moveq #24,%d0
    6132:	2f40 0048      	movel %d0,%sp@(72)
    6136:	701c           	moveq #28,%d0
    6138:	2f40 004c      	movel %d0,%sp@(76)
    613c:	701e           	moveq #30,%d0
    613e:	2f40 0050      	movel %d0,%sp@(80)
    6142:	2f0d           	movel %a5,%sp@-
    6144:	4eb9 0000 81ac 	jsr 81ac <strlen>
    614a:	588f           	addql #4,%sp
    614c:	2640           	moveal %d0,%a3
    614e:	4a80           	tstl %d0
    6150:	6700 009c      	beqw 61ee <fatfs_filename_to_lfn+0x10c>
    6154:	4878 000d      	pea d <DUART_CTUR+0x1>
    6158:	486b 000c      	pea %a3@(12)
    615c:	4eb9 0000 21c4 	jsr 21c4 <__divsi3>
    6162:	508f           	addql #8,%sp
    6164:	2440           	moveal %d0,%a2
    6166:	538a           	subql #1,%a2
    6168:	2003           	movel %d3,%d0
    616a:	d083           	addl %d3,%d0
    616c:	2200           	movel %d0,%d1
    616e:	d283           	addl %d3,%d1
    6170:	d281           	addl %d1,%d1
    6172:	d281           	addl %d1,%d1
    6174:	2401           	movel %d1,%d2
    6176:	d483           	addl %d3,%d2
    6178:	4878 001f      	pea 1f <R_STOPCNTCMD+0x1>
    617c:	42a7           	clrl %sp@-
    617e:	486c 0001      	pea %a4@(1)
    6182:	4eb9 0000 2634 	jsr 2634 <memset>
    6188:	1003           	moveb %d3,%d0
    618a:	5200           	addqb #1,%d0
    618c:	4fef 000c      	lea %sp@(12),%sp
    6190:	b5c3           	cmpal %d3,%a2
    6192:	6700 008c      	beqw 6220 <fatfs_filename_to_lfn+0x13e>
    6196:	1880           	moveb %d0,%a4@
    6198:	197c 000f 000b 	moveb #15,%a4@(11)
    619e:	1944 000d      	moveb %d4,%a4@(13)
    61a2:	2202           	movel %d2,%d1
    61a4:	41ef 0020      	lea %sp@(32),%a0
    61a8:	4def 0054      	lea %sp@(84),%fp
    61ac:	327c 0001      	moveaw #1,%a1
    61b0:	45f4 9800      	lea %a4@(0,%a1:l),%a2
    61b4:	b28b           	cmpl %a3,%d1
    61b6:	6c16           	bges 61ce <fatfs_filename_to_lfn+0xec>
    61b8:	14b5 1800      	moveb %a5@(0,%d1:l),%a2@
    61bc:	5281           	addql #1,%d1
    61be:	5888           	addql #4,%a0
    61c0:	b1ce           	cmpal %fp,%a0
    61c2:	671c           	beqs 61e0 <fatfs_filename_to_lfn+0xfe>
    61c4:	2250           	moveal %a0@,%a1
    61c6:	45f4 9800      	lea %a4@(0,%a1:l),%a2
    61ca:	b28b           	cmpl %a3,%d1
    61cc:	6dea           	blts 61b8 <fatfs_filename_to_lfn+0xd6>
    61ce:	b28b           	cmpl %a3,%d1
    61d0:	6718           	beqs 61ea <fatfs_filename_to_lfn+0x108>
    61d2:	50d2           	st %a2@
    61d4:	50f4 9801      	st %a4@(1,%a1:l)
    61d8:	5281           	addql #1,%d1
    61da:	5888           	addql #4,%a0
    61dc:	b1ce           	cmpal %fp,%a0
    61de:	66e4           	bnes 61c4 <fatfs_filename_to_lfn+0xe2>
    61e0:	4cdf 7c1c      	moveml %sp@+,%d2-%d4/%a2-%fp
    61e4:	4fef 0034      	lea %sp@(52),%sp
    61e8:	4e75           	rts
    61ea:	4212           	clrb %a2@
    61ec:	60ce           	bras 61bc <fatfs_filename_to_lfn+0xda>
    61ee:	347c ffff      	moveaw #-1,%a2
    61f2:	2003           	movel %d3,%d0
    61f4:	d083           	addl %d3,%d0
    61f6:	2200           	movel %d0,%d1
    61f8:	d283           	addl %d3,%d1
    61fa:	d281           	addl %d1,%d1
    61fc:	d281           	addl %d1,%d1
    61fe:	2401           	movel %d1,%d2
    6200:	d483           	addl %d3,%d2
    6202:	4878 001f      	pea 1f <R_STOPCNTCMD+0x1>
    6206:	42a7           	clrl %sp@-
    6208:	486c 0001      	pea %a4@(1)
    620c:	4eb9 0000 2634 	jsr 2634 <memset>
    6212:	1003           	moveb %d3,%d0
    6214:	5200           	addqb #1,%d0
    6216:	4fef 000c      	lea %sp@(12),%sp
    621a:	b5c3           	cmpal %d3,%a2
    621c:	6600 ff78      	bnew 6196 <fatfs_filename_to_lfn+0xb4>
    6220:	0000 0040      	orib #64,%d0
    6224:	1880           	moveb %d0,%a4@
    6226:	197c 000f 000b 	moveb #15,%a4@(11)
    622c:	1944 000d      	moveb %d4,%a4@(13)
    6230:	2202           	movel %d2,%d1
    6232:	41ef 0020      	lea %sp@(32),%a0
    6236:	4def 0054      	lea %sp@(84),%fp
    623a:	327c 0001      	moveaw #1,%a1
    623e:	6000 ff70      	braw 61b0 <fatfs_filename_to_lfn+0xce>

00006242 <fatfs_sfn_create_entry>:
    6242:	2f03           	movel %d3,%sp@-
    6244:	2f02           	movel %d2,%sp@-
    6246:	226f 000c      	moveal %sp@(12),%a1
    624a:	222f 0014      	movel %sp@(20),%d1
    624e:	206f 0018      	moveal %sp@(24),%a0
    6252:	7000           	moveq #0,%d0
    6254:	11b1 0800 0800 	moveb %a1@(0,%d0:l),%a0@(0,%d0:l)
    625a:	5280           	addql #1,%d0
    625c:	740b           	moveq #11,%d2
    625e:	b480           	cmpl %d0,%d2
    6260:	66f2           	bnes 6254 <fatfs_sfn_create_entry+0x12>
    6262:	117c 0000 000d 	moveb #0,%a0@(13)
    6268:	117c 0000 000e 	moveb #0,%a0@(14)
    626e:	117c 0000 000f 	moveb #0,%a0@(15)
    6274:	117c 0000 0011 	moveb #0,%a0@(17)
    627a:	117c 0020 0010 	moveb #32,%a0@(16)
    6280:	117c 0000 0013 	moveb #0,%a0@(19)
    6286:	117c 0020 0012 	moveb #32,%a0@(18)
    628c:	117c 0000 0016 	moveb #0,%a0@(22)
    6292:	117c 0000 0017 	moveb #0,%a0@(23)
    6298:	117c 0000 0019 	moveb #0,%a0@(25)
    629e:	117c 0020 0018 	moveb #32,%a0@(24)
    62a4:	4aaf 001c      	tstl %sp@(28)
    62a8:	6600 00a6      	bnew 6350 <fatfs_sfn_create_entry+0x10e>
    62ac:	117c 0020 000b 	moveb #32,%a0@(11)
    62b2:	117c 0000 000c 	moveb #0,%a0@(12)
    62b8:	2001           	movel %d1,%d0
    62ba:	4240           	clrw %d0
    62bc:	4840           	swap %d0
    62be:	3400           	movew %d0,%d2
    62c0:	e05a           	rorw #8,%d2
    62c2:	0280 0000 00ff 	andil #255,%d0
    62c8:	1628 0014      	moveb %a0@(20),%d3
    62cc:	1140 0014      	moveb %d0,%a0@(20)
    62d0:	7000           	moveq #0,%d0
    62d2:	1002           	moveb %d2,%d0
    62d4:	1428 0015      	moveb %a0@(21),%d2
    62d8:	1140 0015      	moveb %d0,%a0@(21)
    62dc:	3001           	movew %d1,%d0
    62de:	e058           	rorw #8,%d0
    62e0:	0281 0000 00ff 	andil #255,%d1
    62e6:	1428 001a      	moveb %a0@(26),%d2
    62ea:	1141 001a      	moveb %d1,%a0@(26)
    62ee:	0280 0000 00ff 	andil #255,%d0
    62f4:	1228 001b      	moveb %a0@(27),%d1
    62f8:	1140 001b      	moveb %d0,%a0@(27)
    62fc:	202f 0010      	movel %sp@(16),%d0
    6300:	e058           	rorw #8,%d0
    6302:	4840           	swap %d0
    6304:	e058           	rorw #8,%d0
    6306:	2200           	movel %d0,%d1
    6308:	4241           	clrw %d1
    630a:	4841           	swap %d1
    630c:	e049           	lsrw #8,%d1
    630e:	1428 001c      	moveb %a0@(28),%d2
    6312:	1141 001c      	moveb %d1,%a0@(28)
    6316:	2200           	movel %d0,%d1
    6318:	4241           	clrw %d1
    631a:	4841           	swap %d1
    631c:	7400           	moveq #0,%d2
    631e:	4602           	notb %d2
    6320:	c282           	andl %d2,%d1
    6322:	1428 001d      	moveb %a0@(29),%d2
    6326:	1141 001d      	moveb %d1,%a0@(29)
    632a:	2200           	movel %d0,%d1
    632c:	e089           	lsrl #8,%d1
    632e:	7400           	moveq #0,%d2
    6330:	4602           	notb %d2
    6332:	c282           	andl %d2,%d1
    6334:	1428 001e      	moveb %a0@(30),%d2
    6338:	1141 001e      	moveb %d1,%a0@(30)
    633c:	7200           	moveq #0,%d1
    633e:	4601           	notb %d1
    6340:	c081           	andl %d1,%d0
    6342:	1228 001f      	moveb %a0@(31),%d1
    6346:	1140 001f      	moveb %d0,%a0@(31)
    634a:	241f           	movel %sp@+,%d2
    634c:	261f           	movel %sp@+,%d3
    634e:	4e75           	rts
    6350:	117c 0010 000b 	moveb #16,%a0@(11)
    6356:	117c 0000 000c 	moveb #0,%a0@(12)
    635c:	2001           	movel %d1,%d0
    635e:	4240           	clrw %d0
    6360:	4840           	swap %d0
    6362:	3400           	movew %d0,%d2
    6364:	e05a           	rorw #8,%d2
    6366:	0280 0000 00ff 	andil #255,%d0
    636c:	1628 0014      	moveb %a0@(20),%d3
    6370:	1140 0014      	moveb %d0,%a0@(20)
    6374:	7000           	moveq #0,%d0
    6376:	1002           	moveb %d2,%d0
    6378:	1428 0015      	moveb %a0@(21),%d2
    637c:	1140 0015      	moveb %d0,%a0@(21)
    6380:	3001           	movew %d1,%d0
    6382:	e058           	rorw #8,%d0
    6384:	0281 0000 00ff 	andil #255,%d1
    638a:	1428 001a      	moveb %a0@(26),%d2
    638e:	1141 001a      	moveb %d1,%a0@(26)
    6392:	0280 0000 00ff 	andil #255,%d0
    6398:	1228 001b      	moveb %a0@(27),%d1
    639c:	1140 001b      	moveb %d0,%a0@(27)
    63a0:	202f 0010      	movel %sp@(16),%d0
    63a4:	e058           	rorw #8,%d0
    63a6:	4840           	swap %d0
    63a8:	e058           	rorw #8,%d0
    63aa:	2200           	movel %d0,%d1
    63ac:	4241           	clrw %d1
    63ae:	4841           	swap %d1
    63b0:	e049           	lsrw #8,%d1
    63b2:	1428 001c      	moveb %a0@(28),%d2
    63b6:	1141 001c      	moveb %d1,%a0@(28)
    63ba:	2200           	movel %d0,%d1
    63bc:	4241           	clrw %d1
    63be:	4841           	swap %d1
    63c0:	7400           	moveq #0,%d2
    63c2:	4602           	notb %d2
    63c4:	c282           	andl %d2,%d1
    63c6:	1428 001d      	moveb %a0@(29),%d2
    63ca:	1141 001d      	moveb %d1,%a0@(29)
    63ce:	2200           	movel %d0,%d1
    63d0:	e089           	lsrl #8,%d1
    63d2:	7400           	moveq #0,%d2
    63d4:	4602           	notb %d2
    63d6:	c282           	andl %d2,%d1
    63d8:	1428 001e      	moveb %a0@(30),%d2
    63dc:	1141 001e      	moveb %d1,%a0@(30)
    63e0:	7200           	moveq #0,%d1
    63e2:	4601           	notb %d1
    63e4:	c081           	andl %d1,%d0
    63e6:	1228 001f      	moveb %a0@(31),%d1
    63ea:	1140 001f      	moveb %d0,%a0@(31)
    63ee:	241f           	movel %sp@+,%d2
    63f0:	261f           	movel %sp@+,%d3
    63f2:	4e75           	rts

000063f4 <fatfs_lfn_create_sfn>:
    63f4:	598f           	subql #4,%sp
    63f6:	48e7 2030      	moveml %d2/%a2-%a3,%sp@-
    63fa:	266f 0014      	moveal %sp@(20),%a3
    63fe:	246f 0018      	moveal %sp@(24),%a2
    6402:	0c12 002e      	cmpib #46,%a2@
    6406:	6700 0104      	beqw 650c <fatfs_lfn_create_sfn+0x118>
    640a:	2f0a           	movel %a2,%sp@-
    640c:	4eb9 0000 81ac 	jsr 81ac <strlen>
    6412:	588f           	addql #4,%sp
    6414:	204b           	moveal %a3,%a0
    6416:	10fc 0020      	moveb #32,%a0@+
    641a:	10fc 0020      	moveb #32,%a0@+
    641e:	10fc 0020      	moveb #32,%a0@+
    6422:	10fc 0020      	moveb #32,%a0@+
    6426:	10fc 0020      	moveb #32,%a0@+
    642a:	10fc 0020      	moveb #32,%a0@+
    642e:	10fc 0020      	moveb #32,%a0@+
    6432:	10fc 0020      	moveb #32,%a0@+
    6436:	10fc 0020      	moveb #32,%a0@+
    643a:	10fc 0020      	moveb #32,%a0@+
    643e:	10bc 0020      	moveb #32,%a0@
    6442:	1f7c 0020 000d 	moveb #32,%sp@(13)
    6448:	1f7c 0020 000e 	moveb #32,%sp@(14)
    644e:	1f7c 0020 000f 	moveb #32,%sp@(15)
    6454:	4a80           	tstl %d0
    6456:	6778           	beqs 64d0 <fatfs_lfn_create_sfn+0xdc>
    6458:	327c ffff      	moveaw #-1,%a1
    645c:	7200           	moveq #0,%d1
    645e:	0c32 002e 1800 	cmpib #46,%a2@(0,%d1:l)
    6464:	6700 0098      	beqw 64fe <fatfs_lfn_create_sfn+0x10a>
    6468:	5281           	addql #1,%d1
    646a:	b280           	cmpl %d0,%d1
    646c:	66f0           	bnes 645e <fatfs_lfn_create_sfn+0x6a>
    646e:	74ff           	moveq #-1,%d2
    6470:	b489           	cmpl %a1,%d2
    6472:	6700 00a2      	beqw 6516 <fatfs_lfn_create_sfn+0x122>
    6476:	2009           	movel %a1,%d0
    6478:	5280           	addql #1,%d0
    647a:	41ef 000d      	lea %sp@(13),%a0
    647e:	2409           	movel %a1,%d2
    6480:	5882           	addql #4,%d2
    6482:	b280           	cmpl %d0,%d1
    6484:	6f04           	bles 648a <fatfs_lfn_create_sfn+0x96>
    6486:	10b2 0800      	moveb %a2@(0,%d0:l),%a0@
    648a:	5280           	addql #1,%d0
    648c:	5288           	addql #1,%a0
    648e:	b082           	cmpl %d2,%d0
    6490:	66f0           	bnes 6482 <fatfs_lfn_create_sfn+0x8e>
    6492:	b2fc 0000      	cmpaw #0,%a1
    6496:	6f38           	bles 64d0 <fatfs_lfn_create_sfn+0xdc>
    6498:	204a           	moveal %a2,%a0
    649a:	43f2 9800      	lea %a2@(0,%a1:l),%a1
    649e:	7200           	moveq #0,%d1
    64a0:	1018           	moveb %a0@+,%d0
    64a2:	0c00 0020      	cmpib #32,%d0
    64a6:	6724           	beqs 64cc <fatfs_lfn_create_sfn+0xd8>
    64a8:	0c00 002e      	cmpib #46,%d0
    64ac:	671e           	beqs 64cc <fatfs_lfn_create_sfn+0xd8>
    64ae:	45f3 1800      	lea %a3@(0,%d1:l),%a2
    64b2:	5281           	addql #1,%d1
    64b4:	1400           	moveb %d0,%d2
    64b6:	0602 ff9f      	addib #-97,%d2
    64ba:	0c02 0019      	cmpib #25,%d2
    64be:	6204           	bhis 64c4 <fatfs_lfn_create_sfn+0xd0>
    64c0:	0600 ffe0      	addib #-32,%d0
    64c4:	1480           	moveb %d0,%a2@
    64c6:	7008           	moveq #8,%d0
    64c8:	b081           	cmpl %d1,%d0
    64ca:	6704           	beqs 64d0 <fatfs_lfn_create_sfn+0xdc>
    64cc:	b3c8           	cmpal %a0,%a1
    64ce:	66d0           	bnes 64a0 <fatfs_lfn_create_sfn+0xac>
    64d0:	43ef 000d      	lea %sp@(13),%a1
    64d4:	41eb 0008      	lea %a3@(8),%a0
    64d8:	47eb 000b      	lea %a3@(11),%a3
    64dc:	1019           	moveb %a1@+,%d0
    64de:	1200           	moveb %d0,%d1
    64e0:	0601 ff9f      	addib #-97,%d1
    64e4:	0c01 0019      	cmpib #25,%d1
    64e8:	6204           	bhis 64ee <fatfs_lfn_create_sfn+0xfa>
    64ea:	0600 ffe0      	addib #-32,%d0
    64ee:	10c0           	moveb %d0,%a0@+
    64f0:	b7c8           	cmpal %a0,%a3
    64f2:	66e8           	bnes 64dc <fatfs_lfn_create_sfn+0xe8>
    64f4:	7001           	moveq #1,%d0
    64f6:	4cdf 0c04      	moveml %sp@+,%d2/%a2-%a3
    64fa:	588f           	addql #4,%sp
    64fc:	4e75           	rts
    64fe:	2241           	moveal %d1,%a1
    6500:	5281           	addql #1,%d1
    6502:	b280           	cmpl %d0,%d1
    6504:	6600 ff58      	bnew 645e <fatfs_lfn_create_sfn+0x6a>
    6508:	6000 ff64      	braw 646e <fatfs_lfn_create_sfn+0x7a>
    650c:	7000           	moveq #0,%d0
    650e:	4cdf 0c04      	moveml %sp@+,%d2/%a2-%a3
    6512:	588f           	addql #4,%sp
    6514:	4e75           	rts
    6516:	2240           	moveal %d0,%a1
    6518:	204a           	moveal %a2,%a0
    651a:	43f2 9800      	lea %a2@(0,%a1:l),%a1
    651e:	7200           	moveq #0,%d1
    6520:	6000 ff7e      	braw 64a0 <fatfs_lfn_create_sfn+0xac>

00006524 <fatfs_lfn_generate_tail>:
    6524:	4e56 ffd4      	linkw %fp,#-44
    6528:	48e7 383c      	moveml %d2-%d4/%a2-%a5,%sp@-
    652c:	242e 0010      	movel %fp@(16),%d2
    6530:	0c82 0001 869f 	cmpil #99999,%d2
    6536:	630c           	blss 6544 <fatfs_lfn_generate_tail+0x20>
    6538:	7000           	moveq #0,%d0
    653a:	4cee 3c1c ffb8 	moveml %fp@(-72),%d2-%d4/%a2-%a5
    6540:	4e5e           	unlk %fp
    6542:	4e75           	rts
    6544:	422e ffd8      	clrb %fp@(-40)
    6548:	422e ffd9      	clrb %fp@(-39)
    654c:	422e ffda      	clrb %fp@(-38)
    6550:	422e ffdb      	clrb %fp@(-37)
    6554:	422e ffdc      	clrb %fp@(-36)
    6558:	422e ffdd      	clrb %fp@(-35)
    655c:	422e ffde      	clrb %fp@(-34)
    6560:	422e ffdf      	clrb %fp@(-33)
    6564:	422e ffe0      	clrb %fp@(-32)
    6568:	422e ffe1      	clrb %fp@(-31)
    656c:	422e ffe2      	clrb %fp@(-30)
    6570:	1d7c 007e ffd7 	moveb #126,%fp@(-41)
    6576:	4878 0011      	pea 11 <DUART_MR1B+0x1>
    657a:	4879 0000 8301 	pea 8301 <_dtors_end+0x19>
    6580:	486e ffef      	pea %fp@(-17)
    6584:	47f9 0000 81c0 	lea 81c0 <memcpy>,%a3
    658a:	4e93           	jsr %a3@
    658c:	4fef 000c      	lea %sp@(12),%sp
    6590:	49ee ffe3      	lea %fp@(-29),%a4
    6594:	244c           	moveal %a4,%a2
    6596:	4bf9 0000 21f4 	lea 21f4 <__udivsi3>,%a5
    659c:	280a           	movel %a2,%d4
    659e:	4878 000a      	pea a <DUART_IMR>
    65a2:	2f02           	movel %d2,%sp@-
    65a4:	4eb9 0000 8254 	jsr 8254 <__umodsi3>
    65aa:	508f           	addql #8,%sp
    65ac:	14f6 08ef      	moveb %fp@(ffffffffffffffef,%d0:l),%a2@+
    65b0:	2602           	movel %d2,%d3
    65b2:	4878 000a      	pea a <DUART_IMR>
    65b6:	2f02           	movel %d2,%sp@-
    65b8:	4e95           	jsr %a5@
    65ba:	508f           	addql #8,%sp
    65bc:	2400           	movel %d0,%d2
    65be:	7009           	moveq #9,%d0
    65c0:	b083           	cmpl %d3,%d0
    65c2:	65d8           	bcss 659c <fatfs_lfn_generate_tail+0x78>
    65c4:	4212           	clrb %a2@
    65c6:	b9c4           	cmpal %d4,%a4
    65c8:	6264           	bhis 662e <fatfs_lfn_generate_tail+0x10a>
    65ca:	43ee ffd8      	lea %fp@(-40),%a1
    65ce:	2044           	moveal %d4,%a0
    65d0:	12d0           	moveb %a0@,%a1@+
    65d2:	2008           	movel %a0,%d0
    65d4:	5388           	subql #1,%a0
    65d6:	b08c           	cmpl %a4,%d0
    65d8:	66f6           	bnes 65d0 <fatfs_lfn_generate_tail+0xac>
    65da:	988c           	subl %a4,%d4
    65dc:	41f6 48d9      	lea %fp@(ffffffffffffffd9,%d4:l),%a0
    65e0:	4210           	clrb %a0@
    65e2:	226e 000c      	moveal %fp@(12),%a1
    65e6:	206e 0008      	moveal %fp@(8),%a0
    65ea:	10d9           	moveb %a1@+,%a0@+
    65ec:	10d9           	moveb %a1@+,%a0@+
    65ee:	10d9           	moveb %a1@+,%a0@+
    65f0:	10d9           	moveb %a1@+,%a0@+
    65f2:	10d9           	moveb %a1@+,%a0@+
    65f4:	10d9           	moveb %a1@+,%a0@+
    65f6:	10d9           	moveb %a1@+,%a0@+
    65f8:	10d9           	moveb %a1@+,%a0@+
    65fa:	10d9           	moveb %a1@+,%a0@+
    65fc:	10d9           	moveb %a1@+,%a0@+
    65fe:	1091           	moveb %a1@,%a0@
    6600:	45ee ffd7      	lea %fp@(-41),%a2
