
simple_trig.elf:     file format elf32-m68k


Disassembly of section .text.reloc:

00002000 <_reloc>:
    2000:	41fa fffe      	lea %pc@(2000 <_reloc>),%a0
    2004:	43f9 0000 2000 	lea 2000 <_reloc>,%a1
    200a:	203c 0000 20a0 	movel #8352,%d0
    2010:	9089           	subl %a1,%d0
    2012:	e488           	lsrl #2,%d0
    2014:	5380           	subql #1,%d0
    2016:	22d8           	movel %a0@+,%a1@+
    2018:	51c8 fffc      	dbf %d0,2016 <_reloc+0x16>
    201c:	4ef9 0000 2024 	jmp 2024 <_postreloc>

Disassembly of section .text.postreloc:

00002024 <_postreloc>:
	...

00002030 <POSTRELOC>:
    2030:	203c 0001 53e8 	movel #87016,%d0
    2036:	9089           	subl %a1,%d0
    2038:	e488           	lsrl #2,%d0
    203a:	2200           	movel %d0,%d1
    203c:	4841           	swap %d1
    203e:	6002           	bras 2042 <POSTRELOC+0x12>
    2040:	22d8           	movel %a0@+,%a1@+
    2042:	51c8 fffc      	dbf %d0,2040 <POSTRELOC+0x10>
    2046:	51c9 fff8      	dbf %d1,2040 <POSTRELOC+0x10>

0000204a <_enter>:
    204a:	2e78 0414      	moveal 414 <SDB_MEMSIZE>,%sp
    204e:	612c           	bsrs 207c <_bss_init>
    2050:	4eb9 0001 2cfc 	jsr 12cfc <_init>
    2056:	2f3c 0001 2d10 	movel #77072,%sp@-
    205c:	4eb9 0000 4ea0 	jsr 4ea0 <atexit>
    2062:	2eb8 0000      	movel 0 <DUART_MR1A>,%sp@
    2066:	2f3c 0001 53e8 	movel #87016,%sp@-
    206c:	41f9 0000 21a2 	lea 21a2 <main>,%a0
    2072:	4e90           	jsr %a0@
    2074:	2f00           	movel %d0,%sp@-
    2076:	4eb9 0000 4eb8 	jsr 4eb8 <exit>

0000207c <_bss_init>:
    207c:	203c 0002 b2e8 	movel #176872,%d0
    2082:	90bc 0001 53e8 	subl #87016,%d0
    2088:	e488           	lsrl #2,%d0
    208a:	41f9 0001 53e8 	lea 153e8 <__TMC_END__>,%a0
    2090:	6002           	bras 2094 <_bss_init+0x18>
    2092:	4298           	clrl %a0@+
    2094:	51c8 fffc      	dbf %d0,2092 <_bss_init+0x16>
    2098:	4e75           	rts
    209a:	0000 0000      	orib #0,%d0
	...

Disassembly of section .text:

000020a4 <deregister_tm_clones>:
    20a4:	203c 0001 53e8 	movel #87016,%d0
    20aa:	0c80 0001 53e8 	cmpil #87016,%d0
    20b0:	6716           	beqs 20c8 <deregister_tm_clones+0x24>
    20b2:	41f9 0000 0000 	lea 0 <DUART_MR1A>,%a0
    20b8:	b0fc 0000      	cmpaw #0,%a0
    20bc:	670a           	beqs 20c8 <deregister_tm_clones+0x24>
    20be:	4879 0001 53e8 	pea 153e8 <__TMC_END__>
    20c4:	4e90           	jsr %a0@
    20c6:	588f           	addql #4,%sp
    20c8:	4e75           	rts

000020ca <register_tm_clones>:
    20ca:	203c 0001 53e8 	movel #87016,%d0
    20d0:	0480 0001 53e8 	subil #87016,%d0
    20d6:	2200           	movel %d0,%d1
    20d8:	e481           	asrl #2,%d1
    20da:	d080           	addl %d0,%d0
    20dc:	9180           	subxl %d0,%d0
    20de:	4480           	negl %d0
    20e0:	d081           	addl %d1,%d0
    20e2:	e280           	asrl #1,%d0
    20e4:	6718           	beqs 20fe <register_tm_clones+0x34>
    20e6:	41f9 0000 0000 	lea 0 <DUART_MR1A>,%a0
    20ec:	b0fc 0000      	cmpaw #0,%a0
    20f0:	670c           	beqs 20fe <register_tm_clones+0x34>
    20f2:	2f00           	movel %d0,%sp@-
    20f4:	4879 0001 53e8 	pea 153e8 <__TMC_END__>
    20fa:	4e90           	jsr %a0@
    20fc:	508f           	addql #8,%sp
    20fe:	4e75           	rts

00002100 <__do_global_dtors_aux>:
    2100:	2f0a           	movel %a2,%sp@-
    2102:	2f02           	movel %d2,%sp@-
    2104:	4a39 0001 53ec 	tstb 153ec <completed.2>
    210a:	665e           	bnes 216a <__do_global_dtors_aux+0x6a>
    210c:	45f9 0001 25a0 	lea 125a0 <__DTOR_LIST__>,%a2
    2112:	2039 0001 53ee 	movel 153ee <dtor_idx.1>,%d0
    2118:	243c 0001 25a4 	movel #75172,%d2
    211e:	0482 0001 25a0 	subil #75168,%d2
    2124:	e482           	asrl #2,%d2
    2126:	5382           	subql #1,%d2
    2128:	b480           	cmpl %d0,%d2
    212a:	631c           	blss 2148 <__do_global_dtors_aux+0x48>
    212c:	5280           	addql #1,%d0
    212e:	23c0 0001 53ee 	movel %d0,153ee <dtor_idx.1>
    2134:	d080           	addl %d0,%d0
    2136:	d080           	addl %d0,%d0
    2138:	2072 0800      	moveal %a2@(0,%d0:l),%a0
    213c:	4e90           	jsr %a0@
    213e:	2039 0001 53ee 	movel 153ee <dtor_idx.1>,%d0
    2144:	b480           	cmpl %d0,%d2
    2146:	62e4           	bhis 212c <__do_global_dtors_aux+0x2c>
    2148:	4eba ff5a      	jsr %pc@(20a4 <deregister_tm_clones>)
    214c:	41f9 0000 0000 	lea 0 <DUART_MR1A>,%a0
    2152:	b0fc 0000      	cmpaw #0,%a0
    2156:	670a           	beqs 2162 <__do_global_dtors_aux+0x62>
    2158:	4879 0000 20a0 	pea 20a0 <__EH_FRAME_BEGIN__>
    215e:	4e90           	jsr %a0@
    2160:	588f           	addql #4,%sp
    2162:	13fc 0001 0001 	moveb #1,153ec <completed.2>
    2168:	53ec 
    216a:	241f           	movel %sp@+,%d2
    216c:	245f           	moveal %sp@+,%a2
    216e:	4e75           	rts

00002170 <call___do_global_dtors_aux>:
    2170:	4e75           	rts

00002172 <frame_dummy>:
    2172:	41f9 0000 0000 	lea 0 <DUART_MR1A>,%a0
    2178:	b0fc 0000      	cmpaw #0,%a0
    217c:	6710           	beqs 218e <frame_dummy+0x1c>
    217e:	4879 0001 53f2 	pea 153f2 <object.0>
    2184:	4879 0000 20a0 	pea 20a0 <__EH_FRAME_BEGIN__>
    218a:	4e90           	jsr %a0@
    218c:	508f           	addql #8,%sp
    218e:	6000 ff3a      	braw 20ca <register_tm_clones>

00002192 <call_frame_dummy>:
    2192:	4e75           	rts

00002194 <getnum>:
    2194:	4e56 0000      	linkw %fp,#0
    2198:	307c 040c      	moveaw #1036,%a0
    219c:	2010           	movel %a0@,%d0
    219e:	4e5e           	unlk %fp
    21a0:	4e75           	rts

000021a2 <main>:
    21a2:	4e56 fff8      	linkw %fp,#-8
    21a6:	4eb9 0000 2194 	jsr 2194 <getnum>
    21ac:	2f00           	movel %d0,%sp@-
    21ae:	4eb9 0000 4b30 	jsr 4b30 <__floatsidf>
    21b4:	588f           	addql #4,%sp
    21b6:	42a7           	clrl %sp@-
    21b8:	2f3c 40f0 0000 	movel #1089470464,%sp@-
    21be:	2f01           	movel %d1,%sp@-
    21c0:	2f00           	movel %d0,%sp@-
    21c2:	4eb9 0000 3d5c 	jsr 3d5c <__divdf3>
    21c8:	4fef 0010      	lea %sp@(16),%sp
    21cc:	2f01           	movel %d1,%sp@-
    21ce:	2f00           	movel %d0,%sp@-
    21d0:	4eb9 0000 4c66 	jsr 4c66 <__truncdfsf2>
    21d6:	508f           	addql #8,%sp
    21d8:	2d40 fffc      	movel %d0,%fp@(-4)
    21dc:	2f2e fffc      	movel %fp@(-4),%sp@-
    21e0:	4eb9 0000 4bf2 	jsr 4bf2 <__extendsfdf2>
    21e6:	588f           	addql #4,%sp
    21e8:	2f01           	movel %d1,%sp@-
    21ea:	2f00           	movel %d0,%sp@-
    21ec:	4879 0001 25a8 	pea 125a8 <_dtors_end>
    21f2:	4eb9 0000 4f04 	jsr 4f04 <printf>
    21f8:	4fef 000c      	lea %sp@(12),%sp
    21fc:	2f2e fffc      	movel %fp@(-4),%sp@-
    2200:	4eb9 0000 2234 	jsr 2234 <cosf>
    2206:	588f           	addql #4,%sp
    2208:	2d40 fff8      	movel %d0,%fp@(-8)
    220c:	2f2e fff8      	movel %fp@(-8),%sp@-
    2210:	4eb9 0000 4bf2 	jsr 4bf2 <__extendsfdf2>
    2216:	588f           	addql #4,%sp
    2218:	2f01           	movel %d1,%sp@-
    221a:	2f00           	movel %d0,%sp@-
    221c:	4879 0001 25b5 	pea 125b5 <_dtors_end+0xd>
    2222:	4eb9 0000 4f04 	jsr 4f04 <printf>
    2228:	4fef 000c      	lea %sp@(12),%sp
    222c:	7000           	moveq #0,%d0
    222e:	4e5e           	unlk %fp
    2230:	4e75           	rts
	...

00002234 <cosf>:
    2234:	4e56 fff8      	linkw %fp,#-8
    2238:	202e 0008      	movel %fp@(8),%d0
    223c:	2200           	movel %d0,%d1
    223e:	0881 001f      	bclr #31,%d1
    2242:	0c81 3f49 0fd8 	cmpil #1061752792,%d1
    2248:	634e           	blss 2298 <cosf+0x64>
    224a:	0c81 7f7f ffff 	cmpil #2139095039,%d1
    2250:	6310           	blss 2262 <cosf+0x2e>
    2252:	2f00           	movel %d0,%sp@-
    2254:	2f00           	movel %d0,%sp@-
    2256:	4eb9 0000 41d0 	jsr 41d0 <__subsf3>
    225c:	508f           	addql #8,%sp
    225e:	4e5e           	unlk %fp
    2260:	4e75           	rts
    2262:	486e fff8      	pea %fp@(-8)
    2266:	2f00           	movel %d0,%sp@-
    2268:	4eb9 0000 2680 	jsr 2680 <__ieee754_rem_pio2f>
    226e:	7203           	moveq #3,%d1
    2270:	c081           	andl %d1,%d0
    2272:	508f           	addql #8,%sp
    2274:	7201           	moveq #1,%d1
    2276:	b280           	cmpl %d0,%d1
    2278:	6748           	beqs 22c2 <cosf+0x8e>
    227a:	7202           	moveq #2,%d1
    227c:	b280           	cmpl %d0,%d1
    227e:	6728           	beqs 22a8 <cosf+0x74>
    2280:	4a80           	tstl %d0
    2282:	665e           	bnes 22e2 <cosf+0xae>
    2284:	2f2e fffc      	movel %fp@(-4),%sp@-
    2288:	2f2e fff8      	movel %fp@(-8),%sp@-
    228c:	4eb9 0000 22fc 	jsr 22fc <__kernel_cosf>
    2292:	508f           	addql #8,%sp
    2294:	4e5e           	unlk %fp
    2296:	4e75           	rts
    2298:	42a7           	clrl %sp@-
    229a:	2f00           	movel %d0,%sp@-
    229c:	4eb9 0000 22fc 	jsr 22fc <__kernel_cosf>
    22a2:	508f           	addql #8,%sp
    22a4:	4e5e           	unlk %fp
    22a6:	4e75           	rts
    22a8:	2f2e fffc      	movel %fp@(-4),%sp@-
    22ac:	2f2e fff8      	movel %fp@(-8),%sp@-
    22b0:	4eb9 0000 22fc 	jsr 22fc <__kernel_cosf>
    22b6:	0680 8000 0000 	addil #-2147483648,%d0
    22bc:	508f           	addql #8,%sp
    22be:	4e5e           	unlk %fp
    22c0:	4e75           	rts
    22c2:	4878 0001      	pea 1 <ADD>
    22c6:	2f2e fffc      	movel %fp@(-4),%sp@-
    22ca:	2f2e fff8      	movel %fp@(-8),%sp@-
    22ce:	4eb9 0000 2550 	jsr 2550 <__kernel_sinf>
    22d4:	0680 8000 0000 	addil #-2147483648,%d0
    22da:	4fef 000c      	lea %sp@(12),%sp
    22de:	4e5e           	unlk %fp
    22e0:	4e75           	rts
    22e2:	4878 0001      	pea 1 <ADD>
    22e6:	2f2e fffc      	movel %fp@(-4),%sp@-
    22ea:	2f2e fff8      	movel %fp@(-8),%sp@-
    22ee:	4eb9 0000 2550 	jsr 2550 <__kernel_sinf>
    22f4:	4fef 000c      	lea %sp@(12),%sp
    22f8:	4e5e           	unlk %fp
    22fa:	4e75           	rts

000022fc <__kernel_cosf>:
    22fc:	48e7 3e38      	moveml %d2-%d6/%a2-%a4,%sp@-
    2300:	262f 0024      	movel %sp@(36),%d3
    2304:	2803           	movel %d3,%d4
    2306:	0884 001f      	bclr #31,%d4
    230a:	0c84 31ff ffff 	cmpil #838860799,%d4
    2310:	6200 00e4      	bhiw 23f6 <__kernel_cosf+0xfa>
    2314:	2f03           	movel %d3,%sp@-
    2316:	4eb9 0000 4e0a 	jsr 4e0a <__fixsfsi>
    231c:	588f           	addql #4,%sp
    231e:	4a80           	tstl %d0
    2320:	6700 0222      	beqw 2544 <__kernel_cosf+0x248>
    2324:	45f9 0000 4464 	lea 4464 <__mulsf3>,%a2
    232a:	2f03           	movel %d3,%sp@-
    232c:	2f03           	movel %d3,%sp@-
    232e:	4e92           	jsr %a2@
    2330:	508f           	addql #8,%sp
    2332:	2400           	movel %d0,%d2
    2334:	2f3c ad47 d74e 	movel #-1387800754,%sp@-
    233a:	2f00           	movel %d0,%sp@-
    233c:	4e92           	jsr %a2@
    233e:	508f           	addql #8,%sp
    2340:	49f9 0000 41d6 	lea 41d6 <__addsf3>,%a4
    2346:	2f3c 310f 74f6 	movel #823096566,%sp@-
    234c:	2f00           	movel %d0,%sp@-
    234e:	4e94           	jsr %a4@
    2350:	588f           	addql #4,%sp
    2352:	2e82           	movel %d2,%sp@
    2354:	2f00           	movel %d0,%sp@-
    2356:	4e92           	jsr %a2@
    2358:	508f           	addql #8,%sp
    235a:	47f9 0000 41d0 	lea 41d0 <__subsf3>,%a3
    2360:	2f3c 3493 f27c 	movel #882111100,%sp@-
    2366:	2f00           	movel %d0,%sp@-
    2368:	4e93           	jsr %a3@
    236a:	588f           	addql #4,%sp
    236c:	2e82           	movel %d2,%sp@
    236e:	2f00           	movel %d0,%sp@-
    2370:	4e92           	jsr %a2@
    2372:	588f           	addql #4,%sp
    2374:	2ebc 37d0 0d01 	movel #936381697,%sp@
    237a:	2f00           	movel %d0,%sp@-
    237c:	4e94           	jsr %a4@
    237e:	588f           	addql #4,%sp
    2380:	2e82           	movel %d2,%sp@
    2382:	2f00           	movel %d0,%sp@-
    2384:	4e92           	jsr %a2@
    2386:	588f           	addql #4,%sp
    2388:	2ebc 3ab6 0b61 	movel #985008993,%sp@
    238e:	2f00           	movel %d0,%sp@-
    2390:	4e93           	jsr %a3@
    2392:	588f           	addql #4,%sp
    2394:	2e82           	movel %d2,%sp@
    2396:	2f00           	movel %d0,%sp@-
    2398:	4e92           	jsr %a2@
    239a:	588f           	addql #4,%sp
    239c:	2ebc 3d2a aaab 	movel #1026206379,%sp@
    23a2:	2f00           	movel %d0,%sp@-
    23a4:	4e94           	jsr %a4@
    23a6:	588f           	addql #4,%sp
    23a8:	2e82           	movel %d2,%sp@
    23aa:	2f00           	movel %d0,%sp@-
    23ac:	4e92           	jsr %a2@
    23ae:	508f           	addql #8,%sp
    23b0:	2a00           	movel %d0,%d5
    23b2:	2f3c 3f00 0000 	movel #1056964608,%sp@-
    23b8:	2f02           	movel %d2,%sp@-
    23ba:	4e92           	jsr %a2@
    23bc:	508f           	addql #8,%sp
    23be:	2800           	movel %d0,%d4
    23c0:	2f05           	movel %d5,%sp@-
    23c2:	2f02           	movel %d2,%sp@-
    23c4:	4e92           	jsr %a2@
    23c6:	508f           	addql #8,%sp
    23c8:	2400           	movel %d0,%d2
    23ca:	2f2f 0028      	movel %sp@(40),%sp@-
    23ce:	2f03           	movel %d3,%sp@-
    23d0:	4e92           	jsr %a2@
    23d2:	588f           	addql #4,%sp
    23d4:	2e80           	movel %d0,%sp@
    23d6:	2f02           	movel %d2,%sp@-
    23d8:	4e93           	jsr %a3@
    23da:	588f           	addql #4,%sp
    23dc:	2e80           	movel %d0,%sp@
    23de:	2f04           	movel %d4,%sp@-
    23e0:	4e93           	jsr %a3@
    23e2:	588f           	addql #4,%sp
    23e4:	2e80           	movel %d0,%sp@
    23e6:	2f3c 3f80 0000 	movel #1065353216,%sp@-
    23ec:	4e93           	jsr %a3@
    23ee:	508f           	addql #8,%sp
    23f0:	4cdf 1c7c      	moveml %sp@+,%d2-%d6/%a2-%a4
    23f4:	4e75           	rts
    23f6:	45f9 0000 4464 	lea 4464 <__mulsf3>,%a2
    23fc:	2f03           	movel %d3,%sp@-
    23fe:	2f03           	movel %d3,%sp@-
    2400:	4e92           	jsr %a2@
    2402:	508f           	addql #8,%sp
    2404:	2400           	movel %d0,%d2
    2406:	2f3c ad47 d74e 	movel #-1387800754,%sp@-
    240c:	2f00           	movel %d0,%sp@-
    240e:	4e92           	jsr %a2@
    2410:	508f           	addql #8,%sp
    2412:	49f9 0000 41d6 	lea 41d6 <__addsf3>,%a4
    2418:	2f3c 310f 74f6 	movel #823096566,%sp@-
    241e:	2f00           	movel %d0,%sp@-
    2420:	4e94           	jsr %a4@
    2422:	588f           	addql #4,%sp
    2424:	2e82           	movel %d2,%sp@
    2426:	2f00           	movel %d0,%sp@-
    2428:	4e92           	jsr %a2@
    242a:	508f           	addql #8,%sp
    242c:	47f9 0000 41d0 	lea 41d0 <__subsf3>,%a3
    2432:	2f3c 3493 f27c 	movel #882111100,%sp@-
    2438:	2f00           	movel %d0,%sp@-
    243a:	4e93           	jsr %a3@
    243c:	588f           	addql #4,%sp
    243e:	2e82           	movel %d2,%sp@
    2440:	2f00           	movel %d0,%sp@-
    2442:	4e92           	jsr %a2@
    2444:	588f           	addql #4,%sp
    2446:	2ebc 37d0 0d01 	movel #936381697,%sp@
    244c:	2f00           	movel %d0,%sp@-
    244e:	4e94           	jsr %a4@
    2450:	588f           	addql #4,%sp
    2452:	2e82           	movel %d2,%sp@
    2454:	2f00           	movel %d0,%sp@-
    2456:	4e92           	jsr %a2@
    2458:	588f           	addql #4,%sp
    245a:	2ebc 3ab6 0b61 	movel #985008993,%sp@
    2460:	2f00           	movel %d0,%sp@-
    2462:	4e93           	jsr %a3@
    2464:	588f           	addql #4,%sp
    2466:	2e82           	movel %d2,%sp@
    2468:	2f00           	movel %d0,%sp@-
    246a:	4e92           	jsr %a2@
    246c:	588f           	addql #4,%sp
    246e:	2ebc 3d2a aaab 	movel #1026206379,%sp@
    2474:	2f00           	movel %d0,%sp@-
    2476:	4e94           	jsr %a4@
    2478:	588f           	addql #4,%sp
    247a:	2e82           	movel %d2,%sp@
    247c:	2f00           	movel %d0,%sp@-
    247e:	4e92           	jsr %a2@
    2480:	508f           	addql #8,%sp
    2482:	2a00           	movel %d0,%d5
    2484:	0c84 3e99 9999 	cmpil #1050253721,%d4
    248a:	6300 ff26      	blsw 23b2 <__kernel_cosf+0xb6>
    248e:	0c84 3f48 0000 	cmpil #1061683200,%d4
    2494:	625e           	bhis 24f4 <__kernel_cosf+0x1f8>
    2496:	0684 ff00 0000 	addil #-16777216,%d4
    249c:	2c04           	movel %d4,%d6
    249e:	2f04           	movel %d4,%sp@-
    24a0:	2f3c 3f80 0000 	movel #1065353216,%sp@-
    24a6:	4e93           	jsr %a3@
    24a8:	508f           	addql #8,%sp
    24aa:	2840           	moveal %d0,%a4
    24ac:	2f3c 3f00 0000 	movel #1056964608,%sp@-
    24b2:	2f02           	movel %d2,%sp@-
    24b4:	4e92           	jsr %a2@
    24b6:	588f           	addql #4,%sp
    24b8:	2e86           	movel %d6,%sp@
    24ba:	2f00           	movel %d0,%sp@-
    24bc:	4e93           	jsr %a3@
    24be:	508f           	addql #8,%sp
    24c0:	2800           	movel %d0,%d4
    24c2:	2f05           	movel %d5,%sp@-
    24c4:	2f02           	movel %d2,%sp@-
    24c6:	4e92           	jsr %a2@
    24c8:	508f           	addql #8,%sp
    24ca:	2400           	movel %d0,%d2
    24cc:	2f2f 0028      	movel %sp@(40),%sp@-
    24d0:	2f03           	movel %d3,%sp@-
    24d2:	4e92           	jsr %a2@
    24d4:	588f           	addql #4,%sp
    24d6:	2e80           	movel %d0,%sp@
    24d8:	2f02           	movel %d2,%sp@-
    24da:	4e93           	jsr %a3@
    24dc:	588f           	addql #4,%sp
    24de:	2e80           	movel %d0,%sp@
    24e0:	2f04           	movel %d4,%sp@-
    24e2:	4e93           	jsr %a3@
    24e4:	588f           	addql #4,%sp
    24e6:	2e80           	movel %d0,%sp@
    24e8:	2f0c           	movel %a4,%sp@-
    24ea:	4e93           	jsr %a3@
    24ec:	508f           	addql #8,%sp
    24ee:	4cdf 1c7c      	moveml %sp@+,%d2-%d6/%a2-%a4
    24f2:	4e75           	rts
    24f4:	287c 3f38 0000 	moveal #1060634624,%a4
    24fa:	2c3c 3e90 0000 	movel #1049624576,%d6
    2500:	2f3c 3f00 0000 	movel #1056964608,%sp@-
    2506:	2f02           	movel %d2,%sp@-
    2508:	4e92           	jsr %a2@
    250a:	588f           	addql #4,%sp
    250c:	2e86           	movel %d6,%sp@
    250e:	2f00           	movel %d0,%sp@-
    2510:	4e93           	jsr %a3@
    2512:	508f           	addql #8,%sp
    2514:	2800           	movel %d0,%d4
    2516:	2f05           	movel %d5,%sp@-
    2518:	2f02           	movel %d2,%sp@-
    251a:	4e92           	jsr %a2@
    251c:	508f           	addql #8,%sp
    251e:	2400           	movel %d0,%d2
    2520:	2f2f 0028      	movel %sp@(40),%sp@-
    2524:	2f03           	movel %d3,%sp@-
    2526:	4e92           	jsr %a2@
    2528:	588f           	addql #4,%sp
    252a:	2e80           	movel %d0,%sp@
    252c:	2f02           	movel %d2,%sp@-
    252e:	4e93           	jsr %a3@
    2530:	588f           	addql #4,%sp
    2532:	2e80           	movel %d0,%sp@
    2534:	2f04           	movel %d4,%sp@-
    2536:	4e93           	jsr %a3@
    2538:	588f           	addql #4,%sp
    253a:	2e80           	movel %d0,%sp@
    253c:	2f0c           	movel %a4,%sp@-
    253e:	4e93           	jsr %a3@
    2540:	508f           	addql #8,%sp
    2542:	60aa           	bras 24ee <__kernel_cosf+0x1f2>
    2544:	203c 3f80 0000 	movel #1065353216,%d0
    254a:	4cdf 1c7c      	moveml %sp@+,%d2-%d6/%a2-%a4
    254e:	4e75           	rts

00002550 <__kernel_sinf>:
    2550:	48e7 3e38      	moveml %d2-%d6/%a2-%a4,%sp@-
    2554:	242f 0024      	movel %sp@(36),%d2
    2558:	2002           	movel %d2,%d0
    255a:	0880 001f      	bclr #31,%d0
    255e:	0c80 31ff ffff 	cmpil #838860799,%d0
    2564:	6210           	bhis 2576 <__kernel_sinf+0x26>
    2566:	2f02           	movel %d2,%sp@-
    2568:	4eb9 0000 4e0a 	jsr 4e0a <__fixsfsi>
    256e:	588f           	addql #4,%sp
    2570:	4a80           	tstl %d0
    2572:	6700 0104      	beqw 2678 <__kernel_sinf+0x128>
    2576:	45f9 0000 4464 	lea 4464 <__mulsf3>,%a2
    257c:	2f02           	movel %d2,%sp@-
    257e:	2f02           	movel %d2,%sp@-
    2580:	4e92           	jsr %a2@
    2582:	508f           	addql #8,%sp
    2584:	2600           	movel %d0,%d3
    2586:	2f00           	movel %d0,%sp@-
    2588:	2f02           	movel %d2,%sp@-
    258a:	4e92           	jsr %a2@
    258c:	508f           	addql #8,%sp
    258e:	2800           	movel %d0,%d4
    2590:	2f3c 2f2e c9d3 	movel #791595475,%sp@-
    2596:	2f03           	movel %d3,%sp@-
    2598:	4e92           	jsr %a2@
    259a:	508f           	addql #8,%sp
    259c:	47f9 0000 41d0 	lea 41d0 <__subsf3>,%a3
    25a2:	2f3c 32d7 2f34 	movel #852963124,%sp@-
    25a8:	2f00           	movel %d0,%sp@-
    25aa:	4e93           	jsr %a3@
    25ac:	588f           	addql #4,%sp
    25ae:	2e83           	movel %d3,%sp@
    25b0:	2f00           	movel %d0,%sp@-
    25b2:	4e92           	jsr %a2@
    25b4:	508f           	addql #8,%sp
    25b6:	49f9 0000 41d6 	lea 41d6 <__addsf3>,%a4
    25bc:	2f3c 3638 ef1b 	movel #909700891,%sp@-
    25c2:	2f00           	movel %d0,%sp@-
    25c4:	4e94           	jsr %a4@
    25c6:	588f           	addql #4,%sp
    25c8:	2e83           	movel %d3,%sp@
    25ca:	2f00           	movel %d0,%sp@-
    25cc:	4e92           	jsr %a2@
    25ce:	588f           	addql #4,%sp
    25d0:	2ebc 3950 0d01 	movel #961547521,%sp@
    25d6:	2f00           	movel %d0,%sp@-
    25d8:	4e93           	jsr %a3@
    25da:	588f           	addql #4,%sp
    25dc:	2e83           	movel %d3,%sp@
    25de:	2f00           	movel %d0,%sp@-
    25e0:	4e92           	jsr %a2@
    25e2:	588f           	addql #4,%sp
    25e4:	2ebc 3c08 8889 	movel #1007192201,%sp@
    25ea:	2f00           	movel %d0,%sp@-
    25ec:	4e94           	jsr %a4@
    25ee:	508f           	addql #8,%sp
    25f0:	2a00           	movel %d0,%d5
    25f2:	4aaf 002c      	tstl %sp@(44)
    25f6:	662a           	bnes 2622 <__kernel_sinf+0xd2>
    25f8:	2f00           	movel %d0,%sp@-
    25fa:	2f03           	movel %d3,%sp@-
    25fc:	4e92           	jsr %a2@
    25fe:	588f           	addql #4,%sp
    2600:	2ebc 3e2a aaab 	movel #1042983595,%sp@
    2606:	2f00           	movel %d0,%sp@-
    2608:	4e93           	jsr %a3@
    260a:	588f           	addql #4,%sp
    260c:	2e84           	movel %d4,%sp@
    260e:	2f00           	movel %d0,%sp@-
    2610:	4e92           	jsr %a2@
    2612:	588f           	addql #4,%sp
    2614:	2e82           	movel %d2,%sp@
    2616:	2f00           	movel %d0,%sp@-
    2618:	4e94           	jsr %a4@
    261a:	508f           	addql #8,%sp
    261c:	4cdf 1c7c      	moveml %sp@+,%d2-%d6/%a2-%a4
    2620:	4e75           	rts
    2622:	2f3c 3f00 0000 	movel #1056964608,%sp@-
    2628:	2f2f 002c      	movel %sp@(44),%sp@-
    262c:	4e92           	jsr %a2@
    262e:	508f           	addql #8,%sp
    2630:	2c00           	movel %d0,%d6
    2632:	2f05           	movel %d5,%sp@-
    2634:	2f04           	movel %d4,%sp@-
    2636:	4e92           	jsr %a2@
    2638:	588f           	addql #4,%sp
    263a:	2e80           	movel %d0,%sp@
    263c:	2f06           	movel %d6,%sp@-
    263e:	4e93           	jsr %a3@
    2640:	588f           	addql #4,%sp
    2642:	2e83           	movel %d3,%sp@
    2644:	2f00           	movel %d0,%sp@-
    2646:	4e92           	jsr %a2@
    2648:	508f           	addql #8,%sp
    264a:	2f2f 0028      	movel %sp@(40),%sp@-
    264e:	2f00           	movel %d0,%sp@-
    2650:	4e93           	jsr %a3@
    2652:	508f           	addql #8,%sp
    2654:	2600           	movel %d0,%d3
    2656:	2f3c 3e2a aaab 	movel #1042983595,%sp@-
    265c:	2f04           	movel %d4,%sp@-
    265e:	4e92           	jsr %a2@
    2660:	588f           	addql #4,%sp
    2662:	2e80           	movel %d0,%sp@
    2664:	2f03           	movel %d3,%sp@-
    2666:	4e94           	jsr %a4@
    2668:	588f           	addql #4,%sp
    266a:	2e80           	movel %d0,%sp@
    266c:	2f02           	movel %d2,%sp@-
    266e:	4e93           	jsr %a3@
    2670:	508f           	addql #8,%sp
    2672:	4cdf 1c7c      	moveml %sp@+,%d2-%d6/%a2-%a4
    2676:	4e75           	rts
    2678:	2002           	movel %d2,%d0
    267a:	4cdf 1c7c      	moveml %sp@+,%d2-%d6/%a2-%a4
    267e:	4e75           	rts

00002680 <__ieee754_rem_pio2f>:
    2680:	4e56 fff0      	linkw %fp,#-16
    2684:	48e7 3f3c      	moveml %d2-%d7/%a2-%a5,%sp@-
    2688:	242e 0008      	movel %fp@(8),%d2
    268c:	246e 000c      	moveal %fp@(12),%a2
    2690:	2602           	movel %d2,%d3
    2692:	0883 001f      	bclr #31,%d3
    2696:	0c83 3f49 0fd8 	cmpil #1061752792,%d3
    269c:	6300 0174      	blsw 2812 <__ieee754_rem_pio2f+0x192>
    26a0:	2642           	moveal %d2,%a3
    26a2:	0c83 4016 cbe3 	cmpil #1075235811,%d3
    26a8:	6262           	bhis 270c <__ieee754_rem_pio2f+0x8c>
    26aa:	2602           	movel %d2,%d3
    26ac:	0283 7fff fff0 	andil #2147483632,%d3
    26b2:	4a82           	tstl %d2
    26b4:	6f00 0412      	blew 2ac8 <__ieee754_rem_pio2f+0x448>
    26b8:	47f9 0000 41d0 	lea 41d0 <__subsf3>,%a3
    26be:	2f3c 3fc9 0f80 	movel #1070141312,%sp@-
    26c4:	2f02           	movel %d2,%sp@-
    26c6:	4e93           	jsr %a3@
    26c8:	508f           	addql #8,%sp
    26ca:	2400           	movel %d0,%d2
    26cc:	0c83 3fc9 0fd0 	cmpil #1070141392,%d3
    26d2:	6700 0168      	beqw 283c <__ieee754_rem_pio2f+0x1bc>
    26d6:	2f3c 3735 4443 	movel #926237763,%sp@-
    26dc:	2f00           	movel %d0,%sp@-
    26de:	4e93           	jsr %a3@
    26e0:	508f           	addql #8,%sp
    26e2:	2600           	movel %d0,%d3
    26e4:	2f00           	movel %d0,%sp@-
    26e6:	2f02           	movel %d2,%sp@-
    26e8:	4e93           	jsr %a3@
    26ea:	588f           	addql #4,%sp
    26ec:	2ebc 3735 4443 	movel #926237763,%sp@
    26f2:	2f00           	movel %d0,%sp@-
    26f4:	4e93           	jsr %a3@
    26f6:	508f           	addql #8,%sp
    26f8:	2483           	movel %d3,%a2@
    26fa:	2540 0004      	movel %d0,%a2@(4)
    26fe:	7801           	moveq #1,%d4
    2700:	2004           	movel %d4,%d0
    2702:	4cee 3cfc ffc8 	moveml %fp@(-56),%d2-%d7/%a2-%a5
    2708:	4e5e           	unlk %fp
    270a:	4e75           	rts
    270c:	0c83 4349 0f80 	cmpil #1128861568,%d3
    2712:	6300 0164      	blsw 2878 <__ieee754_rem_pio2f+0x1f8>
    2716:	0c83 7f7f ffff 	cmpil #2139095039,%d3
    271c:	6200 0108      	bhiw 2826 <__ieee754_rem_pio2f+0x1a6>
    2720:	2803           	movel %d3,%d4
    2722:	4844           	swap %d4
    2724:	ee44           	asrw #7,%d4
    2726:	48c4           	extl %d4
    2728:	0684 ffff ff7a 	addil #-134,%d4
    272e:	2004           	movel %d4,%d0
    2730:	ef48           	lslw #7,%d0
    2732:	4840           	swap %d0
    2734:	4240           	clrw %d0
    2736:	9680           	subl %d0,%d3
    2738:	243c 0000 4e0a 	movel #19978,%d2
    273e:	2f03           	movel %d3,%sp@-
    2740:	2042           	moveal %d2,%a0
    2742:	4e90           	jsr %a0@
    2744:	2e80           	movel %d0,%sp@
    2746:	4eb9 0000 4bd4 	jsr 4bd4 <__floatsisf>
    274c:	2d40 fff4      	movel %d0,%fp@(-12)
    2750:	4bf9 0000 41d0 	lea 41d0 <__subsf3>,%a5
    2756:	2e80           	movel %d0,%sp@
    2758:	2f03           	movel %d3,%sp@-
    275a:	4e95           	jsr %a5@
    275c:	508f           	addql #8,%sp
    275e:	49f9 0000 4464 	lea 4464 <__mulsf3>,%a4
    2764:	2f3c 4380 0000 	movel #1132462080,%sp@-
    276a:	2f00           	movel %d0,%sp@-
    276c:	4e94           	jsr %a4@
    276e:	508f           	addql #8,%sp
    2770:	2600           	movel %d0,%d3
    2772:	2f00           	movel %d0,%sp@-
    2774:	2042           	moveal %d2,%a0
    2776:	4e90           	jsr %a0@
    2778:	2e80           	movel %d0,%sp@
    277a:	4eb9 0000 4bd4 	jsr 4bd4 <__floatsisf>
    2780:	2400           	movel %d0,%d2
    2782:	2d40 fff8      	movel %d0,%fp@(-8)
    2786:	2e80           	movel %d0,%sp@
    2788:	2f03           	movel %d3,%sp@-
    278a:	4e95           	jsr %a5@
    278c:	588f           	addql #4,%sp
    278e:	2ebc 4380 0000 	movel #1132462080,%sp@
    2794:	2f00           	movel %d0,%sp@-
    2796:	4e94           	jsr %a4@
    2798:	508f           	addql #8,%sp
    279a:	2d40 fffc      	movel %d0,%fp@(-4)
    279e:	7600           	moveq #0,%d3
    27a0:	49f9 0000 4920 	lea 4920 <__eqsf2>,%a4
    27a6:	2f03           	movel %d3,%sp@-
    27a8:	2f00           	movel %d0,%sp@-
    27aa:	4e94           	jsr %a4@
    27ac:	508f           	addql #8,%sp
    27ae:	4a80           	tstl %d0
    27b0:	6600 0294      	bnew 2a46 <__ieee754_rem_pio2f+0x3c6>
    27b4:	2f03           	movel %d3,%sp@-
    27b6:	2f02           	movel %d2,%sp@-
    27b8:	4e94           	jsr %a4@
    27ba:	508f           	addql #8,%sp
    27bc:	4a80           	tstl %d0
    27be:	6600 02b4      	bnew 2a74 <__ieee754_rem_pio2f+0x3f4>
    27c2:	7001           	moveq #1,%d0
    27c4:	4879 0001 263a 	pea 1263a <two_over_pi>
    27ca:	4878 0002      	pea 2 <DOUBLE_FLOAT>
    27ce:	2f00           	movel %d0,%sp@-
    27d0:	2f04           	movel %d4,%sp@-
    27d2:	2f0a           	movel %a2,%sp@-
    27d4:	486e fff4      	pea %fp@(-12)
    27d8:	4eb9 0000 2b68 	jsr 2b68 <__kernel_rem_pio2f>
    27de:	2800           	movel %d0,%d4
    27e0:	4fef 0018      	lea %sp@(24),%sp
    27e4:	b6fc 0000      	cmpaw #0,%a3
    27e8:	6c00 ff16      	bgew 2700 <__ieee754_rem_pio2f+0x80>
    27ec:	2012           	movel %a2@,%d0
    27ee:	0680 8000 0000 	addil #-2147483648,%d0
    27f4:	2480           	movel %d0,%a2@
    27f6:	202a 0004      	movel %a2@(4),%d0
    27fa:	0680 8000 0000 	addil #-2147483648,%d0
    2800:	2540 0004      	movel %d0,%a2@(4)
    2804:	4484           	negl %d4
    2806:	2004           	movel %d4,%d0
    2808:	4cee 3cfc ffc8 	moveml %fp@(-56),%d2-%d7/%a2-%a5
    280e:	4e5e           	unlk %fp
    2810:	4e75           	rts
    2812:	2482           	movel %d2,%a2@
    2814:	42aa 0004      	clrl %a2@(4)
    2818:	7800           	moveq #0,%d4
    281a:	2004           	movel %d4,%d0
    281c:	4cee 3cfc ffc8 	moveml %fp@(-56),%d2-%d7/%a2-%a5
    2822:	4e5e           	unlk %fp
    2824:	4e75           	rts
    2826:	2f02           	movel %d2,%sp@-
    2828:	2f02           	movel %d2,%sp@-
    282a:	4eb9 0000 41d0 	jsr 41d0 <__subsf3>
    2830:	508f           	addql #8,%sp
    2832:	2540 0004      	movel %d0,%a2@(4)
    2836:	2480           	movel %d0,%a2@
    2838:	7800           	moveq #0,%d4
    283a:	60de           	bras 281a <__ieee754_rem_pio2f+0x19a>
    283c:	2f3c 3735 4400 	movel #926237696,%sp@-
    2842:	2f00           	movel %d0,%sp@-
    2844:	4e93           	jsr %a3@
    2846:	508f           	addql #8,%sp
    2848:	2400           	movel %d0,%d2
    284a:	2f3c 2e85 a308 	movel #780509960,%sp@-
    2850:	2f00           	movel %d0,%sp@-
    2852:	4e93           	jsr %a3@
    2854:	508f           	addql #8,%sp
    2856:	2600           	movel %d0,%d3
    2858:	2f00           	movel %d0,%sp@-
    285a:	2f02           	movel %d2,%sp@-
    285c:	4e93           	jsr %a3@
    285e:	588f           	addql #4,%sp
    2860:	2ebc 2e85 a308 	movel #780509960,%sp@
    2866:	2f00           	movel %d0,%sp@-
    2868:	4e93           	jsr %a3@
    286a:	508f           	addql #8,%sp
    286c:	2483           	movel %d3,%a2@
    286e:	2540 0004      	movel %d0,%a2@(4)
    2872:	7801           	moveq #1,%d4
    2874:	6000 fe8a      	braw 2700 <__ieee754_rem_pio2f+0x80>
    2878:	2f02           	movel %d2,%sp@-
    287a:	4eb9 0000 2b5c 	jsr 2b5c <fabsf>
    2880:	2a00           	movel %d0,%d5
    2882:	4bf9 0000 4464 	lea 4464 <__mulsf3>,%a5
    2888:	2f3c 3f22 f984 	movel #1059256708,%sp@-
    288e:	2f00           	movel %d0,%sp@-
    2890:	4e95           	jsr %a5@
    2892:	588f           	addql #4,%sp
    2894:	2ebc 3f00 0000 	movel #1056964608,%sp@
    289a:	2f00           	movel %d0,%sp@-
    289c:	4eb9 0000 41d6 	jsr 41d6 <__addsf3>
    28a2:	588f           	addql #4,%sp
    28a4:	2e80           	movel %d0,%sp@
    28a6:	4eb9 0000 4e0a 	jsr 4e0a <__fixsfsi>
    28ac:	2800           	movel %d0,%d4
    28ae:	2e80           	movel %d0,%sp@
    28b0:	4eb9 0000 4bd4 	jsr 4bd4 <__floatsisf>
    28b6:	2e00           	movel %d0,%d7
    28b8:	2ebc 3fc9 0f80 	movel #1070141312,%sp@
    28be:	2f00           	movel %d0,%sp@-
    28c0:	4e95           	jsr %a5@
    28c2:	508f           	addql #8,%sp
    28c4:	49f9 0000 41d0 	lea 41d0 <__subsf3>,%a4
    28ca:	2f00           	movel %d0,%sp@-
    28cc:	2f05           	movel %d5,%sp@-
    28ce:	4e94           	jsr %a4@
    28d0:	508f           	addql #8,%sp
    28d2:	2c00           	movel %d0,%d6
    28d4:	2f3c 3735 4443 	movel #926237763,%sp@-
    28da:	2f07           	movel %d7,%sp@-
    28dc:	4e95           	jsr %a5@
    28de:	2a00           	movel %d0,%d5
    28e0:	4fef 000c      	lea %sp@(12),%sp
    28e4:	701f           	moveq #31,%d0
    28e6:	b084           	cmpl %d4,%d0
    28e8:	6d62           	blts 294c <__ieee754_rem_pio2f+0x2cc>
    28ea:	0282 7fff ff00 	andil #2147483392,%d2
    28f0:	41f9 0001 25ba 	lea 125ba <npio2_hw>,%a0
    28f6:	2004           	movel %d4,%d0
    28f8:	5380           	subql #1,%d0
    28fa:	d080           	addl %d0,%d0
    28fc:	d080           	addl %d0,%d0
    28fe:	b4b0 0800      	cmpl %a0@(0,%d0:l),%d2
    2902:	6748           	beqs 294c <__ieee754_rem_pio2f+0x2cc>
    2904:	2f05           	movel %d5,%sp@-
    2906:	2f06           	movel %d6,%sp@-
    2908:	4e94           	jsr %a4@
    290a:	508f           	addql #8,%sp
    290c:	2400           	movel %d0,%d2
    290e:	2482           	movel %d2,%a2@
    2910:	2f02           	movel %d2,%sp@-
    2912:	2f06           	movel %d6,%sp@-
    2914:	4e94           	jsr %a4@
    2916:	588f           	addql #4,%sp
    2918:	2e85           	movel %d5,%sp@
    291a:	2f00           	movel %d0,%sp@-
    291c:	4e94           	jsr %a4@
    291e:	508f           	addql #8,%sp
    2920:	2540 0004      	movel %d0,%a2@(4)
    2924:	b6fc 0000      	cmpaw #0,%a3
    2928:	6c00 fdd6      	bgew 2700 <__ieee754_rem_pio2f+0x80>
    292c:	0682 8000 0000 	addil #-2147483648,%d2
    2932:	2482           	movel %d2,%a2@
    2934:	0680 8000 0000 	addil #-2147483648,%d0
    293a:	2540 0004      	movel %d0,%a2@(4)
    293e:	4484           	negl %d4
    2940:	2004           	movel %d4,%d0
    2942:	4cee 3cfc ffc8 	moveml %fp@(-56),%d2-%d7/%a2-%a5
    2948:	4e5e           	unlk %fp
    294a:	4e75           	rts
    294c:	2f05           	movel %d5,%sp@-
    294e:	2f06           	movel %d6,%sp@-
    2950:	4e94           	jsr %a4@
    2952:	508f           	addql #8,%sp
    2954:	2400           	movel %d0,%d2
    2956:	4843           	swap %d3
    2958:	ee43           	asrw #7,%d3
    295a:	48c3           	extl %d3
    295c:	4240           	clrw %d0
    295e:	4840           	swap %d0
    2960:	ee48           	lsrw #7,%d0
    2962:	7200           	moveq #0,%d1
    2964:	4601           	notb %d1
    2966:	c081           	andl %d1,%d0
    2968:	2203           	movel %d3,%d1
    296a:	9280           	subl %d0,%d1
    296c:	7008           	moveq #8,%d0
    296e:	b081           	cmpl %d1,%d0
    2970:	6c9c           	bges 290e <__ieee754_rem_pio2f+0x28e>
    2972:	2f3c 3735 4400 	movel #926237696,%sp@-
    2978:	2f07           	movel %d7,%sp@-
    297a:	4e95           	jsr %a5@
    297c:	508f           	addql #8,%sp
    297e:	2400           	movel %d0,%d2
    2980:	2f00           	movel %d0,%sp@-
    2982:	2f06           	movel %d6,%sp@-
    2984:	4e94           	jsr %a4@
    2986:	508f           	addql #8,%sp
    2988:	2d40 fff0      	movel %d0,%fp@(-16)
    298c:	2f00           	movel %d0,%sp@-
    298e:	2f06           	movel %d6,%sp@-
    2990:	4e94           	jsr %a4@
    2992:	588f           	addql #4,%sp
    2994:	2e82           	movel %d2,%sp@
    2996:	2f00           	movel %d0,%sp@-
    2998:	4e94           	jsr %a4@
    299a:	508f           	addql #8,%sp
    299c:	2400           	movel %d0,%d2
    299e:	2f3c 2e85 a308 	movel #780509960,%sp@-
    29a4:	2f07           	movel %d7,%sp@-
    29a6:	4e95           	jsr %a5@
    29a8:	588f           	addql #4,%sp
    29aa:	2e82           	movel %d2,%sp@
    29ac:	2f00           	movel %d0,%sp@-
    29ae:	4e94           	jsr %a4@
    29b0:	508f           	addql #8,%sp
    29b2:	2a00           	movel %d0,%d5
    29b4:	2f00           	movel %d0,%sp@-
    29b6:	2f2e fff0      	movel %fp@(-16),%sp@-
    29ba:	4e94           	jsr %a4@
    29bc:	508f           	addql #8,%sp
    29be:	2400           	movel %d0,%d2
    29c0:	4240           	clrw %d0
    29c2:	4840           	swap %d0
    29c4:	ee48           	lsrw #7,%d0
    29c6:	7200           	moveq #0,%d1
    29c8:	4601           	notb %d1
    29ca:	c081           	andl %d1,%d0
    29cc:	9680           	subl %d0,%d3
    29ce:	7019           	moveq #25,%d0
    29d0:	b083           	cmpl %d3,%d0
    29d2:	6c00 00ce      	bgew 2aa2 <__ieee754_rem_pio2f+0x422>
    29d6:	2f3c 2e85 a300 	movel #780509952,%sp@-
    29dc:	2f07           	movel %d7,%sp@-
    29de:	4e95           	jsr %a5@
    29e0:	508f           	addql #8,%sp
    29e2:	2400           	movel %d0,%d2
    29e4:	2f00           	movel %d0,%sp@-
    29e6:	2f2e fff0      	movel %fp@(-16),%sp@-
    29ea:	4e94           	jsr %a4@
    29ec:	508f           	addql #8,%sp
    29ee:	2c00           	movel %d0,%d6
    29f0:	2f00           	movel %d0,%sp@-
    29f2:	2f2e fff0      	movel %fp@(-16),%sp@-
    29f6:	4e94           	jsr %a4@
    29f8:	588f           	addql #4,%sp
    29fa:	2e82           	movel %d2,%sp@
    29fc:	2f00           	movel %d0,%sp@-
    29fe:	4e94           	jsr %a4@
    2a00:	508f           	addql #8,%sp
    2a02:	2400           	movel %d0,%d2
    2a04:	2f3c 248d 3132 	movel #613232946,%sp@-
    2a0a:	2f07           	movel %d7,%sp@-
    2a0c:	4e95           	jsr %a5@
    2a0e:	588f           	addql #4,%sp
    2a10:	2e82           	movel %d2,%sp@
    2a12:	2f00           	movel %d0,%sp@-
    2a14:	4e94           	jsr %a4@
    2a16:	508f           	addql #8,%sp
    2a18:	2a00           	movel %d0,%d5
    2a1a:	2f00           	movel %d0,%sp@-
    2a1c:	2f06           	movel %d6,%sp@-
    2a1e:	4e94           	jsr %a4@
    2a20:	508f           	addql #8,%sp
    2a22:	2400           	movel %d0,%d2
    2a24:	2482           	movel %d2,%a2@
    2a26:	2f02           	movel %d2,%sp@-
    2a28:	2f06           	movel %d6,%sp@-
    2a2a:	4e94           	jsr %a4@
    2a2c:	588f           	addql #4,%sp
    2a2e:	2e85           	movel %d5,%sp@
    2a30:	2f00           	movel %d0,%sp@-
    2a32:	4e94           	jsr %a4@
    2a34:	508f           	addql #8,%sp
    2a36:	2540 0004      	movel %d0,%a2@(4)
    2a3a:	b6fc 0000      	cmpaw #0,%a3
    2a3e:	6c00 fcc0      	bgew 2700 <__ieee754_rem_pio2f+0x80>
    2a42:	6000 fee8      	braw 292c <__ieee754_rem_pio2f+0x2ac>
    2a46:	7003           	moveq #3,%d0
    2a48:	4879 0001 263a 	pea 1263a <two_over_pi>
    2a4e:	4878 0002      	pea 2 <DOUBLE_FLOAT>
    2a52:	2f00           	movel %d0,%sp@-
    2a54:	2f04           	movel %d4,%sp@-
    2a56:	2f0a           	movel %a2,%sp@-
    2a58:	486e fff4      	pea %fp@(-12)
    2a5c:	4eb9 0000 2b68 	jsr 2b68 <__kernel_rem_pio2f>
    2a62:	2800           	movel %d0,%d4
    2a64:	4fef 0018      	lea %sp@(24),%sp
    2a68:	b6fc 0000      	cmpaw #0,%a3
    2a6c:	6c00 fc92      	bgew 2700 <__ieee754_rem_pio2f+0x80>
    2a70:	6000 fd7a      	braw 27ec <__ieee754_rem_pio2f+0x16c>
    2a74:	7002           	moveq #2,%d0
    2a76:	4879 0001 263a 	pea 1263a <two_over_pi>
    2a7c:	4878 0002      	pea 2 <DOUBLE_FLOAT>
    2a80:	2f00           	movel %d0,%sp@-
    2a82:	2f04           	movel %d4,%sp@-
    2a84:	2f0a           	movel %a2,%sp@-
    2a86:	486e fff4      	pea %fp@(-12)
    2a8a:	4eb9 0000 2b68 	jsr 2b68 <__kernel_rem_pio2f>
    2a90:	2800           	movel %d0,%d4
    2a92:	4fef 0018      	lea %sp@(24),%sp
    2a96:	b6fc 0000      	cmpaw #0,%a3
    2a9a:	6c00 fc64      	bgew 2700 <__ieee754_rem_pio2f+0x80>
    2a9e:	6000 fd4c      	braw 27ec <__ieee754_rem_pio2f+0x16c>
    2aa2:	2c2e fff0      	movel %fp@(-16),%d6
    2aa6:	2482           	movel %d2,%a2@
    2aa8:	2f02           	movel %d2,%sp@-
    2aaa:	2f06           	movel %d6,%sp@-
    2aac:	4e94           	jsr %a4@
    2aae:	588f           	addql #4,%sp
    2ab0:	2e85           	movel %d5,%sp@
    2ab2:	2f00           	movel %d0,%sp@-
    2ab4:	4e94           	jsr %a4@
    2ab6:	508f           	addql #8,%sp
    2ab8:	2540 0004      	movel %d0,%a2@(4)
    2abc:	b6fc 0000      	cmpaw #0,%a3
    2ac0:	6c00 fc3e      	bgew 2700 <__ieee754_rem_pio2f+0x80>
    2ac4:	6000 fe66      	braw 292c <__ieee754_rem_pio2f+0x2ac>
    2ac8:	47f9 0000 41d6 	lea 41d6 <__addsf3>,%a3
    2ace:	2f3c 3fc9 0f80 	movel #1070141312,%sp@-
    2ad4:	2f02           	movel %d2,%sp@-
    2ad6:	4e93           	jsr %a3@
    2ad8:	508f           	addql #8,%sp
    2ada:	2400           	movel %d0,%d2
    2adc:	0c83 3fc9 0fd0 	cmpil #1070141392,%d3
    2ae2:	673a           	beqs 2b1e <__ieee754_rem_pio2f+0x49e>
    2ae4:	2f3c 3735 4443 	movel #926237763,%sp@-
    2aea:	2f00           	movel %d0,%sp@-
    2aec:	4e93           	jsr %a3@
    2aee:	508f           	addql #8,%sp
    2af0:	2600           	movel %d0,%d3
    2af2:	2f00           	movel %d0,%sp@-
    2af4:	2f02           	movel %d2,%sp@-
    2af6:	4eb9 0000 41d0 	jsr 41d0 <__subsf3>
    2afc:	588f           	addql #4,%sp
    2afe:	2ebc 3735 4443 	movel #926237763,%sp@
    2b04:	2f00           	movel %d0,%sp@-
    2b06:	4e93           	jsr %a3@
    2b08:	508f           	addql #8,%sp
    2b0a:	2483           	movel %d3,%a2@
    2b0c:	2540 0004      	movel %d0,%a2@(4)
    2b10:	78ff           	moveq #-1,%d4
    2b12:	2004           	movel %d4,%d0
    2b14:	4cee 3cfc ffc8 	moveml %fp@(-56),%d2-%d7/%a2-%a5
    2b1a:	4e5e           	unlk %fp
    2b1c:	4e75           	rts
    2b1e:	2f3c 3735 4400 	movel #926237696,%sp@-
    2b24:	2f00           	movel %d0,%sp@-
    2b26:	4e93           	jsr %a3@
    2b28:	508f           	addql #8,%sp
    2b2a:	2400           	movel %d0,%d2
    2b2c:	2f3c 2e85 a308 	movel #780509960,%sp@-
    2b32:	2f00           	movel %d0,%sp@-
    2b34:	4e93           	jsr %a3@
    2b36:	508f           	addql #8,%sp
    2b38:	2600           	movel %d0,%d3
    2b3a:	2f00           	movel %d0,%sp@-
    2b3c:	2f02           	movel %d2,%sp@-
    2b3e:	4eb9 0000 41d0 	jsr 41d0 <__subsf3>
    2b44:	588f           	addql #4,%sp
    2b46:	2ebc 2e85 a308 	movel #780509960,%sp@
    2b4c:	2f00           	movel %d0,%sp@-
    2b4e:	4e93           	jsr %a3@
    2b50:	508f           	addql #8,%sp
    2b52:	2483           	movel %d3,%a2@
    2b54:	2540 0004      	movel %d0,%a2@(4)
    2b58:	78ff           	moveq #-1,%d4
    2b5a:	60b6           	bras 2b12 <__ieee754_rem_pio2f+0x492>

00002b5c <fabsf>:
    2b5c:	202f 0004      	movel %sp@(4),%d0
    2b60:	0880 001f      	bclr #31,%d0
    2b64:	4e75           	rts
	...

00002b68 <__kernel_rem_pio2f>:
    2b68:	4fef fe90      	lea %sp@(-368),%sp
    2b6c:	48e7 3f3e      	moveml %d2-%d7/%a2-%fp,%sp@-
    2b70:	202f 01b0      	movel %sp@(432),%d0
    2b74:	d080           	addl %d0,%d0
    2b76:	d080           	addl %d0,%d0
    2b78:	41f9 0001 297e 	lea 1297e <init_jk>,%a0
    2b7e:	2f70 0800 0040 	movel %a0@(0,%d0:l),%sp@(64)
    2b84:	222f 01ac      	movel %sp@(428),%d1
    2b88:	5381           	subql #1,%d1
    2b8a:	2f41 0044      	movel %d1,%sp@(68)
    2b8e:	70fc           	moveq #-4,%d0
    2b90:	b0af 01a8      	cmpl %sp@(424),%d0
    2b94:	6e00 0766      	bgtw 32fc <__kernel_rem_pio2f+0x794>
    2b98:	202f 01a8      	movel %sp@(424),%d0
    2b9c:	5780           	subql #3,%d0
    2b9e:	6b00 0814      	bmiw 33b4 <__kernel_rem_pio2f+0x84c>
    2ba2:	e680           	asrl #3,%d0
    2ba4:	2f40 0048      	movel %d0,%sp@(72)
    2ba8:	5280           	addql #1,%d0
    2baa:	e788           	lsll #3,%d0
    2bac:	2f40 0058      	movel %d0,%sp@(88)
    2bb0:	222f 01a8      	movel %sp@(424),%d1
    2bb4:	92af 0058      	subl %sp@(88),%d1
    2bb8:	2f41 003c      	movel %d1,%sp@(60)
    2bbc:	266f 0048      	moveal %sp@(72),%a3
    2bc0:	97ef 0044      	subal %sp@(68),%a3
    2bc4:	206f 0040      	moveal %sp@(64),%a0
    2bc8:	d1ef 0044      	addal %sp@(68),%a0
    2bcc:	b0fc 0000      	cmpaw #0,%a0
    2bd0:	6d00 0758      	bltw 332a <__kernel_rem_pio2f+0x7c2>
    2bd4:	49ef 00ac      	lea %sp@(172),%a4
    2bd8:	4bf3 b800      	lea %a3@(0,%a3:l),%a5
    2bdc:	dbcd           	addal %a5,%a5
    2bde:	dbef 01b4      	addal %sp@(436),%a5
    2be2:	45f0 b801      	lea %a0@(1,%a3:l),%a2
    2be6:	2f7c 0000 4bd4 	movel #19412,%sp@(56)
    2bec:	0038 
    2bee:	7400           	moveq #0,%d2
    2bf0:	4df9 0000 4bd4 	lea 4bd4 <__floatsisf>,%fp
    2bf6:	b6fc 0000      	cmpaw #0,%a3
    2bfa:	6d00 0648      	bltw 3244 <__kernel_rem_pio2f+0x6dc>
    2bfe:	2f15           	movel %a5@,%sp@-
    2c00:	4e96           	jsr %fp@
    2c02:	588f           	addql #4,%sp
    2c04:	28c0           	movel %d0,%a4@+
    2c06:	528b           	addql #1,%a3
    2c08:	588d           	addql #4,%a5
    2c0a:	b5cb           	cmpal %a3,%a2
    2c0c:	66e8           	bnes 2bf6 <__kernel_rem_pio2f+0x8e>
    2c0e:	45f9 0000 4464 	lea 4464 <__mulsf3>,%a2
    2c14:	4aaf 0040      	tstl %sp@(64)
    2c18:	6d68           	blts 2c82 <__kernel_rem_pio2f+0x11a>
    2c1a:	4def 014c      	lea %sp@(332),%fp
    2c1e:	282f 0044      	movel %sp@(68),%d4
    2c22:	2004           	movel %d4,%d0
    2c24:	d084           	addl %d4,%d0
    2c26:	d080           	addl %d0,%d0
    2c28:	7653           	moveq #83,%d3
    2c2a:	4603           	notb %d3
    2c2c:	d68f           	addl %sp,%d3
    2c2e:	d680           	addl %d0,%d3
    2c30:	2a2f 0040      	movel %sp@(64),%d5
    2c34:	daaf 01ac      	addl %sp@(428),%d5
    2c38:	206f 01a0      	moveal %sp@(416),%a0
    2c3c:	41f0 0804      	lea %a0@(4,%d0:l),%a0
    2c40:	2e08           	movel %a0,%d7
    2c42:	45f9 0000 4464 	lea 4464 <__mulsf3>,%a2
    2c48:	7c00           	moveq #0,%d6
    2c4a:	47f9 0000 41d6 	lea 41d6 <__addsf3>,%a3
    2c50:	2406           	movel %d6,%d2
    2c52:	4aaf 0044      	tstl %sp@(68)
    2c56:	6d20           	blts 2c78 <__kernel_rem_pio2f+0x110>
    2c58:	2843           	moveal %d3,%a4
    2c5a:	2a6f 01a0      	moveal %sp@(416),%a5
    2c5e:	2406           	movel %d6,%d2
    2c60:	2f14           	movel %a4@,%sp@-
    2c62:	2f1d           	movel %a5@+,%sp@-
    2c64:	4e92           	jsr %a2@
    2c66:	588f           	addql #4,%sp
    2c68:	2e80           	movel %d0,%sp@
    2c6a:	2f02           	movel %d2,%sp@-
    2c6c:	4e93           	jsr %a3@
    2c6e:	508f           	addql #8,%sp
    2c70:	2400           	movel %d0,%d2
    2c72:	598c           	subql #4,%a4
    2c74:	be8d           	cmpl %a5,%d7
    2c76:	66e8           	bnes 2c60 <__kernel_rem_pio2f+0xf8>
    2c78:	2cc2           	movel %d2,%fp@+
    2c7a:	5883           	addql #4,%d3
    2c7c:	5284           	addql #1,%d4
    2c7e:	ba84           	cmpl %d4,%d5
    2c80:	66ce           	bnes 2c50 <__kernel_rem_pio2f+0xe8>
    2c82:	41ef 005c      	lea %sp@(92),%a0
    2c86:	2f48 002c      	movel %a0,%sp@(44)
    2c8a:	202f 0040      	movel %sp@(64),%d0
    2c8e:	d080           	addl %d0,%d0
    2c90:	d080           	addl %d0,%d0
    2c92:	2208           	movel %a0,%d1
    2c94:	d280           	addl %d0,%d1
    2c96:	2f41 0054      	movel %d1,%sp@(84)
    2c9a:	41f7 0854      	lea %sp@(54,%d0:l),%a0
    2c9e:	2f48 0050      	movel %a0,%sp@(80)
    2ca2:	202f 01ac      	movel %sp@(428),%d0
    2ca6:	d080           	addl %d0,%d0
    2ca8:	d080           	addl %d0,%d0
    2caa:	262f 01a0      	movel %sp@(416),%d3
    2cae:	d680           	addl %d0,%d3
    2cb0:	242f 0040      	movel %sp@(64),%d2
    2cb4:	2002           	movel %d2,%d0
    2cb6:	5380           	subql #1,%d0
    2cb8:	d080           	addl %d0,%d0
    2cba:	d080           	addl %d0,%d0
    2cbc:	223c 0000 019c 	movel #412,%d1
    2cc2:	d28f           	addl %sp,%d1
    2cc4:	d081           	addl %d1,%d0
    2cc6:	0680 ffff fec0 	addil #-320,%d0
    2ccc:	2f40 004c      	movel %d0,%sp@(76)
    2cd0:	2a02           	movel %d2,%d5
    2cd2:	da82           	addl %d2,%d5
    2cd4:	2005           	movel %d5,%d0
    2cd6:	d085           	addl %d5,%d0
    2cd8:	41ef 014c      	lea %sp@(332),%a0
    2cdc:	2c30 0800      	movel %a0@(0,%d0:l),%d6
    2ce0:	4a82           	tstl %d2
    2ce2:	6f60           	bles 2d44 <__kernel_rem_pio2f+0x1dc>
    2ce4:	2a48           	moveal %a0,%a5
    2ce6:	47f0 0800      	lea %a0@(0,%d0:l),%a3
    2cea:	49ef 005c      	lea %sp@(92),%a4
    2cee:	283c 0000 41d6 	movel #16854,%d4
    2cf4:	2c6f 0038      	moveal %sp@(56),%fp
    2cf8:	2f3c 3b80 0000 	movel #998244352,%sp@-
    2cfe:	2f06           	movel %d6,%sp@-
    2d00:	4e92           	jsr %a2@
    2d02:	588f           	addql #4,%sp
    2d04:	2e80           	movel %d0,%sp@
    2d06:	4eb9 0000 4e0a 	jsr 4e0a <__fixsfsi>
    2d0c:	2e80           	movel %d0,%sp@
    2d0e:	4e96           	jsr %fp@
    2d10:	2e00           	movel %d0,%d7
    2d12:	2ebc 4380 0000 	movel #1132462080,%sp@
    2d18:	2f00           	movel %d0,%sp@-
    2d1a:	4e92           	jsr %a2@
    2d1c:	588f           	addql #4,%sp
    2d1e:	2e80           	movel %d0,%sp@
    2d20:	2f06           	movel %d6,%sp@-
    2d22:	4eb9 0000 41d0 	jsr 41d0 <__subsf3>
    2d28:	588f           	addql #4,%sp
    2d2a:	2e80           	movel %d0,%sp@
    2d2c:	4eb9 0000 4e0a 	jsr 4e0a <__fixsfsi>
    2d32:	28c0           	movel %d0,%a4@+
    2d34:	2ea3           	movel %a3@-,%sp@
    2d36:	2f07           	movel %d7,%sp@-
    2d38:	2044           	moveal %d4,%a0
    2d3a:	4e90           	jsr %a0@
    2d3c:	508f           	addql #8,%sp
    2d3e:	2c00           	movel %d0,%d6
    2d40:	b7cd           	cmpal %a5,%a3
    2d42:	66b4           	bnes 2cf8 <__kernel_rem_pio2f+0x190>
    2d44:	2f2f 003c      	movel %sp@(60),%sp@-
    2d48:	2f06           	movel %d6,%sp@-
    2d4a:	4eb9 0000 3550 	jsr 3550 <scalbnf>
    2d50:	2800           	movel %d0,%d4
    2d52:	2f3c 3e00 0000 	movel #1040187392,%sp@-
    2d58:	2f00           	movel %d0,%sp@-
    2d5a:	4e92           	jsr %a2@
    2d5c:	588f           	addql #4,%sp
    2d5e:	2e80           	movel %d0,%sp@
    2d60:	4eb9 0000 36cc 	jsr 36cc <floorf>
    2d66:	2f3c 4100 0000 	movel #1090519040,%sp@-
    2d6c:	2f00           	movel %d0,%sp@-
    2d6e:	4e92           	jsr %a2@
    2d70:	588f           	addql #4,%sp
    2d72:	2e80           	movel %d0,%sp@
    2d74:	2f04           	movel %d4,%sp@-
    2d76:	4eb9 0000 41d0 	jsr 41d0 <__subsf3>
    2d7c:	508f           	addql #8,%sp
    2d7e:	2c00           	movel %d0,%d6
    2d80:	2f00           	movel %d0,%sp@-
    2d82:	4eb9 0000 4e0a 	jsr 4e0a <__fixsfsi>
    2d88:	2800           	movel %d0,%d4
    2d8a:	2e80           	movel %d0,%sp@
    2d8c:	206f 0048      	moveal %sp@(72),%a0
    2d90:	4e90           	jsr %a0@
    2d92:	2e80           	movel %d0,%sp@
    2d94:	2f06           	movel %d6,%sp@-
    2d96:	4eb9 0000 41d0 	jsr 41d0 <__subsf3>
    2d9c:	2c00           	movel %d0,%d6
    2d9e:	4fef 0014      	lea %sp@(20),%sp
    2da2:	4aaf 003c      	tstl %sp@(60)
    2da6:	6f00 0452      	blew 31fa <__kernel_rem_pio2f+0x692>
    2daa:	2002           	movel %d2,%d0
    2dac:	5380           	subql #1,%d0
    2dae:	d080           	addl %d0,%d0
    2db0:	d080           	addl %d0,%d0
    2db2:	41ef 019c      	lea %sp@(412),%a0
    2db6:	d1c0           	addal %d0,%a0
    2db8:	41e8 fec0      	lea %a0@(-320),%a0
    2dbc:	2010           	movel %a0@,%d0
    2dbe:	7e08           	moveq #8,%d7
    2dc0:	9eaf 003c      	subl %sp@(60),%d7
    2dc4:	2200           	movel %d0,%d1
    2dc6:	eea1           	asrl %d7,%d1
    2dc8:	d881           	addl %d1,%d4
    2dca:	efa9           	lsll %d7,%d1
    2dcc:	9081           	subl %d1,%d0
    2dce:	2080           	movel %d0,%a0@
    2dd0:	7207           	moveq #7,%d1
    2dd2:	92af 003c      	subl %sp@(60),%d1
    2dd6:	2e00           	movel %d0,%d7
    2dd8:	e2a7           	asrl %d1,%d7
    2dda:	4a87           	tstl %d7
    2ddc:	6e00 00e8      	bgtw 2ec6 <__kernel_rem_pio2f+0x35e>
    2de0:	42a7           	clrl %sp@-
    2de2:	2f06           	movel %d6,%sp@-
    2de4:	4eb9 0000 4920 	jsr 4920 <__eqsf2>
    2dea:	508f           	addql #8,%sp
    2dec:	4a80           	tstl %d0
    2dee:	6600 0196      	bnew 2f86 <__kernel_rem_pio2f+0x41e>
    2df2:	b4af 0040      	cmpl %sp@(64),%d2
    2df6:	6f1c           	bles 2e14 <__kernel_rem_pio2f+0x2ac>
    2df8:	2005           	movel %d5,%d0
    2dfa:	d085           	addl %d5,%d0
    2dfc:	41ef 005c      	lea %sp@(92),%a0
    2e00:	d1c0           	addal %d0,%a0
    2e02:	7000           	moveq #0,%d0
    2e04:	222f 0054      	movel %sp@(84),%d1
    2e08:	80a0           	orl %a0@-,%d0
    2e0a:	b288           	cmpl %a0,%d1
    2e0c:	66fa           	bnes 2e08 <__kernel_rem_pio2f+0x2a0>
    2e0e:	4a80           	tstl %d0
    2e10:	6600 0354      	bnew 3166 <__kernel_rem_pio2f+0x5fe>
    2e14:	206f 004c      	moveal %sp@(76),%a0
    2e18:	4a90           	tstl %a0@
    2e1a:	6600 0454      	bnew 3270 <__kernel_rem_pio2f+0x708>
    2e1e:	206f 0050      	moveal %sp@(80),%a0
    2e22:	7001           	moveq #1,%d0
    2e24:	5280           	addql #1,%d0
    2e26:	5988           	subql #4,%a0
    2e28:	4aa8 0004      	tstl %a0@(4)
    2e2c:	67f6           	beqs 2e24 <__kernel_rem_pio2f+0x2bc>
    2e2e:	2202           	movel %d2,%d1
    2e30:	5281           	addql #1,%d1
    2e32:	2801           	movel %d1,%d4
    2e34:	2c02           	movel %d2,%d6
    2e36:	dc80           	addl %d0,%d6
    2e38:	2a41           	moveal %d1,%a5
    2e3a:	dbef 0048      	addal %sp@(72),%a5
    2e3e:	dbcd           	addal %a5,%a5
    2e40:	dbcd           	addal %a5,%a5
    2e42:	dbef 01b4      	addal %sp@(436),%a5
    2e46:	2f4d 0030      	movel %a5,%sp@(48)
    2e4a:	d4af 01ac      	addl %sp@(428),%d2
    2e4e:	d482           	addl %d2,%d2
    2e50:	d482           	addl %d2,%d2
    2e52:	49ef 00ac      	lea %sp@(172),%a4
    2e56:	d9c2           	addal %d2,%a4
    2e58:	d281           	addl %d1,%d1
    2e5a:	d281           	addl %d1,%d1
    2e5c:	41ef 014c      	lea %sp@(332),%a0
    2e60:	41f0 1800      	lea %a0@(0,%d1:l),%a0
    2e64:	7e00           	moveq #0,%d7
    2e66:	47f9 0000 41d6 	lea 41d6 <__addsf3>,%a3
    2e6c:	2f48 0034      	movel %a0,%sp@(52)
    2e70:	2a2f 0044      	movel %sp@(68),%d5
    2e74:	206f 0030      	moveal %sp@(48),%a0
    2e78:	58af 0030      	addql #4,%sp@(48)
    2e7c:	2f18           	movel %a0@+,%sp@-
    2e7e:	206f 003c      	moveal %sp@(60),%a0
    2e82:	4e90           	jsr %a0@
    2e84:	588f           	addql #4,%sp
    2e86:	2880           	movel %d0,%a4@
    2e88:	2c4c           	moveal %a4,%fp
    2e8a:	588c           	addql #4,%a4
    2e8c:	4a85           	tstl %d5
    2e8e:	6d00 0344      	bltw 31d4 <__kernel_rem_pio2f+0x66c>
    2e92:	2a6f 01a0      	moveal %sp@(416),%a5
    2e96:	2407           	movel %d7,%d2
    2e98:	2f16           	movel %fp@,%sp@-
    2e9a:	2f1d           	movel %a5@+,%sp@-
    2e9c:	4e92           	jsr %a2@
    2e9e:	588f           	addql #4,%sp
    2ea0:	2e80           	movel %d0,%sp@
    2ea2:	2f02           	movel %d2,%sp@-
    2ea4:	4e93           	jsr %a3@
    2ea6:	508f           	addql #8,%sp
    2ea8:	2400           	movel %d0,%d2
    2eaa:	598e           	subql #4,%fp
    2eac:	b68d           	cmpl %a5,%d3
    2eae:	66e8           	bnes 2e98 <__kernel_rem_pio2f+0x330>
    2eb0:	206f 0034      	moveal %sp@(52),%a0
    2eb4:	58af 0034      	addql #4,%sp@(52)
    2eb8:	20c2           	movel %d2,%a0@+
    2eba:	5284           	addql #1,%d4
    2ebc:	bc84           	cmpl %d4,%d6
    2ebe:	6cb4           	bges 2e74 <__kernel_rem_pio2f+0x30c>
    2ec0:	2406           	movel %d6,%d2
    2ec2:	6000 fe0c      	braw 2cd0 <__kernel_rem_pio2f+0x168>
    2ec6:	5284           	addql #1,%d4
    2ec8:	97cb           	subal %a3,%a3
    2eca:	4a82           	tstl %d2
    2ecc:	6f3a           	bles 2f08 <__kernel_rem_pio2f+0x3a0>
    2ece:	41ef 005c      	lea %sp@(92),%a0
    2ed2:	2658           	moveal %a0@+,%a3
    2ed4:	7200           	moveq #0,%d1
    2ed6:	b6fc 0000      	cmpaw #0,%a3
    2eda:	6700 0310      	beqw 31ec <__kernel_rem_pio2f+0x684>
    2ede:	203c 0000 0100 	movel #256,%d0
    2ee4:	908b           	subl %a3,%d0
    2ee6:	2140 fffc      	movel %d0,%a0@(-4)
    2eea:	5281           	addql #1,%d1
    2eec:	b282           	cmpl %d2,%d1
    2eee:	6c0e           	bges 2efe <__kernel_rem_pio2f+0x396>
    2ef0:	7000           	moveq #0,%d0
    2ef2:	4600           	notb %d0
    2ef4:	9090           	subl %a0@,%d0
    2ef6:	20c0           	movel %d0,%a0@+
    2ef8:	5281           	addql #1,%d1
    2efa:	b282           	cmpl %d2,%d1
    2efc:	6df2           	blts 2ef0 <__kernel_rem_pio2f+0x388>
    2efe:	367c 0001      	moveaw #1,%a3
    2f02:	4aaf 003c      	tstl %sp@(60)
    2f06:	6f2a           	bles 2f32 <__kernel_rem_pio2f+0x3ca>
    2f08:	7001           	moveq #1,%d0
    2f0a:	b0af 003c      	cmpl %sp@(60),%d0
    2f0e:	6700 03a8      	beqw 32b8 <__kernel_rem_pio2f+0x750>
    2f12:	7202           	moveq #2,%d1
    2f14:	b2af 003c      	cmpl %sp@(60),%d1
    2f18:	6618           	bnes 2f32 <__kernel_rem_pio2f+0x3ca>
    2f1a:	2042           	moveal %d2,%a0
    2f1c:	5388           	subql #1,%a0
    2f1e:	d1c8           	addal %a0,%a0
    2f20:	d1c8           	addal %a0,%a0
    2f22:	203c 0000 019c 	movel #412,%d0
    2f28:	d08f           	addl %sp,%d0
    2f2a:	d1c0           	addal %d0,%a0
    2f2c:	723f           	moveq #63,%d1
    2f2e:	c3a8 fec0      	andl %d1,%a0@(-320)
    2f32:	7002           	moveq #2,%d0
    2f34:	b087           	cmpl %d7,%d0
    2f36:	6600 fea8      	bnew 2de0 <__kernel_rem_pio2f+0x278>
    2f3a:	2f06           	movel %d6,%sp@-
    2f3c:	2f3c 3f80 0000 	movel #1065353216,%sp@-
    2f42:	4eb9 0000 41d0 	jsr 41d0 <__subsf3>
    2f48:	508f           	addql #8,%sp
    2f4a:	2c00           	movel %d0,%d6
    2f4c:	b6fc 0000      	cmpaw #0,%a3
    2f50:	6700 fe8e      	beqw 2de0 <__kernel_rem_pio2f+0x278>
    2f54:	2f2f 003c      	movel %sp@(60),%sp@-
    2f58:	2f3c 3f80 0000 	movel #1065353216,%sp@-
    2f5e:	4eb9 0000 3550 	jsr 3550 <scalbnf>
    2f64:	2f00           	movel %d0,%sp@-
    2f66:	2f06           	movel %d6,%sp@-
    2f68:	4eb9 0000 41d0 	jsr 41d0 <__subsf3>
    2f6e:	2c00           	movel %d0,%d6
    2f70:	4fef 0010      	lea %sp@(16),%sp
    2f74:	42a7           	clrl %sp@-
    2f76:	2f06           	movel %d6,%sp@-
    2f78:	4eb9 0000 4920 	jsr 4920 <__eqsf2>
    2f7e:	508f           	addql #8,%sp
    2f80:	4a80           	tstl %d0
    2f82:	6700 fe6e      	beqw 2df2 <__kernel_rem_pio2f+0x28a>
    2f86:	222f 0058      	movel %sp@(88),%d1
    2f8a:	92af 01a8      	subl %sp@(424),%d1
    2f8e:	2f01           	movel %d1,%sp@-
    2f90:	2f06           	movel %d6,%sp@-
    2f92:	4eb9 0000 3550 	jsr 3550 <scalbnf>
    2f98:	2600           	movel %d0,%d3
    2f9a:	508f           	addql #8,%sp
    2f9c:	2c3c 4380 0000 	movel #1132462080,%d6
    2fa2:	2f06           	movel %d6,%sp@-
    2fa4:	2f00           	movel %d0,%sp@-
    2fa6:	4eb9 0000 4958 	jsr 4958 <__gesf2>
    2fac:	508f           	addql #8,%sp
    2fae:	4a80           	tstl %d0
    2fb0:	6d00 04f2      	bltw 34a4 <__kernel_rem_pio2f+0x93c>
    2fb4:	2f3c 3b80 0000 	movel #998244352,%sp@-
    2fba:	2f03           	movel %d3,%sp@-
    2fbc:	4e92           	jsr %a2@
    2fbe:	588f           	addql #4,%sp
    2fc0:	2e80           	movel %d0,%sp@
    2fc2:	4eb9 0000 4e0a 	jsr 4e0a <__fixsfsi>
    2fc8:	2e80           	movel %d0,%sp@
    2fca:	206f 003c      	moveal %sp@(60),%a0
    2fce:	4e90           	jsr %a0@
    2fd0:	588f           	addql #4,%sp
    2fd2:	2840           	moveal %d0,%a4
    2fd4:	2645           	moveal %d5,%a3
    2fd6:	d7c5           	addal %d5,%a3
    2fd8:	203c 0000 019c 	movel #412,%d0
    2fde:	d08f           	addl %sp,%d0
    2fe0:	d7c0           	addal %d0,%a3
    2fe2:	47eb fec0      	lea %a3@(-320),%a3
    2fe6:	2f06           	movel %d6,%sp@-
    2fe8:	2f0c           	movel %a4,%sp@-
    2fea:	4e92           	jsr %a2@
    2fec:	588f           	addql #4,%sp
    2fee:	2e80           	movel %d0,%sp@
    2ff0:	2f03           	movel %d3,%sp@-
    2ff2:	4eb9 0000 41d0 	jsr 41d0 <__subsf3>
    2ff8:	588f           	addql #4,%sp
    2ffa:	2e80           	movel %d0,%sp@
    2ffc:	4eb9 0000 4e0a 	jsr 4e0a <__fixsfsi>
    3002:	588f           	addql #4,%sp
    3004:	2680           	movel %d0,%a3@
    3006:	2602           	movel %d2,%d3
    3008:	5283           	addql #1,%d3
    300a:	50af 003c      	addql #8,%sp@(60)
    300e:	2003           	movel %d3,%d0
    3010:	d083           	addl %d3,%d0
    3012:	d080           	addl %d0,%d0
    3014:	47ef 019c      	lea %sp@(412),%a3
    3018:	d7c0           	addal %d0,%a3
    301a:	47eb fec0      	lea %a3@(-320),%a3
    301e:	2f0c           	movel %a4,%sp@-
    3020:	4eb9 0000 4e0a 	jsr 4e0a <__fixsfsi>
    3026:	588f           	addql #4,%sp
    3028:	2680           	movel %d0,%a3@
    302a:	2f2f 003c      	movel %sp@(60),%sp@-
    302e:	2f3c 3f80 0000 	movel #1065353216,%sp@-
    3034:	4eb9 0000 3550 	jsr 3550 <scalbnf>
    303a:	2400           	movel %d0,%d2
    303c:	508f           	addql #8,%sp
    303e:	4a83           	tstl %d3
    3040:	6d00 0174      	bltw 31b6 <__kernel_rem_pio2f+0x64e>
    3044:	2003           	movel %d3,%d0
    3046:	d083           	addl %d3,%d0
    3048:	d080           	addl %d0,%d0
    304a:	2f40 0034      	movel %d0,%sp@(52)
    304e:	49ef 005c      	lea %sp@(92),%a4
    3052:	d9c0           	addal %d0,%a4
    3054:	41ef 014c      	lea %sp@(332),%a0
    3058:	2f48 0044      	movel %a0,%sp@(68)
    305c:	2c08           	movel %a0,%d6
    305e:	dc80           	addl %d0,%d6
    3060:	2646           	moveal %d6,%a3
    3062:	2a6f 0038      	moveal %sp@(56),%a5
    3066:	2f14           	movel %a4@,%sp@-
    3068:	4e95           	jsr %a5@
    306a:	2e82           	movel %d2,%sp@
    306c:	2f00           	movel %d0,%sp@-
    306e:	4e92           	jsr %a2@
    3070:	508f           	addql #8,%sp
    3072:	2680           	movel %d0,%a3@
    3074:	2f3c 3b80 0000 	movel #998244352,%sp@-
    307a:	2f02           	movel %d2,%sp@-
    307c:	4e92           	jsr %a2@
    307e:	508f           	addql #8,%sp
    3080:	2400           	movel %d0,%d2
    3082:	200c           	movel %a4,%d0
    3084:	598c           	subql #4,%a4
    3086:	598b           	subql #4,%a3
    3088:	b0af 002c      	cmpl %sp@(44),%d0
    308c:	66d8           	bnes 3066 <__kernel_rem_pio2f+0x4fe>
    308e:	41ef 00fc      	lea %sp@(252),%a0
    3092:	2f48 003c      	movel %a0,%sp@(60)
    3096:	2f48 0030      	movel %a0,%sp@(48)
    309a:	7a00           	moveq #0,%d5
    309c:	47f9 0000 41d6 	lea 41d6 <__addsf3>,%a3
    30a2:	2f43 0038      	movel %d3,%sp@(56)
    30a6:	4aaf 0040      	tstl %sp@(64)
    30aa:	6d4a           	blts 30f6 <__kernel_rem_pio2f+0x58e>
    30ac:	4bf9 0001 2952 	lea 12952 <PIo2>,%a5
    30b2:	2c46           	moveal %d6,%fp
    30b4:	7400           	moveq #0,%d2
    30b6:	99cc           	subal %a4,%a4
    30b8:	262f 0040      	movel %sp@(64),%d3
    30bc:	2f1e           	movel %fp@+,%sp@-
    30be:	2f1d           	movel %a5@+,%sp@-
    30c0:	4e92           	jsr %a2@
    30c2:	588f           	addql #4,%sp
    30c4:	2e80           	movel %d0,%sp@
    30c6:	2f02           	movel %d2,%sp@-
    30c8:	4e93           	jsr %a3@
    30ca:	508f           	addql #8,%sp
    30cc:	2400           	movel %d0,%d2
    30ce:	528c           	addql #1,%a4
    30d0:	b9c3           	cmpal %d3,%a4
    30d2:	6e04           	bgts 30d8 <__kernel_rem_pio2f+0x570>
    30d4:	ba8c           	cmpl %a4,%d5
    30d6:	6ce4           	bges 30bc <__kernel_rem_pio2f+0x554>
    30d8:	206f 0030      	moveal %sp@(48),%a0
    30dc:	58af 0030      	addql #4,%sp@(48)
    30e0:	20c2           	movel %d2,%a0@+
    30e2:	5285           	addql #1,%d5
    30e4:	2006           	movel %d6,%d0
    30e6:	5980           	subql #4,%d0
    30e8:	bcaf 0044      	cmpl %sp@(68),%d6
    30ec:	6720           	beqs 310e <__kernel_rem_pio2f+0x5a6>
    30ee:	2c00           	movel %d0,%d6
    30f0:	4aaf 0040      	tstl %sp@(64)
    30f4:	6cb6           	bges 30ac <__kernel_rem_pio2f+0x544>
    30f6:	7400           	moveq #0,%d2
    30f8:	206f 0030      	moveal %sp@(48),%a0
    30fc:	58af 0030      	addql #4,%sp@(48)
    3100:	20c2           	movel %d2,%a0@+
    3102:	5285           	addql #1,%d5
    3104:	2006           	movel %d6,%d0
    3106:	5980           	subql #4,%d0
    3108:	bcaf 0044      	cmpl %sp@(68),%d6
    310c:	66e0           	bnes 30ee <__kernel_rem_pio2f+0x586>
    310e:	262f 0038      	movel %sp@(56),%d3
    3112:	7002           	moveq #2,%d0
    3114:	b0af 01b0      	cmpl %sp@(432),%d0
    3118:	6d00 02b2      	bltw 33cc <__kernel_rem_pio2f+0x864>
    311c:	4aaf 01b0      	tstl %sp@(432)
    3120:	6e00 0214      	bgtw 3336 <__kernel_rem_pio2f+0x7ce>
    3124:	6632           	bnes 3158 <__kernel_rem_pio2f+0x5f0>
    3126:	47ef 00fc      	lea %sp@(252),%a3
    312a:	d7ef 0034      	addal %sp@(52),%a3
    312e:	7000           	moveq #0,%d0
    3130:	45f9 0000 41d6 	lea 41d6 <__addsf3>,%a2
    3136:	2f13           	movel %a3@,%sp@-
    3138:	2f00           	movel %d0,%sp@-
    313a:	4e92           	jsr %a2@
    313c:	508f           	addql #8,%sp
    313e:	220b           	movel %a3,%d1
    3140:	598b           	subql #4,%a3
    3142:	b2af 003c      	cmpl %sp@(60),%d1
    3146:	66ee           	bnes 3136 <__kernel_rem_pio2f+0x5ce>
    3148:	4a87           	tstl %d7
    314a:	6706           	beqs 3152 <__kernel_rem_pio2f+0x5ea>
    314c:	0680 8000 0000 	addil #-2147483648,%d0
    3152:	206f 01a4      	moveal %sp@(420),%a0
    3156:	2080           	movel %d0,%a0@
    3158:	7007           	moveq #7,%d0
    315a:	c084           	andl %d4,%d0
    315c:	4cdf 7cfc      	moveml %sp@+,%d2-%d7/%a2-%fp
    3160:	4fef 0170      	lea %sp@(368),%sp
    3164:	4e75           	rts
    3166:	2602           	movel %d2,%d3
    3168:	5383           	subql #1,%d3
    316a:	51af 003c      	subql #8,%sp@(60)
    316e:	2003           	movel %d3,%d0
    3170:	d083           	addl %d3,%d0
    3172:	d080           	addl %d0,%d0
    3174:	41ef 019c      	lea %sp@(412),%a0
    3178:	d1c0           	addal %d0,%a0
    317a:	4aa8 fec0      	tstl %a0@(-320)
    317e:	6600 feaa      	bnew 302a <__kernel_rem_pio2f+0x4c2>
    3182:	e58a           	lsll #2,%d2
    3184:	41f7 2854      	lea %sp@(54,%d2:l),%a0
    3188:	202f 003c      	movel %sp@(60),%d0
    318c:	5383           	subql #1,%d3
    318e:	5180           	subql #8,%d0
    3190:	5988           	subql #4,%a0
    3192:	4aa8 0004      	tstl %a0@(4)
    3196:	67f4           	beqs 318c <__kernel_rem_pio2f+0x624>
    3198:	2f40 003c      	movel %d0,%sp@(60)
    319c:	2f2f 003c      	movel %sp@(60),%sp@-
    31a0:	2f3c 3f80 0000 	movel #1065353216,%sp@-
    31a6:	4eb9 0000 3550 	jsr 3550 <scalbnf>
    31ac:	2400           	movel %d0,%d2
    31ae:	508f           	addql #8,%sp
    31b0:	4a83           	tstl %d3
    31b2:	6c00 fe90      	bgew 3044 <__kernel_rem_pio2f+0x4dc>
    31b6:	7002           	moveq #2,%d0
    31b8:	b0af 01b0      	cmpl %sp@(432),%d0
    31bc:	6d00 034a      	bltw 3508 <__kernel_rem_pio2f+0x9a0>
    31c0:	4aaf 01b0      	tstl %sp@(432)
    31c4:	6e00 035e      	bgtw 3524 <__kernel_rem_pio2f+0x9bc>
    31c8:	668e           	bnes 3158 <__kernel_rem_pio2f+0x5f0>
    31ca:	7000           	moveq #0,%d0
    31cc:	4a87           	tstl %d7
    31ce:	6782           	beqs 3152 <__kernel_rem_pio2f+0x5ea>
    31d0:	6000 ff7a      	braw 314c <__kernel_rem_pio2f+0x5e4>
    31d4:	2407           	movel %d7,%d2
    31d6:	206f 0034      	moveal %sp@(52),%a0
    31da:	58af 0034      	addql #4,%sp@(52)
    31de:	20c2           	movel %d2,%a0@+
    31e0:	5284           	addql #1,%d4
    31e2:	bc84           	cmpl %d4,%d6
    31e4:	6c00 fc8e      	bgew 2e74 <__kernel_rem_pio2f+0x30c>
    31e8:	6000 fcd6      	braw 2ec0 <__kernel_rem_pio2f+0x358>
    31ec:	5281           	addql #1,%d1
    31ee:	b282           	cmpl %d2,%d1
    31f0:	6c00 fd10      	bgew 2f02 <__kernel_rem_pio2f+0x39a>
    31f4:	2658           	moveal %a0@+,%a3
    31f6:	6000 fcde      	braw 2ed6 <__kernel_rem_pio2f+0x36e>
    31fa:	4aaf 003c      	tstl %sp@(60)
    31fe:	6656           	bnes 3256 <__kernel_rem_pio2f+0x6ee>
    3200:	2002           	movel %d2,%d0
    3202:	5380           	subql #1,%d0
    3204:	d080           	addl %d0,%d0
    3206:	d080           	addl %d0,%d0
    3208:	41ef 019c      	lea %sp@(412),%a0
    320c:	d1c0           	addal %d0,%a0
    320e:	2028 fec0      	movel %a0@(-320),%d0
    3212:	2e00           	movel %d0,%d7
    3214:	ee87           	asrl #7,%d7
    3216:	727f           	moveq #127,%d1
    3218:	b280           	cmpl %d0,%d1
    321a:	6c00 fbc4      	bgew 2de0 <__kernel_rem_pio2f+0x278>
    321e:	5284           	addql #1,%d4
    3220:	4a82           	tstl %d2
    3222:	6e00 fcaa      	bgtw 2ece <__kernel_rem_pio2f+0x366>
    3226:	7202           	moveq #2,%d1
    3228:	b287           	cmpl %d7,%d1
    322a:	6600 fbb4      	bnew 2de0 <__kernel_rem_pio2f+0x278>
    322e:	2f06           	movel %d6,%sp@-
    3230:	2f3c 3f80 0000 	movel #1065353216,%sp@-
    3236:	4eb9 0000 41d0 	jsr 41d0 <__subsf3>
    323c:	508f           	addql #8,%sp
    323e:	2c00           	movel %d0,%d6
    3240:	6000 fb9e      	braw 2de0 <__kernel_rem_pio2f+0x278>
    3244:	2002           	movel %d2,%d0
    3246:	28c0           	movel %d0,%a4@+
    3248:	528b           	addql #1,%a3
    324a:	588d           	addql #4,%a5
    324c:	b5cb           	cmpal %a3,%a2
    324e:	6600 f9a6      	bnew 2bf6 <__kernel_rem_pio2f+0x8e>
    3252:	6000 f9ba      	braw 2c0e <__kernel_rem_pio2f+0xa6>
    3256:	2f3c 3f00 0000 	movel #1056964608,%sp@-
    325c:	2f00           	movel %d0,%sp@-
    325e:	4eb9 0000 4958 	jsr 4958 <__gesf2>
    3264:	508f           	addql #8,%sp
    3266:	4a80           	tstl %d0
    3268:	6c72           	bges 32dc <__kernel_rem_pio2f+0x774>
    326a:	7e00           	moveq #0,%d7
    326c:	6000 fb72      	braw 2de0 <__kernel_rem_pio2f+0x278>
    3270:	2202           	movel %d2,%d1
    3272:	5281           	addql #1,%d1
    3274:	2801           	movel %d1,%d4
    3276:	2c01           	movel %d1,%d6
    3278:	2a41           	moveal %d1,%a5
    327a:	dbef 0048      	addal %sp@(72),%a5
    327e:	dbcd           	addal %a5,%a5
    3280:	dbcd           	addal %a5,%a5
    3282:	dbef 01b4      	addal %sp@(436),%a5
    3286:	2f4d 0030      	movel %a5,%sp@(48)
    328a:	d4af 01ac      	addl %sp@(428),%d2
    328e:	d482           	addl %d2,%d2
    3290:	d482           	addl %d2,%d2
    3292:	49ef 00ac      	lea %sp@(172),%a4
    3296:	d9c2           	addal %d2,%a4
    3298:	d281           	addl %d1,%d1
    329a:	d281           	addl %d1,%d1
    329c:	41ef 014c      	lea %sp@(332),%a0
    32a0:	41f0 1800      	lea %a0@(0,%d1:l),%a0
    32a4:	7e00           	moveq #0,%d7
    32a6:	47f9 0000 41d6 	lea 41d6 <__addsf3>,%a3
    32ac:	2f48 0034      	movel %a0,%sp@(52)
    32b0:	2a2f 0044      	movel %sp@(68),%d5
    32b4:	6000 fbbe      	braw 2e74 <__kernel_rem_pio2f+0x30c>
    32b8:	2042           	moveal %d2,%a0
    32ba:	5388           	subql #1,%a0
    32bc:	d1c8           	addal %a0,%a0
    32be:	d1c8           	addal %a0,%a0
    32c0:	203c 0000 019c 	movel #412,%d0
    32c6:	d08f           	addl %sp,%d0
    32c8:	d1c0           	addal %d0,%a0
    32ca:	727f           	moveq #127,%d1
    32cc:	c3a8 fec0      	andl %d1,%a0@(-320)
    32d0:	7002           	moveq #2,%d0
    32d2:	b087           	cmpl %d7,%d0
    32d4:	6600 fb0a      	bnew 2de0 <__kernel_rem_pio2f+0x278>
    32d8:	6000 fc60      	braw 2f3a <__kernel_rem_pio2f+0x3d2>
    32dc:	5284           	addql #1,%d4
    32de:	7e02           	moveq #2,%d7
    32e0:	4a82           	tstl %d2
    32e2:	6e00 fbea      	bgtw 2ece <__kernel_rem_pio2f+0x366>
    32e6:	2f06           	movel %d6,%sp@-
    32e8:	2f3c 3f80 0000 	movel #1065353216,%sp@-
    32ee:	4eb9 0000 41d0 	jsr 41d0 <__subsf3>
    32f4:	508f           	addql #8,%sp
    32f6:	2c00           	movel %d0,%d6
    32f8:	6000 fae6      	braw 2de0 <__kernel_rem_pio2f+0x278>
    32fc:	7208           	moveq #8,%d1
    32fe:	2f41 0058      	movel %d1,%sp@(88)
    3302:	42af 0048      	clrl %sp@(72)
    3306:	222f 01a8      	movel %sp@(424),%d1
    330a:	92af 0058      	subl %sp@(88),%d1
    330e:	2f41 003c      	movel %d1,%sp@(60)
    3312:	266f 0048      	moveal %sp@(72),%a3
    3316:	97ef 0044      	subal %sp@(68),%a3
    331a:	206f 0040      	moveal %sp@(64),%a0
    331e:	d1ef 0044      	addal %sp@(68),%a0
    3322:	b0fc 0000      	cmpaw #0,%a0
    3326:	6c00 f8ac      	bgew 2bd4 <__kernel_rem_pio2f+0x6c>
    332a:	2f7c 0000 4bd4 	movel #19412,%sp@(56)
    3330:	0038 
    3332:	6000 f8da      	braw 2c0e <__kernel_rem_pio2f+0xa6>
    3336:	47ef 00fc      	lea %sp@(252),%a3
    333a:	d7ef 0034      	addal %sp@(52),%a3
    333e:	7400           	moveq #0,%d2
    3340:	45f9 0000 41d6 	lea 41d6 <__addsf3>,%a2
    3346:	2f13           	movel %a3@,%sp@-
    3348:	2f02           	movel %d2,%sp@-
    334a:	4e92           	jsr %a2@
    334c:	508f           	addql #8,%sp
    334e:	2400           	movel %d0,%d2
    3350:	200b           	movel %a3,%d0
    3352:	598b           	subql #4,%a3
    3354:	b0af 003c      	cmpl %sp@(60),%d0
    3358:	66ec           	bnes 3346 <__kernel_rem_pio2f+0x7de>
    335a:	2f02           	movel %d2,%sp@-
    335c:	2f2f 0100      	movel %sp@(256),%sp@-
    3360:	4eb9 0000 41d0 	jsr 41d0 <__subsf3>
    3366:	508f           	addql #8,%sp
    3368:	4a87           	tstl %d7
    336a:	6700 0184      	beqw 34f0 <__kernel_rem_pio2f+0x988>
    336e:	0682 8000 0000 	addil #-2147483648,%d2
    3374:	206f 01a4      	moveal %sp@(420),%a0
    3378:	2082           	movel %d2,%a0@
    337a:	4a83           	tstl %d3
    337c:	671a           	beqs 3398 <__kernel_rem_pio2f+0x830>
    337e:	4bef 00fc      	lea %sp@(252),%a5
    3382:	588d           	addql #4,%a5
    3384:	7401           	moveq #1,%d2
    3386:	2f1d           	movel %a5@+,%sp@-
    3388:	2f00           	movel %d0,%sp@-
    338a:	4e92           	jsr %a2@
    338c:	508f           	addql #8,%sp
    338e:	5282           	addql #1,%d2
    3390:	b483           	cmpl %d3,%d2
    3392:	6ff2           	bles 3386 <__kernel_rem_pio2f+0x81e>
    3394:	4a87           	tstl %d7
    3396:	6706           	beqs 339e <__kernel_rem_pio2f+0x836>
    3398:	0680 8000 0000 	addil #-2147483648,%d0
    339e:	206f 01a4      	moveal %sp@(420),%a0
    33a2:	2140 0004      	movel %d0,%a0@(4)
    33a6:	7007           	moveq #7,%d0
    33a8:	c084           	andl %d4,%d0
    33aa:	4cdf 7cfc      	moveml %sp@+,%d2-%d7/%a2-%fp
    33ae:	4fef 0170      	lea %sp@(368),%sp
    33b2:	4e75           	rts
    33b4:	202f 01a8      	movel %sp@(424),%d0
    33b8:	5880           	addql #4,%d0
    33ba:	e680           	asrl #3,%d0
    33bc:	2f40 0048      	movel %d0,%sp@(72)
    33c0:	5280           	addql #1,%d0
    33c2:	e788           	lsll #3,%d0
    33c4:	2f40 0058      	movel %d0,%sp@(88)
    33c8:	6000 f7e6      	braw 2bb0 <__kernel_rem_pio2f+0x48>
    33cc:	7203           	moveq #3,%d1
    33ce:	b2af 01b0      	cmpl %sp@(432),%d1
    33d2:	6600 fd84      	bnew 3158 <__kernel_rem_pio2f+0x5f0>
    33d6:	4a83           	tstl %d3
    33d8:	6700 0138      	beqw 3512 <__kernel_rem_pio2f+0x9aa>
    33dc:	4bef 00fc      	lea %sp@(252),%a5
    33e0:	dbef 0034      	addal %sp@(52),%a5
    33e4:	2a15           	movel %a5@,%d5
    33e6:	41ef 00f8      	lea %sp@(248),%a0
    33ea:	222f 0034      	movel %sp@(52),%d1
    33ee:	47f0 1800      	lea %a0@(0,%d1:l),%a3
    33f2:	2c4b           	moveal %a3,%fp
    33f4:	45f9 0000 41d6 	lea 41d6 <__addsf3>,%a2
    33fa:	2c0e           	movel %fp,%d6
    33fc:	2856           	moveal %fp@,%a4
    33fe:	2405           	movel %d5,%d2
    3400:	2f0c           	movel %a4,%sp@-
    3402:	2f05           	movel %d5,%sp@-
    3404:	4e92           	jsr %a2@
    3406:	508f           	addql #8,%sp
    3408:	2a00           	movel %d0,%d5
    340a:	2f00           	movel %d0,%sp@-
    340c:	2f0c           	movel %a4,%sp@-
    340e:	4eb9 0000 41d0 	jsr 41d0 <__subsf3>
    3414:	588f           	addql #4,%sp
    3416:	2e82           	movel %d2,%sp@
    3418:	2f00           	movel %d0,%sp@-
    341a:	4e92           	jsr %a2@
    341c:	508f           	addql #8,%sp
    341e:	2d40 0004      	movel %d0,%fp@(4)
    3422:	2c85           	movel %d5,%fp@
    3424:	598e           	subql #4,%fp
    3426:	bcaf 003c      	cmpl %sp@(60),%d6
    342a:	66ce           	bnes 33fa <__kernel_rem_pio2f+0x892>
    342c:	5383           	subql #1,%d3
    342e:	6700 00e2      	beqw 3512 <__kernel_rem_pio2f+0x9aa>
    3432:	2415           	movel %a5@,%d2
    3434:	2a13           	movel %a3@,%d5
    3436:	2602           	movel %d2,%d3
    3438:	2f05           	movel %d5,%sp@-
    343a:	2f02           	movel %d2,%sp@-
    343c:	4e92           	jsr %a2@
    343e:	508f           	addql #8,%sp
    3440:	2400           	movel %d0,%d2
    3442:	2f00           	movel %d0,%sp@-
    3444:	2f05           	movel %d5,%sp@-
    3446:	4eb9 0000 41d0 	jsr 41d0 <__subsf3>
    344c:	588f           	addql #4,%sp
    344e:	2e83           	movel %d3,%sp@
    3450:	2f00           	movel %d0,%sp@-
    3452:	4e92           	jsr %a2@
    3454:	508f           	addql #8,%sp
    3456:	2740 0004      	movel %d0,%a3@(4)
    345a:	2682           	movel %d2,%a3@
    345c:	598b           	subql #4,%a3
    345e:	b7ef 003c      	cmpal %sp@(60),%a3
    3462:	66d0           	bnes 3434 <__kernel_rem_pio2f+0x8cc>
    3464:	284d           	moveal %a5,%a4
    3466:	4bef 00fc      	lea %sp@(252),%a5
    346a:	588d           	addql #4,%a5
    346c:	7000           	moveq #0,%d0
    346e:	2f14           	movel %a4@,%sp@-
    3470:	2f00           	movel %d0,%sp@-
    3472:	4e92           	jsr %a2@
    3474:	508f           	addql #8,%sp
    3476:	598c           	subql #4,%a4
    3478:	b9cd           	cmpal %a5,%a4
    347a:	66f2           	bnes 346e <__kernel_rem_pio2f+0x906>
    347c:	242f 00fc      	movel %sp@(252),%d2
    3480:	222f 0100      	movel %sp@(256),%d1
    3484:	4a87           	tstl %d7
    3486:	663a           	bnes 34c2 <__kernel_rem_pio2f+0x95a>
    3488:	206f 01a4      	moveal %sp@(420),%a0
    348c:	2082           	movel %d2,%a0@
    348e:	2141 0004      	movel %d1,%a0@(4)
    3492:	2140 0008      	movel %d0,%a0@(8)
    3496:	7007           	moveq #7,%d0
    3498:	c084           	andl %d4,%d0
    349a:	4cdf 7cfc      	moveml %sp@+,%d2-%d7/%a2-%fp
    349e:	4fef 0170      	lea %sp@(368),%sp
    34a2:	4e75           	rts
    34a4:	da85           	addl %d5,%d5
    34a6:	47ef 019c      	lea %sp@(412),%a3
    34aa:	d7c5           	addal %d5,%a3
    34ac:	47eb fec0      	lea %a3@(-320),%a3
    34b0:	2f03           	movel %d3,%sp@-
    34b2:	4eb9 0000 4e0a 	jsr 4e0a <__fixsfsi>
    34b8:	588f           	addql #4,%sp
    34ba:	2680           	movel %d0,%a3@
    34bc:	2602           	movel %d2,%d3
    34be:	6000 fb6a      	braw 302a <__kernel_rem_pio2f+0x4c2>
    34c2:	0682 8000 0000 	addil #-2147483648,%d2
    34c8:	206f 01a4      	moveal %sp@(420),%a0
    34cc:	2082           	movel %d2,%a0@
    34ce:	0681 8000 0000 	addil #-2147483648,%d1
    34d4:	2141 0004      	movel %d1,%a0@(4)
    34d8:	0680 8000 0000 	addil #-2147483648,%d0
    34de:	2140 0008      	movel %d0,%a0@(8)
    34e2:	7007           	moveq #7,%d0
    34e4:	c084           	andl %d4,%d0
    34e6:	4cdf 7cfc      	moveml %sp@+,%d2-%d7/%a2-%fp
    34ea:	4fef 0170      	lea %sp@(368),%sp
    34ee:	4e75           	rts
    34f0:	206f 01a4      	moveal %sp@(420),%a0
    34f4:	2082           	movel %d2,%a0@
    34f6:	4a83           	tstl %d3
    34f8:	6700 fea4      	beqw 339e <__kernel_rem_pio2f+0x836>
    34fc:	4bef 00fc      	lea %sp@(252),%a5
    3500:	588d           	addql #4,%a5
    3502:	7401           	moveq #1,%d2
    3504:	6000 fe80      	braw 3386 <__kernel_rem_pio2f+0x81e>
    3508:	7203           	moveq #3,%d1
    350a:	b2af 01b0      	cmpl %sp@(432),%d1
    350e:	6600 fc48      	bnew 3158 <__kernel_rem_pio2f+0x5f0>
    3512:	7000           	moveq #0,%d0
    3514:	242f 00fc      	movel %sp@(252),%d2
    3518:	222f 0100      	movel %sp@(256),%d1
    351c:	4a87           	tstl %d7
    351e:	66a2           	bnes 34c2 <__kernel_rem_pio2f+0x95a>
    3520:	6000 ff66      	braw 3488 <__kernel_rem_pio2f+0x920>
    3524:	202f 00fc      	movel %sp@(252),%d0
    3528:	206f 01a4      	moveal %sp@(420),%a0
    352c:	4a87           	tstl %d7
    352e:	660e           	bnes 353e <__kernel_rem_pio2f+0x9d6>
    3530:	4290           	clrl %a0@
    3532:	206f 01a4      	moveal %sp@(420),%a0
    3536:	2140 0004      	movel %d0,%a0@(4)
    353a:	6000 fe6a      	braw 33a6 <__kernel_rem_pio2f+0x83e>
    353e:	20bc 8000 0000 	movel #-2147483648,%a0@
    3544:	0680 8000 0000 	addil #-2147483648,%d0
    354a:	6000 fe52      	braw 339e <__kernel_rem_pio2f+0x836>
	...

00003550 <scalbnf>:
    3550:	48e7 3020      	moveml %d2-%d3/%a2,%sp@-
    3554:	202f 0010      	movel %sp@(16),%d0
    3558:	2400           	movel %d0,%d2
    355a:	2200           	movel %d0,%d1
    355c:	0881 001f      	bclr #31,%d1
    3560:	4a81           	tstl %d1
    3562:	6700 0090      	beqw 35f4 <scalbnf+0xa4>
    3566:	0c81 7f7f ffff 	cmpil #2139095039,%d1
    356c:	6200 008c      	bhiw 35fa <scalbnf+0xaa>
    3570:	0282 7f80 0000 	andil #2139095040,%d2
    3576:	6600 0094      	bnew 360c <scalbnf+0xbc>
    357a:	45f9 0000 4464 	lea 4464 <__mulsf3>,%a2
    3580:	2f3c 4c00 0000 	movel #1275068416,%sp@-
    3586:	2f00           	movel %d0,%sp@-
    3588:	4e92           	jsr %a2@
    358a:	508f           	addql #8,%sp
    358c:	0caf ffff 3cb0 	cmpil #-50000,%sp@(20)
    3592:	0014 
    3594:	6d00 00ce      	bltw 3664 <scalbnf+0x114>
    3598:	2400           	movel %d0,%d2
    359a:	2200           	movel %d0,%d1
    359c:	4841           	swap %d1
    359e:	ee41           	asrw #7,%d1
    35a0:	48c1           	extl %d1
    35a2:	7600           	moveq #0,%d3
    35a4:	4603           	notb %d3
    35a6:	c283           	andl %d3,%d1
    35a8:	76e7           	moveq #-25,%d3
    35aa:	d283           	addl %d3,%d1
    35ac:	0caf 0000 c350 	cmpil #50000,%sp@(20)
    35b2:	0014 
    35b4:	6e68           	bgts 361e <scalbnf+0xce>
    35b6:	d2af 0014      	addl %sp@(20),%d1
    35ba:	0c81 0000 00fe 	cmpil #254,%d1
    35c0:	6e00 0082      	bgtw 3644 <scalbnf+0xf4>
    35c4:	4a81           	tstl %d1
    35c6:	6e00 00ae      	bgtw 3676 <scalbnf+0x126>
    35ca:	76ea           	moveq #-22,%d3
    35cc:	b681           	cmpl %d1,%d3
    35ce:	6e00 00d4      	bgtw 36a4 <scalbnf+0x154>
    35d2:	7019           	moveq #25,%d0
    35d4:	d280           	addl %d0,%d1
    35d6:	ef49           	lslw #7,%d1
    35d8:	4841           	swap %d1
    35da:	4241           	clrw %d1
    35dc:	0282 807f ffff 	andil #-2139095041,%d2
    35e2:	8282           	orl %d2,%d1
    35e4:	2f3c 3300 0000 	movel #855638016,%sp@-
    35ea:	2f01           	movel %d1,%sp@-
    35ec:	4eb9 0000 4464 	jsr 4464 <__mulsf3>
    35f2:	508f           	addql #8,%sp
    35f4:	4cdf 040c      	moveml %sp@+,%d2-%d3/%a2
    35f8:	4e75           	rts
    35fa:	2f00           	movel %d0,%sp@-
    35fc:	2f00           	movel %d0,%sp@-
    35fe:	4eb9 0000 41d6 	jsr 41d6 <__addsf3>
    3604:	508f           	addql #8,%sp
    3606:	4cdf 040c      	moveml %sp@+,%d2-%d3/%a2
    360a:	4e75           	rts
    360c:	2400           	movel %d0,%d2
    360e:	4241           	clrw %d1
    3610:	4841           	swap %d1
    3612:	ee49           	lsrw #7,%d1
    3614:	0caf 0000 c350 	cmpil #50000,%sp@(20)
    361a:	0014 
    361c:	6f98           	bles 35b6 <scalbnf+0x66>
    361e:	223c 7149 f2ca 	movel #1900671690,%d1
    3624:	4a80           	tstl %d0
    3626:	6c06           	bges 362e <scalbnf+0xde>
    3628:	223c f149 f2ca 	movel #-246811958,%d1
    362e:	2f3c 7149 f2ca 	movel #1900671690,%sp@-
    3634:	2f01           	movel %d1,%sp@-
    3636:	4eb9 0000 4464 	jsr 4464 <__mulsf3>
    363c:	508f           	addql #8,%sp
    363e:	4cdf 040c      	moveml %sp@+,%d2-%d3/%a2
    3642:	4e75           	rts
    3644:	223c 7149 f2ca 	movel #1900671690,%d1
    364a:	4a80           	tstl %d0
    364c:	6d3e           	blts 368c <scalbnf+0x13c>
    364e:	2f3c 7149 f2ca 	movel #1900671690,%sp@-
    3654:	2f01           	movel %d1,%sp@-
    3656:	4eb9 0000 4464 	jsr 4464 <__mulsf3>
    365c:	508f           	addql #8,%sp
    365e:	4cdf 040c      	moveml %sp@+,%d2-%d3/%a2
    3662:	4e75           	rts
    3664:	2f3c 0da2 4260 	movel #228737632,%sp@-
    366a:	2f00           	movel %d0,%sp@-
    366c:	4e92           	jsr %a2@
    366e:	508f           	addql #8,%sp
    3670:	4cdf 040c      	moveml %sp@+,%d2-%d3/%a2
    3674:	4e75           	rts
    3676:	0282 807f ffff 	andil #-2139095041,%d2
    367c:	ef49           	lslw #7,%d1
    367e:	4841           	swap %d1
    3680:	4241           	clrw %d1
    3682:	2002           	movel %d2,%d0
    3684:	8081           	orl %d1,%d0
    3686:	4cdf 040c      	moveml %sp@+,%d2-%d3/%a2
    368a:	4e75           	rts
    368c:	223c f149 f2ca 	movel #-246811958,%d1
    3692:	2f3c 7149 f2ca 	movel #1900671690,%sp@-
    3698:	2f01           	movel %d1,%sp@-
    369a:	4eb9 0000 4464 	jsr 4464 <__mulsf3>
    36a0:	508f           	addql #8,%sp
    36a2:	60ba           	bras 365e <scalbnf+0x10e>
    36a4:	223c 0da2 4260 	movel #228737632,%d1
    36aa:	4a80           	tstl %d0
    36ac:	6c06           	bges 36b4 <scalbnf+0x164>
    36ae:	223c 8da2 4260 	movel #-1918746016,%d1
    36b4:	2f3c 0da2 4260 	movel #228737632,%sp@-
    36ba:	2f01           	movel %d1,%sp@-
    36bc:	4eb9 0000 4464 	jsr 4464 <__mulsf3>
    36c2:	508f           	addql #8,%sp
    36c4:	4cdf 040c      	moveml %sp@+,%d2-%d3/%a2
    36c8:	4e75           	rts
	...

000036cc <floorf>:
    36cc:	48e7 3c20      	moveml %d2-%d5/%a2,%sp@-
    36d0:	242f 0018      	movel %sp@(24),%d2
    36d4:	2602           	movel %d2,%d3
    36d6:	0883 001f      	bclr #31,%d3
    36da:	2003           	movel %d3,%d0
    36dc:	4240           	clrw %d0
    36de:	4840           	swap %d0
    36e0:	ee48           	lsrw #7,%d0
    36e2:	2440           	moveal %d0,%a2
    36e4:	45ea ff81      	lea %a2@(-127),%a2
    36e8:	7016           	moveq #22,%d0
    36ea:	b08a           	cmpl %a2,%d0
    36ec:	6d7e           	blts 376c <floorf+0xa0>
    36ee:	2a02           	movel %d2,%d5
    36f0:	b4fc 0000      	cmpaw #0,%a2
    36f4:	6d40           	blts 3736 <floorf+0x6a>
    36f6:	263c 007f ffff 	movel #8388607,%d3
    36fc:	200a           	movel %a2,%d0
    36fe:	e0a3           	asrl %d0,%d3
    3700:	2003           	movel %d3,%d0
    3702:	c082           	andl %d2,%d0
    3704:	675e           	beqs 3764 <floorf+0x98>
    3706:	2f3c 7149 f2ca 	movel #1900671690,%sp@-
    370c:	2f02           	movel %d2,%sp@-
    370e:	4eb9 0000 41d6 	jsr 41d6 <__addsf3>
    3714:	588f           	addql #4,%sp
    3716:	4297           	clrl %sp@
    3718:	2f00           	movel %d0,%sp@-
    371a:	4eb9 0000 493c 	jsr 493c <__gtsf2>
    3720:	508f           	addql #8,%sp
    3722:	4a80           	tstl %d0
    3724:	6f3e           	bles 3764 <floorf+0x98>
    3726:	4a82           	tstl %d2
    3728:	6d5c           	blts 3786 <floorf+0xba>
    372a:	4683           	notl %d3
    372c:	2003           	movel %d3,%d0
    372e:	c085           	andl %d5,%d0
    3730:	4cdf 043c      	moveml %sp@+,%d2-%d5/%a2
    3734:	4e75           	rts
    3736:	2f3c 7149 f2ca 	movel #1900671690,%sp@-
    373c:	2f02           	movel %d2,%sp@-
    373e:	4eb9 0000 41d6 	jsr 41d6 <__addsf3>
    3744:	508f           	addql #8,%sp
    3746:	7a00           	moveq #0,%d5
    3748:	2f05           	movel %d5,%sp@-
    374a:	2f00           	movel %d0,%sp@-
    374c:	4eb9 0000 493c 	jsr 493c <__gtsf2>
    3752:	508f           	addql #8,%sp
    3754:	4a80           	tstl %d0
    3756:	6f0c           	bles 3764 <floorf+0x98>
    3758:	4a82           	tstl %d2
    375a:	6d3e           	blts 379a <floorf+0xce>
    375c:	2005           	movel %d5,%d0
    375e:	4cdf 043c      	moveml %sp@+,%d2-%d5/%a2
    3762:	4e75           	rts
    3764:	2002           	movel %d2,%d0
    3766:	4cdf 043c      	moveml %sp@+,%d2-%d5/%a2
    376a:	4e75           	rts
    376c:	0c83 7f7f ffff 	cmpil #2139095039,%d3
    3772:	63f0           	blss 3764 <floorf+0x98>
    3774:	2f02           	movel %d2,%sp@-
    3776:	2f02           	movel %d2,%sp@-
    3778:	4eb9 0000 41d6 	jsr 41d6 <__addsf3>
    377e:	508f           	addql #8,%sp
    3780:	4cdf 043c      	moveml %sp@+,%d2-%d5/%a2
    3784:	4e75           	rts
    3786:	2a3c 0080 0000 	movel #8388608,%d5
    378c:	200a           	movel %a2,%d0
    378e:	e0a5           	asrl %d0,%d5
    3790:	da82           	addl %d2,%d5
    3792:	4683           	notl %d3
    3794:	2003           	movel %d3,%d0
    3796:	c085           	andl %d5,%d0
    3798:	6096           	bras 3730 <floorf+0x64>
    379a:	4a83           	tstl %d3
    379c:	660c           	bnes 37aa <floorf+0xde>
    379e:	203c 8000 0000 	movel #-2147483648,%d0
    37a4:	4cdf 043c      	moveml %sp@+,%d2-%d5/%a2
    37a8:	4e75           	rts
    37aa:	203c bf80 0000 	movel #-1082130432,%d0
    37b0:	4cdf 043c      	moveml %sp@+,%d2-%d5/%a2
    37b4:	4e75           	rts
	...

000037b8 <Ld$den>:
    37b8:	8087           	orl %d7,%d0
    37ba:	3e3c 0003      	movew #3,%d7
    37be:	7c02           	moveq #2,%d6
    37c0:	4ef9 0000 48c2 	jmp 48c2 <$_exception_handler>

000037c6 <Ld$infty>:
    37c6:	203c 7ff0 0000 	movel #2146435072,%d0
    37cc:	7200           	moveq #0,%d1
    37ce:	8087           	orl %d7,%d0
    37d0:	3e3c 0005      	movew #5,%d7
    37d4:	7c02           	moveq #2,%d6
    37d6:	4ef9 0000 48c2 	jmp 48c2 <$_exception_handler>

000037dc <Ld$underflow>:
    37dc:	7000           	moveq #0,%d0
    37de:	2200           	movel %d0,%d1
    37e0:	3e3c 0003      	movew #3,%d7
    37e4:	7c02           	moveq #2,%d6
    37e6:	4ef9 0000 48c2 	jmp 48c2 <$_exception_handler>

000037ec <Ld$inop>:
    37ec:	70ff           	moveq #-1,%d0
    37ee:	2200           	movel %d0,%d1
    37f0:	3e3c 0011      	movew #17,%d7
    37f4:	7c02           	moveq #2,%d6
    37f6:	4ef9 0000 48c2 	jmp 48c2 <$_exception_handler>

000037fc <Ld$div$0>:
    37fc:	203c 7ff0 0000 	movel #2146435072,%d0
    3802:	7200           	moveq #0,%d1
    3804:	8087           	orl %d7,%d0
    3806:	3e3c 0009      	movew #9,%d7
    380a:	7c02           	moveq #2,%d6
    380c:	4ef9 0000 48c2 	jmp 48c2 <$_exception_handler>

00003812 <__subdf3>:
    3812:	086f 001f 000c 	bchg #31,%sp@(12)

00003818 <__adddf3>:
    3818:	4e56 0000      	linkw %fp,#0
    381c:	48e7 3f00      	moveml %d2-%d7,%sp@-
    3820:	202e 0008      	movel %fp@(8),%d0
    3824:	222e 000c      	movel %fp@(12),%d1
    3828:	242e 0010      	movel %fp@(16),%d2
    382c:	262e 0014      	movel %fp@(20),%d3
    3830:	2e00           	movel %d0,%d7
    3832:	d281           	addl %d1,%d1
    3834:	d180           	addxl %d0,%d0
    3836:	6700 0286      	beqw 3abe <Ladddf$b>
    383a:	2c02           	movel %d2,%d6
    383c:	d683           	addl %d3,%d3
    383e:	d582           	addxl %d2,%d2
    3840:	6700 029a      	beqw 3adc <Ladddf$a>
    3844:	0287 8000 0000 	andil #-2147483648,%d7
    384a:	4846           	swap %d6
    384c:	0246 8000      	andiw #-32768,%d6
    3850:	8e46           	orw %d6,%d7
    3852:	2047           	moveal %d7,%a0
    3854:	2c3c 001f ffff 	movel #2097151,%d6
    385a:	2e3c 0020 0000 	movel #2097152,%d7
    3860:	2800           	movel %d0,%d4
    3862:	c086           	andl %d6,%d0
    3864:	4686           	notl %d6
    3866:	c886           	andl %d6,%d4
    3868:	6700 0246      	beqw 3ab0 <Ladddf$a$den>
    386c:	b886           	cmpl %d6,%d4
    386e:	6700 02ca      	beqw 3b3a <Ladddf$nf>
    3872:	8087           	orl %d7,%d0

00003874 <Ladddf$1>:
    3874:	4844           	swap %d4
    3876:	ea4c           	lsrw #5,%d4
    3878:	2a02           	movel %d2,%d5
    387a:	ca86           	andl %d6,%d5
    387c:	6700 0238      	beqw 3ab6 <Ladddf$b$den>
    3880:	ba86           	cmpl %d6,%d5
    3882:	6700 02b6      	beqw 3b3a <Ladddf$nf>
    3886:	4686           	notl %d6
    3888:	c486           	andl %d6,%d2
    388a:	8487           	orl %d7,%d2

0000388c <Ladddf$2>:
    388c:	4845           	swap %d5
    388e:	ea4d           	lsrw #5,%d5
    3890:	48e7 0030      	moveml %a2-%a3,%sp@-
    3894:	2444           	moveal %d4,%a2
    3896:	2645           	moveal %d5,%a3
    3898:	7e00           	moveq #0,%d7
    389a:	2c07           	movel %d7,%d6
    389c:	2a03           	movel %d3,%d5
    389e:	2802           	movel %d2,%d4
    38a0:	2607           	movel %d7,%d3
    38a2:	2407           	movel %d7,%d2
    38a4:	c98a           	exg %d4,%a2
    38a6:	cb8b           	exg %d5,%a3
    38a8:	ba44           	cmpw %d4,%d5
    38aa:	6700 00cc      	beqw 3978 <Ladddf$3>
    38ae:	6200 0064      	bhiw 3914 <Ladddf$2+0x88>
    38b2:	3404           	movew %d4,%d2
    38b4:	9445           	subw %d5,%d2
    38b6:	c98a           	exg %d4,%a2
    38b8:	cb8b           	exg %d5,%a3
    38ba:	0c42 0037      	cmpiw #55,%d2
    38be:	6c00 01d2      	bgew 3a92 <Ladddf$b$small>
    38c2:	0c42 0020      	cmpiw #32,%d2
    38c6:	6c00 0022      	bgew 38ea <Ladddf$2+0x5e>
    38ca:	0c42 0010      	cmpiw #16,%d2
    38ce:	6c00 002a      	bgew 38fa <Ladddf$2+0x6e>
    38d2:	6000 000a      	braw 38de <Ladddf$2+0x52>
    38d6:	e28c           	lsrl #1,%d4
    38d8:	e295           	roxrl #1,%d5
    38da:	e296           	roxrl #1,%d6
    38dc:	e297           	roxrl #1,%d7
    38de:	51ca fff6      	dbf %d2,38d6 <Ladddf$2+0x4a>
    38e2:	7400           	moveq #0,%d2
    38e4:	2602           	movel %d2,%d3
    38e6:	6000 0094      	braw 397c <Ladddf$4>
    38ea:	2e06           	movel %d6,%d7
    38ec:	2c05           	movel %d5,%d6
    38ee:	2a04           	movel %d4,%d5
    38f0:	7800           	moveq #0,%d4
    38f2:	0442 0020      	subiw #32,%d2
    38f6:	6000 ffd2      	braw 38ca <Ladddf$2+0x3e>
    38fa:	3e06           	movew %d6,%d7
    38fc:	4847           	swap %d7
    38fe:	3c05           	movew %d5,%d6
    3900:	4846           	swap %d6
    3902:	3a04           	movew %d4,%d5
    3904:	4845           	swap %d5
    3906:	383c 0000      	movew #0,%d4
    390a:	4844           	swap %d4
    390c:	0442 0010      	subiw #16,%d2
    3910:	6000 ffcc      	braw 38de <Ladddf$2+0x52>
    3914:	c945           	exg %d4,%d5
    3916:	3c04           	movew %d4,%d6
    3918:	9c45           	subw %d5,%d6
    391a:	c98a           	exg %d4,%a2
    391c:	cb8b           	exg %d5,%a3
    391e:	0c46 0037      	cmpiw #55,%d6
    3922:	6c00 0150      	bgew 3a74 <Ladddf$a$small>
    3926:	0c46 0020      	cmpiw #32,%d6
    392a:	6c00 0022      	bgew 394e <Ladddf$2+0xc2>
    392e:	0c46 0010      	cmpiw #16,%d6
    3932:	6c00 002a      	bgew 395e <Ladddf$2+0xd2>
    3936:	6000 000a      	braw 3942 <Ladddf$2+0xb6>
    393a:	e288           	lsrl #1,%d0
    393c:	e291           	roxrl #1,%d1
    393e:	e292           	roxrl #1,%d2
    3940:	e293           	roxrl #1,%d3
    3942:	51ce fff6      	dbf %d6,393a <Ladddf$2+0xae>
    3946:	7e00           	moveq #0,%d7
    3948:	2c07           	movel %d7,%d6
    394a:	6000 0030      	braw 397c <Ladddf$4>
    394e:	2602           	movel %d2,%d3
    3950:	2401           	movel %d1,%d2
    3952:	2200           	movel %d0,%d1
    3954:	7000           	moveq #0,%d0
    3956:	0446 0020      	subiw #32,%d6
    395a:	6000 ffd2      	braw 392e <Ladddf$2+0xa2>
    395e:	3602           	movew %d2,%d3
    3960:	4843           	swap %d3
    3962:	3401           	movew %d1,%d2
    3964:	4842           	swap %d2
    3966:	3200           	movew %d0,%d1
    3968:	4841           	swap %d1
    396a:	303c 0000      	movew #0,%d0
    396e:	4840           	swap %d0
    3970:	0446 0010      	subiw #16,%d6
    3974:	6000 ffcc      	braw 3942 <Ladddf$2+0xb6>

00003978 <Ladddf$3>:
    3978:	c98a           	exg %d4,%a2
    397a:	cb8b           	exg %d5,%a3

0000397c <Ladddf$4>:
    397c:	cf88           	exg %d7,%a0
    397e:	cd8b           	exg %d6,%a3
    3980:	2c07           	movel %d7,%d6
    3982:	3e3c 0000      	movew #0,%d7
    3986:	4846           	swap %d6
    3988:	3c3c 0000      	movew #0,%d6
    398c:	bf86           	eorl %d7,%d6
    398e:	6b00 006e      	bmiw 39fe <Lsubdf$0>
    3992:	cf88           	exg %d7,%a0
    3994:	cd8b           	exg %d6,%a3
    3996:	d687           	addl %d7,%d3
    3998:	d586           	addxl %d6,%d2
    399a:	d385           	addxl %d5,%d1
    399c:	d184           	addxl %d4,%d0
    399e:	280a           	movel %a2,%d4
    39a0:	2e08           	movel %a0,%d7
    39a2:	0287 8000 0000 	andil #-2147483648,%d7
    39a8:	4cdf 0c00      	moveml %sp@+,%a2-%a3
    39ac:	0800 0036      	btst #54,%d0
    39b0:	6700 000c      	beqw 39be <Ladddf$4+0x42>
    39b4:	e288           	lsrl #1,%d0
    39b6:	e291           	roxrl #1,%d1
    39b8:	e292           	roxrl #1,%d2
    39ba:	e293           	roxrl #1,%d3
    39bc:	5244           	addqw #1,%d4
    39be:	41fa 0020      	lea %pc@(39e0 <Ladddf$5>),%a0
    39c2:	43f9 0001 4d24 	lea 14d24 <_fpCCR>,%a1
    39c8:	3c29 0006      	movew %a1@(6),%d6
    39cc:	6700 0752      	beqw 4120 <Lround$to$nearest>
    39d0:	0c46 0002      	cmpiw #2,%d6
    39d4:	6200 07ae      	bhiw 4184 <Lround$to$minus>
    39d8:	6d00 07aa      	bltw 4184 <Lround$to$minus>
    39dc:	6000 07a6      	braw 4184 <Lround$to$minus>

000039e0 <Ladddf$5>:
    39e0:	0c44 07ff      	cmpiw #2047,%d4
    39e4:	6c00 0012      	bgew 39f8 <Ladddf$5+0x18>
    39e8:	0880 0034      	bclr #52,%d0
    39ec:	e94c           	lslw #4,%d4
    39ee:	4840           	swap %d0
    39f0:	8044           	orw %d4,%d0
    39f2:	4840           	swap %d0
    39f4:	6000 0128      	braw 3b1e <Ladddf$ret>
    39f8:	7a01           	moveq #1,%d5
    39fa:	6000 fdca      	braw 37c6 <Ld$infty>

000039fe <Lsubdf$0>:
    39fe:	cf88           	exg %d7,%a0
    3a00:	cd8b           	exg %d6,%a3
    3a02:	9687           	subl %d7,%d3
    3a04:	9586           	subxl %d6,%d2
    3a06:	9385           	subxl %d5,%d1
    3a08:	9184           	subxl %d4,%d0
    3a0a:	6700 010e      	beqw 3b1a <Ladddf$ret$1>
    3a0e:	6a00 0012      	bplw 3a22 <Lsubdf$0+0x24>
    3a12:	2e08           	movel %a0,%d7
    3a14:	0847 001f      	bchg #31,%d7
    3a18:	2047           	moveal %d7,%a0
    3a1a:	4483           	negl %d3
    3a1c:	4082           	negxl %d2
    3a1e:	4081           	negxl %d1
    3a20:	4080           	negxl %d0
    3a22:	280a           	movel %a2,%d4
    3a24:	2e08           	movel %a0,%d7
    3a26:	0287 8000 0000 	andil #-2147483648,%d7
    3a2c:	4cdf 0c00      	moveml %sp@+,%a2-%a3
    3a30:	0800 0036      	btst #54,%d0
    3a34:	6700 000c      	beqw 3a42 <Lsubdf$0+0x44>
    3a38:	e288           	lsrl #1,%d0
    3a3a:	e291           	roxrl #1,%d1
    3a3c:	e292           	roxrl #1,%d2
    3a3e:	e293           	roxrl #1,%d3
    3a40:	5244           	addqw #1,%d4
    3a42:	41fa 0020      	lea %pc@(3a64 <Lsubdf$1>),%a0
    3a46:	43f9 0001 4d24 	lea 14d24 <_fpCCR>,%a1
    3a4c:	3c29 0006      	movew %a1@(6),%d6
    3a50:	6700 06ce      	beqw 4120 <Lround$to$nearest>
    3a54:	0c46 0002      	cmpiw #2,%d6
    3a58:	6200 072a      	bhiw 4184 <Lround$to$minus>
    3a5c:	6d00 0726      	bltw 4184 <Lround$to$minus>
    3a60:	6000 0722      	braw 4184 <Lround$to$minus>

00003a64 <Lsubdf$1>:
    3a64:	0880 0034      	bclr #52,%d0
    3a68:	e94c           	lslw #4,%d4
    3a6a:	4840           	swap %d0
    3a6c:	8044           	orw %d4,%d0
    3a6e:	4840           	swap %d0
    3a70:	6000 00ac      	braw 3b1e <Ladddf$ret>

00003a74 <Ladddf$a$small>:
    3a74:	4cdf 0c00      	moveml %sp@+,%a2-%a3
    3a78:	202e 0010      	movel %fp@(16),%d0
    3a7c:	222e 0014      	movel %fp@(20),%d1
    3a80:	41f9 0001 4d24 	lea 14d24 <_fpCCR>,%a0
    3a86:	30bc 0000      	movew #0,%a0@
    3a8a:	4cdf 00fc      	moveml %sp@+,%d2-%d7
    3a8e:	4e5e           	unlk %fp
    3a90:	4e75           	rts

00003a92 <Ladddf$b$small>:
    3a92:	4cdf 0c00      	moveml %sp@+,%a2-%a3
    3a96:	202e 0008      	movel %fp@(8),%d0
    3a9a:	222e 000c      	movel %fp@(12),%d1
    3a9e:	41f9 0001 4d24 	lea 14d24 <_fpCCR>,%a0
    3aa4:	30bc 0000      	movew #0,%a0@
    3aa8:	4cdf 00fc      	moveml %sp@+,%d2-%d7
    3aac:	4e5e           	unlk %fp
    3aae:	4e75           	rts

00003ab0 <Ladddf$a$den>:
    3ab0:	2807           	movel %d7,%d4
    3ab2:	6000 fdc0      	braw 3874 <Ladddf$1>

00003ab6 <Ladddf$b$den>:
    3ab6:	2a07           	movel %d7,%d5
    3ab8:	4686           	notl %d6
    3aba:	6000 fdd0      	braw 388c <Ladddf$2>

00003abe <Ladddf$b>:
    3abe:	2002           	movel %d2,%d0
    3ac0:	2203           	movel %d3,%d1
    3ac2:	6600 0020      	bnew 3ae4 <Ladddf$a+0x8>
    3ac6:	0c80 8000 0000 	cmpil #-2147483648,%d0
    3acc:	6600 0016      	bnew 3ae4 <Ladddf$a+0x8>
    3ad0:	0287 8000 0000 	andil #-2147483648,%d7
    3ad6:	4280           	clrl %d0
    3ad8:	6000 0044      	braw 3b1e <Ladddf$ret>

00003adc <Ladddf$a>:
    3adc:	202e 0008      	movel %fp@(8),%d0
    3ae0:	222e 000c      	movel %fp@(12),%d1
    3ae4:	7a01           	moveq #1,%d5
    3ae6:	2e00           	movel %d0,%d7
    3ae8:	0287 8000 0000 	andil #-2147483648,%d7
    3aee:	0880 001f      	bclr #31,%d0
    3af2:	0c80 7ff0 0000 	cmpil #2146435072,%d0
    3af8:	6c00 0010      	bgew 3b0a <Ladddf$a+0x2e>
    3afc:	2000           	movel %d0,%d0
    3afe:	6600 001e      	bnew 3b1e <Ladddf$ret>
    3b02:	0887 001f      	bclr #31,%d7
    3b06:	6000 0016      	braw 3b1e <Ladddf$ret>
    3b0a:	0280 000f ffff 	andil #1048575,%d0
    3b10:	8081           	orl %d1,%d0
    3b12:	6600 fcd8      	bnew 37ec <Ld$inop>
    3b16:	6000 fcae      	braw 37c6 <Ld$infty>

00003b1a <Ladddf$ret$1>:
    3b1a:	4cdf 0c00      	moveml %sp@+,%a2-%a3

00003b1e <Ladddf$ret>:
    3b1e:	41f9 0001 4d24 	lea 14d24 <_fpCCR>,%a0
    3b24:	30bc 0000      	movew #0,%a0@
    3b28:	8087           	orl %d7,%d0
    3b2a:	4cdf 00fc      	moveml %sp@+,%d2-%d7
    3b2e:	4e5e           	unlk %fp
    3b30:	4e75           	rts

00003b32 <Ladddf$ret$den>:
    3b32:	e288           	lsrl #1,%d0
    3b34:	e291           	roxrl #1,%d1
    3b36:	6000 ffe6      	braw 3b1e <Ladddf$ret>

00003b3a <Ladddf$nf>:
    3b3a:	7a01           	moveq #1,%d5
    3b3c:	202e 0008      	movel %fp@(8),%d0
    3b40:	222e 000c      	movel %fp@(12),%d1
    3b44:	242e 0010      	movel %fp@(16),%d2
    3b48:	262e 0014      	movel %fp@(20),%d3
    3b4c:	283c 7ff0 0000 	movel #2146435072,%d4
    3b52:	2e00           	movel %d0,%d7
    3b54:	2c02           	movel %d2,%d6
    3b56:	0880 001f      	bclr #31,%d0
    3b5a:	0882 001f      	bclr #31,%d2
    3b5e:	b084           	cmpl %d4,%d0
    3b60:	6200 fc8a      	bhiw 37ec <Ld$inop>
    3b64:	6600 0008      	bnew 3b6e <Ladddf$nf+0x34>
    3b68:	4a81           	tstl %d1
    3b6a:	6600 fc80      	bnew 37ec <Ld$inop>
    3b6e:	b484           	cmpl %d4,%d2
    3b70:	6200 fc7a      	bhiw 37ec <Ld$inop>
    3b74:	6600 0008      	bnew 3b7e <Ladddf$nf+0x44>
    3b78:	4a83           	tstl %d3
    3b7a:	6600 fc70      	bnew 37ec <Ld$inop>
    3b7e:	bf86           	eorl %d7,%d6
    3b80:	6b00 000c      	bmiw 3b8e <Ladddf$nf+0x54>
    3b84:	0287 8000 0000 	andil #-2147483648,%d7
    3b8a:	6000 fc3a      	braw 37c6 <Ld$infty>
    3b8e:	b082           	cmpl %d2,%d0
    3b90:	6600 0008      	bnew 3b9a <Ladddf$nf+0x60>
    3b94:	b283           	cmpl %d3,%d1
    3b96:	6700 fc54      	beqw 37ec <Ld$inop>
    3b9a:	0287 8000 0000 	andil #-2147483648,%d7
    3ba0:	b084           	cmpl %d4,%d0
    3ba2:	6700 fc22      	beqw 37c6 <Ld$infty>
    3ba6:	0847 001f      	bchg #31,%d7
    3baa:	6000 fc1a      	braw 37c6 <Ld$infty>

00003bae <__muldf3>:
    3bae:	4e56 0000      	linkw %fp,#0
    3bb2:	48e7 3f00      	moveml %d2-%d7,%sp@-
    3bb6:	202e 0008      	movel %fp@(8),%d0
    3bba:	222e 000c      	movel %fp@(12),%d1
    3bbe:	242e 0010      	movel %fp@(16),%d2
    3bc2:	262e 0014      	movel %fp@(20),%d3
    3bc6:	2e00           	movel %d0,%d7
    3bc8:	b587           	eorl %d2,%d7
    3bca:	0287 8000 0000 	andil #-2147483648,%d7
    3bd0:	2047           	moveal %d7,%a0
    3bd2:	2e3c 7ff0 0000 	movel #2146435072,%d7
    3bd8:	2c07           	movel %d7,%d6
    3bda:	4686           	notl %d6
    3bdc:	0880 001f      	bclr #31,%d0
    3be0:	2800           	movel %d0,%d4
    3be2:	8881           	orl %d1,%d4
    3be4:	6700 0120      	beqw 3d06 <Lmuldf$a$0>
    3be8:	2800           	movel %d0,%d4
    3bea:	0882 001f      	bclr #31,%d2
    3bee:	2a02           	movel %d2,%d5
    3bf0:	8a83           	orl %d3,%d5
    3bf2:	6700 0106      	beqw 3cfa <Lmuldf$b$0>
    3bf6:	2a02           	movel %d2,%d5
    3bf8:	b087           	cmpl %d7,%d0
    3bfa:	6200 00dc      	bhiw 3cd8 <Lmuldf$inop>
    3bfe:	6700 00ec      	beqw 3cec <Lmuldf$a$nf>
    3c02:	b487           	cmpl %d7,%d2
    3c04:	6200 00d2      	bhiw 3cd8 <Lmuldf$inop>
    3c08:	6700 00d4      	beqw 3cde <Lmuldf$b$nf>
    3c0c:	c887           	andl %d7,%d4
    3c0e:	6700 0120      	beqw 3d30 <Lmuldf$a$den>
    3c12:	c086           	andl %d6,%d0
    3c14:	0080 0010 0000 	oril #1048576,%d0
    3c1a:	4844           	swap %d4
    3c1c:	e84c           	lsrw #4,%d4

00003c1e <Lmuldf$1>:
    3c1e:	ca87           	andl %d7,%d5
    3c20:	6700 0124      	beqw 3d46 <Lmuldf$b$den>
    3c24:	c486           	andl %d6,%d2
    3c26:	0082 0010 0000 	oril #1048576,%d2
    3c2c:	4845           	swap %d5
    3c2e:	e84d           	lsrw #4,%d5

00003c30 <Lmuldf$2>:
    3c30:	d845           	addw %d5,%d4
    3c32:	0444 03ff      	subiw #1023,%d4
    3c36:	48e7 0030      	moveml %a2-%a3,%sp@-
    3c3a:	247c 0000 0000 	moveal #0,%a2
    3c40:	2644           	moveal %d4,%a3
    3c42:	ea9a           	rorl #5,%d2
    3c44:	4842           	swap %d2
    3c46:	ea9b           	rorl #5,%d3
    3c48:	4843           	swap %d3
    3c4a:	3c03           	movew %d3,%d6
    3c4c:	0246 07ff      	andiw #2047,%d6
    3c50:	8446           	orw %d6,%d2
    3c52:	0243 f800      	andiw #-2048,%d3
    3c56:	2c02           	movel %d2,%d6
    3c58:	2e03           	movel %d3,%d7
    3c5a:	2800           	movel %d0,%d4
    3c5c:	2a01           	movel %d1,%d5
    3c5e:	7600           	moveq #0,%d3
    3c60:	2403           	movel %d3,%d2
    3c62:	2203           	movel %d3,%d1
    3c64:	2003           	movel %d3,%d0
    3c66:	227c 0000 0034 	moveal #52,%a1
    3c6c:	cf89           	exg %d7,%a1
    3c6e:	cf89           	exg %d7,%a1
    3c70:	d683           	addl %d3,%d3
    3c72:	d582           	addxl %d2,%d2
    3c74:	d381           	addxl %d1,%d1
    3c76:	d180           	addxl %d0,%d0
    3c78:	de87           	addl %d7,%d7
    3c7a:	dd86           	addxl %d6,%d6
    3c7c:	6400 000e      	bccw 3c8c <Lmuldf$2+0x5c>
    3c80:	cf8a           	exg %d7,%a2
    3c82:	d685           	addl %d5,%d3
    3c84:	d584           	addxl %d4,%d2
    3c86:	d387           	addxl %d7,%d1
    3c88:	d187           	addxl %d7,%d0
    3c8a:	cf8a           	exg %d7,%a2
    3c8c:	cf89           	exg %d7,%a1
    3c8e:	51cf ffde      	dbf %d7,3c6e <Lmuldf$2+0x3e>
    3c92:	280b           	movel %a3,%d4
    3c94:	4cdf 0c00      	moveml %sp@+,%a2-%a3
    3c98:	4840           	swap %d0
    3c9a:	4841           	swap %d1
    3c9c:	3001           	movew %d1,%d0
    3c9e:	4842           	swap %d2
    3ca0:	3202           	movew %d2,%d1
    3ca2:	4843           	swap %d3
    3ca4:	3403           	movew %d3,%d2
    3ca6:	363c 0000      	movew #0,%d3
    3caa:	e288           	lsrl #1,%d0
    3cac:	e291           	roxrl #1,%d1
    3cae:	e292           	roxrl #1,%d2
    3cb0:	e293           	roxrl #1,%d3
    3cb2:	e288           	lsrl #1,%d0
    3cb4:	e291           	roxrl #1,%d1
    3cb6:	e292           	roxrl #1,%d2
    3cb8:	e293           	roxrl #1,%d3
    3cba:	e288           	lsrl #1,%d0
    3cbc:	e291           	roxrl #1,%d1
    3cbe:	e292           	roxrl #1,%d2
    3cc0:	e293           	roxrl #1,%d3
    3cc2:	2e08           	movel %a0,%d7
    3cc4:	7a02           	moveq #2,%d5
    3cc6:	0800 0016      	btst #22,%d0
    3cca:	6700 027a      	beqw 3f46 <Lround$exit>
    3cce:	e288           	lsrl #1,%d0
    3cd0:	e291           	roxrl #1,%d1
    3cd2:	5244           	addqw #1,%d4
    3cd4:	6000 0270      	braw 3f46 <Lround$exit>

00003cd8 <Lmuldf$inop>:
    3cd8:	7a02           	moveq #2,%d5
    3cda:	6000 fb10      	braw 37ec <Ld$inop>

00003cde <Lmuldf$b$nf>:
    3cde:	7a02           	moveq #2,%d5
    3ce0:	2e08           	movel %a0,%d7
    3ce2:	4a83           	tstl %d3
    3ce4:	6600 fb06      	bnew 37ec <Ld$inop>
    3ce8:	6000 fadc      	braw 37c6 <Ld$infty>

00003cec <Lmuldf$a$nf>:
    3cec:	7a02           	moveq #2,%d5
    3cee:	2e08           	movel %a0,%d7
    3cf0:	4a81           	tstl %d1
    3cf2:	6600 faf8      	bnew 37ec <Ld$inop>
    3cf6:	6000 face      	braw 37c6 <Ld$infty>

00003cfa <Lmuldf$b$0>:
    3cfa:	7a02           	moveq #2,%d5
    3cfc:	c540           	exg %d2,%d0
    3cfe:	c741           	exg %d3,%d1
    3d00:	2008           	movel %a0,%d0
    3d02:	6000 0010      	braw 3d14 <Lmuldf$a$0+0xe>

00003d06 <Lmuldf$a$0>:
    3d06:	2008           	movel %a0,%d0
    3d08:	242e 0010      	movel %fp@(16),%d2
    3d0c:	262e 0014      	movel %fp@(20),%d3
    3d10:	0882 001f      	bclr #31,%d2
    3d14:	0c82 7ff0 0000 	cmpil #2146435072,%d2
    3d1a:	6c00 fad0      	bgew 37ec <Ld$inop>
    3d1e:	41f9 0001 4d24 	lea 14d24 <_fpCCR>,%a0
    3d24:	30bc 0000      	movew #0,%a0@
    3d28:	4cdf 00fc      	moveml %sp@+,%d2-%d7
    3d2c:	4e5e           	unlk %fp
    3d2e:	4e75           	rts

00003d30 <Lmuldf$a$den>:
    3d30:	7801           	moveq #1,%d4
    3d32:	c086           	andl %d6,%d0
    3d34:	d281           	addl %d1,%d1
    3d36:	d180           	addxl %d0,%d0
    3d38:	5344           	subqw #1,%d4
    3d3a:	0800 0014      	btst #20,%d0
    3d3e:	6600 fede      	bnew 3c1e <Lmuldf$1>
    3d42:	6000 fff0      	braw 3d34 <Lmuldf$a$den+0x4>

00003d46 <Lmuldf$b$den>:
    3d46:	7a01           	moveq #1,%d5
    3d48:	c486           	andl %d6,%d2
    3d4a:	d683           	addl %d3,%d3
    3d4c:	d582           	addxl %d2,%d2
    3d4e:	5345           	subqw #1,%d5
    3d50:	0802 0014      	btst #20,%d2
    3d54:	6600 feda      	bnew 3c30 <Lmuldf$2>
    3d58:	6000 fff0      	braw 3d4a <Lmuldf$b$den+0x4>

00003d5c <__divdf3>:
    3d5c:	4e56 0000      	linkw %fp,#0
    3d60:	48e7 3f00      	moveml %d2-%d7,%sp@-
    3d64:	202e 0008      	movel %fp@(8),%d0
    3d68:	222e 000c      	movel %fp@(12),%d1
    3d6c:	242e 0010      	movel %fp@(16),%d2
    3d70:	262e 0014      	movel %fp@(20),%d3
    3d74:	2e00           	movel %d0,%d7
    3d76:	b587           	eorl %d2,%d7
    3d78:	0287 8000 0000 	andil #-2147483648,%d7
    3d7e:	2047           	moveal %d7,%a0
    3d80:	2e3c 7ff0 0000 	movel #2146435072,%d7
    3d86:	2c07           	movel %d7,%d6
    3d88:	4686           	notl %d6
    3d8a:	0880 001f      	bclr #31,%d0
    3d8e:	2800           	movel %d0,%d4
    3d90:	8881           	orl %d1,%d4
    3d92:	6700 0112      	beqw 3ea6 <Ldivdf$a$0>
    3d96:	2800           	movel %d0,%d4
    3d98:	0882 001f      	bclr #31,%d2
    3d9c:	2a02           	movel %d2,%d5
    3d9e:	8a83           	orl %d3,%d5
    3da0:	6700 013c      	beqw 3ede <Ldivdf$b$0>
    3da4:	2a02           	movel %d2,%d5
    3da6:	b087           	cmpl %d7,%d0
    3da8:	6200 00f6      	bhiw 3ea0 <Ldivdf$inop>
    3dac:	6700 0154      	beqw 3f02 <Ldivdf$a$nf>
    3db0:	b487           	cmpl %d7,%d2
    3db2:	6200 00ec      	bhiw 3ea0 <Ldivdf$inop>
    3db6:	6700 013e      	beqw 3ef6 <Ldivdf$b$nf>
    3dba:	c887           	andl %d7,%d4
    3dbc:	6700 015c      	beqw 3f1a <Ldivdf$a$den>
    3dc0:	c086           	andl %d6,%d0
    3dc2:	0080 0010 0000 	oril #1048576,%d0
    3dc8:	4844           	swap %d4
    3dca:	e84c           	lsrw #4,%d4

00003dcc <Ldivdf$1>:
    3dcc:	ca87           	andl %d7,%d5
    3dce:	6700 0160      	beqw 3f30 <Ldivdf$b$den>
    3dd2:	c486           	andl %d6,%d2
    3dd4:	0082 0010 0000 	oril #1048576,%d2
    3dda:	4845           	swap %d5
    3ddc:	e84d           	lsrw #4,%d5

00003dde <Ldivdf$2>:
    3dde:	9845           	subw %d5,%d4
    3de0:	0644 03fe      	addiw #1022,%d4
    3de4:	7c00           	moveq #0,%d6
    3de6:	2e06           	movel %d6,%d7
    3de8:	227c 0000 0000 	moveal #0,%a1
    3dee:	7a16           	moveq #22,%d5
    3df0:	b480           	cmpl %d0,%d2
    3df2:	6200 000c      	bhiw 3e00 <Ldivdf$2+0x22>
    3df6:	6700 0014      	beqw 3e0c <Ldivdf$2+0x2e>
    3dfa:	9283           	subl %d3,%d1
    3dfc:	9182           	subxl %d2,%d0
    3dfe:	0bc6           	bset %d5,%d6
    3e00:	d281           	addl %d1,%d1
    3e02:	d180           	addxl %d0,%d0
    3e04:	51cd ffea      	dbf %d5,3df0 <Ldivdf$2+0x12>
    3e08:	6000 000c      	braw 3e16 <Ldivdf$2+0x38>
    3e0c:	b681           	cmpl %d1,%d3
    3e0e:	6200 fff0      	bhiw 3e00 <Ldivdf$2+0x22>
    3e12:	6000 ffe6      	braw 3dfa <Ldivdf$2+0x1c>
    3e16:	7a1f           	moveq #31,%d5
    3e18:	b480           	cmpl %d0,%d2
    3e1a:	6200 000c      	bhiw 3e28 <Ldivdf$2+0x4a>
    3e1e:	6700 0014      	beqw 3e34 <Ldivdf$2+0x56>
    3e22:	9283           	subl %d3,%d1
    3e24:	9182           	subxl %d2,%d0
    3e26:	0bc7           	bset %d5,%d7
    3e28:	d281           	addl %d1,%d1
    3e2a:	d180           	addxl %d0,%d0
    3e2c:	51cd ffea      	dbf %d5,3e18 <Ldivdf$2+0x3a>
    3e30:	6000 000c      	braw 3e3e <Ldivdf$2+0x60>
    3e34:	b681           	cmpl %d1,%d3
    3e36:	6200 fff0      	bhiw 3e28 <Ldivdf$2+0x4a>
    3e3a:	6000 ffe6      	braw 3e22 <Ldivdf$2+0x44>
    3e3e:	7a35           	moveq #53,%d5
    3e40:	b082           	cmpl %d2,%d0
    3e42:	6200 001c      	bhiw 3e60 <Ldivdf$2+0x82>
    3e46:	6700 0012      	beqw 3e5a <Ldivdf$2+0x7c>
    3e4a:	d281           	addl %d1,%d1
    3e4c:	d180           	addxl %d0,%d0
    3e4e:	51cd fff0      	dbf %d5,3e40 <Ldivdf$2+0x62>
    3e52:	7400           	moveq #0,%d2
    3e54:	2602           	movel %d2,%d3
    3e56:	6000 0028      	braw 3e80 <Ldivdf$2+0xa2>
    3e5a:	b681           	cmpl %d1,%d3
    3e5c:	6200 ffec      	bhiw 3e4a <Ldivdf$2+0x6c>
    3e60:	7400           	moveq #0,%d2
    3e62:	2602           	movel %d2,%d3
    3e64:	0445 0035      	subiw #53,%d5
    3e68:	0645 003f      	addiw #63,%d5
    3e6c:	0c45 001f      	cmpiw #31,%d5
    3e70:	6200 000c      	bhiw 3e7e <Ldivdf$2+0xa0>
    3e74:	0bc3           	bset %d5,%d3
    3e76:	6000 0008      	braw 3e80 <Ldivdf$2+0xa2>
    3e7a:	0445 0020      	subiw #32,%d5
    3e7e:	0bc2           	bset %d5,%d2
    3e80:	2006           	movel %d6,%d0
    3e82:	2207           	movel %d7,%d1
    3e84:	7600           	moveq #0,%d3
    3e86:	0800 0016      	btst #22,%d0
    3e8a:	6700 000c      	beqw 3e98 <Ldivdf$2+0xba>
    3e8e:	e288           	lsrl #1,%d0
    3e90:	e291           	roxrl #1,%d1
    3e92:	e292           	roxrl #1,%d2
    3e94:	e293           	roxrl #1,%d3
    3e96:	5244           	addqw #1,%d4
    3e98:	2e08           	movel %a0,%d7
    3e9a:	7a03           	moveq #3,%d5
    3e9c:	6000 00a8      	braw 3f46 <Lround$exit>

00003ea0 <Ldivdf$inop>:
    3ea0:	7a03           	moveq #3,%d5
    3ea2:	6000 f948      	braw 37ec <Ld$inop>

00003ea6 <Ldivdf$a$0>:
    3ea6:	7a03           	moveq #3,%d5
    3ea8:	0882 001f      	bclr #31,%d2
    3eac:	2802           	movel %d2,%d4
    3eae:	8883           	orl %d3,%d4
    3eb0:	6700 f93a      	beqw 37ec <Ld$inop>
    3eb4:	0c82 7ff0 0000 	cmpil #2146435072,%d2
    3eba:	6200 f930      	bhiw 37ec <Ld$inop>
    3ebe:	6d00 0008      	bltw 3ec8 <Ldivdf$a$0+0x22>
    3ec2:	4a83           	tstl %d3
    3ec4:	6600 f926      	bnew 37ec <Ld$inop>
    3ec8:	2008           	movel %a0,%d0
    3eca:	7200           	moveq #0,%d1
    3ecc:	41f9 0001 4d24 	lea 14d24 <_fpCCR>,%a0
    3ed2:	30bc 0000      	movew #0,%a0@
    3ed6:	4cdf 00fc      	moveml %sp@+,%d2-%d7
    3eda:	4e5e           	unlk %fp
    3edc:	4e75           	rts

00003ede <Ldivdf$b$0>:
    3ede:	7a03           	moveq #3,%d5
    3ee0:	2e08           	movel %a0,%d7
    3ee2:	0c80 7ff0 0000 	cmpil #2146435072,%d0
    3ee8:	6200 f902      	bhiw 37ec <Ld$inop>
    3eec:	4a81           	tstl %d1
    3eee:	6600 f8fc      	bnew 37ec <Ld$inop>
    3ef2:	6000 f908      	braw 37fc <Ld$div$0>

00003ef6 <Ldivdf$b$nf>:
    3ef6:	7a03           	moveq #3,%d5
    3ef8:	4a83           	tstl %d3
    3efa:	6600 f8f0      	bnew 37ec <Ld$inop>
    3efe:	6000 f8dc      	braw 37dc <Ld$underflow>

00003f02 <Ldivdf$a$nf>:
    3f02:	7a03           	moveq #3,%d5
    3f04:	4a81           	tstl %d1
    3f06:	6600 f8e4      	bnew 37ec <Ld$inop>
    3f0a:	b487           	cmpl %d7,%d2
    3f0c:	6c00 f8de      	bgew 37ec <Ld$inop>
    3f10:	4a83           	tstl %d3
    3f12:	6600 f8d8      	bnew 37ec <Ld$inop>
    3f16:	6000 f8ae      	braw 37c6 <Ld$infty>

00003f1a <Ldivdf$a$den>:
    3f1a:	7801           	moveq #1,%d4
    3f1c:	c086           	andl %d6,%d0
    3f1e:	d281           	addl %d1,%d1
    3f20:	d180           	addxl %d0,%d0
    3f22:	5344           	subqw #1,%d4
    3f24:	0800 0014      	btst #20,%d0
    3f28:	6600 fea2      	bnew 3dcc <Ldivdf$1>
    3f2c:	6000 fff0      	braw 3f1e <Ldivdf$a$den+0x4>

00003f30 <Ldivdf$b$den>:
    3f30:	7a01           	moveq #1,%d5
    3f32:	c486           	andl %d6,%d2
    3f34:	d683           	addl %d3,%d3
    3f36:	d582           	addxl %d2,%d2
    3f38:	5345           	subqw #1,%d5
    3f3a:	0802 0014      	btst #20,%d2
    3f3e:	6600 fe9e      	bnew 3dde <Ldivdf$2>
    3f42:	6000 fff0      	braw 3f34 <Ldivdf$b$den+0x4>

00003f46 <Lround$exit>:
    3f46:	0c44 ffca      	cmpiw #-54,%d4
    3f4a:	6d00 f890      	bltw 37dc <Ld$underflow>
    3f4e:	2047           	moveal %d7,%a0
    3f50:	7c00           	moveq #0,%d6
    3f52:	2e06           	movel %d6,%d7
    3f54:	0c44 0001      	cmpiw #1,%d4
    3f58:	6c00 0020      	bgew 3f7a <Lround$exit+0x34>
    3f5c:	5244           	addqw #1,%d4
    3f5e:	e288           	lsrl #1,%d0
    3f60:	e291           	roxrl #1,%d1
    3f62:	e292           	roxrl #1,%d2
    3f64:	e293           	roxrl #1,%d3
    3f66:	e296           	roxrl #1,%d6
    3f68:	e297           	roxrl #1,%d7
    3f6a:	0c44 0001      	cmpiw #1,%d4
    3f6e:	6700 000a      	beqw 3f7a <Lround$exit+0x34>
    3f72:	6000 ffe8      	braw 3f5c <Lround$exit+0x16>
    3f76:	6000 f864      	braw 37dc <Ld$underflow>
    3f7a:	8486           	orl %d6,%d2
    3f7c:	8687           	orl %d7,%d3
    3f7e:	2e08           	movel %a0,%d7
    3f80:	41fa 0020      	lea %pc@(3fa2 <Lround$0>),%a0
    3f84:	43f9 0001 4d24 	lea 14d24 <_fpCCR>,%a1
    3f8a:	3c29 0006      	movew %a1@(6),%d6
    3f8e:	6700 0190      	beqw 4120 <Lround$to$nearest>
    3f92:	0c46 0002      	cmpiw #2,%d6
    3f96:	6200 01ec      	bhiw 4184 <Lround$to$minus>
    3f9a:	6d00 01e8      	bltw 4184 <Lround$to$minus>
    3f9e:	6000 01e4      	braw 4184 <Lround$to$minus>

00003fa2 <Lround$0>:
    3fa2:	0c44 07ff      	cmpiw #2047,%d4
    3fa6:	6c00 f81e      	bgew 37c6 <Ld$infty>
    3faa:	3804           	movew %d4,%d4
    3fac:	6700 f80a      	beqw 37b8 <Ld$den>
    3fb0:	e94c           	lslw #4,%d4
    3fb2:	0880 0014      	bclr #20,%d0
    3fb6:	4840           	swap %d0
    3fb8:	8044           	orw %d4,%d0
    3fba:	4840           	swap %d0
    3fbc:	8087           	orl %d7,%d0
    3fbe:	41f9 0001 4d24 	lea 14d24 <_fpCCR>,%a0
    3fc4:	30bc 0000      	movew #0,%a0@
    3fc8:	4cdf 00fc      	moveml %sp@+,%d2-%d7
    3fcc:	4e5e           	unlk %fp
    3fce:	4e75           	rts

00003fd0 <__negdf2>:
    3fd0:	4e56 0000      	linkw %fp,#0
    3fd4:	48e7 3f00      	moveml %d2-%d7,%sp@-
    3fd8:	7a04           	moveq #4,%d5
    3fda:	202e 0008      	movel %fp@(8),%d0
    3fde:	222e 000c      	movel %fp@(12),%d1
    3fe2:	0840 001f      	bchg #31,%d0
    3fe6:	2400           	movel %d0,%d2
    3fe8:	0882 001f      	bclr #31,%d2
    3fec:	2802           	movel %d2,%d4
    3fee:	8881           	orl %d1,%d4
    3ff0:	6700 0034      	beqw 4026 <__negdf2+0x56>
    3ff4:	0c82 7ff0 0000 	cmpil #2146435072,%d2
    3ffa:	6d00 0018      	bltw 4014 <__negdf2+0x44>
    3ffe:	6200 f7ec      	bhiw 37ec <Ld$inop>
    4002:	4a81           	tstl %d1
    4004:	6600 f7e6      	bnew 37ec <Ld$inop>
    4008:	2e00           	movel %d0,%d7
    400a:	0287 8000 0000 	andil #-2147483648,%d7
    4010:	6000 f7b4      	braw 37c6 <Ld$infty>
    4014:	41f9 0001 4d24 	lea 14d24 <_fpCCR>,%a0
    401a:	30bc 0000      	movew #0,%a0@
    401e:	4cdf 00fc      	moveml %sp@+,%d2-%d7
    4022:	4e5e           	unlk %fp
    4024:	4e75           	rts
    4026:	0880 001f      	bclr #31,%d0
    402a:	6000 ffe8      	braw 4014 <__negdf2+0x44>

0000402e <__cmpdf2_internal>:
    402e:	4e56 0000      	linkw %fp,#0
    4032:	48e7 3f00      	moveml %d2-%d7,%sp@-
    4036:	7a05           	moveq #5,%d5
    4038:	202e 0008      	movel %fp@(8),%d0
    403c:	222e 000c      	movel %fp@(12),%d1
    4040:	242e 0010      	movel %fp@(16),%d2
    4044:	262e 0014      	movel %fp@(20),%d3
    4048:	2c00           	movel %d0,%d6
    404a:	0880 001f      	bclr #31,%d0
    404e:	2e02           	movel %d2,%d7
    4050:	0882 001f      	bclr #31,%d2
    4054:	0c80 7ff0 0000 	cmpil #2146435072,%d0
    405a:	6200 0094      	bhiw 40f0 <Lcmpd$inop>
    405e:	6700 007c      	beqw 40dc <Lcmpdf$a$nf>
    4062:	2800           	movel %d0,%d4
    4064:	8881           	orl %d1,%d4
    4066:	6700 0064      	beqw 40cc <Lcmpdf$a$0>

0000406a <Lcmpdf$0>:
    406a:	0c82 7ff0 0000 	cmpil #2146435072,%d2
    4070:	6200 007e      	bhiw 40f0 <Lcmpd$inop>
    4074:	6700 0070      	beqw 40e6 <Lcmpdf$b$nf>
    4078:	2802           	movel %d2,%d4
    407a:	8883           	orl %d3,%d4
    407c:	6700 0056      	beqw 40d4 <Lcmpdf$b$0>

00004080 <Lcmpdf$1>:
    4080:	bd87           	eorl %d6,%d7
    4082:	6a00 000c      	bplw 4090 <Lcmpdf$1+0x10>
    4086:	4a86           	tstl %d6
    4088:	6a00 002e      	bplw 40b8 <Lcmpdf$a$gt$b>
    408c:	6b00 0034      	bmiw 40c2 <Lcmpdf$b$gt$a>
    4090:	4a86           	tstl %d6
    4092:	6a00 0006      	bplw 409a <Lcmpdf$1+0x1a>
    4096:	c142           	exg %d0,%d2
    4098:	c343           	exg %d1,%d3
    409a:	b480           	cmpl %d0,%d2
    409c:	6200 0024      	bhiw 40c2 <Lcmpdf$b$gt$a>
    40a0:	6600 0016      	bnew 40b8 <Lcmpdf$a$gt$b>
    40a4:	b681           	cmpl %d1,%d3
    40a6:	6200 001a      	bhiw 40c2 <Lcmpdf$b$gt$a>
    40aa:	6600 000c      	bnew 40b8 <Lcmpdf$a$gt$b>
    40ae:	7000           	moveq #0,%d0
    40b0:	4cdf 00fc      	moveml %sp@+,%d2-%d7
    40b4:	4e5e           	unlk %fp
    40b6:	4e75           	rts

000040b8 <Lcmpdf$a$gt$b>:
    40b8:	7001           	moveq #1,%d0
    40ba:	4cdf 00fc      	moveml %sp@+,%d2-%d7
    40be:	4e5e           	unlk %fp
    40c0:	4e75           	rts

000040c2 <Lcmpdf$b$gt$a>:
    40c2:	70ff           	moveq #-1,%d0
    40c4:	4cdf 00fc      	moveml %sp@+,%d2-%d7
    40c8:	4e5e           	unlk %fp
    40ca:	4e75           	rts

000040cc <Lcmpdf$a$0>:
    40cc:	0886 001f      	bclr #31,%d6
    40d0:	6000 ff98      	braw 406a <Lcmpdf$0>

000040d4 <Lcmpdf$b$0>:
    40d4:	0887 001f      	bclr #31,%d7
    40d8:	6000 ffa6      	braw 4080 <Lcmpdf$1>

000040dc <Lcmpdf$a$nf>:
    40dc:	4a81           	tstl %d1
    40de:	6600 f70c      	bnew 37ec <Ld$inop>
    40e2:	6000 ff86      	braw 406a <Lcmpdf$0>

000040e6 <Lcmpdf$b$nf>:
    40e6:	4a83           	tstl %d3
    40e8:	6600 f702      	bnew 37ec <Ld$inop>
    40ec:	6000 ff92      	braw 4080 <Lcmpdf$1>

000040f0 <Lcmpd$inop>:
    40f0:	202e 0018      	movel %fp@(24),%d0
    40f4:	7e11           	moveq #17,%d7
    40f6:	7c02           	moveq #2,%d6
    40f8:	4ef9 0000 48c2 	jmp 48c2 <$_exception_handler>

000040fe <__cmpdf2>:
    40fe:	4e56 0000      	linkw %fp,#0
    4102:	4878 0001      	pea 1 <ADD>
    4106:	2f2e 0014      	movel %fp@(20),%sp@-
    410a:	2f2e 0010      	movel %fp@(16),%sp@-
    410e:	2f2e 000c      	movel %fp@(12),%sp@-
    4112:	2f2e 0008      	movel %fp@(8),%sp@-
    4116:	4eb9 0000 402e 	jsr 402e <__cmpdf2_internal>
    411c:	4e5e           	unlk %fp
    411e:	4e75           	rts

00004120 <Lround$to$nearest>:
    4120:	0800 0015      	btst #21,%d0
    4124:	6600 0016      	bnew 413c <Lround$to$nearest+0x1c>
    4128:	0c44 0001      	cmpiw #1,%d4
    412c:	6700 000e      	beqw 413c <Lround$to$nearest+0x1c>
    4130:	d683           	addl %d3,%d3
    4132:	d582           	addxl %d2,%d2
    4134:	d381           	addxl %d1,%d1
    4136:	d180           	addxl %d0,%d0
    4138:	51cc ffe6      	dbf %d4,4120 <Lround$to$nearest>
    413c:	0801 0000      	btst #0,%d1
    4140:	6700 0022      	beqw 4164 <Lround$to$nearest+0x44>
    4144:	8682           	orl %d2,%d3
    4146:	6600 0014      	bnew 415c <Lround$to$nearest+0x3c>
    414a:	2601           	movel %d1,%d3
    414c:	0283 0000 0002 	andil #2,%d3
    4152:	7400           	moveq #0,%d2
    4154:	d283           	addl %d3,%d1
    4156:	d182           	addxl %d2,%d0
    4158:	6000 000a      	braw 4164 <Lround$to$nearest+0x44>
    415c:	7601           	moveq #1,%d3
    415e:	7400           	moveq #0,%d2
    4160:	d283           	addl %d3,%d1
    4162:	d182           	addxl %d2,%d0
    4164:	e288           	lsrl #1,%d0
    4166:	e291           	roxrl #1,%d1
    4168:	0800 0015      	btst #21,%d0
    416c:	6700 0008      	beqw 4176 <Lround$to$nearest+0x56>
    4170:	e288           	lsrl #1,%d0
    4172:	e291           	roxrl #1,%d1
    4174:	5244           	addqw #1,%d4
    4176:	0800 0014      	btst #20,%d0
    417a:	6700 0004      	beqw 4180 <Lround$to$nearest+0x60>
    417e:	4ed0           	jmp %a0@
    4180:	7800           	moveq #0,%d4
    4182:	4ed0           	jmp %a0@

00004184 <Lround$to$minus>:
    4184:	4ed0           	jmp %a0@
	...

00004188 <Lf$den>:
    4188:	8087           	orl %d7,%d0
    418a:	7e03           	moveq #3,%d7
    418c:	7c01           	moveq #1,%d6
    418e:	4ef9 0000 48c2 	jmp 48c2 <$_exception_handler>

00004194 <Lf$infty>:
    4194:	203c 7f80 0000 	movel #2139095040,%d0
    419a:	8087           	orl %d7,%d0
    419c:	7e05           	moveq #5,%d7
    419e:	7c01           	moveq #1,%d6
    41a0:	4ef9 0000 48c2 	jmp 48c2 <$_exception_handler>

000041a6 <Lf$underflow>:
    41a6:	7000           	moveq #0,%d0
    41a8:	7e03           	moveq #3,%d7
    41aa:	7c01           	moveq #1,%d6
    41ac:	4ef9 0000 48c2 	jmp 48c2 <$_exception_handler>

000041b2 <Lf$inop>:
    41b2:	70ff           	moveq #-1,%d0
    41b4:	7e11           	moveq #17,%d7
    41b6:	7c01           	moveq #1,%d6
    41b8:	4ef9 0000 48c2 	jmp 48c2 <$_exception_handler>

000041be <Lf$div$0>:
    41be:	203c 7f80 0000 	movel #2139095040,%d0
    41c4:	8087           	orl %d7,%d0
    41c6:	7e09           	moveq #9,%d7
    41c8:	7c01           	moveq #1,%d6
    41ca:	4ef9 0000 48c2 	jmp 48c2 <$_exception_handler>

000041d0 <__subsf3>:
    41d0:	086f 001f 0008 	bchg #31,%sp@(8)

000041d6 <__addsf3>:
    41d6:	4e56 0000      	linkw %fp,#0
    41da:	48e7 3f00      	moveml %d2-%d7,%sp@-
    41de:	202e 0008      	movel %fp@(8),%d0
    41e2:	222e 000c      	movel %fp@(12),%d1
    41e6:	2040           	moveal %d0,%a0
    41e8:	d080           	addl %d0,%d0
    41ea:	6700 01b6      	beqw 43a2 <Laddsf$b>
    41ee:	2241           	moveal %d1,%a1
    41f0:	d281           	addl %d1,%d1
    41f2:	6700 01ca      	beqw 43be <Laddsf$a>
    41f6:	283c 00ff ffff 	movel #16777215,%d4
    41fc:	2a3c 0100 0000 	movel #16777216,%d5
    4202:	2c00           	movel %d0,%d6
    4204:	c084           	andl %d4,%d0
    4206:	4684           	notl %d4
    4208:	cc84           	andl %d4,%d6
    420a:	6700 0184      	beqw 4390 <Laddsf$a$den>
    420e:	bc84           	cmpl %d4,%d6
    4210:	6700 01fe      	beqw 4410 <Laddsf$nf>
    4214:	4846           	swap %d6
    4216:	8085           	orl %d5,%d0

00004218 <Laddsf$1>:
    4218:	2e01           	movel %d1,%d7
    421a:	ce84           	andl %d4,%d7
    421c:	6700 017a      	beqw 4398 <Laddsf$b$den>
    4220:	be84           	cmpl %d4,%d7
    4222:	6700 01ec      	beqw 4410 <Laddsf$nf>
    4226:	4847           	swap %d7
    4228:	4684           	notl %d4
    422a:	c284           	andl %d4,%d1
    422c:	8285           	orl %d5,%d1

0000422e <Laddsf$2>:
    422e:	2401           	movel %d1,%d2
    4230:	7200           	moveq #0,%d1
    4232:	2601           	movel %d1,%d3
    4234:	be46           	cmpw %d6,%d7
    4236:	6700 0074      	beqw 42ac <Laddsf$3>
    423a:	6200 003a      	bhiw 4276 <Laddsf$2+0x48>
    423e:	9e86           	subl %d6,%d7
    4240:	4487           	negl %d7
    4242:	e04f           	lsrw #8,%d7
    4244:	0c47 001a      	cmpiw #26,%d7
    4248:	6c00 0130      	bgew 437a <Laddsf$b$small>
    424c:	0c47 0010      	cmpiw #16,%d7
    4250:	6c00 0010      	bgew 4262 <Laddsf$2+0x34>
    4254:	5347           	subqw #1,%d7
    4256:	e28a           	lsrl #1,%d2
    4258:	e293           	roxrl #1,%d3
    425a:	51cf fffa      	dbf %d7,4256 <Laddsf$2+0x28>
    425e:	6000 004c      	braw 42ac <Laddsf$3>
    4262:	3602           	movew %d2,%d3
    4264:	4843           	swap %d3
    4266:	3403           	movew %d3,%d2
    4268:	4842           	swap %d2
    426a:	0447 0010      	subiw #16,%d7
    426e:	6600 ffe4      	bnew 4254 <Laddsf$2+0x26>
    4272:	6000 0038      	braw 42ac <Laddsf$3>
    4276:	cd47           	exg %d6,%d7
    4278:	9e86           	subl %d6,%d7
    427a:	4487           	negl %d7
    427c:	e04f           	lsrw #8,%d7
    427e:	0c47 001a      	cmpiw #26,%d7
    4282:	6c00 00e0      	bgew 4364 <Laddsf$a$small>
    4286:	0c47 0010      	cmpiw #16,%d7
    428a:	6c00 0010      	bgew 429c <Laddsf$2+0x6e>
    428e:	5347           	subqw #1,%d7
    4290:	e288           	lsrl #1,%d0
    4292:	e291           	roxrl #1,%d1
    4294:	51cf fffa      	dbf %d7,4290 <Laddsf$2+0x62>
    4298:	6000 0012      	braw 42ac <Laddsf$3>
    429c:	3200           	movew %d0,%d1
    429e:	4841           	swap %d1
    42a0:	3001           	movew %d1,%d0
    42a2:	4840           	swap %d0
    42a4:	0447 0010      	subiw #16,%d7
    42a8:	6600 ffe4      	bnew 428e <Laddsf$2+0x60>

000042ac <Laddsf$3>:
    42ac:	cd88           	exg %d6,%a0
    42ae:	cf89           	exg %d7,%a1
    42b0:	bd87           	eorl %d6,%d7
    42b2:	6b00 0060      	bmiw 4314 <Lsubsf$0>
    42b6:	cd88           	exg %d6,%a0
    42b8:	2e08           	movel %a0,%d7
    42ba:	0287 8000 0000 	andil #-2147483648,%d7
    42c0:	d283           	addl %d3,%d1
    42c2:	d182           	addxl %d2,%d0
    42c4:	2406           	movel %d6,%d2
    42c6:	e04a           	lsrw #8,%d2
    42c8:	0800 0019      	btst #25,%d0
    42cc:	6700 0008      	beqw 42d6 <Laddsf$3+0x2a>
    42d0:	e288           	lsrl #1,%d0
    42d2:	e291           	roxrl #1,%d1
    42d4:	5282           	addql #1,%d2
    42d6:	41fa 0020      	lea %pc@(42f8 <Laddsf$4>),%a0
    42da:	43f9 0001 4d24 	lea 14d24 <_fpCCR>,%a1
    42e0:	3c29 0006      	movew %a1@(6),%d6
    42e4:	6700 0578      	beqw 485e <Lround$to$nearest>
    42e8:	0c46 0002      	cmpiw #2,%d6
    42ec:	6200 05c4      	bhiw 48b2 <Lround$to$minus>
    42f0:	6d00 05c0      	bltw 48b2 <Lround$to$minus>
    42f4:	6000 05bc      	braw 48b2 <Lround$to$minus>

000042f8 <Laddsf$4>:
    42f8:	0c42 00ff      	cmpiw #255,%d2
    42fc:	6200 0010      	bhiw 430e <Laddsf$4+0x16>
    4300:	0880 0017      	bclr #23,%d0
    4304:	ef4a           	lslw #7,%d2
    4306:	4842           	swap %d2
    4308:	8082           	orl %d2,%d0
    430a:	6000 00ea      	braw 43f6 <Laddsf$ret>
    430e:	7a01           	moveq #1,%d5
    4310:	6000 fe82      	braw 4194 <Lf$infty>

00004314 <Lsubsf$0>:
    4314:	2e06           	movel %d6,%d7
    4316:	0287 8000 0000 	andil #-2147483648,%d7
    431c:	9283           	subl %d3,%d1
    431e:	9182           	subxl %d2,%d0
    4320:	6700 00d4      	beqw 43f6 <Laddsf$ret>
    4324:	6a00 000a      	bplw 4330 <Lsubsf$0+0x1c>
    4328:	0847 001f      	bchg #31,%d7
    432c:	4481           	negl %d1
    432e:	4080           	negxl %d0
    4330:	c588           	exg %d2,%a0
    4332:	e04a           	lsrw #8,%d2
    4334:	41fa 0020      	lea %pc@(4356 <Lsubsf$1>),%a0
    4338:	43f9 0001 4d24 	lea 14d24 <_fpCCR>,%a1
    433e:	3c29 0006      	movew %a1@(6),%d6
    4342:	6700 051a      	beqw 485e <Lround$to$nearest>
    4346:	0c46 0002      	cmpiw #2,%d6
    434a:	6200 0566      	bhiw 48b2 <Lround$to$minus>
    434e:	6d00 0562      	bltw 48b2 <Lround$to$minus>
    4352:	6000 055e      	braw 48b2 <Lround$to$minus>

00004356 <Lsubsf$1>:
    4356:	0880 0017      	bclr #23,%d0
    435a:	ef4a           	lslw #7,%d2
    435c:	4842           	swap %d2
    435e:	8082           	orl %d2,%d0
    4360:	6000 0094      	braw 43f6 <Laddsf$ret>

00004364 <Laddsf$a$small>:
    4364:	202e 000c      	movel %fp@(12),%d0
    4368:	41f9 0001 4d24 	lea 14d24 <_fpCCR>,%a0
    436e:	30bc 0000      	movew #0,%a0@
    4372:	4cdf 00fc      	moveml %sp@+,%d2-%d7
    4376:	4e5e           	unlk %fp
    4378:	4e75           	rts

0000437a <Laddsf$b$small>:
    437a:	202e 0008      	movel %fp@(8),%d0
    437e:	41f9 0001 4d24 	lea 14d24 <_fpCCR>,%a0
    4384:	30bc 0000      	movew #0,%a0@
    4388:	4cdf 00fc      	moveml %sp@+,%d2-%d7
    438c:	4e5e           	unlk %fp
    438e:	4e75           	rts

00004390 <Laddsf$a$den>:
    4390:	2c05           	movel %d5,%d6
    4392:	4846           	swap %d6
    4394:	6000 fe82      	braw 4218 <Laddsf$1>

00004398 <Laddsf$b$den>:
    4398:	2e05           	movel %d5,%d7
    439a:	4847           	swap %d7
    439c:	4684           	notl %d4
    439e:	6000 fe8e      	braw 422e <Laddsf$2>

000043a2 <Laddsf$b>:
    43a2:	202e 000c      	movel %fp@(12),%d0
    43a6:	0c80 8000 0000 	cmpil #-2147483648,%d0
    43ac:	6600 0014      	bnew 43c2 <Laddsf$a+0x4>
    43b0:	2e08           	movel %a0,%d7
    43b2:	0287 8000 0000 	andil #-2147483648,%d7
    43b8:	4280           	clrl %d0
    43ba:	6000 003a      	braw 43f6 <Laddsf$ret>

000043be <Laddsf$a>:
    43be:	202e 0008      	movel %fp@(8),%d0
    43c2:	7a01           	moveq #1,%d5
    43c4:	2e00           	movel %d0,%d7
    43c6:	0287 8000 0000 	andil #-2147483648,%d7
    43cc:	0880 001f      	bclr #31,%d0
    43d0:	0c80 7f80 0000 	cmpil #2139095040,%d0
    43d6:	6c00 0010      	bgew 43e8 <Laddsf$a+0x2a>
    43da:	2000           	movel %d0,%d0
    43dc:	6600 0018      	bnew 43f6 <Laddsf$ret>
    43e0:	0887 001f      	bclr #31,%d7
    43e4:	6000 0010      	braw 43f6 <Laddsf$ret>
    43e8:	0280 007f ffff 	andil #8388607,%d0
    43ee:	6600 fdc2      	bnew 41b2 <Lf$inop>
    43f2:	6000 fda0      	braw 4194 <Lf$infty>

000043f6 <Laddsf$ret>:
    43f6:	41f9 0001 4d24 	lea 14d24 <_fpCCR>,%a0
    43fc:	30bc 0000      	movew #0,%a0@
    4400:	8087           	orl %d7,%d0
    4402:	4cdf 00fc      	moveml %sp@+,%d2-%d7
    4406:	4e5e           	unlk %fp
    4408:	4e75           	rts

0000440a <Laddsf$ret$den>:
    440a:	e288           	lsrl #1,%d0
    440c:	6000 ffe8      	braw 43f6 <Laddsf$ret>

00004410 <Laddsf$nf>:
    4410:	7a01           	moveq #1,%d5
    4412:	202e 0008      	movel %fp@(8),%d0
    4416:	222e 000c      	movel %fp@(12),%d1
    441a:	283c 7f80 0000 	movel #2139095040,%d4
    4420:	2400           	movel %d0,%d2
    4422:	2e00           	movel %d0,%d7
    4424:	2601           	movel %d1,%d3
    4426:	0880 001f      	bclr #31,%d0
    442a:	0881 001f      	bclr #31,%d1
    442e:	b084           	cmpl %d4,%d0
    4430:	6200 fd80      	bhiw 41b2 <Lf$inop>
    4434:	b284           	cmpl %d4,%d1
    4436:	6200 fd7a      	bhiw 41b2 <Lf$inop>
    443a:	b782           	eorl %d3,%d2
    443c:	6b00 000c      	bmiw 444a <Laddsf$nf+0x3a>
    4440:	0287 8000 0000 	andil #-2147483648,%d7
    4446:	6000 fd4c      	braw 4194 <Lf$infty>
    444a:	b081           	cmpl %d1,%d0
    444c:	6700 fd64      	beqw 41b2 <Lf$inop>
    4450:	0287 8000 0000 	andil #-2147483648,%d7
    4456:	b084           	cmpl %d4,%d0
    4458:	6700 fd3a      	beqw 4194 <Lf$infty>
    445c:	0847 001f      	bchg #31,%d7
    4460:	6000 fd32      	braw 4194 <Lf$infty>

00004464 <__mulsf3>:
    4464:	4e56 0000      	linkw %fp,#0
    4468:	48e7 3f00      	moveml %d2-%d7,%sp@-
    446c:	202e 0008      	movel %fp@(8),%d0
    4470:	222e 000c      	movel %fp@(12),%d1
    4474:	2e00           	movel %d0,%d7
    4476:	b387           	eorl %d1,%d7
    4478:	0287 8000 0000 	andil #-2147483648,%d7
    447e:	2c3c 7f80 0000 	movel #2139095040,%d6
    4484:	2a06           	movel %d6,%d5
    4486:	4685           	notl %d5
    4488:	283c 0080 0000 	movel #8388608,%d4
    448e:	0880 001f      	bclr #31,%d0
    4492:	2400           	movel %d0,%d2
    4494:	6700 00ac      	beqw 4542 <Lmulsf$a$0>
    4498:	0881 001f      	bclr #31,%d1
    449c:	2601           	movel %d1,%d3
    449e:	6700 009a      	beqw 453a <Lmulsf$b$0>
    44a2:	b086           	cmpl %d6,%d0
    44a4:	6200 007c      	bhiw 4522 <Lmulsf$inop>
    44a8:	6700 0084      	beqw 452e <Lmulsf$inf>
    44ac:	b286           	cmpl %d6,%d1
    44ae:	6200 0072      	bhiw 4522 <Lmulsf$inop>
    44b2:	6700 0074      	beqw 4528 <Lmulsf$overflow>
    44b6:	c486           	andl %d6,%d2
    44b8:	6700 00ae      	beqw 4568 <Lmulsf$a$den>
    44bc:	c085           	andl %d5,%d0
    44be:	8084           	orl %d4,%d0
    44c0:	4842           	swap %d2
    44c2:	ee4a           	lsrw #7,%d2

000044c4 <Lmulsf$1>:
    44c4:	c686           	andl %d6,%d3
    44c6:	6700 00b4      	beqw 457c <Lmulsf$b$den>
    44ca:	c285           	andl %d5,%d1
    44cc:	8284           	orl %d4,%d1
    44ce:	4843           	swap %d3
    44d0:	ee4b           	lsrw #7,%d3

000044d2 <Lmulsf$2>:
    44d2:	d443           	addw %d3,%d2
    44d4:	0442 007f      	subiw #127,%d2
    44d8:	2c01           	movel %d1,%d6
    44da:	2a00           	movel %d0,%d5
    44dc:	7800           	moveq #0,%d4
    44de:	2204           	movel %d4,%d1
    44e0:	2004           	movel %d4,%d0
    44e2:	e18e           	lsll #8,%d6
    44e4:	7617           	moveq #23,%d3
    44e6:	d281           	addl %d1,%d1
    44e8:	d180           	addxl %d0,%d0
    44ea:	e38e           	lsll #1,%d6
    44ec:	6400 0006      	bccw 44f4 <Lmulsf$2+0x22>
    44f0:	d285           	addl %d5,%d1
    44f2:	d184           	addxl %d4,%d0
    44f4:	51cb fff0      	dbf %d3,44e6 <Lmulsf$2+0x14>
    44f8:	ec99           	rorl #6,%d1
    44fa:	4841           	swap %d1
    44fc:	3601           	movew %d1,%d3
    44fe:	0243 03ff      	andiw #1023,%d3
    4502:	0241 fd00      	andiw #-768,%d1
    4506:	e188           	lsll #8,%d0
    4508:	d080           	addl %d0,%d0
    450a:	d080           	addl %d0,%d0
    450c:	8043           	orw %d3,%d0
    450e:	7a02           	moveq #2,%d5
    4510:	0800 0019      	btst #25,%d0
    4514:	6700 01c4      	beqw 46da <Lround$exit>
    4518:	e288           	lsrl #1,%d0
    451a:	e291           	roxrl #1,%d1
    451c:	5242           	addqw #1,%d2
    451e:	6000 01ba      	braw 46da <Lround$exit>

00004522 <Lmulsf$inop>:
    4522:	7a02           	moveq #2,%d5
    4524:	6000 fc8c      	braw 41b2 <Lf$inop>

00004528 <Lmulsf$overflow>:
    4528:	7a02           	moveq #2,%d5
    452a:	6000 fc68      	braw 4194 <Lf$infty>

0000452e <Lmulsf$inf>:
    452e:	7a02           	moveq #2,%d5
    4530:	b286           	cmpl %d6,%d1
    4532:	6200 fc7e      	bhiw 41b2 <Lf$inop>
    4536:	6000 fc5c      	braw 4194 <Lf$infty>

0000453a <Lmulsf$b$0>:
    453a:	222e 0008      	movel %fp@(8),%d1
    453e:	6000 0006      	braw 4546 <Lmulsf$a$0+0x4>

00004542 <Lmulsf$a$0>:
    4542:	222e 000c      	movel %fp@(12),%d1
    4546:	0881 001f      	bclr #31,%d1
    454a:	0c81 7f80 0000 	cmpil #2139095040,%d1
    4550:	6c00 fc60      	bgew 41b2 <Lf$inop>
    4554:	2007           	movel %d7,%d0
    4556:	41f9 0001 4d24 	lea 14d24 <_fpCCR>,%a0
    455c:	30bc 0000      	movew #0,%a0@
    4560:	4cdf 00fc      	moveml %sp@+,%d2-%d7
    4564:	4e5e           	unlk %fp
    4566:	4e75           	rts

00004568 <Lmulsf$a$den>:
    4568:	7401           	moveq #1,%d2
    456a:	c085           	andl %d5,%d0
    456c:	d080           	addl %d0,%d0
    456e:	5342           	subqw #1,%d2
    4570:	0800 0017      	btst #23,%d0
    4574:	6600 ff4e      	bnew 44c4 <Lmulsf$1>
    4578:	6000 fff2      	braw 456c <Lmulsf$a$den+0x4>

0000457c <Lmulsf$b$den>:
    457c:	7601           	moveq #1,%d3
    457e:	c285           	andl %d5,%d1
    4580:	d281           	addl %d1,%d1
    4582:	5343           	subqw #1,%d3
    4584:	0801 0017      	btst #23,%d1
    4588:	6600 ff48      	bnew 44d2 <Lmulsf$2>
    458c:	6000 fff2      	braw 4580 <Lmulsf$b$den+0x4>

00004590 <__divsf3>:
    4590:	4e56 0000      	linkw %fp,#0
    4594:	48e7 3f00      	moveml %d2-%d7,%sp@-
    4598:	202e 0008      	movel %fp@(8),%d0
    459c:	222e 000c      	movel %fp@(12),%d1
    45a0:	2e00           	movel %d0,%d7
    45a2:	b387           	eorl %d1,%d7
    45a4:	0287 8000 0000 	andil #-2147483648,%d7
    45aa:	2c3c 7f80 0000 	movel #2139095040,%d6
    45b0:	2a06           	movel %d6,%d5
    45b2:	4685           	notl %d5
    45b4:	283c 0080 0000 	movel #8388608,%d4
    45ba:	0880 001f      	bclr #31,%d0
    45be:	2400           	movel %d0,%d2
    45c0:	6700 00a6      	beqw 4668 <Ldivsf$a$0>
    45c4:	0881 001f      	bclr #31,%d1
    45c8:	2601           	movel %d1,%d3
    45ca:	6700 00c6      	beqw 4692 <Ldivsf$b$0>
    45ce:	b086           	cmpl %d6,%d0
    45d0:	6200 0084      	bhiw 4656 <Ldivsf$inop>
    45d4:	6700 00cc      	beqw 46a2 <Ldivsf$inf>
    45d8:	b286           	cmpl %d6,%d1
    45da:	6200 007a      	bhiw 4656 <Ldivsf$inop>
    45de:	6700 0082      	beqw 4662 <Ldivsf$underflow>
    45e2:	c486           	andl %d6,%d2
    45e4:	6700 00cc      	beqw 46b2 <Ldivsf$a$den>
    45e8:	c085           	andl %d5,%d0
    45ea:	8084           	orl %d4,%d0
    45ec:	4842           	swap %d2
    45ee:	ee4a           	lsrw #7,%d2

000045f0 <Ldivsf$1>:
    45f0:	c686           	andl %d6,%d3
    45f2:	6700 00d2      	beqw 46c6 <Ldivsf$b$den>
    45f6:	c285           	andl %d5,%d1
    45f8:	8284           	orl %d4,%d1
    45fa:	4843           	swap %d3
    45fc:	ee4b           	lsrw #7,%d3

000045fe <Ldivsf$2>:
    45fe:	9443           	subw %d3,%d2
    4600:	0642 007e      	addiw #126,%d2
    4604:	2047           	moveal %d7,%a0
    4606:	7c00           	moveq #0,%d6
    4608:	2e06           	movel %d6,%d7
    460a:	7619           	moveq #25,%d3
    460c:	b280           	cmpl %d0,%d1
    460e:	6200 000a      	bhiw 461a <Ldivsf$2+0x1c>
    4612:	07c6           	bset %d3,%d6
    4614:	9081           	subl %d1,%d0
    4616:	6700 0028      	beqw 4640 <Ldivsf$2+0x42>
    461a:	d080           	addl %d0,%d0
    461c:	51cb ffee      	dbf %d3,460c <Ldivsf$2+0xe>
    4620:	7618           	moveq #24,%d3
    4622:	b280           	cmpl %d0,%d1
    4624:	6f00 000e      	blew 4634 <Ldivsf$2+0x36>
    4628:	d080           	addl %d0,%d0
    462a:	51cb fff6      	dbf %d3,4622 <Ldivsf$2+0x24>
    462e:	7200           	moveq #0,%d1
    4630:	6000 000e      	braw 4640 <Ldivsf$2+0x42>
    4634:	7200           	moveq #0,%d1
    4636:	0443 0018      	subiw #24,%d3
    463a:	0643 001f      	addiw #31,%d3
    463e:	07c1           	bset %d3,%d1
    4640:	2006           	movel %d6,%d0
    4642:	2e08           	movel %a0,%d7
    4644:	0800 0019      	btst #25,%d0
    4648:	6700 0006      	beqw 4650 <Ldivsf$2+0x52>
    464c:	e288           	lsrl #1,%d0
    464e:	5242           	addqw #1,%d2
    4650:	7a03           	moveq #3,%d5
    4652:	6000 0086      	braw 46da <Lround$exit>

00004656 <Ldivsf$inop>:
    4656:	7a03           	moveq #3,%d5
    4658:	6000 fb58      	braw 41b2 <Lf$inop>

0000465c <Ldivsf$overflow>:
    465c:	7a03           	moveq #3,%d5
    465e:	6000 fb34      	braw 4194 <Lf$infty>

00004662 <Ldivsf$underflow>:
    4662:	7a03           	moveq #3,%d5
    4664:	6000 fb40      	braw 41a6 <Lf$underflow>

00004668 <Ldivsf$a$0>:
    4668:	7a03           	moveq #3,%d5
    466a:	0281 7fff ffff 	andil #2147483647,%d1
    4670:	6700 fb40      	beqw 41b2 <Lf$inop>
    4674:	0c81 7f80 0000 	cmpil #2139095040,%d1
    467a:	6200 fb36      	bhiw 41b2 <Lf$inop>
    467e:	2007           	movel %d7,%d0
    4680:	41f9 0001 4d24 	lea 14d24 <_fpCCR>,%a0
    4686:	30bc 0000      	movew #0,%a0@
    468a:	4cdf 00fc      	moveml %sp@+,%d2-%d7
    468e:	4e5e           	unlk %fp
    4690:	4e75           	rts

00004692 <Ldivsf$b$0>:
    4692:	7a03           	moveq #3,%d5
    4694:	0c80 7f80 0000 	cmpil #2139095040,%d0
    469a:	6200 fb16      	bhiw 41b2 <Lf$inop>
    469e:	6000 fb1e      	braw 41be <Lf$div$0>

000046a2 <Ldivsf$inf>:
    46a2:	7a03           	moveq #3,%d5
    46a4:	0c81 7f80 0000 	cmpil #2139095040,%d1
    46aa:	6c00 fb06      	bgew 41b2 <Lf$inop>
    46ae:	6000 fae4      	braw 4194 <Lf$infty>

000046b2 <Ldivsf$a$den>:
    46b2:	7401           	moveq #1,%d2
    46b4:	c085           	andl %d5,%d0
    46b6:	d080           	addl %d0,%d0
    46b8:	5342           	subqw #1,%d2
    46ba:	0800 0017      	btst #23,%d0
    46be:	6600 ff30      	bnew 45f0 <Ldivsf$1>
    46c2:	6000 fff2      	braw 46b6 <Ldivsf$a$den+0x4>

000046c6 <Ldivsf$b$den>:
    46c6:	7601           	moveq #1,%d3
    46c8:	c285           	andl %d5,%d1
    46ca:	d281           	addl %d1,%d1
    46cc:	5343           	subqw #1,%d3
    46ce:	0801 0017      	btst #23,%d1
    46d2:	6600 ff2a      	bnew 45fe <Ldivsf$2>
    46d6:	6000 fff2      	braw 46ca <Ldivsf$b$den+0x4>

000046da <Lround$exit>:
    46da:	0c42 ffe7      	cmpiw #-25,%d2
    46de:	6d00 fac6      	bltw 41a6 <Lf$underflow>
    46e2:	7c00           	moveq #0,%d6
    46e4:	0c42 0001      	cmpiw #1,%d2
    46e8:	6c00 001a      	bgew 4704 <Lround$exit+0x2a>
    46ec:	5242           	addqw #1,%d2
    46ee:	e288           	lsrl #1,%d0
    46f0:	e291           	roxrl #1,%d1
    46f2:	e296           	roxrl #1,%d6
    46f4:	0c42 0001      	cmpiw #1,%d2
    46f8:	6700 000a      	beqw 4704 <Lround$exit+0x2a>
    46fc:	6000 ffee      	braw 46ec <Lround$exit+0x12>
    4700:	6000 faa4      	braw 41a6 <Lf$underflow>
    4704:	8286           	orl %d6,%d1
    4706:	41fa 0020      	lea %pc@(4728 <Lround$0>),%a0
    470a:	43f9 0001 4d24 	lea 14d24 <_fpCCR>,%a1
    4710:	3c29 0006      	movew %a1@(6),%d6
    4714:	6700 0148      	beqw 485e <Lround$to$nearest>
    4718:	0c46 0002      	cmpiw #2,%d6
    471c:	6200 0194      	bhiw 48b2 <Lround$to$minus>
    4720:	6d00 0190      	bltw 48b2 <Lround$to$minus>
    4724:	6000 018c      	braw 48b2 <Lround$to$minus>

00004728 <Lround$0>:
    4728:	0c42 00ff      	cmpiw #255,%d2
    472c:	6c00 fa66      	bgew 4194 <Lf$infty>
    4730:	3402           	movew %d2,%d2
    4732:	6700 fa54      	beqw 4188 <Lf$den>
    4736:	ef4a           	lslw #7,%d2
    4738:	0880 0017      	bclr #23,%d0
    473c:	4840           	swap %d0
    473e:	8042           	orw %d2,%d0
    4740:	4840           	swap %d0
    4742:	8087           	orl %d7,%d0
    4744:	41f9 0001 4d24 	lea 14d24 <_fpCCR>,%a0
    474a:	30bc 0000      	movew #0,%a0@
    474e:	4cdf 00fc      	moveml %sp@+,%d2-%d7
    4752:	4e5e           	unlk %fp
    4754:	4e75           	rts

00004756 <__negsf2>:
    4756:	4e56 0000      	linkw %fp,#0
    475a:	48e7 3f00      	moveml %d2-%d7,%sp@-
    475e:	7a04           	moveq #4,%d5
    4760:	202e 0008      	movel %fp@(8),%d0
    4764:	0840 001f      	bchg #31,%d0
    4768:	2200           	movel %d0,%d1
    476a:	0881 001f      	bclr #31,%d1
    476e:	4a81           	tstl %d1
    4770:	6700 002e      	beqw 47a0 <__negsf2+0x4a>
    4774:	0c81 7f80 0000 	cmpil #2139095040,%d1
    477a:	6d00 0012      	bltw 478e <__negsf2+0x38>
    477e:	6200 fa32      	bhiw 41b2 <Lf$inop>
    4782:	2e00           	movel %d0,%d7
    4784:	0287 8000 0000 	andil #-2147483648,%d7
    478a:	6000 fa08      	braw 4194 <Lf$infty>
    478e:	41f9 0001 4d24 	lea 14d24 <_fpCCR>,%a0
    4794:	30bc 0000      	movew #0,%a0@
    4798:	4cdf 00fc      	moveml %sp@+,%d2-%d7
    479c:	4e5e           	unlk %fp
    479e:	4e75           	rts
    47a0:	0880 001f      	bclr #31,%d0
    47a4:	6000 ffe8      	braw 478e <__negsf2+0x38>

000047a8 <__cmpsf2_internal>:
    47a8:	4e56 0000      	linkw %fp,#0
    47ac:	48e7 3f00      	moveml %d2-%d7,%sp@-
    47b0:	7a05           	moveq #5,%d5
    47b2:	202e 0008      	movel %fp@(8),%d0
    47b6:	222e 000c      	movel %fp@(12),%d1
    47ba:	2c00           	movel %d0,%d6
    47bc:	0280 7fff ffff 	andil #2147483647,%d0
    47c2:	6700 0062      	beqw 4826 <Lcmpsf$a$0>
    47c6:	0c80 7f80 0000 	cmpil #2139095040,%d0
    47cc:	6200 0068      	bhiw 4836 <Lcmpf$inop>

000047d0 <Lcmpsf$1>:
    47d0:	2e01           	movel %d1,%d7
    47d2:	0281 7fff ffff 	andil #2147483647,%d1
    47d8:	6700 0054      	beqw 482e <Lcmpsf$b$0>
    47dc:	0c81 7f80 0000 	cmpil #2139095040,%d1
    47e2:	6200 0052      	bhiw 4836 <Lcmpf$inop>

000047e6 <Lcmpsf$2>:
    47e6:	bd87           	eorl %d6,%d7
    47e8:	6a00 000c      	bplw 47f6 <Lcmpsf$2+0x10>
    47ec:	4a86           	tstl %d6
    47ee:	6a00 0022      	bplw 4812 <Lcmpsf$a$gt$b>
    47f2:	6b00 0028      	bmiw 481c <Lcmpsf$b$gt$a>
    47f6:	4a86           	tstl %d6
    47f8:	6a00 0004      	bplw 47fe <Lcmpsf$2+0x18>
    47fc:	c141           	exg %d0,%d1
    47fe:	b280           	cmpl %d0,%d1
    4800:	6200 001a      	bhiw 481c <Lcmpsf$b$gt$a>
    4804:	6600 000c      	bnew 4812 <Lcmpsf$a$gt$b>
    4808:	7000           	moveq #0,%d0
    480a:	4cdf 00fc      	moveml %sp@+,%d2-%d7
    480e:	4e5e           	unlk %fp
    4810:	4e75           	rts

00004812 <Lcmpsf$a$gt$b>:
    4812:	7001           	moveq #1,%d0
    4814:	4cdf 00fc      	moveml %sp@+,%d2-%d7
    4818:	4e5e           	unlk %fp
    481a:	4e75           	rts

0000481c <Lcmpsf$b$gt$a>:
    481c:	70ff           	moveq #-1,%d0
    481e:	4cdf 00fc      	moveml %sp@+,%d2-%d7
    4822:	4e5e           	unlk %fp
    4824:	4e75           	rts

00004826 <Lcmpsf$a$0>:
    4826:	0886 001f      	bclr #31,%d6
    482a:	6000 ffa4      	braw 47d0 <Lcmpsf$1>

0000482e <Lcmpsf$b$0>:
    482e:	0887 001f      	bclr #31,%d7
    4832:	6000 ffb2      	braw 47e6 <Lcmpsf$2>

00004836 <Lcmpf$inop>:
    4836:	202e 0010      	movel %fp@(16),%d0
    483a:	7e11           	moveq #17,%d7
    483c:	7c01           	moveq #1,%d6
    483e:	4ef9 0000 48c2 	jmp 48c2 <$_exception_handler>

00004844 <__cmpsf2>:
    4844:	4e56 0000      	linkw %fp,#0
    4848:	4878 0001      	pea 1 <ADD>
    484c:	2f2e 000c      	movel %fp@(12),%sp@-
    4850:	2f2e 0008      	movel %fp@(8),%sp@-
    4854:	4eb9 0000 47a8 	jsr 47a8 <__cmpsf2_internal>
    485a:	4e5e           	unlk %fp
    485c:	4e75           	rts

0000485e <Lround$to$nearest>:
    485e:	0800 0018      	btst #24,%d0
    4862:	6600 0012      	bnew 4876 <Lround$to$nearest+0x18>
    4866:	0c42 0001      	cmpiw #1,%d2
    486a:	6700 000a      	beqw 4876 <Lround$to$nearest+0x18>
    486e:	d281           	addl %d1,%d1
    4870:	d180           	addxl %d0,%d0
    4872:	51ca ffea      	dbf %d2,485e <Lround$to$nearest>
    4876:	0800 0000      	btst #0,%d0
    487a:	6700 001a      	beqw 4896 <Lround$to$nearest+0x38>
    487e:	4a81           	tstl %d1
    4880:	6600 0010      	bnew 4892 <Lround$to$nearest+0x34>
    4884:	2200           	movel %d0,%d1
    4886:	0281 0000 0002 	andil #2,%d1
    488c:	d081           	addl %d1,%d0
    488e:	6000 0006      	braw 4896 <Lround$to$nearest+0x38>
    4892:	7201           	moveq #1,%d1
    4894:	d081           	addl %d1,%d0
    4896:	e288           	lsrl #1,%d0
    4898:	0800 0018      	btst #24,%d0
    489c:	6700 0006      	beqw 48a4 <Lround$to$nearest+0x46>
    48a0:	e288           	lsrl #1,%d0
    48a2:	5242           	addqw #1,%d2
    48a4:	0800 0017      	btst #23,%d0
    48a8:	6700 0004      	beqw 48ae <Lround$to$nearest+0x50>
    48ac:	4ed0           	jmp %a0@
    48ae:	7400           	moveq #0,%d2
    48b0:	4ed0           	jmp %a0@

000048b2 <Lround$to$minus>:
    48b2:	4ed0           	jmp %a0@

000048b4 <__clear_sticky_bit>:
    48b4:	41f9 0001 4d24 	lea 14d24 <_fpCCR>,%a0
    48ba:	317c 0000 0004 	movew #0,%a0@(4)
    48c0:	4e75           	rts

000048c2 <$_exception_handler>:
    48c2:	41f9 0001 4d24 	lea 14d24 <_fpCCR>,%a0
    48c8:	3087           	movew %d7,%a0@
    48ca:	8f68 0004      	orw %d7,%a0@(4)
    48ce:	3146 0008      	movew %d6,%a0@(8)
    48d2:	3145 000a      	movew %d5,%a0@(10)
    48d6:	0c46 0001      	cmpiw #1,%d6
    48da:	6700 001e      	beqw 48fa <$_exception_handler+0x38>
    48de:	216e 0008 000c 	movel %fp@(8),%a0@(12)
    48e4:	216e 000c 0010 	movel %fp@(12),%a0@(16)
    48ea:	216e 0010 0014 	movel %fp@(16),%a0@(20)
    48f0:	216e 0014 0018 	movel %fp@(20),%a0@(24)
    48f6:	6000 000e      	braw 4906 <$_exception_handler+0x44>
    48fa:	216e 0008 000c 	movel %fp@(8),%a0@(12)
    4900:	216e 000c 0014 	movel %fp@(12),%a0@(20)
    4906:	ce68 0002      	andw %a0@(2),%d7
    490a:	6700 000a      	beqw 4916 <$_exception_handler+0x54>
    490e:	4879 0001 4d24 	pea 14d24 <_fpCCR>
    4914:	4e4f           	trap #15
    4916:	4cdf 00fc      	moveml %sp@+,%d2-%d7
    491a:	4e5e           	unlk %fp
    491c:	4e75           	rts
	...

00004920 <__eqsf2>:
    4920:	4e56 0000      	linkw %fp,#0
    4924:	4878 0001      	pea 1 <ADD>
    4928:	2f2e 000c      	movel %fp@(12),%sp@-
    492c:	2f2e 0008      	movel %fp@(8),%sp@-
    4930:	4eb9 0000 47a8 	jsr 47a8 <__cmpsf2_internal>
    4936:	4e5e           	unlk %fp
    4938:	4e75           	rts
	...

0000493c <__gtsf2>:
    493c:	4e56 0000      	linkw %fp,#0
    4940:	4878 ffff      	pea ffffffff <LESS+0x0>
    4944:	2f2e 000c      	movel %fp@(12),%sp@-
    4948:	2f2e 0008      	movel %fp@(8),%sp@-
    494c:	4eb9 0000 47a8 	jsr 47a8 <__cmpsf2_internal>
    4952:	4e5e           	unlk %fp
    4954:	4e75           	rts
	...

00004958 <__gesf2>:
    4958:	4e56 0000      	linkw %fp,#0
    495c:	4878 ffff      	pea ffffffff <LESS+0x0>
    4960:	2f2e 000c      	movel %fp@(12),%sp@-
    4964:	2f2e 0008      	movel %fp@(8),%sp@-
    4968:	4eb9 0000 47a8 	jsr 47a8 <__cmpsf2_internal>
    496e:	4e5e           	unlk %fp
    4970:	4e75           	rts
	...

00004974 <__floatsidf.part.0>:
    4974:	48e7 3800      	moveml %d2-%d4,%sp@-
    4978:	202f 0010      	movel %sp@(16),%d0
    497c:	6b58           	bmis 49d6 <__floatsidf.part.0+0x62>
    497e:	7400           	moveq #0,%d2
    4980:	223c 0000 041d 	movel #1053,%d1
    4986:	0c80 00ff ffff 	cmpil #16777215,%d0
    498c:	6e0c           	bgts 499a <__floatsidf.part.0+0x26>
    498e:	e988           	lsll #4,%d0
    4990:	5981           	subql #4,%d1
    4992:	0c80 00ff ffff 	cmpil #16777215,%d0
    4998:	6ff4           	bles 498e <__floatsidf.part.0+0x1a>
    499a:	0c80 3fff ffff 	cmpil #1073741823,%d0
    49a0:	6e0c           	bgts 49ae <__floatsidf.part.0+0x3a>
    49a2:	d080           	addl %d0,%d0
    49a4:	5381           	subql #1,%d1
    49a6:	0c80 3fff ffff 	cmpil #1073741823,%d0
    49ac:	6ff4           	bles 49a2 <__floatsidf.part.0+0x2e>
    49ae:	e949           	lslw #4,%d1
    49b0:	4841           	swap %d1
    49b2:	4241           	clrw %d1
    49b4:	8282           	orl %d2,%d1
    49b6:	2400           	movel %d0,%d2
    49b8:	760a           	moveq #10,%d3
    49ba:	e6a2           	asrl %d3,%d2
    49bc:	0882 0014      	bclr #20,%d2
    49c0:	2801           	movel %d1,%d4
    49c2:	8882           	orl %d2,%d4
    49c4:	2600           	movel %d0,%d3
    49c6:	ed4b           	lslw #6,%d3
    49c8:	4843           	swap %d3
    49ca:	4243           	clrw %d3
    49cc:	2004           	movel %d4,%d0
    49ce:	2203           	movel %d3,%d1
    49d0:	4cdf 001c      	moveml %sp@+,%d2-%d4
    49d4:	4e75           	rts
    49d6:	4480           	negl %d0
    49d8:	6b16           	bmis 49f0 <__floatsidf.part.0+0x7c>
    49da:	243c 8000 0000 	movel #-2147483648,%d2
    49e0:	223c 0000 041d 	movel #1053,%d1
    49e6:	0c80 00ff ffff 	cmpil #16777215,%d0
    49ec:	6fa0           	bles 498e <__floatsidf.part.0+0x1a>
    49ee:	60aa           	bras 499a <__floatsidf.part.0+0x26>
    49f0:	203c c1e0 0000 	movel #-1042284544,%d0
    49f6:	4281           	clrl %d1
    49f8:	4cdf 001c      	moveml %sp@+,%d2-%d4
    49fc:	4e75           	rts

000049fe <__unordsf2>:
    49fe:	202f 0004      	movel %sp@(4),%d0
    4a02:	0280 7f80 0000 	andil #2139095040,%d0
    4a08:	0c80 7f80 0000 	cmpil #2139095040,%d0
    4a0e:	6716           	beqs 4a26 <__unordsf2+0x28>
    4a10:	202f 0008      	movel %sp@(8),%d0
    4a14:	0280 7f80 0000 	andil #2139095040,%d0
    4a1a:	0c80 7f80 0000 	cmpil #2139095040,%d0
    4a20:	6714           	beqs 4a36 <__unordsf2+0x38>
    4a22:	7000           	moveq #0,%d0
    4a24:	4e75           	rts
    4a26:	202f 0004      	movel %sp@(4),%d0
    4a2a:	0280 007f ffff 	andil #8388607,%d0
    4a30:	67de           	beqs 4a10 <__unordsf2+0x12>
    4a32:	7001           	moveq #1,%d0
    4a34:	4e75           	rts
    4a36:	202f 0008      	movel %sp@(8),%d0
    4a3a:	0280 007f ffff 	andil #8388607,%d0
    4a40:	56c0           	sne %d0
    4a42:	4880           	extw %d0
    4a44:	48c0           	extl %d0
    4a46:	4480           	negl %d0
    4a48:	4e75           	rts

00004a4a <__unorddf2>:
    4a4a:	48e7 3800      	moveml %d2-%d4,%sp@-
    4a4e:	222f 0010      	movel %sp@(16),%d1
    4a52:	262f 0014      	movel %sp@(20),%d3
    4a56:	202f 0018      	movel %sp@(24),%d0
    4a5a:	282f 001c      	movel %sp@(28),%d4
    4a5e:	2401           	movel %d1,%d2
    4a60:	0282 7ff0 0000 	andil #2146435072,%d2
    4a66:	0c82 7ff0 0000 	cmpil #2146435072,%d2
    4a6c:	6718           	beqs 4a86 <__unorddf2+0x3c>
    4a6e:	2200           	movel %d0,%d1
    4a70:	0281 7ff0 0000 	andil #2146435072,%d1
    4a76:	0c81 7ff0 0000 	cmpil #2146435072,%d1
    4a7c:	671a           	beqs 4a98 <__unorddf2+0x4e>
    4a7e:	7000           	moveq #0,%d0
    4a80:	4cdf 001c      	moveml %sp@+,%d2-%d4
    4a84:	4e75           	rts
    4a86:	0281 000f ffff 	andil #1048575,%d1
    4a8c:	8283           	orl %d3,%d1
    4a8e:	67de           	beqs 4a6e <__unorddf2+0x24>
    4a90:	7001           	moveq #1,%d0
    4a92:	4cdf 001c      	moveml %sp@+,%d2-%d4
    4a96:	4e75           	rts
    4a98:	0280 000f ffff 	andil #1048575,%d0
    4a9e:	8084           	orl %d4,%d0
    4aa0:	56c0           	sne %d0
    4aa2:	4880           	extw %d0
    4aa4:	48c0           	extl %d0
    4aa6:	4480           	negl %d0
    4aa8:	4cdf 001c      	moveml %sp@+,%d2-%d4
    4aac:	4e75           	rts

00004aae <__floatunsidf>:
    4aae:	48e7 3800      	moveml %d2-%d4,%sp@-
    4ab2:	202f 0010      	movel %sp@(16),%d0
    4ab6:	6748           	beqs 4b00 <__floatunsidf+0x52>
    4ab8:	223c 0000 041e 	movel #1054,%d1
    4abe:	0c80 01ff ffff 	cmpil #33554431,%d0
    4ac4:	6244           	bhis 4b0a <__floatunsidf+0x5c>
    4ac6:	e988           	lsll #4,%d0
    4ac8:	5981           	subql #4,%d1
    4aca:	0c80 01ff ffff 	cmpil #33554431,%d0
    4ad0:	63f4           	blss 4ac6 <__floatunsidf+0x18>
    4ad2:	d080           	addl %d0,%d0
    4ad4:	5381           	subql #1,%d1
    4ad6:	4a80           	tstl %d0
    4ad8:	6cf8           	bges 4ad2 <__floatunsidf+0x24>
    4ada:	2400           	movel %d0,%d2
    4adc:	760b           	moveq #11,%d3
    4ade:	e6aa           	lsrl %d3,%d2
    4ae0:	0882 0014      	bclr #20,%d2
    4ae4:	e949           	lslw #4,%d1
    4ae6:	4841           	swap %d1
    4ae8:	4241           	clrw %d1
    4aea:	2802           	movel %d2,%d4
    4aec:	8881           	orl %d1,%d4
    4aee:	2600           	movel %d0,%d3
    4af0:	eb4b           	lslw #5,%d3
    4af2:	4843           	swap %d3
    4af4:	4243           	clrw %d3
    4af6:	2004           	movel %d4,%d0
    4af8:	2203           	movel %d3,%d1
    4afa:	4cdf 001c      	moveml %sp@+,%d2-%d4
    4afe:	4e75           	rts
    4b00:	4280           	clrl %d0
    4b02:	4281           	clrl %d1
    4b04:	4cdf 001c      	moveml %sp@+,%d2-%d4
    4b08:	4e75           	rts
    4b0a:	4a80           	tstl %d0
    4b0c:	6cc4           	bges 4ad2 <__floatunsidf+0x24>
    4b0e:	2400           	movel %d0,%d2
    4b10:	760b           	moveq #11,%d3
    4b12:	e6aa           	lsrl %d3,%d2
    4b14:	0882 0014      	bclr #20,%d2
    4b18:	e949           	lslw #4,%d1
    4b1a:	4841           	swap %d1
    4b1c:	4241           	clrw %d1
    4b1e:	2802           	movel %d2,%d4
    4b20:	8881           	orl %d1,%d4
    4b22:	2600           	movel %d0,%d3
    4b24:	eb4b           	lslw #5,%d3
    4b26:	4843           	swap %d3
    4b28:	4243           	clrw %d3
    4b2a:	2004           	movel %d4,%d0
    4b2c:	2203           	movel %d3,%d1
    4b2e:	60ca           	bras 4afa <__floatunsidf+0x4c>

00004b30 <__floatsidf>:
    4b30:	202f 0004      	movel %sp@(4),%d0
    4b34:	6708           	beqs 4b3e <__floatsidf+0xe>
    4b36:	2f40 0004      	movel %d0,%sp@(4)
    4b3a:	6000 fe38      	braw 4974 <__floatsidf.part.0>
    4b3e:	4280           	clrl %d0
    4b40:	4281           	clrl %d1
    4b42:	4e75           	rts

00004b44 <__floatunsisf>:
    4b44:	48e7 3800      	moveml %d2-%d4,%sp@-
    4b48:	202f 0010      	movel %sp@(16),%d0
    4b4c:	6750           	beqs 4b9e <__floatunsisf+0x5a>
    4b4e:	223c 0000 041e 	movel #1054,%d1
    4b54:	0c80 01ff ffff 	cmpil #33554431,%d0
    4b5a:	624a           	bhis 4ba6 <__floatunsisf+0x62>
    4b5c:	e988           	lsll #4,%d0
    4b5e:	5981           	subql #4,%d1
    4b60:	0c80 01ff ffff 	cmpil #33554431,%d0
    4b66:	63f4           	blss 4b5c <__floatunsisf+0x18>
    4b68:	d080           	addl %d0,%d0
    4b6a:	5381           	subql #1,%d1
    4b6c:	4a80           	tstl %d0
    4b6e:	6cf8           	bges 4b68 <__floatunsisf+0x24>
    4b70:	2800           	movel %d0,%d4
    4b72:	740b           	moveq #11,%d2
    4b74:	e4ac           	lsrl %d2,%d4
    4b76:	0884 0014      	bclr #20,%d4
    4b7a:	e949           	lslw #4,%d1
    4b7c:	4841           	swap %d1
    4b7e:	4241           	clrw %d1
    4b80:	2404           	movel %d4,%d2
    4b82:	8481           	orl %d1,%d2
    4b84:	2600           	movel %d0,%d3
    4b86:	eb4b           	lslw #5,%d3
    4b88:	4843           	swap %d3
    4b8a:	4243           	clrw %d3
    4b8c:	2f03           	movel %d3,%sp@-
    4b8e:	2f02           	movel %d2,%sp@-
    4b90:	4eb9 0000 4c66 	jsr 4c66 <__truncdfsf2>
    4b96:	508f           	addql #8,%sp
    4b98:	4cdf 001c      	moveml %sp@+,%d2-%d4
    4b9c:	4e75           	rts
    4b9e:	7000           	moveq #0,%d0
    4ba0:	4cdf 001c      	moveml %sp@+,%d2-%d4
    4ba4:	4e75           	rts
    4ba6:	4a80           	tstl %d0
    4ba8:	6cbe           	bges 4b68 <__floatunsisf+0x24>
    4baa:	2800           	movel %d0,%d4
    4bac:	740b           	moveq #11,%d2
    4bae:	e4ac           	lsrl %d2,%d4
    4bb0:	0884 0014      	bclr #20,%d4
    4bb4:	e949           	lslw #4,%d1
    4bb6:	4841           	swap %d1
    4bb8:	4241           	clrw %d1
    4bba:	2404           	movel %d4,%d2
    4bbc:	8481           	orl %d1,%d2
    4bbe:	2600           	movel %d0,%d3
    4bc0:	eb4b           	lslw #5,%d3
    4bc2:	4843           	swap %d3
    4bc4:	4243           	clrw %d3
    4bc6:	2f03           	movel %d3,%sp@-
    4bc8:	2f02           	movel %d2,%sp@-
    4bca:	4eb9 0000 4c66 	jsr 4c66 <__truncdfsf2>
    4bd0:	508f           	addql #8,%sp
    4bd2:	60c4           	bras 4b98 <__floatunsisf+0x54>

00004bd4 <__floatsisf>:
    4bd4:	202f 0004      	movel %sp@(4),%d0
    4bd8:	6714           	beqs 4bee <__floatsisf+0x1a>
    4bda:	2f00           	movel %d0,%sp@-
    4bdc:	4eba fd96      	jsr %pc@(4974 <__floatsidf.part.0>)
    4be0:	2e81           	movel %d1,%sp@
    4be2:	2f00           	movel %d0,%sp@-
    4be4:	4eb9 0000 4c66 	jsr 4c66 <__truncdfsf2>
    4bea:	508f           	addql #8,%sp
    4bec:	4e75           	rts
    4bee:	7000           	moveq #0,%d0
    4bf0:	4e75           	rts

00004bf2 <__extendsfdf2>:
    4bf2:	48e7 3800      	moveml %d2-%d4,%sp@-
    4bf6:	202f 0010      	movel %sp@(16),%d0
    4bfa:	2600           	movel %d0,%d3
    4bfc:	0283 8000 0000 	andil #-2147483648,%d3
    4c02:	2200           	movel %d0,%d1
    4c04:	0881 001f      	bclr #31,%d1
    4c08:	4a81           	tstl %d1
    4c0a:	674e           	beqs 4c5a <__extendsfdf2+0x68>
    4c0c:	2400           	movel %d0,%d2
    4c0e:	4842           	swap %d2
    4c10:	ee42           	asrw #7,%d2
    4c12:	48c2           	extl %d2
    4c14:	7200           	moveq #0,%d1
    4c16:	4601           	notb %d1
    4c18:	c282           	andl %d2,%d1
    4c1a:	0280 007f ffff 	andil #8388607,%d0
    4c20:	4a02           	tstb %d2
    4c22:	6610           	bnes 4c34 <__extendsfdf2+0x42>
    4c24:	7201           	moveq #1,%d1
    4c26:	d080           	addl %d0,%d0
    4c28:	5381           	subql #1,%d1
    4c2a:	0800 0017      	btst #23,%d0
    4c2e:	67f6           	beqs 4c26 <__extendsfdf2+0x34>
    4c30:	0880 0017      	bclr #23,%d0
    4c34:	0681 0000 0380 	addil #896,%d1
    4c3a:	e949           	lslw #4,%d1
    4c3c:	4841           	swap %d1
    4c3e:	4241           	clrw %d1
    4c40:	2400           	movel %d0,%d2
    4c42:	e682           	asrl #3,%d2
    4c44:	8483           	orl %d3,%d2
    4c46:	2801           	movel %d1,%d4
    4c48:	8882           	orl %d2,%d4
    4c4a:	2600           	movel %d0,%d3
    4c4c:	721d           	moveq #29,%d1
    4c4e:	e3ab           	lsll %d1,%d3
    4c50:	2004           	movel %d4,%d0
    4c52:	2203           	movel %d3,%d1
    4c54:	4cdf 001c      	moveml %sp@+,%d2-%d4
    4c58:	4e75           	rts
    4c5a:	91c8           	subal %a0,%a0
    4c5c:	2003           	movel %d3,%d0
    4c5e:	2208           	movel %a0,%d1
    4c60:	4cdf 001c      	moveml %sp@+,%d2-%d4
    4c64:	4e75           	rts

00004c66 <__truncdfsf2>:
    4c66:	48e7 3e00      	moveml %d2-%d6,%sp@-
    4c6a:	222f 0018      	movel %sp@(24),%d1
    4c6e:	202f 001c      	movel %sp@(28),%d0
    4c72:	2601           	movel %d1,%d3
    4c74:	0283 8000 0000 	andil #-2147483648,%d3
    4c7a:	2401           	movel %d1,%d2
    4c7c:	0882 001f      	bclr #31,%d2
    4c80:	8480           	orl %d0,%d2
    4c82:	6700 00d8      	beqw 4d5c <__truncdfsf2+0xf6>
    4c86:	2801           	movel %d1,%d4
    4c88:	4844           	swap %d4
    4c8a:	e844           	asrw #4,%d4
    4c8c:	48c4           	extl %d4
    4c8e:	0284 0000 07ff 	andil #2047,%d4
    4c94:	0684 ffff fc80 	addil #-896,%d4
    4c9a:	740a           	moveq #10,%d2
    4c9c:	e5a9           	lsll %d2,%d1
    4c9e:	0281 3fff fc00 	andil #1073740800,%d1
    4ca4:	2400           	movel %d0,%d2
    4ca6:	4242           	clrw %d2
    4ca8:	4842           	swap %d2
    4caa:	ec4a           	lsrw #6,%d2
    4cac:	8282           	orl %d2,%d1
    4cae:	0280 003f ffff 	andil #4194303,%d0
    4cb4:	7a3f           	moveq #63,%d5
    4cb6:	c485           	andl %d5,%d2
    4cb8:	8082           	orl %d2,%d0
    4cba:	ec81           	asrl #6,%d1
    4cbc:	2401           	movel %d1,%d2
    4cbe:	08c2 0018      	bset #24,%d2
    4cc2:	4a84           	tstl %d4
    4cc4:	6f44           	bles 4d0a <__truncdfsf2+0xa4>
    4cc6:	0801 0000      	btst #0,%d1
    4cca:	6770           	beqs 4d3c <__truncdfsf2+0xd6>
    4ccc:	7a02           	moveq #2,%d5
    4cce:	c285           	andl %d5,%d1
    4cd0:	8280           	orl %d0,%d1
    4cd2:	6768           	beqs 4d3c <__truncdfsf2+0xd6>
    4cd4:	4205           	clrb %d5
    4cd6:	7202           	moveq #2,%d1
    4cd8:	5282           	addql #1,%d2
    4cda:	203c 0200 0000 	movel #33554432,%d0
    4ce0:	4a05           	tstb %d5
    4ce2:	6706           	beqs 4cea <__truncdfsf2+0x84>
    4ce4:	203c 0100 0000 	movel #16777216,%d0
    4cea:	b480           	cmpl %d0,%d2
    4cec:	6d4e           	blts 4d3c <__truncdfsf2+0xd6>
    4cee:	2002           	movel %d2,%d0
    4cf0:	e2a0           	asrl %d1,%d0
    4cf2:	0880 0017      	bclr #23,%d0
    4cf6:	5284           	addql #1,%d4
    4cf8:	2204           	movel %d4,%d1
    4cfa:	ef49           	lslw #7,%d1
    4cfc:	4841           	swap %d1
    4cfe:	4241           	clrw %d1
    4d00:	8081           	orl %d1,%d0
    4d02:	8083           	orl %d3,%d0
    4d04:	4cdf 007c      	moveml %sp@+,%d2-%d6
    4d08:	4e75           	rts
    4d0a:	72e8           	moveq #-24,%d1
    4d0c:	b284           	cmpl %d4,%d1
    4d0e:	6e42           	bgts 4d52 <__truncdfsf2+0xec>
    4d10:	7c01           	moveq #1,%d6
    4d12:	9c84           	subl %d4,%d6
    4d14:	2a02           	movel %d2,%d5
    4d16:	eca5           	asrl %d6,%d5
    4d18:	7201           	moveq #1,%d1
    4d1a:	c285           	andl %d5,%d1
    4d1c:	0805 0000      	btst #0,%d5
    4d20:	6742           	beqs 4d64 <__truncdfsf2+0xfe>
    4d22:	7801           	moveq #1,%d4
    4d24:	edac           	lsll %d6,%d4
    4d26:	5384           	subql #1,%d4
    4d28:	c484           	andl %d4,%d2
    4d2a:	8082           	orl %d2,%d0
    4d2c:	7402           	moveq #2,%d2
    4d2e:	c485           	andl %d5,%d2
    4d30:	8082           	orl %d2,%d0
    4d32:	673a           	beqs 4d6e <__truncdfsf2+0x108>
    4d34:	2405           	movel %d5,%d2
    4d36:	7a01           	moveq #1,%d5
    4d38:	7800           	moveq #0,%d4
    4d3a:	609c           	bras 4cd8 <__truncdfsf2+0x72>
    4d3c:	2002           	movel %d2,%d0
    4d3e:	e280           	asrl #1,%d0
    4d40:	0880 0017      	bclr #23,%d0
    4d44:	2204           	movel %d4,%d1
    4d46:	ef49           	lslw #7,%d1
    4d48:	4841           	swap %d1
    4d4a:	4241           	clrw %d1
    4d4c:	8081           	orl %d1,%d0
    4d4e:	8083           	orl %d3,%d0
    4d50:	60b2           	bras 4d04 <__truncdfsf2+0x9e>
    4d52:	7200           	moveq #0,%d1
    4d54:	7000           	moveq #0,%d0
    4d56:	8081           	orl %d1,%d0
    4d58:	8083           	orl %d3,%d0
    4d5a:	60a8           	bras 4d04 <__truncdfsf2+0x9e>
    4d5c:	2003           	movel %d3,%d0
    4d5e:	4cdf 007c      	moveml %sp@+,%d2-%d6
    4d62:	4e75           	rts
    4d64:	2005           	movel %d5,%d0
    4d66:	e280           	asrl #1,%d0
    4d68:	8081           	orl %d1,%d0
    4d6a:	8083           	orl %d3,%d0
    4d6c:	6096           	bras 4d04 <__truncdfsf2+0x9e>
    4d6e:	2005           	movel %d5,%d0
    4d70:	e280           	asrl #1,%d0
    4d72:	7200           	moveq #0,%d1
    4d74:	8081           	orl %d1,%d0
    4d76:	8083           	orl %d3,%d0
    4d78:	608a           	bras 4d04 <__truncdfsf2+0x9e>

00004d7a <__fixdfsi>:
    4d7a:	48e7 3800      	moveml %d2-%d4,%sp@-
    4d7e:	222f 0010      	movel %sp@(16),%d1
    4d82:	262f 0014      	movel %sp@(20),%d3
    4d86:	2001           	movel %d1,%d0
    4d88:	6724           	beqs 4dae <__fixdfsi+0x34>
    4d8a:	2401           	movel %d1,%d2
    4d8c:	4842           	swap %d2
    4d8e:	e842           	asrw #4,%d2
    4d90:	48c2           	extl %d2
    4d92:	0282 0000 07ff 	andil #2047,%d2
    4d98:	2042           	moveal %d2,%a0
    4d9a:	41e8 fbe3      	lea %a0@(-1053),%a0
    4d9e:	b0fc 0000      	cmpaw #0,%a0
    4da2:	6f10           	bles 4db4 <__fixdfsi+0x3a>
    4da4:	4a81           	tstl %d1
    4da6:	6d4e           	blts 4df6 <__fixdfsi+0x7c>
    4da8:	203c 7fff ffff 	movel #2147483647,%d0
    4dae:	4cdf 001c      	moveml %sp@+,%d2-%d4
    4db2:	4e75           	rts
    4db4:	78e1           	moveq #-31,%d4
    4db6:	b888           	cmpl %a0,%d4
    4db8:	6e48           	bgts 4e02 <__fixdfsi+0x88>
    4dba:	780a           	moveq #10,%d4
    4dbc:	e9a9           	lsll %d4,%d1
    4dbe:	0281 3fff fc00 	andil #1073740800,%d1
    4dc4:	4243           	clrw %d3
    4dc6:	4843           	swap %d3
    4dc8:	ec4b           	lsrw #6,%d3
    4dca:	8283           	orl %d3,%d1
    4dcc:	08c1 001e      	bset #30,%d1
    4dd0:	b0fc 0000      	cmpaw #0,%a0
    4dd4:	670a           	beqs 4de0 <__fixdfsi+0x66>
    4dd6:	263c 0000 041d 	movel #1053,%d3
    4ddc:	9682           	subl %d2,%d3
    4dde:	e6a1           	asrl %d3,%d1
    4de0:	4a80           	tstl %d0
    4de2:	6d08           	blts 4dec <__fixdfsi+0x72>
    4de4:	2001           	movel %d1,%d0
    4de6:	4cdf 001c      	moveml %sp@+,%d2-%d4
    4dea:	4e75           	rts
    4dec:	2001           	movel %d1,%d0
    4dee:	4480           	negl %d0
    4df0:	4cdf 001c      	moveml %sp@+,%d2-%d4
    4df4:	4e75           	rts
    4df6:	203c 8000 0000 	movel #-2147483648,%d0
    4dfc:	4cdf 001c      	moveml %sp@+,%d2-%d4
    4e00:	4e75           	rts
    4e02:	7000           	moveq #0,%d0
    4e04:	4cdf 001c      	moveml %sp@+,%d2-%d4
    4e08:	4e75           	rts

00004e0a <__fixsfsi>:
    4e0a:	48e7 3800      	moveml %d2-%d4,%sp@-
    4e0e:	2f2f 0010      	movel %sp@(16),%sp@-
    4e12:	4eb9 0000 4bf2 	jsr 4bf2 <__extendsfdf2>
    4e18:	588f           	addql #4,%sp
    4e1a:	2400           	movel %d0,%d2
    4e1c:	2002           	movel %d2,%d0
    4e1e:	6724           	beqs 4e44 <__fixsfsi+0x3a>
    4e20:	2602           	movel %d2,%d3
    4e22:	4843           	swap %d3
    4e24:	e843           	asrw #4,%d3
    4e26:	48c3           	extl %d3
    4e28:	0283 0000 07ff 	andil #2047,%d3
    4e2e:	2043           	moveal %d3,%a0
    4e30:	41e8 fbe3      	lea %a0@(-1053),%a0
    4e34:	b0fc 0000      	cmpaw #0,%a0
    4e38:	6f10           	bles 4e4a <__fixsfsi+0x40>
    4e3a:	4a82           	tstl %d2
    4e3c:	6d4e           	blts 4e8c <__fixsfsi+0x82>
    4e3e:	203c 7fff ffff 	movel #2147483647,%d0
    4e44:	4cdf 001c      	moveml %sp@+,%d2-%d4
    4e48:	4e75           	rts
    4e4a:	78e1           	moveq #-31,%d4
    4e4c:	b888           	cmpl %a0,%d4
    4e4e:	6e48           	bgts 4e98 <__fixsfsi+0x8e>
    4e50:	780a           	moveq #10,%d4
    4e52:	e9aa           	lsll %d4,%d2
    4e54:	0282 3fff fc00 	andil #1073740800,%d2
    4e5a:	4241           	clrw %d1
    4e5c:	4841           	swap %d1
    4e5e:	ec49           	lsrw #6,%d1
    4e60:	8481           	orl %d1,%d2
    4e62:	08c2 001e      	bset #30,%d2
    4e66:	b0fc 0000      	cmpaw #0,%a0
    4e6a:	670a           	beqs 4e76 <__fixsfsi+0x6c>
    4e6c:	223c 0000 041d 	movel #1053,%d1
    4e72:	9283           	subl %d3,%d1
    4e74:	e2a2           	asrl %d1,%d2
    4e76:	4a80           	tstl %d0
    4e78:	6d08           	blts 4e82 <__fixsfsi+0x78>
    4e7a:	2002           	movel %d2,%d0
    4e7c:	4cdf 001c      	moveml %sp@+,%d2-%d4
    4e80:	4e75           	rts
    4e82:	2002           	movel %d2,%d0
    4e84:	4480           	negl %d0
    4e86:	4cdf 001c      	moveml %sp@+,%d2-%d4
    4e8a:	4e75           	rts
    4e8c:	203c 8000 0000 	movel #-2147483648,%d0
    4e92:	4cdf 001c      	moveml %sp@+,%d2-%d4
    4e96:	4e75           	rts
    4e98:	7000           	moveq #0,%d0
    4e9a:	4cdf 001c      	moveml %sp@+,%d2-%d4
    4e9e:	4e75           	rts

00004ea0 <atexit>:
    4ea0:	42a7           	clrl %sp@-
    4ea2:	42a7           	clrl %sp@-
    4ea4:	2f2f 000c      	movel %sp@(12),%sp@-
    4ea8:	42a7           	clrl %sp@-
    4eaa:	4eb9 0000 5344 	jsr 5344 <__register_exitproc>
    4eb0:	4fef 0010      	lea %sp@(16),%sp
    4eb4:	4e75           	rts
	...

00004eb8 <exit>:
    4eb8:	2f02           	movel %d2,%sp@-
    4eba:	242f 0008      	movel %sp@(8),%d2
    4ebe:	42a7           	clrl %sp@-
    4ec0:	2f02           	movel %d2,%sp@-
    4ec2:	4eb9 0000 53dc 	jsr 53dc <__call_exitprocs>
    4ec8:	2079 0001 5544 	moveal 15544 <__stdio_exit_handler>,%a0
    4ece:	508f           	addql #8,%sp
    4ed0:	b0fc 0000      	cmpaw #0,%a0
    4ed4:	6702           	beqs 4ed8 <exit+0x20>
    4ed6:	4e90           	jsr %a0@
    4ed8:	2f02           	movel %d2,%sp@-
    4eda:	4eb9 0000 d3c8 	jsr d3c8 <_exit>

00004ee0 <_printf_r>:
    4ee0:	4e56 0000      	linkw %fp,#0
    4ee4:	206e 0008      	moveal %fp@(8),%a0
    4ee8:	486e 0010      	pea %fp@(16)
    4eec:	2f2e 000c      	movel %fp@(12),%sp@-
    4ef0:	2f28 0008      	movel %a0@(8),%sp@-
    4ef4:	2f08           	movel %a0,%sp@-
    4ef6:	4eb9 0000 5cdc 	jsr 5cdc <_vfprintf_r>
    4efc:	4fef 0010      	lea %sp@(16),%sp
    4f00:	4e5e           	unlk %fp
    4f02:	4e75           	rts

00004f04 <printf>:
    4f04:	4e56 0000      	linkw %fp,#0
    4f08:	2079 0001 4d4c 	moveal 14d4c <_impure_ptr>,%a0
    4f0e:	486e 000c      	pea %fp@(12)
    4f12:	2f2e 0008      	movel %fp@(8),%sp@-
    4f16:	2f28 0008      	movel %a0@(8),%sp@-
    4f1a:	2f08           	movel %a0,%sp@-
    4f1c:	4eb9 0000 5cdc 	jsr 5cdc <_vfprintf_r>
    4f22:	4fef 0010      	lea %sp@(16),%sp
    4f26:	4e5e           	unlk %fp
    4f28:	4e75           	rts
	...

00004f2c <__fp_lock>:
    4f2c:	7000           	moveq #0,%d0
    4f2e:	4e75           	rts

00004f30 <stdio_exit_handler>:
    4f30:	4879 0001 4d40 	pea 14d40 <__sglue>
    4f36:	4879 0000 7ae0 	pea 7ae0 <_fclose_r>
    4f3c:	4879 0001 4d50 	pea 14d50 <_impure_data>
    4f42:	4eb9 0000 5278 	jsr 5278 <_fwalk_sglue>
    4f48:	4fef 000c      	lea %sp@(12),%sp
    4f4c:	4e75           	rts

00004f4e <cleanup_stdio>:
    4f4e:	2f0a           	movel %a2,%sp@-
    4f50:	246f 0008      	moveal %sp@(8),%a2
    4f54:	202a 0004      	movel %a2@(4),%d0
    4f58:	0c80 0001 540c 	cmpil #87052,%d0
    4f5e:	670c           	beqs 4f6c <cleanup_stdio+0x1e>
    4f60:	2f00           	movel %d0,%sp@-
    4f62:	2f0a           	movel %a2,%sp@-
    4f64:	4eb9 0000 7ae0 	jsr 7ae0 <_fclose_r>
    4f6a:	508f           	addql #8,%sp
    4f6c:	202a 0008      	movel %a2@(8),%d0
    4f70:	0c80 0001 5474 	cmpil #87156,%d0
    4f76:	670c           	beqs 4f84 <cleanup_stdio+0x36>
    4f78:	2f00           	movel %d0,%sp@-
    4f7a:	2f0a           	movel %a2,%sp@-
    4f7c:	4eb9 0000 7ae0 	jsr 7ae0 <_fclose_r>
    4f82:	508f           	addql #8,%sp
    4f84:	202a 000c      	movel %a2@(12),%d0
    4f88:	0c80 0001 54dc 	cmpil #87260,%d0
    4f8e:	670c           	beqs 4f9c <cleanup_stdio+0x4e>
    4f90:	2f00           	movel %d0,%sp@-
    4f92:	2f0a           	movel %a2,%sp@-
    4f94:	4eb9 0000 7ae0 	jsr 7ae0 <_fclose_r>
    4f9a:	508f           	addql #8,%sp
    4f9c:	245f           	moveal %sp@+,%a2
    4f9e:	4e75           	rts

00004fa0 <__fp_unlock>:
    4fa0:	7000           	moveq #0,%d0
    4fa2:	4e75           	rts

00004fa4 <global_stdio_init.part.0>:
    4fa4:	2f0b           	movel %a3,%sp@-
    4fa6:	2f0a           	movel %a2,%sp@-
    4fa8:	23fc 0000 4f30 	movel #20272,15544 <__stdio_exit_handler>
    4fae:	0001 5544 
    4fb2:	47f9 0001 540c 	lea 1540c <__sf>,%a3
    4fb8:	4293           	clrl %a3@
    4fba:	42b9 0001 5410 	clrl 15410 <__sf+0x4>
    4fc0:	42b9 0001 5414 	clrl 15414 <__sf+0x8>
    4fc6:	42b9 0001 5470 	clrl 15470 <__sf+0x64>
    4fcc:	23fc 0004 0000 	movel #262144,15418 <__sf+0xc>
    4fd2:	0001 5418 
    4fd6:	42b9 0001 541c 	clrl 1541c <__sf+0x10>
    4fdc:	42b9 0001 5420 	clrl 15420 <__sf+0x14>
    4fe2:	42b9 0001 5424 	clrl 15424 <__sf+0x18>
    4fe8:	4878 0008      	pea 8 <DIVIDE_BY_ZERO>
    4fec:	42a7           	clrl %sp@-
    4fee:	4879 0001 5468 	pea 15468 <__sf+0x5c>
    4ff4:	45f9 0000 52d0 	lea 52d0 <memset>,%a2
    4ffa:	4e92           	jsr %a2@
    4ffc:	23cb 0001 5428 	movel %a3,15428 <__sf+0x1c>
    5002:	23fc 0000 7e40 	movel #32320,1542c <__sf+0x20>
    5008:	0001 542c 
    500c:	23fc 0000 7e7c 	movel #32380,15430 <__sf+0x24>
    5012:	0001 5430 
    5016:	23fc 0000 7f02 	movel #32514,15434 <__sf+0x28>
    501c:	0001 5434 
    5020:	23fc 0000 7f42 	movel #32578,15438 <__sf+0x2c>
    5026:	0001 5438 
    502a:	42b9 0001 5474 	clrl 15474 <__sf+0x68>
    5030:	42b9 0001 5478 	clrl 15478 <__sf+0x6c>
    5036:	42b9 0001 547c 	clrl 1547c <__sf+0x70>
    503c:	42b9 0001 54d8 	clrl 154d8 <__sf+0xcc>
    5042:	23fc 0009 0001 	movel #589825,15480 <__sf+0x74>
    5048:	0001 5480 
    504c:	42b9 0001 5484 	clrl 15484 <__sf+0x78>
    5052:	42b9 0001 5488 	clrl 15488 <__sf+0x7c>
    5058:	42b9 0001 548c 	clrl 1548c <__sf+0x80>
    505e:	4878 0008      	pea 8 <DIVIDE_BY_ZERO>
    5062:	42a7           	clrl %sp@-
    5064:	4879 0001 54d0 	pea 154d0 <__sf+0xc4>
    506a:	4e92           	jsr %a2@
    506c:	23fc 0001 5474 	movel #87156,15490 <__sf+0x84>
    5072:	0001 5490 
    5076:	23fc 0000 7e40 	movel #32320,15494 <__sf+0x88>
    507c:	0001 5494 
    5080:	23fc 0000 7e7c 	movel #32380,15498 <__sf+0x8c>
    5086:	0001 5498 
    508a:	23fc 0000 7f02 	movel #32514,1549c <__sf+0x90>
    5090:	0001 549c 
    5094:	23fc 0000 7f42 	movel #32578,154a0 <__sf+0x94>
    509a:	0001 54a0 
    509e:	42b9 0001 54dc 	clrl 154dc <__sf+0xd0>
    50a4:	42b9 0001 54e0 	clrl 154e0 <__sf+0xd4>
    50aa:	42b9 0001 54e4 	clrl 154e4 <__sf+0xd8>
    50b0:	42b9 0001 5540 	clrl 15540 <__sf+0x134>
    50b6:	23fc 0012 0002 	movel #1179650,154e8 <__sf+0xdc>
    50bc:	0001 54e8 
    50c0:	42b9 0001 54ec 	clrl 154ec <__sf+0xe0>
    50c6:	42b9 0001 54f0 	clrl 154f0 <__sf+0xe4>
    50cc:	42b9 0001 54f4 	clrl 154f4 <__sf+0xe8>
    50d2:	4878 0008      	pea 8 <DIVIDE_BY_ZERO>
    50d6:	42a7           	clrl %sp@-
    50d8:	4879 0001 5538 	pea 15538 <__sf+0x12c>
    50de:	4e92           	jsr %a2@
    50e0:	23fc 0001 54dc 	movel #87260,154f8 <__sf+0xec>
    50e6:	0001 54f8 
    50ea:	23fc 0000 7e40 	movel #32320,154fc <__sf+0xf0>
    50f0:	0001 54fc 
    50f4:	23fc 0000 7e7c 	movel #32380,15500 <__sf+0xf4>
    50fa:	0001 5500 
    50fe:	23fc 0000 7f02 	movel #32514,15504 <__sf+0xf8>
    5104:	0001 5504 
    5108:	23fc 0000 7f42 	movel #32578,15508 <__sf+0xfc>
    510e:	0001 5508 
    5112:	4fef 0024      	lea %sp@(36),%sp
    5116:	245f           	moveal %sp@+,%a2
    5118:	265f           	moveal %sp@+,%a3
    511a:	4e75           	rts

0000511c <__sfp>:
    511c:	2f0b           	movel %a3,%sp@-
    511e:	2f0a           	movel %a2,%sp@-
    5120:	4ab9 0001 5544 	tstl 15544 <__stdio_exit_handler>
    5126:	6700 00d2      	beqw 51fa <__sfp+0xde>
    512a:	47f9 0001 4d40 	lea 14d40 <__sglue>,%a3
    5130:	246b 0008      	moveal %a3@(8),%a2
    5134:	202b 0004      	movel %a3@(4),%d0
    5138:	5380           	subql #1,%d0
    513a:	6b14           	bmis 5150 <__sfp+0x34>
    513c:	4a6a 000c      	tstw %a2@(12)
    5140:	6726           	beqs 5168 <__sfp+0x4c>
    5142:	45ea 0068      	lea %a2@(104),%a2
    5146:	51c8 fff4      	dbf %d0,513c <__sfp+0x20>
    514a:	4240           	clrw %d0
    514c:	5380           	subql #1,%d0
    514e:	64ec           	bccs 513c <__sfp+0x20>
    5150:	2453           	moveal %a3@,%a2
    5152:	b4fc 0000      	cmpaw #0,%a2
    5156:	6762           	beqs 51ba <__sfp+0x9e>
    5158:	264a           	moveal %a2,%a3
    515a:	246b 0008      	moveal %a3@(8),%a2
    515e:	202b 0004      	movel %a3@(4),%d0
    5162:	5380           	subql #1,%d0
    5164:	6ad6           	bpls 513c <__sfp+0x20>
    5166:	60e8           	bras 5150 <__sfp+0x34>
    5168:	357c ffff 000e 	movew #-1,%a2@(14)
    516e:	357c 0001 000c 	movew #1,%a2@(12)
    5174:	42aa 0064      	clrl %a2@(100)
    5178:	4292           	clrl %a2@
    517a:	42aa 0008      	clrl %a2@(8)
    517e:	42aa 0004      	clrl %a2@(4)
    5182:	42aa 0010      	clrl %a2@(16)
    5186:	42aa 0014      	clrl %a2@(20)
    518a:	42aa 0018      	clrl %a2@(24)
    518e:	4878 0008      	pea 8 <DIVIDE_BY_ZERO>
    5192:	42a7           	clrl %sp@-
    5194:	486a 005c      	pea %a2@(92)
    5198:	4eb9 0000 52d0 	jsr 52d0 <memset>
    519e:	42aa 0030      	clrl %a2@(48)
    51a2:	42aa 0034      	clrl %a2@(52)
    51a6:	42aa 0044      	clrl %a2@(68)
    51aa:	42aa 0048      	clrl %a2@(72)
    51ae:	4fef 000c      	lea %sp@(12),%sp
    51b2:	200a           	movel %a2,%d0
    51b4:	245f           	moveal %sp@+,%a2
    51b6:	265f           	moveal %sp@+,%a3
    51b8:	4e75           	rts
    51ba:	4878 01ac      	pea 1ac <F_MAX_EXP+0xad>
    51be:	2f2f 0010      	movel %sp@(16),%sp@-
    51c2:	4eb9 0000 5498 	jsr 5498 <_malloc_r>
    51c8:	2440           	moveal %d0,%a2
    51ca:	508f           	addql #8,%sp
    51cc:	4a80           	tstl %d0
    51ce:	673a           	beqs 520a <__sfp+0xee>
    51d0:	4292           	clrl %a2@
    51d2:	7004           	moveq #4,%d0
    51d4:	2540 0004      	movel %d0,%a2@(4)
    51d8:	41ea 000c      	lea %a2@(12),%a0
    51dc:	2548 0008      	movel %a0,%a2@(8)
    51e0:	4878 01a0      	pea 1a0 <F_MAX_EXP+0xa1>
    51e4:	42a7           	clrl %sp@-
    51e6:	2f08           	movel %a0,%sp@-
    51e8:	4eb9 0000 52d0 	jsr 52d0 <memset>
    51ee:	268a           	movel %a2,%a3@
    51f0:	4fef 000c      	lea %sp@(12),%sp
    51f4:	264a           	moveal %a2,%a3
    51f6:	6000 ff62      	braw 515a <__sfp+0x3e>
    51fa:	4eb9 0000 4fa4 	jsr 4fa4 <global_stdio_init.part.0>
    5200:	47f9 0001 4d40 	lea 14d40 <__sglue>,%a3
    5206:	6000 ff28      	braw 5130 <__sfp+0x14>
    520a:	4293           	clrl %a3@
    520c:	700c           	moveq #12,%d0
    520e:	206f 000c      	moveal %sp@(12),%a0
    5212:	2080           	movel %d0,%a0@
    5214:	200a           	movel %a2,%d0
    5216:	245f           	moveal %sp@+,%a2
    5218:	265f           	moveal %sp@+,%a3
    521a:	4e75           	rts

0000521c <__sinit>:
    521c:	206f 0004      	moveal %sp@(4),%a0
    5220:	4aa8 0032      	tstl %a0@(50)
    5224:	6702           	beqs 5228 <__sinit+0xc>
    5226:	4e75           	rts
    5228:	217c 0000 4f4e 	movel #20302,%a0@(50)
    522e:	0032 
    5230:	4ab9 0001 5544 	tstl 15544 <__stdio_exit_handler>
    5236:	66ee           	bnes 5226 <__sinit+0xa>
    5238:	4ef9 0000 4fa4 	jmp 4fa4 <global_stdio_init.part.0>

0000523e <__sfp_lock_acquire>:
    523e:	4e75           	rts

00005240 <__sfp_lock_release>:
    5240:	4e75           	rts

00005242 <__fp_lock_all>:
    5242:	4879 0001 4d40 	pea 14d40 <__sglue>
    5248:	4879 0000 4f2c 	pea 4f2c <__fp_lock>
    524e:	42a7           	clrl %sp@-
    5250:	4eb9 0000 5278 	jsr 5278 <_fwalk_sglue>
    5256:	4fef 000c      	lea %sp@(12),%sp
    525a:	4e75           	rts

0000525c <__fp_unlock_all>:
    525c:	4879 0001 4d40 	pea 14d40 <__sglue>
    5262:	4879 0000 4fa0 	pea 4fa0 <__fp_unlock>
    5268:	42a7           	clrl %sp@-
    526a:	4eb9 0000 5278 	jsr 5278 <_fwalk_sglue>
    5270:	4fef 000c      	lea %sp@(12),%sp
    5274:	4e75           	rts
	...

00005278 <_fwalk_sglue>:
    5278:	48e7 3838      	moveml %d2-%d4/%a2-%a4,%sp@-
    527c:	282f 001c      	movel %sp@(28),%d4
    5280:	286f 0020      	moveal %sp@(32),%a4
    5284:	266f 0024      	moveal %sp@(36),%a3
    5288:	7600           	moveq #0,%d3
    528a:	246b 0008      	moveal %a3@(8),%a2
    528e:	242b 0004      	movel %a3@(4),%d2
    5292:	5382           	subql #1,%d2
    5294:	6b28           	bmis 52be <_fwalk_sglue+0x46>
    5296:	0c6a 0001 000c 	cmpiw #1,%a2@(12)
    529c:	6312           	blss 52b0 <_fwalk_sglue+0x38>
    529e:	0c6a ffff 000e 	cmpiw #-1,%a2@(14)
    52a4:	670a           	beqs 52b0 <_fwalk_sglue+0x38>
    52a6:	2f0a           	movel %a2,%sp@-
    52a8:	2f04           	movel %d4,%sp@-
    52aa:	4e94           	jsr %a4@
    52ac:	8680           	orl %d0,%d3
    52ae:	508f           	addql #8,%sp
    52b0:	45ea 0068      	lea %a2@(104),%a2
    52b4:	51ca ffe0      	dbf %d2,5296 <_fwalk_sglue+0x1e>
    52b8:	4242           	clrw %d2
    52ba:	5382           	subql #1,%d2
    52bc:	64d8           	bccs 5296 <_fwalk_sglue+0x1e>
    52be:	2653           	moveal %a3@,%a3
    52c0:	b6fc 0000      	cmpaw #0,%a3
    52c4:	66c4           	bnes 528a <_fwalk_sglue+0x12>
    52c6:	2003           	movel %d3,%d0
    52c8:	4cdf 1c1c      	moveml %sp@+,%d2-%d4/%a2-%a4
    52cc:	4e75           	rts
	...

000052d0 <memset>:
    52d0:	206f 0004      	moveal %sp@(4),%a0
    52d4:	202f 0008      	movel %sp@(8),%d0
    52d8:	222f 000c      	movel %sp@(12),%d1
    52dc:	0c81 0000 0010 	cmpil #16,%d1
    52e2:	6500 0054      	bcsw 5338 <memset+0x68>
    52e6:	2f02           	movel %d2,%sp@-
    52e8:	1400           	moveb %d0,%d2
    52ea:	e188           	lsll #8,%d0
    52ec:	1002           	moveb %d2,%d0
    52ee:	3400           	movew %d0,%d2
    52f0:	4840           	swap %d0
    52f2:	3002           	movew %d2,%d0
    52f4:	2408           	movel %a0,%d2
    52f6:	4482           	negl %d2
    52f8:	0282 0000 0003 	andil #3,%d2
    52fe:	6700 0014      	beqw 5314 <memset+0x44>
    5302:	9282           	subl %d2,%d1
    5304:	e28a           	lsrl #1,%d2
    5306:	6400 0004      	bccw 530c <memset+0x3c>
    530a:	10c0           	moveb %d0,%a0@+
    530c:	e28a           	lsrl #1,%d2
    530e:	6400 0004      	bccw 5314 <memset+0x44>
    5312:	30c0           	movew %d0,%a0@+
    5314:	2401           	movel %d1,%d2
    5316:	e48a           	lsrl #2,%d2
    5318:	5382           	subql #1,%d2
    531a:	20c0           	movel %d0,%a0@+
    531c:	51ca fffc      	dbf %d2,531a <memset+0x4a>
    5320:	0482 0001 0000 	subil #65536,%d2
    5326:	6a00 fff2      	bplw 531a <memset+0x4a>
    532a:	0281 0000 0003 	andil #3,%d1
    5330:	241f           	movel %sp@+,%d2
    5332:	6000 0004      	braw 5338 <memset+0x68>
    5336:	10c0           	moveb %d0,%a0@+
    5338:	51c9 fffc      	dbf %d1,5336 <memset+0x66>
    533c:	202f 0004      	movel %sp@(4),%d0
    5340:	4e75           	rts
	...

00005344 <__register_exitproc>:
    5344:	2f03           	movel %d3,%sp@-
    5346:	2f02           	movel %d2,%sp@-
    5348:	222f 000c      	movel %sp@(12),%d1
    534c:	2079 0001 56d8 	moveal 156d8 <__atexit>,%a0
    5352:	b0fc 0000      	cmpaw #0,%a0
    5356:	674c           	beqs 53a4 <__register_exitproc+0x60>
    5358:	2028 0004      	movel %a0@(4),%d0
    535c:	741f           	moveq #31,%d2
    535e:	b480           	cmpl %d0,%d2
    5360:	6d70           	blts 53d2 <__register_exitproc+0x8e>
    5362:	4a81           	tstl %d1
    5364:	6722           	beqs 5388 <__register_exitproc+0x44>
    5366:	2240           	moveal %d0,%a1
    5368:	d3c0           	addal %d0,%a1
    536a:	d3c9           	addal %a1,%a1
    536c:	43f0 9800      	lea %a0@(0,%a1:l),%a1
    5370:	236f 0014 0088 	movel %sp@(20),%a1@(136)
    5376:	7401           	moveq #1,%d2
    5378:	e1aa           	lsll %d0,%d2
    537a:	85a8 0188      	orl %d2,%a0@(392)
    537e:	236f 0018 0108 	movel %sp@(24),%a1@(264)
    5384:	5581           	subql #2,%d1
    5386:	672e           	beqs 53b6 <__register_exitproc+0x72>
    5388:	2200           	movel %d0,%d1
    538a:	5281           	addql #1,%d1
    538c:	2141 0004      	movel %d1,%a0@(4)
    5390:	5480           	addql #2,%d0
    5392:	d080           	addl %d0,%d0
    5394:	d080           	addl %d0,%d0
    5396:	21af 0010 0800 	movel %sp@(16),%a0@(0,%d0:l)
    539c:	7000           	moveq #0,%d0
    539e:	241f           	movel %sp@+,%d2
    53a0:	261f           	movel %sp@+,%d3
    53a2:	4e75           	rts
    53a4:	23fc 0001 5548 	movel #87368,156d8 <__atexit>
    53aa:	0001 56d8 
    53ae:	41f9 0001 5548 	lea 15548 <__atexit0>,%a0
    53b4:	60a2           	bras 5358 <__register_exitproc+0x14>
    53b6:	85a8 018c      	orl %d2,%a0@(396)
    53ba:	2200           	movel %d0,%d1
    53bc:	5281           	addql #1,%d1
    53be:	2141 0004      	movel %d1,%a0@(4)
    53c2:	5480           	addql #2,%d0
    53c4:	d080           	addl %d0,%d0
    53c6:	d080           	addl %d0,%d0
    53c8:	21af 0010 0800 	movel %sp@(16),%a0@(0,%d0:l)
    53ce:	7000           	moveq #0,%d0
    53d0:	60cc           	bras 539e <__register_exitproc+0x5a>
    53d2:	70ff           	moveq #-1,%d0
    53d4:	241f           	movel %sp@+,%d2
    53d6:	261f           	movel %sp@+,%d3
    53d8:	4e75           	rts
	...

000053dc <__call_exitprocs>:
    53dc:	48e7 3e30      	moveml %d2-%d6/%a2-%a3,%sp@-
    53e0:	2a2f 0020      	movel %sp@(32),%d5
    53e4:	262f 0024      	movel %sp@(36),%d3
    53e8:	2679 0001 56d8 	moveal 156d8 <__atexit>,%a3
    53ee:	7801           	moveq #1,%d4
    53f0:	b6fc 0000      	cmpaw #0,%a3
    53f4:	675a           	beqs 5450 <__call_exitprocs+0x74>
    53f6:	202b 0004      	movel %a3@(4),%d0
    53fa:	2400           	movel %d0,%d2
    53fc:	5382           	subql #1,%d2
    53fe:	6b50           	bmis 5450 <__call_exitprocs+0x74>
    5400:	5280           	addql #1,%d0
    5402:	d080           	addl %d0,%d0
    5404:	d080           	addl %d0,%d0
    5406:	45f3 0800      	lea %a3@(0,%d0:l),%a2
    540a:	4a83           	tstl %d3
    540c:	6648           	bnes 5456 <__call_exitprocs+0x7a>
    540e:	2052           	moveal %a2@,%a0
    5410:	202b 0004      	movel %a3@(4),%d0
    5414:	5380           	subql #1,%d0
    5416:	b480           	cmpl %d0,%d2
    5418:	6770           	beqs 548a <__call_exitprocs+0xae>
    541a:	4292           	clrl %a2@
    541c:	b0fc 0000      	cmpaw #0,%a0
    5420:	6722           	beqs 5444 <__call_exitprocs+0x68>
    5422:	2c2b 0004      	movel %a3@(4),%d6
    5426:	2004           	movel %d4,%d0
    5428:	e5a8           	lsll %d2,%d0
    542a:	2200           	movel %d0,%d1
    542c:	c2ab 0188      	andl %a3@(392),%d1
    5430:	6644           	bnes 5476 <__call_exitprocs+0x9a>
    5432:	4e90           	jsr %a0@
    5434:	2039 0001 56d8 	movel 156d8 <__atexit>,%d0
    543a:	bcab 0004      	cmpl %a3@(4),%d6
    543e:	662e           	bnes 546e <__call_exitprocs+0x92>
    5440:	b7c0           	cmpal %d0,%a3
    5442:	662a           	bnes 546e <__call_exitprocs+0x92>
    5444:	598a           	subql #4,%a2
    5446:	51ca ffc2      	dbf %d2,540a <__call_exitprocs+0x2e>
    544a:	4242           	clrw %d2
    544c:	5382           	subql #1,%d2
    544e:	64ba           	bccs 540a <__call_exitprocs+0x2e>
    5450:	4cdf 0c7c      	moveml %sp@+,%d2-%d6/%a2-%a3
    5454:	4e75           	rts
    5456:	b6aa 0100      	cmpl %a2@(256),%d3
    545a:	67b2           	beqs 540e <__call_exitprocs+0x32>
    545c:	598a           	subql #4,%a2
    545e:	51ca fff6      	dbf %d2,5456 <__call_exitprocs+0x7a>
    5462:	4242           	clrw %d2
    5464:	5382           	subql #1,%d2
    5466:	64ee           	bccs 5456 <__call_exitprocs+0x7a>
    5468:	4cdf 0c7c      	moveml %sp@+,%d2-%d6/%a2-%a3
    546c:	4e75           	rts
    546e:	4a80           	tstl %d0
    5470:	67de           	beqs 5450 <__call_exitprocs+0x74>
    5472:	2640           	moveal %d0,%a3
    5474:	6080           	bras 53f6 <__call_exitprocs+0x1a>
    5476:	222a 0080      	movel %a2@(128),%d1
    547a:	c0ab 018c      	andl %a3@(396),%d0
    547e:	6610           	bnes 5490 <__call_exitprocs+0xb4>
    5480:	2f01           	movel %d1,%sp@-
    5482:	2f05           	movel %d5,%sp@-
    5484:	4e90           	jsr %a0@
    5486:	508f           	addql #8,%sp
    5488:	60aa           	bras 5434 <__call_exitprocs+0x58>
    548a:	2742 0004      	movel %d2,%a3@(4)
    548e:	608c           	bras 541c <__call_exitprocs+0x40>
    5490:	2f01           	movel %d1,%sp@-
    5492:	4e90           	jsr %a0@
    5494:	588f           	addql #4,%sp
    5496:	609c           	bras 5434 <__call_exitprocs+0x58>

00005498 <_malloc_r>:
    5498:	48e7 3e3e      	moveml %d2-%d6/%a2-%fp,%sp@-
    549c:	266f 002c      	moveal %sp@(44),%a3
    54a0:	226f 0030      	moveal %sp@(48),%a1
    54a4:	41e9 000b      	lea %a1@(11),%a0
    54a8:	7016           	moveq #22,%d0
    54aa:	b088           	cmpl %a0,%d0
    54ac:	655e           	bcss 550c <_malloc_r+0x74>
    54ae:	7210           	moveq #16,%d1
    54b0:	b289           	cmpl %a1,%d1
    54b2:	6500 01e2      	bcsw 5696 <_malloc_r+0x1fe>
    54b6:	2f0b           	movel %a3,%sp@-
    54b8:	4eb9 0000 7aa4 	jsr 7aa4 <__malloc_lock>
    54be:	588f           	addql #4,%sp
    54c0:	307c 0018      	moveaw #24,%a0
    54c4:	7602           	moveq #2,%d3
    54c6:	7410           	moveq #16,%d2
    54c8:	d1fc 0001 4e70 	addal #85616,%a0
    54ce:	2468 0004      	moveal %a0@(4),%a2
    54d2:	2008           	movel %a0,%d0
    54d4:	5180           	subql #8,%d0
    54d6:	b08a           	cmpl %a2,%d0
    54d8:	6700 01ee      	beqw 56c8 <_malloc_r+0x230>
    54dc:	70fc           	moveq #-4,%d0
    54de:	c0aa 0004      	andl %a2@(4),%d0
    54e2:	206a 000c      	moveal %a2@(12),%a0
    54e6:	226a 0008      	moveal %a2@(8),%a1
    54ea:	2348 000c      	movel %a0,%a1@(12)
    54ee:	2149 0008      	movel %a1,%a0@(8)
    54f2:	7a01           	moveq #1,%d5
    54f4:	8bb2 0804      	orl %d5,%a2@(4,%d0:l)
    54f8:	2f0b           	movel %a3,%sp@-
    54fa:	4eb9 0000 7aa6 	jsr 7aa6 <__malloc_unlock>
    5500:	200a           	movel %a2,%d0
    5502:	5080           	addql #8,%d0
    5504:	588f           	addql #4,%sp
    5506:	4cdf 7c7c      	moveml %sp@+,%d2-%d6/%a2-%fp
    550a:	4e75           	rts
    550c:	2408           	movel %a0,%d2
    550e:	76f8           	moveq #-8,%d3
    5510:	c483           	andl %d3,%d2
    5512:	b0fc 0000      	cmpaw #0,%a0
    5516:	6d00 017e      	bltw 5696 <_malloc_r+0x1fe>
    551a:	b489           	cmpl %a1,%d2
    551c:	6500 0178      	bcsw 5696 <_malloc_r+0x1fe>
    5520:	2f0b           	movel %a3,%sp@-
    5522:	4eb9 0000 7aa4 	jsr 7aa4 <__malloc_lock>
    5528:	588f           	addql #4,%sp
    552a:	2602           	movel %d2,%d3
    552c:	0c82 0000 01f7 	cmpil #503,%d2
    5532:	6300 041c      	blsw 5950 <_malloc_r+0x4b8>
    5536:	7c09           	moveq #9,%d6
    5538:	ecab           	lsrl %d6,%d3
    553a:	6700 0166      	beqw 56a2 <_malloc_r+0x20a>
    553e:	7004           	moveq #4,%d0
    5540:	b083           	cmpl %d3,%d0
    5542:	6500 0324      	bcsw 5868 <_malloc_r+0x3d0>
    5546:	2602           	movel %d2,%d3
    5548:	ec8b           	lsrl #6,%d3
    554a:	387c 0038      	moveaw #56,%a4
    554e:	d9c3           	addal %d3,%a4
    5550:	7239           	moveq #57,%d1
    5552:	d681           	addl %d1,%d3
    5554:	2003           	movel %d3,%d0
    5556:	e788           	lsll #3,%d0
    5558:	2040           	moveal %d0,%a0
    555a:	d1fc 0001 4e70 	addal #85616,%a0
    5560:	43e8 fff8      	lea %a0@(-8),%a1
    5564:	2468 0004      	moveal %a0@(4),%a2
    5568:	b5c9           	cmpal %a1,%a2
    556a:	6732           	beqs 559e <_malloc_r+0x106>
    556c:	72fc           	moveq #-4,%d1
    556e:	c2aa 0004      	andl %a2@(4),%d1
    5572:	2001           	movel %d1,%d0
    5574:	9082           	subl %d2,%d0
    5576:	780f           	moveq #15,%d4
    5578:	b880           	cmpl %d0,%d4
    557a:	6d20           	blts 559c <_malloc_r+0x104>
    557c:	206a 000c      	moveal %a2@(12),%a0
    5580:	4a80           	tstl %d0
    5582:	6c00 0260      	bgew 57e4 <_malloc_r+0x34c>
    5586:	b1c9           	cmpal %a1,%a0
    5588:	6714           	beqs 559e <_malloc_r+0x106>
    558a:	2448           	moveal %a0,%a2
    558c:	72fc           	moveq #-4,%d1
    558e:	c2aa 0004      	andl %a2@(4),%d1
    5592:	2001           	movel %d1,%d0
    5594:	9082           	subl %d2,%d0
    5596:	780f           	moveq #15,%d4
    5598:	b880           	cmpl %d0,%d4
    559a:	6ce0           	bges 557c <_malloc_r+0xe4>
    559c:	260c           	movel %a4,%d3
    559e:	2479 0001 4e80 	moveal 14e80 <__malloc_av_+0x10>,%a2
    55a4:	b5fc 0001 4e78 	cmpal #85624,%a2
    55aa:	6700 0138      	beqw 56e4 <_malloc_r+0x24c>
    55ae:	70fc           	moveq #-4,%d0
    55b0:	c0aa 0004      	andl %a2@(4),%d0
    55b4:	2200           	movel %d0,%d1
    55b6:	9282           	subl %d2,%d1
    55b8:	7c0f           	moveq #15,%d6
    55ba:	bc81           	cmpl %d1,%d6
    55bc:	6d00 03b0      	bltw 596e <_malloc_r+0x4d6>
    55c0:	23fc 0001 4e78 	movel #85624,14e84 <__malloc_av_+0x14>
    55c6:	0001 4e84 
    55ca:	23fc 0001 4e78 	movel #85624,14e80 <__malloc_av_+0x10>
    55d0:	0001 4e80 
    55d4:	4a81           	tstl %d1
    55d6:	6c00 0360      	bgew 5938 <_malloc_r+0x4a0>
    55da:	2239 0001 4e74 	movel 14e74 <__malloc_av_+0x4>,%d1
    55e0:	0c80 0000 01ff 	cmpil #511,%d0
    55e6:	6200 0220      	bhiw 5808 <_malloc_r+0x370>
    55ea:	e688           	lsrl #3,%d0
    55ec:	2a00           	movel %d0,%d5
    55ee:	e485           	asrl #2,%d5
    55f0:	7801           	moveq #1,%d4
    55f2:	ebac           	lsll %d5,%d4
    55f4:	8284           	orl %d4,%d1
    55f6:	23c1 0001 4e74 	movel %d1,14e74 <__malloc_av_+0x4>
    55fc:	e788           	lsll #3,%d0
    55fe:	2040           	moveal %d0,%a0
    5600:	d1fc 0001 4e78 	addal #85624,%a0
    5606:	2250           	moveal %a0@,%a1
    5608:	49e8 fff8      	lea %a0@(-8),%a4
    560c:	254c 000c      	movel %a4,%a2@(12)
    5610:	2549 0008      	movel %a1,%a2@(8)
    5614:	208a           	movel %a2,%a0@
    5616:	234a 000c      	movel %a2,%a1@(12)
    561a:	2003           	movel %d3,%d0
    561c:	e480           	asrl #2,%d0
    561e:	7801           	moveq #1,%d4
    5620:	e1ac           	lsll %d0,%d4
    5622:	b284           	cmpl %d4,%d1
    5624:	6500 00d2      	bcsw 56f8 <_malloc_r+0x260>
    5628:	2004           	movel %d4,%d0
    562a:	c081           	andl %d1,%d0
    562c:	660e           	bnes 563c <_malloc_r+0x1a4>
    562e:	7afc           	moveq #-4,%d5
    5630:	c685           	andl %d5,%d3
    5632:	5883           	addql #4,%d3
    5634:	d884           	addl %d4,%d4
    5636:	2004           	movel %d4,%d0
    5638:	c081           	andl %d1,%d0
    563a:	67f6           	beqs 5632 <_malloc_r+0x19a>
    563c:	2003           	movel %d3,%d0
    563e:	e788           	lsll #3,%d0
    5640:	2840           	moveal %d0,%a4
    5642:	d9fc 0001 4e70 	addal #85616,%a4
    5648:	224c           	moveal %a4,%a1
    564a:	2a03           	movel %d3,%d5
    564c:	2069 000c      	moveal %a1@(12),%a0
    5650:	b1c9           	cmpal %a1,%a0
    5652:	6700 0252      	beqw 58a6 <_malloc_r+0x40e>
    5656:	72fc           	moveq #-4,%d1
    5658:	c2a8 0004      	andl %a0@(4),%d1
    565c:	2001           	movel %d1,%d0
    565e:	9082           	subl %d2,%d0
    5660:	2448           	moveal %a0,%a2
    5662:	2068 000c      	moveal %a0@(12),%a0
    5666:	7c0f           	moveq #15,%d6
    5668:	bc80           	cmpl %d0,%d6
    566a:	6d00 027a      	bltw 58e6 <_malloc_r+0x44e>
    566e:	4a80           	tstl %d0
    5670:	6dde           	blts 5650 <_malloc_r+0x1b8>
    5672:	7a01           	moveq #1,%d5
    5674:	8bb2 1804      	orl %d5,%a2@(4,%d1:l)
    5678:	226a 0008      	moveal %a2@(8),%a1
    567c:	2348 000c      	movel %a0,%a1@(12)
    5680:	2149 0008      	movel %a1,%a0@(8)
    5684:	2f0b           	movel %a3,%sp@-
    5686:	4eb9 0000 7aa6 	jsr 7aa6 <__malloc_unlock>
    568c:	200a           	movel %a2,%d0
    568e:	5080           	addql #8,%d0
    5690:	588f           	addql #4,%sp
    5692:	6000 fe72      	braw 5506 <_malloc_r+0x6e>
    5696:	780c           	moveq #12,%d4
    5698:	2684           	movel %d4,%a3@
    569a:	7000           	moveq #0,%d0
    569c:	4cdf 7c7c      	moveml %sp@+,%d2-%d6/%a2-%fp
    56a0:	4e75           	rts
    56a2:	203c 0000 0200 	movel #512,%d0
    56a8:	7640           	moveq #64,%d3
    56aa:	387c 003f      	moveaw #63,%a4
    56ae:	2040           	moveal %d0,%a0
    56b0:	d1fc 0001 4e70 	addal #85616,%a0
    56b6:	43e8 fff8      	lea %a0@(-8),%a1
    56ba:	2468 0004      	moveal %a0@(4),%a2
    56be:	b5c9           	cmpal %a1,%a2
    56c0:	6600 feaa      	bnew 556c <_malloc_r+0xd4>
    56c4:	6000 fed8      	braw 559e <_malloc_r+0x106>
    56c8:	2468 000c      	moveal %a0@(12),%a2
    56cc:	b5c8           	cmpal %a0,%a2
    56ce:	6600 fe0c      	bnew 54dc <_malloc_r+0x44>
    56d2:	5483           	addql #2,%d3
    56d4:	2479 0001 4e80 	moveal 14e80 <__malloc_av_+0x10>,%a2
    56da:	b5fc 0001 4e78 	cmpal #85624,%a2
    56e0:	6600 fecc      	bnew 55ae <_malloc_r+0x116>
    56e4:	2239 0001 4e74 	movel 14e74 <__malloc_av_+0x4>,%d1
    56ea:	2003           	movel %d3,%d0
    56ec:	e480           	asrl #2,%d0
    56ee:	7801           	moveq #1,%d4
    56f0:	e1ac           	lsll %d0,%d4
    56f2:	b284           	cmpl %d4,%d1
    56f4:	6400 ff32      	bccw 5628 <_malloc_r+0x190>
    56f8:	2479 0001 4e78 	moveal 14e78 <__malloc_av_+0x8>,%a2
    56fe:	7afc           	moveq #-4,%d5
    5700:	caaa 0004      	andl %a2@(4),%d5
    5704:	b485           	cmpl %d5,%d2
    5706:	620c           	bhis 5714 <_malloc_r+0x27c>
    5708:	2005           	movel %d5,%d0
    570a:	9082           	subl %d2,%d0
    570c:	7c0f           	moveq #15,%d6
    570e:	bc80           	cmpl %d0,%d6
    5710:	6d00 00a6      	bltw 57b8 <_malloc_r+0x320>
    5714:	280a           	movel %a2,%d4
    5716:	d885           	addl %d5,%d4
    5718:	2602           	movel %d2,%d3
    571a:	d6b9 0001 570c 	addl 1570c <__malloc_top_pad>,%d3
    5720:	70ff           	moveq #-1,%d0
    5722:	b0b9 0001 4e68 	cmpl 14e68 <__malloc_sbrk_base>,%d0
    5728:	6700 03de      	beqw 5b08 <_malloc_r+0x670>
    572c:	0683 0000 100f 	addil #4111,%d3
    5732:	0243 f000      	andiw #-4096,%d3
    5736:	2f03           	movel %d3,%sp@-
    5738:	2f0b           	movel %a3,%sp@-
    573a:	4df9 0000 8730 	lea 8730 <_sbrk_r>,%fp
    5740:	4e96           	jsr %fp@
    5742:	2840           	moveal %d0,%a4
    5744:	508f           	addql #8,%sp
    5746:	7cff           	moveq #-1,%d6
    5748:	bc80           	cmpl %d0,%d6
    574a:	6700 0298      	beqw 59e4 <_malloc_r+0x54c>
    574e:	b084           	cmpl %d4,%d0
    5750:	6500 028a      	bcsw 59dc <_malloc_r+0x544>
    5754:	4bf9 0001 56dc 	lea 156dc <__malloc_current_mallinfo>,%a5
    575a:	2043           	moveal %d3,%a0
    575c:	d1d5           	addal %a5@,%a0
    575e:	2008           	movel %a0,%d0
    5760:	2a88           	movel %a0,%a5@
    5762:	b9c4           	cmpal %d4,%a4
    5764:	6600 02e4      	bnew 5a4a <_malloc_r+0x5b2>
    5768:	220c           	movel %a4,%d1
    576a:	0281 0000 0fff 	andil #4095,%d1
    5770:	6600 02d8      	bnew 5a4a <_malloc_r+0x5b2>
    5774:	2879 0001 4e78 	moveal 14e78 <__malloc_av_+0x8>,%a4
    577a:	d685           	addl %d5,%d3
    577c:	7001           	moveq #1,%d0
    577e:	8680           	orl %d0,%d3
    5780:	2943 0004      	movel %d3,%a4@(4)
    5784:	b1f9 0001 5708 	cmpal 15708 <__malloc_max_sbrked_mem>,%a0
    578a:	6306           	blss 5792 <_malloc_r+0x2fa>
    578c:	23c8 0001 5708 	movel %a0,15708 <__malloc_max_sbrked_mem>
    5792:	b1f9 0001 5704 	cmpal 15704 <__malloc_max_total_mem>,%a0
    5798:	6306           	blss 57a0 <_malloc_r+0x308>
    579a:	23c8 0001 5704 	movel %a0,15704 <__malloc_max_total_mem>
    57a0:	244c           	moveal %a4,%a2
    57a2:	7cfc           	moveq #-4,%d6
    57a4:	c686           	andl %d6,%d3
    57a6:	2003           	movel %d3,%d0
    57a8:	9082           	subl %d2,%d0
    57aa:	b483           	cmpl %d3,%d2
    57ac:	6200 033c      	bhiw 5aea <_malloc_r+0x652>
    57b0:	720f           	moveq #15,%d1
    57b2:	b280           	cmpl %d0,%d1
    57b4:	6c00 0334      	bgew 5aea <_malloc_r+0x652>
    57b8:	7601           	moveq #1,%d3
    57ba:	8682           	orl %d2,%d3
    57bc:	2543 0004      	movel %d3,%a2@(4)
    57c0:	41f2 2800      	lea %a2@(0,%d2:l),%a0
    57c4:	23c8 0001 4e78 	movel %a0,14e78 <__malloc_av_+0x8>
    57ca:	7801           	moveq #1,%d4
    57cc:	8880           	orl %d0,%d4
    57ce:	2144 0004      	movel %d4,%a0@(4)
    57d2:	2f0b           	movel %a3,%sp@-
    57d4:	4eb9 0000 7aa6 	jsr 7aa6 <__malloc_unlock>
    57da:	200a           	movel %a2,%d0
    57dc:	5080           	addql #8,%d0
    57de:	588f           	addql #4,%sp
    57e0:	6000 fd24      	braw 5506 <_malloc_r+0x6e>
    57e4:	226a 0008      	moveal %a2@(8),%a1
    57e8:	2348 000c      	movel %a0,%a1@(12)
    57ec:	2149 0008      	movel %a1,%a0@(8)
    57f0:	7a01           	moveq #1,%d5
    57f2:	8bb2 1804      	orl %d5,%a2@(4,%d1:l)
    57f6:	2f0b           	movel %a3,%sp@-
    57f8:	4eb9 0000 7aa6 	jsr 7aa6 <__malloc_unlock>
    57fe:	200a           	movel %a2,%d0
    5800:	5080           	addql #8,%d0
    5802:	588f           	addql #4,%sp
    5804:	6000 fd00      	braw 5506 <_malloc_r+0x6e>
    5808:	2800           	movel %d0,%d4
    580a:	7a09           	moveq #9,%d5
    580c:	eaac           	lsrl %d5,%d4
    580e:	7c04           	moveq #4,%d6
    5810:	bc84           	cmpl %d4,%d6
    5812:	6400 01a0      	bccw 59b4 <_malloc_r+0x51c>
    5816:	7a14           	moveq #20,%d5
    5818:	ba84           	cmpl %d4,%d5
    581a:	6500 0316      	bcsw 5b32 <_malloc_r+0x69a>
    581e:	327c 005b      	moveaw #91,%a1
    5822:	d3c4           	addal %d4,%a1
    5824:	7c5c           	moveq #92,%d6
    5826:	d886           	addl %d6,%d4
    5828:	e78c           	lsll #3,%d4
    582a:	2044           	moveal %d4,%a0
    582c:	d1fc 0001 4e70 	addal #85616,%a0
    5832:	49e8 fff8      	lea %a0@(-8),%a4
    5836:	2050           	moveal %a0@,%a0
    5838:	b1cc           	cmpal %a4,%a0
    583a:	6700 01de      	beqw 5a1a <_malloc_r+0x582>
    583e:	78fc           	moveq #-4,%d4
    5840:	c8a8 0004      	andl %a0@(4),%d4
    5844:	b084           	cmpl %d4,%d0
    5846:	6408           	bccs 5850 <_malloc_r+0x3b8>
    5848:	2068 0008      	moveal %a0@(8),%a0
    584c:	b1cc           	cmpal %a4,%a0
    584e:	66ee           	bnes 583e <_malloc_r+0x3a6>
    5850:	2868 000c      	moveal %a0@(12),%a4
    5854:	254c 000c      	movel %a4,%a2@(12)
    5858:	2548 0008      	movel %a0,%a2@(8)
    585c:	294a 0008      	movel %a2,%a4@(8)
    5860:	214a 000c      	movel %a2,%a0@(12)
    5864:	6000 fdb4      	braw 561a <_malloc_r+0x182>
    5868:	7814           	moveq #20,%d4
    586a:	b883           	cmpl %d3,%d4
    586c:	6400 0184      	bccw 59f2 <_malloc_r+0x55a>
    5870:	7c54           	moveq #84,%d6
    5872:	bc83           	cmpl %d3,%d6
    5874:	6500 02ee      	bcsw 5b64 <_malloc_r+0x6cc>
    5878:	2602           	movel %d2,%d3
    587a:	700c           	moveq #12,%d0
    587c:	e0ab           	lsrl %d0,%d3
    587e:	387c 006e      	moveaw #110,%a4
    5882:	d9c3           	addal %d3,%a4
    5884:	726f           	moveq #111,%d1
    5886:	d681           	addl %d1,%d3
    5888:	2003           	movel %d3,%d0
    588a:	e788           	lsll #3,%d0
    588c:	2040           	moveal %d0,%a0
    588e:	d1fc 0001 4e70 	addal #85616,%a0
    5894:	43e8 fff8      	lea %a0@(-8),%a1
    5898:	2468 0004      	moveal %a0@(4),%a2
    589c:	b5c9           	cmpal %a1,%a2
    589e:	6600 fccc      	bnew 556c <_malloc_r+0xd4>
    58a2:	6000 fcfa      	braw 559e <_malloc_r+0x106>
    58a6:	5089           	addql #8,%a1
    58a8:	5285           	addql #1,%d5
    58aa:	7003           	moveq #3,%d0
    58ac:	c085           	andl %d5,%d0
    58ae:	6600 fd9c      	bnew 564c <_malloc_r+0x1b4>
    58b2:	7003           	moveq #3,%d0
    58b4:	c083           	andl %d3,%d0
    58b6:	6700 040e      	beqw 5cc6 <_malloc_r+0x82e>
    58ba:	5383           	subql #1,%d3
    58bc:	518c           	subql #8,%a4
    58be:	b9ec 0008      	cmpal %a4@(8),%a4
    58c2:	67ee           	beqs 58b2 <_malloc_r+0x41a>
    58c4:	2039 0001 4e74 	movel 14e74 <__malloc_av_+0x4>,%d0
    58ca:	d884           	addl %d4,%d4
    58cc:	b084           	cmpl %d4,%d0
    58ce:	6500 fe28      	bcsw 56f8 <_malloc_r+0x260>
    58d2:	4a84           	tstl %d4
    58d4:	6700 fe22      	beqw 56f8 <_malloc_r+0x260>
    58d8:	2204           	movel %d4,%d1
    58da:	c280           	andl %d0,%d1
    58dc:	6600 03b0      	bnew 5c8e <_malloc_r+0x7f6>
    58e0:	5885           	addql #4,%d5
    58e2:	d884           	addl %d4,%d4
    58e4:	60f2           	bras 58d8 <_malloc_r+0x440>
    58e6:	43f2 2800      	lea %a2@(0,%d2:l),%a1
    58ea:	7601           	moveq #1,%d3
    58ec:	8682           	orl %d2,%d3
    58ee:	2543 0004      	movel %d3,%a2@(4)
    58f2:	286a 0008      	moveal %a2@(8),%a4
    58f6:	2948 000c      	movel %a0,%a4@(12)
    58fa:	214c 0008      	movel %a4,%a0@(8)
    58fe:	23c9 0001 4e84 	movel %a1,14e84 <__malloc_av_+0x14>
    5904:	23c9 0001 4e80 	movel %a1,14e80 <__malloc_av_+0x10>
    590a:	237c 0001 4e78 	movel #85624,%a1@(12)
    5910:	000c 
    5912:	237c 0001 4e78 	movel #85624,%a1@(8)
    5918:	0008 
    591a:	7801           	moveq #1,%d4
    591c:	8880           	orl %d0,%d4
    591e:	2344 0004      	movel %d4,%a1@(4)
    5922:	2580 1800      	movel %d0,%a2@(0,%d1:l)
    5926:	2f0b           	movel %a3,%sp@-
    5928:	4eb9 0000 7aa6 	jsr 7aa6 <__malloc_unlock>
    592e:	200a           	movel %a2,%d0
    5930:	5080           	addql #8,%d0
    5932:	588f           	addql #4,%sp
    5934:	6000 fbd0      	braw 5506 <_malloc_r+0x6e>
    5938:	7a01           	moveq #1,%d5
    593a:	8bb2 0804      	orl %d5,%a2@(4,%d0:l)
    593e:	2f0b           	movel %a3,%sp@-
    5940:	4eb9 0000 7aa6 	jsr 7aa6 <__malloc_unlock>
    5946:	200a           	movel %a2,%d0
    5948:	5080           	addql #8,%d0
    594a:	588f           	addql #4,%sp
    594c:	6000 fbb8      	braw 5506 <_malloc_r+0x6e>
    5950:	e68b           	lsrl #3,%d3
    5952:	2042           	moveal %d2,%a0
    5954:	5088           	addql #8,%a0
    5956:	d1fc 0001 4e70 	addal #85616,%a0
    595c:	2468 0004      	moveal %a0@(4),%a2
    5960:	2008           	movel %a0,%d0
    5962:	5180           	subql #8,%d0
    5964:	b08a           	cmpl %a2,%d0
    5966:	6600 fb74      	bnew 54dc <_malloc_r+0x44>
    596a:	6000 fd5c      	braw 56c8 <_malloc_r+0x230>
    596e:	41f2 2800      	lea %a2@(0,%d2:l),%a0
    5972:	7601           	moveq #1,%d3
    5974:	8682           	orl %d2,%d3
    5976:	2543 0004      	movel %d3,%a2@(4)
    597a:	23c8 0001 4e84 	movel %a0,14e84 <__malloc_av_+0x14>
    5980:	23c8 0001 4e80 	movel %a0,14e80 <__malloc_av_+0x10>
    5986:	217c 0001 4e78 	movel #85624,%a0@(12)
    598c:	000c 
    598e:	217c 0001 4e78 	movel #85624,%a0@(8)
    5994:	0008 
    5996:	7801           	moveq #1,%d4
    5998:	8881           	orl %d1,%d4
    599a:	2144 0004      	movel %d4,%a0@(4)
    599e:	2581 0800      	movel %d1,%a2@(0,%d0:l)
    59a2:	2f0b           	movel %a3,%sp@-
    59a4:	4eb9 0000 7aa6 	jsr 7aa6 <__malloc_unlock>
    59aa:	200a           	movel %a2,%d0
    59ac:	5080           	addql #8,%d0
    59ae:	588f           	addql #4,%sp
    59b0:	6000 fb54      	braw 5506 <_malloc_r+0x6e>
    59b4:	2800           	movel %d0,%d4
    59b6:	ec8c           	lsrl #6,%d4
    59b8:	2044           	moveal %d4,%a0
    59ba:	43e8 0038      	lea %a0@(56),%a1
    59be:	41e8 0039      	lea %a0@(57),%a0
    59c2:	2808           	movel %a0,%d4
    59c4:	e78c           	lsll #3,%d4
    59c6:	2044           	moveal %d4,%a0
    59c8:	d1fc 0001 4e70 	addal #85616,%a0
    59ce:	49e8 fff8      	lea %a0@(-8),%a4
    59d2:	2050           	moveal %a0@,%a0
    59d4:	b1cc           	cmpal %a4,%a0
    59d6:	6600 fe66      	bnew 583e <_malloc_r+0x3a6>
    59da:	603e           	bras 5a1a <_malloc_r+0x582>
    59dc:	b5fc 0001 4e70 	cmpal #85616,%a2
    59e2:	675a           	beqs 5a3e <_malloc_r+0x5a6>
    59e4:	2479 0001 4e78 	moveal 14e78 <__malloc_av_+0x8>,%a2
    59ea:	262a 0004      	movel %a2@(4),%d3
    59ee:	6000 fdb2      	braw 57a2 <_malloc_r+0x30a>
    59f2:	387c 005b      	moveaw #91,%a4
    59f6:	d9c3           	addal %d3,%a4
    59f8:	7a5c           	moveq #92,%d5
    59fa:	d685           	addl %d5,%d3
    59fc:	2003           	movel %d3,%d0
    59fe:	e788           	lsll #3,%d0
    5a00:	2040           	moveal %d0,%a0
    5a02:	d1fc 0001 4e70 	addal #85616,%a0
    5a08:	43e8 fff8      	lea %a0@(-8),%a1
    5a0c:	2468 0004      	moveal %a0@(4),%a2
    5a10:	b5c9           	cmpal %a1,%a2
    5a12:	6600 fb58      	bnew 556c <_malloc_r+0xd4>
    5a16:	6000 fb86      	braw 559e <_malloc_r+0x106>
    5a1a:	2009           	movel %a1,%d0
    5a1c:	e480           	asrl #2,%d0
    5a1e:	7801           	moveq #1,%d4
    5a20:	e1ac           	lsll %d0,%d4
    5a22:	8284           	orl %d4,%d1
    5a24:	23c1 0001 4e74 	movel %d1,14e74 <__malloc_av_+0x4>
    5a2a:	254c 000c      	movel %a4,%a2@(12)
    5a2e:	2548 0008      	movel %a0,%a2@(8)
    5a32:	294a 0008      	movel %a2,%a4@(8)
    5a36:	214a 000c      	movel %a2,%a0@(12)
    5a3a:	6000 fbde      	braw 561a <_malloc_r+0x182>
    5a3e:	4bf9 0001 56dc 	lea 156dc <__malloc_current_mallinfo>,%a5
    5a44:	2003           	movel %d3,%d0
    5a46:	d095           	addl %a5@,%d0
    5a48:	2a80           	movel %d0,%a5@
    5a4a:	72ff           	moveq #-1,%d1
    5a4c:	b2b9 0001 4e68 	cmpl 14e68 <__malloc_sbrk_base>,%d1
    5a52:	6700 0146      	beqw 5b9a <_malloc_r+0x702>
    5a56:	220c           	movel %a4,%d1
    5a58:	9284           	subl %d4,%d1
    5a5a:	d280           	addl %d0,%d1
    5a5c:	2a81           	movel %d1,%a5@
    5a5e:	2c0c           	movel %a4,%d6
    5a60:	7807           	moveq #7,%d4
    5a62:	cc84           	andl %d4,%d6
    5a64:	6700 00aa      	beqw 5b10 <_malloc_r+0x678>
    5a68:	7008           	moveq #8,%d0
    5a6a:	9086           	subl %d6,%d0
    5a6c:	d9c0           	addal %d0,%a4
    5a6e:	d68c           	addl %a4,%d3
    5a70:	283c 0000 1008 	movel #4104,%d4
    5a76:	9886           	subl %d6,%d4
    5a78:	9883           	subl %d3,%d4
    5a7a:	0284 0000 0fff 	andil #4095,%d4
    5a80:	2f04           	movel %d4,%sp@-
    5a82:	2f0b           	movel %a3,%sp@-
    5a84:	4e96           	jsr %fp@
    5a86:	508f           	addql #8,%sp
    5a88:	72ff           	moveq #-1,%d1
    5a8a:	b280           	cmpl %d0,%d1
    5a8c:	676c           	beqs 5afa <_malloc_r+0x662>
    5a8e:	908c           	subl %a4,%d0
    5a90:	2600           	movel %d0,%d3
    5a92:	d684           	addl %d4,%d3
    5a94:	2044           	moveal %d4,%a0
    5a96:	d1d5           	addal %a5@,%a0
    5a98:	2a88           	movel %a0,%a5@
    5a9a:	23cc 0001 4e78 	movel %a4,14e78 <__malloc_av_+0x8>
    5aa0:	7001           	moveq #1,%d0
    5aa2:	8680           	orl %d0,%d3
    5aa4:	2943 0004      	movel %d3,%a4@(4)
    5aa8:	b5fc 0001 4e70 	cmpal #85616,%a2
    5aae:	6700 fcd4      	beqw 5784 <_malloc_r+0x2ec>
    5ab2:	720f           	moveq #15,%d1
    5ab4:	b285           	cmpl %d5,%d1
    5ab6:	642e           	bccs 5ae6 <_malloc_r+0x64e>
    5ab8:	72f4           	moveq #-12,%d1
    5aba:	d285           	addl %d5,%d1
    5abc:	76f8           	moveq #-8,%d3
    5abe:	c283           	andl %d3,%d1
    5ac0:	7001           	moveq #1,%d0
    5ac2:	c0aa 0004      	andl %a2@(4),%d0
    5ac6:	8081           	orl %d1,%d0
    5ac8:	2540 0004      	movel %d0,%a2@(4)
    5acc:	7805           	moveq #5,%d4
    5ace:	2584 1804      	movel %d4,%a2@(4,%d1:l)
    5ad2:	2584 1808      	movel %d4,%a2@(8,%d1:l)
    5ad6:	7a0f           	moveq #15,%d5
    5ad8:	ba81           	cmpl %d1,%d5
    5ada:	6500 0138      	bcsw 5c14 <_malloc_r+0x77c>
    5ade:	262c 0004      	movel %a4@(4),%d3
    5ae2:	6000 fca0      	braw 5784 <_malloc_r+0x2ec>
    5ae6:	2940 0004      	movel %d0,%a4@(4)
    5aea:	2f0b           	movel %a3,%sp@-
    5aec:	4eb9 0000 7aa6 	jsr 7aa6 <__malloc_unlock>
    5af2:	588f           	addql #4,%sp
    5af4:	7000           	moveq #0,%d0
    5af6:	6000 fba4      	braw 569c <_malloc_r+0x204>
    5afa:	2243           	moveal %d3,%a1
    5afc:	41f1 68f8      	lea %a1@(fffffffffffffff8,%d6:l),%a0
    5b00:	2608           	movel %a0,%d3
    5b02:	968c           	subl %a4,%d3
    5b04:	7800           	moveq #0,%d4
    5b06:	608c           	bras 5a94 <_malloc_r+0x5fc>
    5b08:	7210           	moveq #16,%d1
    5b0a:	d681           	addl %d1,%d3
    5b0c:	6000 fc28      	braw 5736 <_malloc_r+0x29e>
    5b10:	280c           	movel %a4,%d4
    5b12:	d883           	addl %d3,%d4
    5b14:	4484           	negl %d4
    5b16:	0284 0000 0fff 	andil #4095,%d4
    5b1c:	2f04           	movel %d4,%sp@-
    5b1e:	2f0b           	movel %a3,%sp@-
    5b20:	4e96           	jsr %fp@
    5b22:	508f           	addql #8,%sp
    5b24:	7cff           	moveq #-1,%d6
    5b26:	bc80           	cmpl %d0,%d6
    5b28:	6600 ff64      	bnew 5a8e <_malloc_r+0x5f6>
    5b2c:	7800           	moveq #0,%d4
    5b2e:	6000 ff64      	braw 5a94 <_malloc_r+0x5fc>
    5b32:	7a54           	moveq #84,%d5
    5b34:	ba84           	cmpl %d4,%d5
    5b36:	656c           	bcss 5ba4 <_malloc_r+0x70c>
    5b38:	2c00           	movel %d0,%d6
    5b3a:	780c           	moveq #12,%d4
    5b3c:	e8ae           	lsrl %d4,%d6
    5b3e:	2046           	moveal %d6,%a0
    5b40:	43e8 006e      	lea %a0@(110),%a1
    5b44:	41e8 006f      	lea %a0@(111),%a0
    5b48:	2808           	movel %a0,%d4
    5b4a:	e78c           	lsll #3,%d4
    5b4c:	2044           	moveal %d4,%a0
    5b4e:	d1fc 0001 4e70 	addal #85616,%a0
    5b54:	49e8 fff8      	lea %a0@(-8),%a4
    5b58:	2050           	moveal %a0@,%a0
    5b5a:	b1cc           	cmpal %a4,%a0
    5b5c:	6600 fce0      	bnew 583e <_malloc_r+0x3a6>
    5b60:	6000 feb8      	braw 5a1a <_malloc_r+0x582>
    5b64:	0c83 0000 0154 	cmpil #340,%d3
    5b6a:	626e           	bhis 5bda <_malloc_r+0x742>
    5b6c:	2602           	movel %d2,%d3
    5b6e:	780f           	moveq #15,%d4
    5b70:	e8ab           	lsrl %d4,%d3
    5b72:	387c 0077      	moveaw #119,%a4
    5b76:	d9c3           	addal %d3,%a4
    5b78:	7a78           	moveq #120,%d5
    5b7a:	d685           	addl %d5,%d3
    5b7c:	2003           	movel %d3,%d0
    5b7e:	e788           	lsll #3,%d0
    5b80:	2040           	moveal %d0,%a0
    5b82:	d1fc 0001 4e70 	addal #85616,%a0
    5b88:	43e8 fff8      	lea %a0@(-8),%a1
    5b8c:	2468 0004      	moveal %a0@(4),%a2
    5b90:	b5c9           	cmpal %a1,%a2
    5b92:	6600 f9d8      	bnew 556c <_malloc_r+0xd4>
    5b96:	6000 fa06      	braw 559e <_malloc_r+0x106>
    5b9a:	23cc 0001 4e68 	movel %a4,14e68 <__malloc_sbrk_base>
    5ba0:	6000 febc      	braw 5a5e <_malloc_r+0x5c6>
    5ba4:	0c84 0000 0154 	cmpil #340,%d4
    5baa:	6200 0086      	bhiw 5c32 <_malloc_r+0x79a>
    5bae:	2a00           	movel %d0,%d5
    5bb0:	7c0f           	moveq #15,%d6
    5bb2:	ecad           	lsrl %d6,%d5
    5bb4:	2045           	moveal %d5,%a0
    5bb6:	43e8 0077      	lea %a0@(119),%a1
    5bba:	41e8 0078      	lea %a0@(120),%a0
    5bbe:	2808           	movel %a0,%d4
    5bc0:	e78c           	lsll #3,%d4
    5bc2:	2044           	moveal %d4,%a0
    5bc4:	d1fc 0001 4e70 	addal #85616,%a0
    5bca:	49e8 fff8      	lea %a0@(-8),%a4
    5bce:	2050           	moveal %a0@,%a0
    5bd0:	b1cc           	cmpal %a4,%a0
    5bd2:	6600 fc6a      	bnew 583e <_malloc_r+0x3a6>
    5bd6:	6000 fe42      	braw 5a1a <_malloc_r+0x582>
    5bda:	0c83 0000 0554 	cmpil #1364,%d3
    5be0:	6200 0086      	bhiw 5c68 <_malloc_r+0x7d0>
    5be4:	2602           	movel %d2,%d3
    5be6:	4243           	clrw %d3
    5be8:	4843           	swap %d3
    5bea:	e44b           	lsrw #2,%d3
    5bec:	387c 007c      	moveaw #124,%a4
    5bf0:	d9c3           	addal %d3,%a4
    5bf2:	7c7d           	moveq #125,%d6
    5bf4:	d686           	addl %d6,%d3
    5bf6:	2003           	movel %d3,%d0
    5bf8:	e788           	lsll #3,%d0
    5bfa:	2040           	moveal %d0,%a0
    5bfc:	d1fc 0001 4e70 	addal #85616,%a0
    5c02:	43e8 fff8      	lea %a0@(-8),%a1
    5c06:	2468 0004      	moveal %a0@(4),%a2
    5c0a:	b5c9           	cmpal %a1,%a2
    5c0c:	6600 f95e      	bnew 556c <_malloc_r+0xd4>
    5c10:	6000 f98c      	braw 559e <_malloc_r+0x106>
    5c14:	486a 0008      	pea %a2@(8)
    5c18:	2f0b           	movel %a3,%sp@-
    5c1a:	4eb9 0000 a3fa 	jsr a3fa <_free_r>
    5c20:	2055           	moveal %a5@,%a0
    5c22:	2879 0001 4e78 	moveal 14e78 <__malloc_av_+0x8>,%a4
    5c28:	262c 0004      	movel %a4@(4),%d3
    5c2c:	508f           	addql #8,%sp
    5c2e:	6000 fb54      	braw 5784 <_malloc_r+0x2ec>
    5c32:	0c84 0000 0554 	cmpil #1364,%d4
    5c38:	626a           	bhis 5ca4 <_malloc_r+0x80c>
    5c3a:	2800           	movel %d0,%d4
    5c3c:	4244           	clrw %d4
    5c3e:	4844           	swap %d4
    5c40:	e44c           	lsrw #2,%d4
    5c42:	2044           	moveal %d4,%a0
    5c44:	43e8 007c      	lea %a0@(124),%a1
    5c48:	41e8 007d      	lea %a0@(125),%a0
    5c4c:	2808           	movel %a0,%d4
    5c4e:	e78c           	lsll #3,%d4
    5c50:	2044           	moveal %d4,%a0
    5c52:	d1fc 0001 4e70 	addal #85616,%a0
    5c58:	49e8 fff8      	lea %a0@(-8),%a4
    5c5c:	2050           	moveal %a0@,%a0
    5c5e:	b1cc           	cmpal %a4,%a0
    5c60:	6600 fbdc      	bnew 583e <_malloc_r+0x3a6>
    5c64:	6000 fdb4      	braw 5a1a <_malloc_r+0x582>
    5c68:	203c 0000 03f8 	movel #1016,%d0
    5c6e:	767f           	moveq #127,%d3
    5c70:	387c 007e      	moveaw #126,%a4
    5c74:	2040           	moveal %d0,%a0
    5c76:	d1fc 0001 4e70 	addal #85616,%a0
    5c7c:	43e8 fff8      	lea %a0@(-8),%a1
    5c80:	2468 0004      	moveal %a0@(4),%a2
    5c84:	b5c9           	cmpal %a1,%a2
    5c86:	6600 f8e4      	bnew 556c <_malloc_r+0xd4>
    5c8a:	6000 f912      	braw 559e <_malloc_r+0x106>
    5c8e:	2605           	movel %d5,%d3
    5c90:	2003           	movel %d3,%d0
    5c92:	e788           	lsll #3,%d0
    5c94:	2840           	moveal %d0,%a4
    5c96:	d9fc 0001 4e70 	addal #85616,%a4
    5c9c:	224c           	moveal %a4,%a1
    5c9e:	2a03           	movel %d3,%d5
    5ca0:	6000 f9aa      	braw 564c <_malloc_r+0x1b4>
    5ca4:	283c 0000 03f8 	movel #1016,%d4
    5caa:	327c 007e      	moveaw #126,%a1
    5cae:	2044           	moveal %d4,%a0
    5cb0:	d1fc 0001 4e70 	addal #85616,%a0
    5cb6:	49e8 fff8      	lea %a0@(-8),%a4
    5cba:	2050           	moveal %a0@,%a0
    5cbc:	b1cc           	cmpal %a4,%a0
    5cbe:	6600 fb7e      	bnew 583e <_malloc_r+0x3a6>
    5cc2:	6000 fd56      	braw 5a1a <_malloc_r+0x582>
    5cc6:	2004           	movel %d4,%d0
    5cc8:	4680           	notl %d0
    5cca:	c0b9 0001 4e74 	andl 14e74 <__malloc_av_+0x4>,%d0
    5cd0:	23c0 0001 4e74 	movel %d0,14e74 <__malloc_av_+0x4>
    5cd6:	6000 fbf2      	braw 58ca <_malloc_r+0x432>
	...

00005cdc <_vfprintf_r>:
    5cdc:	4e56 ff20      	linkw %fp,#-224
    5ce0:	48e7 3f3c      	moveml %d2-%d7/%a2-%a5,%sp@-
    5ce4:	2d6e 0008 ff30 	movel %fp@(8),%fp@(-208)
    5cea:	2d6e 000c ff2c 	movel %fp@(12),%fp@(-212)
    5cf0:	2d6e 0010 ff28 	movel %fp@(16),%fp@(-216)
    5cf6:	2d6e 0014 ff38 	movel %fp@(20),%fp@(-200)
    5cfc:	2f2e ff30      	movel %fp@(-208),%sp@-
    5d00:	4eb9 0000 85d4 	jsr 85d4 <_localeconv_r>
    5d06:	2040           	moveal %d0,%a0
    5d08:	2d50 ff50      	movel %a0@,%fp@(-176)
    5d0c:	2f2e ff50      	movel %fp@(-176),%sp@-
    5d10:	4eb9 0000 8790 	jsr 8790 <strlen>
    5d16:	2d40 ff4c      	movel %d0,%fp@(-180)
    5d1a:	508f           	addql #8,%sp
    5d1c:	4aae ff30      	tstl %fp@(-208)
    5d20:	670c           	beqs 5d2e <_vfprintf_r+0x52>
    5d22:	226e ff30      	moveal %fp@(-208),%a1
    5d26:	4aa9 0032      	tstl %a1@(50)
    5d2a:	6700 1198      	beqw 6ec4 <_vfprintf_r+0x11e8>
    5d2e:	206e ff2c      	moveal %fp@(-212),%a0
    5d32:	2028 0064      	movel %a0@(100),%d0
    5d36:	3228 000c      	movew %a0@(12),%d1
    5d3a:	0801 000d      	btst #13,%d1
    5d3e:	6610           	bnes 5d50 <_vfprintf_r+0x74>
    5d40:	0041 2000      	oriw #8192,%d1
    5d44:	3141 000c      	movew %d1,%a0@(12)
    5d48:	0240 dfff      	andiw #-8193,%d0
    5d4c:	2140 0064      	movel %d0,%a0@(100)
    5d50:	0800 000d      	btst #13,%d0
    5d54:	6600 189c      	bnew 75f2 <_vfprintf_r+0x1916>
    5d58:	206e ff2c      	moveal %fp@(-212),%a0
    5d5c:	3028 000c      	movew %a0@(12),%d0
    5d60:	0800 0003      	btst #3,%d0
    5d64:	6700 01de      	beqw 5f44 <_vfprintf_r+0x268>
    5d68:	4aa8 0010      	tstl %a0@(16)
    5d6c:	6700 01d6      	beqw 5f44 <_vfprintf_r+0x268>
    5d70:	0240 001a      	andiw #26,%d0
    5d74:	0c40 000a      	cmpiw #10,%d0
    5d78:	6700 0490      	beqw 620a <_vfprintf_r+0x52e>
    5d7c:	43ee ffc0      	lea %fp@(-64),%a1
    5d80:	2d49 ff8c      	movel %a1,%fp@(-116)
    5d84:	42ae ff94      	clrl %fp@(-108)
    5d88:	42ae ff90      	clrl %fp@(-112)
    5d8c:	42ae ff40      	clrl %fp@(-192)
    5d90:	42ae ff44      	clrl %fp@(-188)
    5d94:	42ae ff48      	clrl %fp@(-184)
    5d98:	2d49 ff24      	movel %a1,%fp@(-220)
    5d9c:	2849           	moveal %a1,%a4
    5d9e:	42ae ff58      	clrl %fp@(-168)
    5da2:	42ae ff54      	clrl %fp@(-172)
    5da6:	42ae ff34      	clrl %fp@(-204)
    5daa:	2d6e ff28 ff20 	movel %fp@(-216),%fp@(-224)
    5db0:	226e ff20      	moveal %fp@(-224),%a1
    5db4:	1011           	moveb %a1@,%d0
    5db6:	6700 0226      	beqw 5fde <_vfprintf_r+0x302>
    5dba:	246e ff20      	moveal %fp@(-224),%a2
    5dbe:	0c00 0025      	cmpib #37,%d0
    5dc2:	6700 01c4      	beqw 5f88 <_vfprintf_r+0x2ac>
    5dc6:	528a           	addql #1,%a2
    5dc8:	1012           	moveb %a2@,%d0
    5dca:	66f2           	bnes 5dbe <_vfprintf_r+0xe2>
    5dcc:	264a           	moveal %a2,%a3
    5dce:	97ee ff20      	subal %fp@(-224),%a3
    5dd2:	b5ee ff20      	cmpal %fp@(-224),%a2
    5dd6:	6700 0206      	beqw 5fde <_vfprintf_r+0x302>
    5dda:	28ae ff20      	movel %fp@(-224),%a4@
    5dde:	294b 0004      	movel %a3,%a4@(4)
    5de2:	200b           	movel %a3,%d0
    5de4:	d1ae ff94      	addl %d0,%fp@(-108)
    5de8:	202e ff90      	movel %fp@(-112),%d0
    5dec:	5280           	addql #1,%d0
    5dee:	2d40 ff90      	movel %d0,%fp@(-112)
    5df2:	7207           	moveq #7,%d1
    5df4:	b280           	cmpl %d0,%d1
    5df6:	6d00 01be      	bltw 5fb6 <_vfprintf_r+0x2da>
    5dfa:	508c           	addql #8,%a4
    5dfc:	240b           	movel %a3,%d2
    5dfe:	d5ae ff34      	addl %d2,%fp@(-204)
    5e02:	1012           	moveb %a2@,%d0
    5e04:	6700 01d8      	beqw 5fde <_vfprintf_r+0x302>
    5e08:	528a           	addql #1,%a2
    5e0a:	422e ff71      	clrb %fp@(-143)
    5e0e:	74ff           	moveq #-1,%d2
    5e10:	7600           	moveq #0,%d3
    5e12:	7c00           	moveq #0,%d6
    5e14:	2d4a ff28      	movel %a2,%fp@(-216)
    5e18:	206e ff28      	moveal %fp@(-216),%a0
    5e1c:	52ae ff28      	addql #1,%fp@(-216)
    5e20:	1018           	moveb %a0@+,%d0
    5e22:	4880           	extw %d0
    5e24:	3640           	moveaw %d0,%a3
    5e26:	41eb ffe0      	lea %a3@(-32),%a0
    5e2a:	7058           	moveq #88,%d0
    5e2c:	b088           	cmpl %a0,%d0
    5e2e:	6500 01d2      	bcsw 6002 <_vfprintf_r+0x326>
    5e32:	2008           	movel %a0,%d0
    5e34:	d080           	addl %d0,%d0
    5e36:	303b 0806      	movew %pc@(5e3e <_vfprintf_r+0x162>,%d0:l),%d0
    5e3a:	4efb 0002      	jmp %pc@(5e3e <_vfprintf_r+0x162>,%d0:w)
    5e3e:	0926           	btst %d4,%fp@-
    5e40:	01c4           	bset %d0,%d4
    5e42:	01c4           	bset %d0,%d4
    5e44:	0910           	btst %d4,%a0@
    5e46:	01c4           	bset %d0,%d4
    5e48:	01c4           	bset %d0,%d4
    5e4a:	01c4           	bset %d0,%d4
    5e4c:	01c4           	bset %d0,%d4
    5e4e:	01c4           	bset %d0,%d4
    5e50:	01c4           	bset %d0,%d4
    5e52:	0864 08f8      	bchg #-8,%a4@-
    5e56:	01c4           	bset %d0,%d4
    5e58:	0874 088a 01c4 	bchg #-118,@(0)@(0)
    5e5e:	08e0 00b2      	bset #-78,%a0@-
    5e62:	00b2 00b2 00b2 	oril #11665586,%a2@(ffffffffffffffb2,%d0:w)
    5e68:	00b2 
    5e6a:	00b2 00b2 00b2 	oril #11665586,%a2@(ffffffffffffffb2,%d0:w)
    5e70:	00b2 
    5e72:	01c4           	bset %d0,%d4
    5e74:	01c4           	bset %d0,%d4
    5e76:	01c4           	bset %d0,%d4
    5e78:	01c4           	bset %d0,%d4
    5e7a:	01c4           	bset %d0,%d4
    5e7c:	01c4           	bset %d0,%d4
    5e7e:	01c4           	bset %d0,%d4
    5e80:	01c4           	bset %d0,%d4
    5e82:	01c4           	bset %d0,%d4
    5e84:	01c4           	bset %d0,%d4
    5e86:	07c2           	bset %d3,%d2
    5e88:	02d6           	.short 0x02d6
    5e8a:	01c4           	bset %d0,%d4
    5e8c:	02d6           	.short 0x02d6
    5e8e:	01c4           	bset %d0,%d4
    5e90:	01c4           	bset %d0,%d4
    5e92:	01c4           	bset %d0,%d4
    5e94:	01c4           	bset %d0,%d4
    5e96:	097c           	.short 0x097c
    5e98:	01c4           	bset %d0,%d4
    5e9a:	01c4           	bset %d0,%d4
    5e9c:	09e6           	bset %d4,%fp@-
    5e9e:	01c4           	bset %d0,%d4
    5ea0:	01c4           	bset %d0,%d4
    5ea2:	01c4           	bset %d0,%d4
    5ea4:	01c4           	bset %d0,%d4
    5ea6:	01c4           	bset %d0,%d4
    5ea8:	0992           	bclr %d4,%a2@
    5eaa:	01c4           	bset %d0,%d4
    5eac:	01c4           	bset %d0,%d4
    5eae:	10dc           	moveb %a4@+,%a0@+
    5eb0:	01c4           	bset %d0,%d4
    5eb2:	01c4           	bset %d0,%d4
    5eb4:	01c4           	bset %d0,%d4
    5eb6:	01c4           	bset %d0,%d4
    5eb8:	01c4           	bset %d0,%d4
    5eba:	01c4           	bset %d0,%d4
    5ebc:	01c4           	bset %d0,%d4
    5ebe:	01c4           	bset %d0,%d4
    5ec0:	01c4           	bset %d0,%d4
    5ec2:	01c4           	bset %d0,%d4
    5ec4:	0946           	bchg %d4,%d6
    5ec6:	0748 02d6      	movepl %a0@(726),%d3
    5eca:	02d6           	.short 0x02d6
    5ecc:	02d6           	.short 0x02d6
    5ece:	0a02 0748      	eorib #72,%d2
    5ed2:	01c4           	bset %d0,%d4
    5ed4:	01c4           	bset %d0,%d4
    5ed6:	0134 01c4      	btst %d0,@(0)@(0)
    5eda:	0af8           	.short 0x0af8
    5edc:	0acc           	.short 0x0acc
    5ede:	0aa0 0134 01c4 	eoril #20185540,%a0@-
    5ee4:	0a44 01c4      	eoriw #452,%d4
    5ee8:	0a18 01c4      	eorib #-60,%a0@+
    5eec:	01c4           	bset %d0,%d4
    5eee:	112c 7600      	moveb %a4@(30208),%a0@-
    5ef2:	41eb ffd0      	lea %a3@(-48),%a0
    5ef6:	2003           	movel %d3,%d0
    5ef8:	d083           	addl %d3,%d0
    5efa:	d080           	addl %d0,%d0
    5efc:	d680           	addl %d0,%d3
    5efe:	d683           	addl %d3,%d3
    5f00:	d688           	addl %a0,%d3
    5f02:	206e ff28      	moveal %fp@(-216),%a0
    5f06:	52ae ff28      	addql #1,%fp@(-216)
    5f0a:	1018           	moveb %a0@+,%d0
    5f0c:	4880           	extw %d0
    5f0e:	3640           	moveaw %d0,%a3
    5f10:	41eb ffd0      	lea %a3@(-48),%a0
    5f14:	7009           	moveq #9,%d0
    5f16:	b088           	cmpl %a0,%d0
    5f18:	6500 ff0c      	bcsw 5e26 <_vfprintf_r+0x14a>
    5f1c:	2003           	movel %d3,%d0
    5f1e:	d083           	addl %d3,%d0
    5f20:	d080           	addl %d0,%d0
    5f22:	d680           	addl %d0,%d3
    5f24:	d683           	addl %d3,%d3
    5f26:	d688           	addl %a0,%d3
    5f28:	206e ff28      	moveal %fp@(-216),%a0
    5f2c:	52ae ff28      	addql #1,%fp@(-216)
    5f30:	1018           	moveb %a0@+,%d0
    5f32:	4880           	extw %d0
    5f34:	3640           	moveaw %d0,%a3
    5f36:	41eb ffd0      	lea %a3@(-48),%a0
    5f3a:	7009           	moveq #9,%d0
    5f3c:	b088           	cmpl %a0,%d0
    5f3e:	64b6           	bccs 5ef6 <_vfprintf_r+0x21a>
    5f40:	6000 fee4      	braw 5e26 <_vfprintf_r+0x14a>
    5f44:	2f2e ff2c      	movel %fp@(-212),%sp@-
    5f48:	2f2e ff30      	movel %fp@(-208),%sp@-
    5f4c:	4eb9 0000 830c 	jsr 830c <__swsetup_r>
    5f52:	508f           	addql #8,%sp
    5f54:	4a80           	tstl %d0
    5f56:	6600 169a      	bnew 75f2 <_vfprintf_r+0x1916>
    5f5a:	226e ff2c      	moveal %fp@(-212),%a1
    5f5e:	3029 000c      	movew %a1@(12),%d0
    5f62:	0240 001a      	andiw #26,%d0
    5f66:	0c40 000a      	cmpiw #10,%d0
    5f6a:	6600 fe10      	bnew 5d7c <_vfprintf_r+0xa0>
    5f6e:	6000 029a      	braw 620a <_vfprintf_r+0x52e>
    5f72:	7a10           	moveq #16,%d5
    5f74:	8c85           	orl %d5,%d6
    5f76:	206e ff28      	moveal %fp@(-216),%a0
    5f7a:	52ae ff28      	addql #1,%fp@(-216)
    5f7e:	1018           	moveb %a0@+,%d0
    5f80:	4880           	extw %d0
    5f82:	3640           	moveaw %d0,%a3
    5f84:	6000 fea0      	braw 5e26 <_vfprintf_r+0x14a>
    5f88:	264a           	moveal %a2,%a3
    5f8a:	97ee ff20      	subal %fp@(-224),%a3
    5f8e:	b5ee ff20      	cmpal %fp@(-224),%a2
    5f92:	6700 fe6e      	beqw 5e02 <_vfprintf_r+0x126>
    5f96:	28ae ff20      	movel %fp@(-224),%a4@
    5f9a:	294b 0004      	movel %a3,%a4@(4)
    5f9e:	200b           	movel %a3,%d0
    5fa0:	d1ae ff94      	addl %d0,%fp@(-108)
    5fa4:	202e ff90      	movel %fp@(-112),%d0
    5fa8:	5280           	addql #1,%d0
    5faa:	2d40 ff90      	movel %d0,%fp@(-112)
    5fae:	7207           	moveq #7,%d1
    5fb0:	b280           	cmpl %d0,%d1
    5fb2:	6c00 fe46      	bgew 5dfa <_vfprintf_r+0x11e>
    5fb6:	486e ff8c      	pea %fp@(-116)
    5fba:	2f2e ff2c      	movel %fp@(-212),%sp@-
    5fbe:	2f2e ff30      	movel %fp@(-208),%sp@-
    5fc2:	4eb9 0000 7aa8 	jsr 7aa8 <__sprint_r>
    5fc8:	4fef 000c      	lea %sp@(12),%sp
    5fcc:	4a80           	tstl %d0
    5fce:	6616           	bnes 5fe6 <_vfprintf_r+0x30a>
    5fd0:	49ee ffc0      	lea %fp@(-64),%a4
    5fd4:	240b           	movel %a3,%d2
    5fd6:	d5ae ff34      	addl %d2,%fp@(-204)
    5fda:	6000 fe26      	braw 5e02 <_vfprintf_r+0x126>
    5fde:	4aae ff94      	tstl %fp@(-108)
    5fe2:	6600 15b2      	bnew 7596 <_vfprintf_r+0x18ba>
    5fe6:	206e ff2c      	moveal %fp@(-212),%a0
    5fea:	0828 0006 000d 	btst #6,%a0@(13)
    5ff0:	6600 1600      	bnew 75f2 <_vfprintf_r+0x1916>
    5ff4:	202e ff34      	movel %fp@(-204),%d0
    5ff8:	4cee 3cfc fef8 	moveml %fp@(-264),%d2-%d7/%a2-%a5
    5ffe:	4e5e           	unlk %fp
    6000:	4e75           	rts
    6002:	2d6e ff28 ff20 	movel %fp@(-216),%fp@(-224)
    6008:	b6fc 0000      	cmpaw #0,%a3
    600c:	67d0           	beqs 5fde <_vfprintf_r+0x302>
    600e:	340b           	movew %a3,%d2
    6010:	1d42 ff98      	moveb %d2,%fp@(-104)
    6014:	422e ff71      	clrb %fp@(-143)
    6018:	7801           	moveq #1,%d4
    601a:	2d44 ff28      	movel %d4,%fp@(-216)
    601e:	7a01           	moveq #1,%d5
    6020:	7e98           	moveq #-104,%d7
    6022:	de8e           	addl %fp,%d7
    6024:	2806           	movel %d6,%d4
    6026:	7400           	moveq #0,%d2
    6028:	42ae ff3c      	clrl %fp@(-196)
    602c:	9bcd           	subal %a5,%a5
    602e:	7c7b           	moveq #123,%d6
    6030:	4606           	notb %d6
    6032:	cc84           	andl %d4,%d6
    6034:	246e ff94      	moveal %fp@(-108),%a2
    6038:	660e           	bnes 6048 <_vfprintf_r+0x36c>
    603a:	2243           	moveal %d3,%a1
    603c:	93ee ff28      	subal %fp@(-216),%a1
    6040:	b2fc 0000      	cmpaw #0,%a1
    6044:	6e00 0430      	bgtw 6476 <_vfprintf_r+0x79a>
    6048:	4a2e ff71      	tstb %fp@(-143)
    604c:	6726           	beqs 6074 <_vfprintf_r+0x398>
    604e:	41ee ff71      	lea %fp@(-143),%a0
    6052:	2888           	movel %a0,%a4@
    6054:	7001           	moveq #1,%d0
    6056:	2940 0004      	movel %d0,%a4@(4)
    605a:	528a           	addql #1,%a2
    605c:	2d4a ff94      	movel %a2,%fp@(-108)
    6060:	202e ff90      	movel %fp@(-112),%d0
    6064:	5280           	addql #1,%d0
    6066:	2d40 ff90      	movel %d0,%fp@(-112)
    606a:	7207           	moveq #7,%d1
    606c:	b280           	cmpl %d0,%d1
    606e:	6d00 0af6      	bltw 6b66 <_vfprintf_r+0xe8a>
    6072:	508c           	addql #8,%a4
    6074:	bafc 0000      	cmpaw #0,%a5
    6078:	6726           	beqs 60a0 <_vfprintf_r+0x3c4>
    607a:	41ee ff72      	lea %fp@(-142),%a0
    607e:	2888           	movel %a0,%a4@
    6080:	7002           	moveq #2,%d0
    6082:	2940 0004      	movel %d0,%a4@(4)
    6086:	548a           	addql #2,%a2
    6088:	2d4a ff94      	movel %a2,%fp@(-108)
    608c:	202e ff90      	movel %fp@(-112),%d0
    6090:	5280           	addql #1,%d0
    6092:	2d40 ff90      	movel %d0,%fp@(-112)
    6096:	7207           	moveq #7,%d1
    6098:	b280           	cmpl %d0,%d1
    609a:	6d00 0a98      	bltw 6b34 <_vfprintf_r+0xe58>
    609e:	508c           	addql #8,%a4
    60a0:	0c86 0000 0080 	cmpil #128,%d6
    60a6:	6700 0192      	beqw 623a <_vfprintf_r+0x55e>
    60aa:	2a42           	moveal %d2,%a5
    60ac:	9bc5           	subal %d5,%a5
    60ae:	bafc 0000      	cmpaw #0,%a5
    60b2:	6e00 0218      	bgtw 62cc <_vfprintf_r+0x5f0>
    60b6:	0804 0008      	btst #8,%d4
    60ba:	6600 0278      	bnew 6334 <_vfprintf_r+0x658>
    60be:	2887           	movel %d7,%a4@
    60c0:	2945 0004      	movel %d5,%a4@(4)
    60c4:	d5c5           	addal %d5,%a2
    60c6:	2d4a ff94      	movel %a2,%fp@(-108)
    60ca:	202e ff90      	movel %fp@(-112),%d0
    60ce:	5280           	addql #1,%d0
    60d0:	2d40 ff90      	movel %d0,%fp@(-112)
    60d4:	7a07           	moveq #7,%d5
    60d6:	ba80           	cmpl %d0,%d5
    60d8:	6d00 034c      	bltw 6426 <_vfprintf_r+0x74a>
    60dc:	508c           	addql #8,%a4
    60de:	0804 0002      	btst #2,%d4
    60e2:	670e           	beqs 60f2 <_vfprintf_r+0x416>
    60e4:	2a43           	moveal %d3,%a5
    60e6:	9bee ff28      	subal %fp@(-216),%a5
    60ea:	bafc 0000      	cmpaw #0,%a5
    60ee:	6e00 040a      	bgtw 64fa <_vfprintf_r+0x81e>
    60f2:	b6ae ff28      	cmpl %fp@(-216),%d3
    60f6:	6c04           	bges 60fc <_vfprintf_r+0x420>
    60f8:	262e ff28      	movel %fp@(-216),%d3
    60fc:	d7ae ff34      	addl %d3,%fp@(-204)
    6100:	b4fc 0000      	cmpaw #0,%a2
    6104:	6600 0348      	bnew 644e <_vfprintf_r+0x772>
    6108:	42ae ff90      	clrl %fp@(-112)
    610c:	49ee ffc0      	lea %fp@(-64),%a4
    6110:	6000 fc9e      	braw 5db0 <_vfprintf_r+0xd4>
    6114:	2d6e ff28 ff20 	movel %fp@(-216),%fp@(-224)
    611a:	0806 0003      	btst #3,%d6
    611e:	6700 0d90      	beqw 6eb0 <_vfprintf_r+0x11d4>
    6122:	246e ff38      	moveal %fp@(-200),%a2
    6126:	9ffc 0000 000c 	subal #12,%sp
    612c:	2e9a           	movel %a2@+,%sp@
    612e:	2f5a 0004      	movel %a2@+,%sp@(4)
    6132:	2f5a 0008      	movel %a2@+,%sp@(8)
    6136:	4eb9 0001 1de0 	jsr 11de0 <__truncxfdf2>
    613c:	4fef 000c      	lea %sp@(12),%sp
    6140:	2040           	moveal %d0,%a0
    6142:	2241           	moveal %d1,%a1
    6144:	2d48 ff44      	movel %a0,%fp@(-188)
    6148:	2d49 ff48      	movel %a1,%fp@(-184)
    614c:	2d4a ff38      	movel %a2,%fp@(-200)
    6150:	202e ff44      	movel %fp@(-188),%d0
    6154:	0880 001f      	bclr #31,%d0
    6158:	2d40 ff60      	movel %d0,%fp@(-160)
    615c:	2d6e ff48 ff64 	movel %fp@(-184),%fp@(-156)
    6162:	283c 7fef ffff 	movel #2146435071,%d4
    6168:	7aff           	moveq #-1,%d5
    616a:	45f9 0000 4a4a 	lea 4a4a <__unorddf2>,%a2
    6170:	2f05           	movel %d5,%sp@-
    6172:	2f04           	movel %d4,%sp@-
    6174:	2f2e ff64      	movel %fp@(-156),%sp@-
    6178:	2f2e ff60      	movel %fp@(-160),%sp@-
    617c:	4e92           	jsr %a2@
    617e:	4fef 0010      	lea %sp@(16),%sp
    6182:	4a80           	tstl %d0
    6184:	6600 0ff8      	bnew 717e <_vfprintf_r+0x14a2>
    6188:	2f05           	movel %d5,%sp@-
    618a:	2f04           	movel %d4,%sp@-
    618c:	2f2e ff64      	movel %fp@(-156),%sp@-
    6190:	2f2e ff60      	movel %fp@(-160),%sp@-
    6194:	4eb9 0001 1c84 	jsr 11c84 <__ledf2>
    619a:	4fef 0010      	lea %sp@(16),%sp
    619e:	4a80           	tstl %d0
    61a0:	6f00 0fdc      	blew 717e <_vfprintf_r+0x14a2>
    61a4:	42a7           	clrl %sp@-
    61a6:	42a7           	clrl %sp@-
    61a8:	2f2e ff48      	movel %fp@(-184),%sp@-
    61ac:	2f2e ff44      	movel %fp@(-188),%sp@-
    61b0:	4eb9 0001 1c60 	jsr 11c60 <__ltdf2>
    61b6:	4fef 0010      	lea %sp@(16),%sp
    61ba:	4a80           	tstl %d0
    61bc:	6d00 11fc      	bltw 73ba <_vfprintf_r+0x16de>
    61c0:	122e ff71      	moveb %fp@(-143),%d1
    61c4:	3a41           	moveaw %d1,%a5
    61c6:	7447           	moveq #71,%d2
    61c8:	b48b           	cmpl %a3,%d2
    61ca:	6d00 11d2      	bltw 739e <_vfprintf_r+0x16c2>
    61ce:	2e3c 0001 298a 	movel #76170,%d7
    61d4:	7880           	moveq #-128,%d4
    61d6:	4604           	notb %d4
    61d8:	c886           	andl %d6,%d4
    61da:	7a03           	moveq #3,%d5
    61dc:	2d45 ff28      	movel %d5,%fp@(-216)
    61e0:	7400           	moveq #0,%d2
    61e2:	42ae ff3c      	clrl %fp@(-196)
    61e6:	320d           	movew %a5,%d1
    61e8:	4a01           	tstb %d1
    61ea:	6704           	beqs 61f0 <_vfprintf_r+0x514>
    61ec:	52ae ff28      	addql #1,%fp@(-216)
    61f0:	7002           	moveq #2,%d0
    61f2:	c084           	andl %d4,%d0
    61f4:	2a40           	moveal %d0,%a5
    61f6:	0804 0001      	btst #1,%d4
    61fa:	6700 fe32      	beqw 602e <_vfprintf_r+0x352>
    61fe:	54ae ff28      	addql #2,%fp@(-216)
    6202:	3a7c 0002      	moveaw #2,%a5
    6206:	6000 fe26      	braw 602e <_vfprintf_r+0x352>
    620a:	206e ff2c      	moveal %fp@(-212),%a0
    620e:	4a68 000e      	tstw %a0@(14)
    6212:	6d00 fb68      	bltw 5d7c <_vfprintf_r+0xa0>
    6216:	2d6e ff38 0014 	movel %fp@(-200),%fp@(20)
    621c:	2d6e ff28 0010 	movel %fp@(-216),%fp@(16)
    6222:	2d48 000c      	movel %a0,%fp@(12)
    6226:	2d6e ff30 0008 	movel %fp@(-208),%fp@(8)
    622c:	4cee 3cfc fef8 	moveml %fp@(-264),%d2-%d7/%a2-%a5
    6232:	4e5e           	unlk %fp
    6234:	4ef9 0000 79fe 	jmp 79fe <__sbprintf>
    623a:	2a43           	moveal %d3,%a5
    623c:	9bee ff28      	subal %fp@(-216),%a5
    6240:	bafc 0000      	cmpaw #0,%a5
    6244:	6f00 fe64      	blew 60aa <_vfprintf_r+0x3ce>
    6248:	202e ff90      	movel %fp@(-112),%d0
    624c:	7210           	moveq #16,%d1
    624e:	b28d           	cmpl %a5,%d1
    6250:	6c4e           	bges 62a0 <_vfprintf_r+0x5c4>
    6252:	7c8c           	moveq #-116,%d6
    6254:	dc8e           	addl %fp,%d6
    6256:	204c           	moveal %a4,%a0
    6258:	2845           	moveal %d5,%a4
    625a:	2a03           	movel %d3,%d5
    625c:	224a           	moveal %a2,%a1
    625e:	2442           	moveal %d2,%a2
    6260:	242e ff30      	movel %fp@(-208),%d2
    6264:	262e ff2c      	movel %fp@(-212),%d3
    6268:	20bc 0001 2a93 	movel #76435,%a0@
    626e:	7210           	moveq #16,%d1
    6270:	2141 0004      	movel %d1,%a0@(4)
    6274:	43e9 0010      	lea %a1@(16),%a1
    6278:	2d49 ff94      	movel %a1,%fp@(-108)
    627c:	5280           	addql #1,%d0
    627e:	2d40 ff90      	movel %d0,%fp@(-112)
    6282:	7207           	moveq #7,%d1
    6284:	b280           	cmpl %d0,%d1
    6286:	6d00 077a      	bltw 6a02 <_vfprintf_r+0xd26>
    628a:	5088           	addql #8,%a0
    628c:	4bed fff0      	lea %a5@(-16),%a5
    6290:	7210           	moveq #16,%d1
    6292:	b28d           	cmpl %a5,%d1
    6294:	6dd2           	blts 6268 <_vfprintf_r+0x58c>
    6296:	2605           	movel %d5,%d3
    6298:	240a           	movel %a2,%d2
    629a:	2a0c           	movel %a4,%d5
    629c:	2848           	moveal %a0,%a4
    629e:	2449           	moveal %a1,%a2
    62a0:	28bc 0001 2a93 	movel #76435,%a4@
    62a6:	294d 0004      	movel %a5,%a4@(4)
    62aa:	d5cd           	addal %a5,%a2
    62ac:	2d4a ff94      	movel %a2,%fp@(-108)
    62b0:	5280           	addql #1,%d0
    62b2:	2d40 ff90      	movel %d0,%fp@(-112)
    62b6:	7207           	moveq #7,%d1
    62b8:	b280           	cmpl %d0,%d1
    62ba:	6d00 0fce      	bltw 728a <_vfprintf_r+0x15ae>
    62be:	508c           	addql #8,%a4
    62c0:	2a42           	moveal %d2,%a5
    62c2:	9bc5           	subal %d5,%a5
    62c4:	bafc 0000      	cmpaw #0,%a5
    62c8:	6f00 fdec      	blew 60b6 <_vfprintf_r+0x3da>
    62cc:	202e ff90      	movel %fp@(-112),%d0
    62d0:	7410           	moveq #16,%d2
    62d2:	b48d           	cmpl %a5,%d2
    62d4:	6c36           	bges 630c <_vfprintf_r+0x630>
    62d6:	242e ff30      	movel %fp@(-208),%d2
    62da:	2c2e ff2c      	movel %fp@(-212),%d6
    62de:	28bc 0001 2a93 	movel #76435,%a4@
    62e4:	7210           	moveq #16,%d1
    62e6:	2941 0004      	movel %d1,%a4@(4)
    62ea:	45ea 0010      	lea %a2@(16),%a2
    62ee:	2d4a ff94      	movel %a2,%fp@(-108)
    62f2:	5280           	addql #1,%d0
    62f4:	2d40 ff90      	movel %d0,%fp@(-112)
    62f8:	7207           	moveq #7,%d1
    62fa:	b280           	cmpl %d0,%d1
    62fc:	6d00 066e      	bltw 696c <_vfprintf_r+0xc90>
    6300:	508c           	addql #8,%a4
    6302:	4bed fff0      	lea %a5@(-16),%a5
    6306:	7210           	moveq #16,%d1
    6308:	b28d           	cmpl %a5,%d1
    630a:	6dd2           	blts 62de <_vfprintf_r+0x602>
    630c:	28bc 0001 2a93 	movel #76435,%a4@
    6312:	294d 0004      	movel %a5,%a4@(4)
    6316:	d5cd           	addal %a5,%a2
    6318:	2d4a ff94      	movel %a2,%fp@(-108)
    631c:	5280           	addql #1,%d0
    631e:	2d40 ff90      	movel %d0,%fp@(-112)
    6322:	7407           	moveq #7,%d2
    6324:	b480           	cmpl %d0,%d2
    6326:	6d00 0a4e      	bltw 6d76 <_vfprintf_r+0x109a>
    632a:	508c           	addql #8,%a4
    632c:	0804 0008      	btst #8,%d4
    6330:	6700 fd8c      	beqw 60be <_vfprintf_r+0x3e2>
    6334:	7065           	moveq #101,%d0
    6336:	b08b           	cmpl %a3,%d0
    6338:	6c00 06fa      	bgew 6a34 <_vfprintf_r+0xd58>
    633c:	42a7           	clrl %sp@-
    633e:	42a7           	clrl %sp@-
    6340:	2f2e ff48      	movel %fp@(-184),%sp@-
    6344:	2f2e ff44      	movel %fp@(-188),%sp@-
    6348:	4eb9 0001 1bf4 	jsr 11bf4 <__eqdf2>
    634e:	4fef 0010      	lea %sp@(16),%sp
    6352:	4a80           	tstl %d0
    6354:	6600 0838      	bnew 6b8e <_vfprintf_r+0xeb2>
    6358:	28bc 0001 29c3 	movel #76227,%a4@
    635e:	7201           	moveq #1,%d1
    6360:	2941 0004      	movel %d1,%a4@(4)
    6364:	528a           	addql #1,%a2
    6366:	2d4a ff94      	movel %a2,%fp@(-108)
    636a:	202e ff90      	movel %fp@(-112),%d0
    636e:	5280           	addql #1,%d0
    6370:	2d40 ff90      	movel %d0,%fp@(-112)
    6374:	7407           	moveq #7,%d2
    6376:	b480           	cmpl %d0,%d2
    6378:	6d00 0edc      	bltw 7256 <_vfprintf_r+0x157a>
    637c:	508c           	addql #8,%a4
    637e:	2a2e ff40      	movel %fp@(-192),%d5
    6382:	baae ff74      	cmpl %fp@(-140),%d5
    6386:	6f00 0a8a      	blew 6e12 <_vfprintf_r+0x1136>
    638a:	28ae ff50      	movel %fp@(-176),%a4@
    638e:	296e ff4c 0004 	movel %fp@(-180),%a4@(4)
    6394:	d5ee ff4c      	addal %fp@(-180),%a2
    6398:	2d4a ff94      	movel %a2,%fp@(-108)
    639c:	202e ff90      	movel %fp@(-112),%d0
    63a0:	5280           	addql #1,%d0
    63a2:	2d40 ff90      	movel %d0,%fp@(-112)
    63a6:	7e07           	moveq #7,%d7
    63a8:	be80           	cmpl %d0,%d7
    63aa:	6d00 0b46      	bltw 6ef2 <_vfprintf_r+0x1216>
    63ae:	508c           	addql #8,%a4
    63b0:	2a6e ff40      	moveal %fp@(-192),%a5
    63b4:	538d           	subql #1,%a5
    63b6:	bafc 0000      	cmpaw #0,%a5
    63ba:	6f00 fd22      	blew 60de <_vfprintf_r+0x402>
    63be:	202e ff90      	movel %fp@(-112),%d0
    63c2:	7210           	moveq #16,%d1
    63c4:	b28d           	cmpl %a5,%d1
    63c6:	6c40           	bges 6408 <_vfprintf_r+0x72c>
    63c8:	748c           	moveq #-116,%d2
    63ca:	d48e           	addl %fp,%d2
    63cc:	47f9 0000 7aa8 	lea 7aa8 <__sprint_r>,%a3
    63d2:	2a2e ff30      	movel %fp@(-208),%d5
    63d6:	2c2e ff2c      	movel %fp@(-212),%d6
    63da:	28bc 0001 2a93 	movel #76435,%a4@
    63e0:	7e10           	moveq #16,%d7
    63e2:	2947 0004      	movel %d7,%a4@(4)
    63e6:	45ea 0010      	lea %a2@(16),%a2
    63ea:	2d4a ff94      	movel %a2,%fp@(-108)
    63ee:	5280           	addql #1,%d0
    63f0:	2d40 ff90      	movel %d0,%fp@(-112)
    63f4:	7207           	moveq #7,%d1
    63f6:	b280           	cmpl %d0,%d1
    63f8:	6d00 0c76      	bltw 7070 <_vfprintf_r+0x1394>
    63fc:	508c           	addql #8,%a4
    63fe:	4bed fff0      	lea %a5@(-16),%a5
    6402:	7e10           	moveq #16,%d7
    6404:	be8d           	cmpl %a5,%d7
    6406:	6dd2           	blts 63da <_vfprintf_r+0x6fe>
    6408:	28bc 0001 2a93 	movel #76435,%a4@
    640e:	294d 0004      	movel %a5,%a4@(4)
    6412:	d5cd           	addal %a5,%a2
    6414:	2d4a ff94      	movel %a2,%fp@(-108)
    6418:	5280           	addql #1,%d0
    641a:	2d40 ff90      	movel %d0,%fp@(-112)
    641e:	7207           	moveq #7,%d1
    6420:	b280           	cmpl %d0,%d1
    6422:	6c00 fcb8      	bgew 60dc <_vfprintf_r+0x400>
    6426:	486e ff8c      	pea %fp@(-116)
    642a:	2f2e ff2c      	movel %fp@(-212),%sp@-
    642e:	2f2e ff30      	movel %fp@(-208),%sp@-
    6432:	4eb9 0000 7aa8 	jsr 7aa8 <__sprint_r>
    6438:	4fef 000c      	lea %sp@(12),%sp
