
simple_020.elf:     file format elf32-m68k


Disassembly of section .text.reloc:

00002000 <_reloc>:
    2000:	41fa fffe      	lea %pc@(2000 <_reloc>),%a0
    2004:	43f9 0000 2000 	lea 2000 <_reloc>,%a1
    200a:	203c 0000 20a0 	movel #8352,%d0
    2010:	9089           	subl %a1,%d0
    2012:	e488           	lsrl #2,%d0
    2014:	5380           	subql #1,%d0
    2016:	22d8           	movel %a0@+,%a1@+
    2018:	51c8 fffc      	dbf %d0,2016 <_reloc+0x16>
    201c:	4ef9 0000 2024 	jmp 2024 <_postreloc>

Disassembly of section .text.postreloc:

00002024 <_postreloc>:
	...

00002030 <POSTRELOC>:
    2030:	203c 0001 3328 	movel #78632,%d0
    2036:	9089           	subl %a1,%d0
    2038:	e488           	lsrl #2,%d0
    203a:	2200           	movel %d0,%d1
    203c:	4841           	swap %d1
    203e:	6002           	bras 2042 <POSTRELOC+0x12>
    2040:	22d8           	movel %a0@+,%a1@+
    2042:	51c8 fffc      	dbf %d0,2040 <POSTRELOC+0x10>
    2046:	51c9 fff8      	dbf %d1,2040 <POSTRELOC+0x10>

0000204a <_enter>:
    204a:	2e78 0414      	moveal 414 <SDB_MEMSIZE>,%sp
    204e:	612c           	bsrs 207c <_bss_init>
    2050:	4eb9 0001 0c3c 	jsr 10c3c <_init>
    2056:	2f3c 0001 0c50 	movel #68688,%sp@-
    205c:	4eb9 0000 220c 	jsr 220c <atexit>
    2062:	2eb8 0000      	movel 0 <DUART_MR1A>,%sp@
    2066:	2f3c 0001 3328 	movel #78632,%sp@-
    206c:	41f9 0000 2194 	lea 2194 <main>,%a0
    2072:	4e90           	jsr %a0@
    2074:	2f00           	movel %d0,%sp@-
    2076:	4eb9 0000 2224 	jsr 2224 <exit>

0000207c <_bss_init>:
    207c:	203c 0002 9228 	movel #168488,%d0
    2082:	90bc 0001 3328 	subl #78632,%d0
    2088:	e488           	lsrl #2,%d0
    208a:	41f9 0001 3328 	lea 13328 <__TMC_END__>,%a0
    2090:	6002           	bras 2094 <_bss_init+0x18>
    2092:	4298           	clrl %a0@+
    2094:	51c8 fffc      	dbf %d0,2092 <_bss_init+0x16>
    2098:	4e75           	rts
    209a:	0000 0000      	orib #0,%d0
	...

Disassembly of section .text:

000020a4 <deregister_tm_clones>:
    20a4:	203c 0001 3328 	movel #78632,%d0
    20aa:	0c80 0001 3328 	cmpil #78632,%d0
    20b0:	6716           	beqs 20c8 <deregister_tm_clones+0x24>
    20b2:	41f9 0000 0000 	lea 0 <DUART_MR1A>,%a0
    20b8:	b0fc 0000      	cmpaw #0,%a0
    20bc:	670a           	beqs 20c8 <deregister_tm_clones+0x24>
    20be:	4879 0001 3328 	pea 13328 <__TMC_END__>
    20c4:	4e90           	jsr %a0@
    20c6:	588f           	addql #4,%sp
    20c8:	4e75           	rts

000020ca <register_tm_clones>:
    20ca:	203c 0001 3328 	movel #78632,%d0
    20d0:	0480 0001 3328 	subil #78632,%d0
    20d6:	2200           	movel %d0,%d1
    20d8:	e481           	asrl #2,%d1
    20da:	d080           	addl %d0,%d0
    20dc:	9180           	subxl %d0,%d0
    20de:	4480           	negl %d0
    20e0:	d081           	addl %d1,%d0
    20e2:	e280           	asrl #1,%d0
    20e4:	6718           	beqs 20fe <register_tm_clones+0x34>
    20e6:	41f9 0000 0000 	lea 0 <DUART_MR1A>,%a0
    20ec:	b0fc 0000      	cmpaw #0,%a0
    20f0:	670c           	beqs 20fe <register_tm_clones+0x34>
    20f2:	2f00           	movel %d0,%sp@-
    20f4:	4879 0001 3328 	pea 13328 <__TMC_END__>
    20fa:	4e90           	jsr %a0@
    20fc:	508f           	addql #8,%sp
    20fe:	4e75           	rts

00002100 <__do_global_dtors_aux>:
    2100:	2f0a           	movel %a2,%sp@-
    2102:	2f02           	movel %d2,%sp@-
    2104:	4a39 0001 332c 	tstb 1332c <completed.2>
    210a:	665e           	bnes 216a <__do_global_dtors_aux+0x6a>
    210c:	45f9 0001 0874 	lea 10874 <__DTOR_LIST__>,%a2
    2112:	2039 0001 332e 	movel 1332e <dtor_idx.1>,%d0
    2118:	243c 0001 0878 	movel #67704,%d2
    211e:	0482 0001 0874 	subil #67700,%d2
    2124:	e482           	asrl #2,%d2
    2126:	5382           	subql #1,%d2
    2128:	b480           	cmpl %d0,%d2
    212a:	631c           	blss 2148 <__do_global_dtors_aux+0x48>
    212c:	5280           	addql #1,%d0
    212e:	23c0 0001 332e 	movel %d0,1332e <dtor_idx.1>
    2134:	d080           	addl %d0,%d0
    2136:	d080           	addl %d0,%d0
    2138:	2072 0800      	moveal %a2@(0,%d0:l),%a0
    213c:	4e90           	jsr %a0@
    213e:	2039 0001 332e 	movel 1332e <dtor_idx.1>,%d0
    2144:	b480           	cmpl %d0,%d2
    2146:	62e4           	bhis 212c <__do_global_dtors_aux+0x2c>
    2148:	4eba ff5a      	jsr %pc@(20a4 <deregister_tm_clones>)
    214c:	41f9 0000 0000 	lea 0 <DUART_MR1A>,%a0
    2152:	b0fc 0000      	cmpaw #0,%a0
    2156:	670a           	beqs 2162 <__do_global_dtors_aux+0x62>
    2158:	4879 0000 20a0 	pea 20a0 <__EH_FRAME_BEGIN__>
    215e:	4e90           	jsr %a0@
    2160:	588f           	addql #4,%sp
    2162:	13fc 0001 0001 	moveb #1,1332c <completed.2>
    2168:	332c 
    216a:	241f           	movel %sp@+,%d2
    216c:	245f           	moveal %sp@+,%a2
    216e:	4e75           	rts

00002170 <call___do_global_dtors_aux>:
    2170:	4e75           	rts

00002172 <frame_dummy>:
    2172:	41f9 0000 0000 	lea 0 <DUART_MR1A>,%a0
    2178:	b0fc 0000      	cmpaw #0,%a0
    217c:	6710           	beqs 218e <frame_dummy+0x1c>
    217e:	4879 0001 3332 	pea 13332 <object.0>
    2184:	4879 0000 20a0 	pea 20a0 <__EH_FRAME_BEGIN__>
    218a:	4e90           	jsr %a0@
    218c:	508f           	addql #8,%sp
    218e:	6000 ff3a      	braw 20ca <register_tm_clones>

00002192 <call_frame_dummy>:
    2192:	4e75           	rts

00002194 <main>:
    2194:	4e56 fff0      	linkw %fp,#-16
    2198:	2d7c 4017 3333 	movel #1075262259,%fp@(-8)
    219e:	fff8 
    21a0:	2d7c 3333 3333 	movel #858993459,%fp@(-4)
    21a6:	fffc 
    21a8:	2d7c 4006 6666 	movel #1074161254,%fp@(-16)
    21ae:	fff0 
    21b0:	2d7c 6666 6666 	movel #1717986918,%fp@(-12)
    21b6:	fff4 
    21b8:	f22e 5480 fff8 	fmoved %fp@(-8),%fp1
    21be:	f22e 5400 fff0 	fmoved %fp@(-16),%fp0
    21c4:	f200 0423      	fmulx %fp1,%fp0
    21c8:	f200 0003      	fintrzx %fp0,%fp0
    21cc:	f200 6000      	fmovel %fp0,%d0
    21d0:	2f00           	movel %d0,%sp@-
    21d2:	4879 0001 087c 	pea 1087c <_dtors_end>
    21d8:	4eb9 0000 2270 	jsr 2270 <printf>
    21de:	508f           	addql #8,%sp
    21e0:	f22e 5480 fff8 	fmoved %fp@(-8),%fp1
    21e6:	f22e 5400 fff0 	fmoved %fp@(-16),%fp0
    21ec:	f200 0423      	fmulx %fp1,%fp0
    21f0:	f227 7400      	fmoved %fp0,%sp@-
    21f4:	4879 0001 08a4 	pea 108a4 <_dtors_end+0x28>
    21fa:	4eb9 0000 2270 	jsr 2270 <printf>
    2200:	4fef 000c      	lea %sp@(12),%sp
    2204:	4280           	clrl %d0
    2206:	4e5e           	unlk %fp
    2208:	4e75           	rts
	...

0000220c <atexit>:
    220c:	42a7           	clrl %sp@-
    220e:	42a7           	clrl %sp@-
    2210:	2f2f 000c      	movel %sp@(12),%sp@-
    2214:	42a7           	clrl %sp@-
    2216:	4eb9 0000 26b0 	jsr 26b0 <__register_exitproc>
    221c:	4fef 0010      	lea %sp@(16),%sp
    2220:	4e75           	rts
	...

00002224 <exit>:
    2224:	2f02           	movel %d2,%sp@-
    2226:	242f 0008      	movel %sp@(8),%d2
    222a:	42a7           	clrl %sp@-
    222c:	2f02           	movel %d2,%sp@-
    222e:	4eb9 0000 2748 	jsr 2748 <__call_exitprocs>
    2234:	2079 0001 3484 	moveal 13484 <__stdio_exit_handler>,%a0
    223a:	508f           	addql #8,%sp
    223c:	b0fc 0000      	cmpaw #0,%a0
    2240:	6702           	beqs 2244 <exit+0x20>
    2242:	4e90           	jsr %a0@
    2244:	2f02           	movel %d2,%sp@-
    2246:	4eb9 0000 a734 	jsr a734 <_exit>

0000224c <_printf_r>:
    224c:	4e56 0000      	linkw %fp,#0
    2250:	206e 0008      	moveal %fp@(8),%a0
    2254:	486e 0010      	pea %fp@(16)
    2258:	2f2e 000c      	movel %fp@(12),%sp@-
    225c:	2f28 0008      	movel %a0@(8),%sp@-
    2260:	2f08           	movel %a0,%sp@-
    2262:	4eb9 0000 3048 	jsr 3048 <_vfprintf_r>
    2268:	4fef 0010      	lea %sp@(16),%sp
    226c:	4e5e           	unlk %fp
    226e:	4e75           	rts

00002270 <printf>:
    2270:	4e56 0000      	linkw %fp,#0
    2274:	2079 0001 2c70 	moveal 12c70 <_impure_ptr>,%a0
    227a:	486e 000c      	pea %fp@(12)
    227e:	2f2e 0008      	movel %fp@(8),%sp@-
    2282:	2f28 0008      	movel %a0@(8),%sp@-
    2286:	2f08           	movel %a0,%sp@-
    2288:	4eb9 0000 3048 	jsr 3048 <_vfprintf_r>
    228e:	4fef 0010      	lea %sp@(16),%sp
    2292:	4e5e           	unlk %fp
    2294:	4e75           	rts
	...

00002298 <__fp_lock>:
    2298:	7000           	moveq #0,%d0
    229a:	4e75           	rts

0000229c <stdio_exit_handler>:
    229c:	4879 0001 2c64 	pea 12c64 <__sglue>
    22a2:	4879 0000 4e4c 	pea 4e4c <_fclose_r>
    22a8:	4879 0001 2c74 	pea 12c74 <_impure_data>
    22ae:	4eb9 0000 25e4 	jsr 25e4 <_fwalk_sglue>
    22b4:	4fef 000c      	lea %sp@(12),%sp
    22b8:	4e75           	rts

000022ba <cleanup_stdio>:
    22ba:	2f0a           	movel %a2,%sp@-
    22bc:	246f 0008      	moveal %sp@(8),%a2
    22c0:	202a 0004      	movel %a2@(4),%d0
    22c4:	0c80 0001 334c 	cmpil #78668,%d0
    22ca:	670c           	beqs 22d8 <cleanup_stdio+0x1e>
    22cc:	2f00           	movel %d0,%sp@-
    22ce:	2f0a           	movel %a2,%sp@-
    22d0:	4eb9 0000 4e4c 	jsr 4e4c <_fclose_r>
    22d6:	508f           	addql #8,%sp
    22d8:	202a 0008      	movel %a2@(8),%d0
    22dc:	0c80 0001 33b4 	cmpil #78772,%d0
    22e2:	670c           	beqs 22f0 <cleanup_stdio+0x36>
    22e4:	2f00           	movel %d0,%sp@-
    22e6:	2f0a           	movel %a2,%sp@-
    22e8:	4eb9 0000 4e4c 	jsr 4e4c <_fclose_r>
    22ee:	508f           	addql #8,%sp
    22f0:	202a 000c      	movel %a2@(12),%d0
    22f4:	0c80 0001 341c 	cmpil #78876,%d0
    22fa:	670c           	beqs 2308 <cleanup_stdio+0x4e>
    22fc:	2f00           	movel %d0,%sp@-
    22fe:	2f0a           	movel %a2,%sp@-
    2300:	4eb9 0000 4e4c 	jsr 4e4c <_fclose_r>
    2306:	508f           	addql #8,%sp
    2308:	245f           	moveal %sp@+,%a2
    230a:	4e75           	rts

0000230c <__fp_unlock>:
    230c:	7000           	moveq #0,%d0
    230e:	4e75           	rts

00002310 <global_stdio_init.part.0>:
    2310:	2f0b           	movel %a3,%sp@-
    2312:	2f0a           	movel %a2,%sp@-
    2314:	23fc 0000 229c 	movel #8860,13484 <__stdio_exit_handler>
    231a:	0001 3484 
    231e:	47f9 0001 334c 	lea 1334c <__sf>,%a3
    2324:	4293           	clrl %a3@
    2326:	42b9 0001 3350 	clrl 13350 <__sf+0x4>
    232c:	42b9 0001 3354 	clrl 13354 <__sf+0x8>
    2332:	42b9 0001 33b0 	clrl 133b0 <__sf+0x64>
    2338:	23fc 0004 0000 	movel #262144,13358 <__sf+0xc>
    233e:	0001 3358 
    2342:	42b9 0001 335c 	clrl 1335c <__sf+0x10>
    2348:	42b9 0001 3360 	clrl 13360 <__sf+0x14>
    234e:	42b9 0001 3364 	clrl 13364 <__sf+0x18>
    2354:	4878 0008      	pea 8 <DIVIDE_BY_ZERO>
    2358:	42a7           	clrl %sp@-
    235a:	4879 0001 33a8 	pea 133a8 <__sf+0x5c>
    2360:	45f9 0000 263c 	lea 263c <memset>,%a2
    2366:	4e92           	jsr %a2@
    2368:	23cb 0001 3368 	movel %a3,13368 <__sf+0x1c>
    236e:	23fc 0000 51ac 	movel #20908,1336c <__sf+0x20>
    2374:	0001 336c 
    2378:	23fc 0000 51e8 	movel #20968,13370 <__sf+0x24>
    237e:	0001 3370 
    2382:	23fc 0000 526e 	movel #21102,13374 <__sf+0x28>
    2388:	0001 3374 
    238c:	23fc 0000 52ae 	movel #21166,13378 <__sf+0x2c>
    2392:	0001 3378 
    2396:	42b9 0001 33b4 	clrl 133b4 <__sf+0x68>
    239c:	42b9 0001 33b8 	clrl 133b8 <__sf+0x6c>
    23a2:	42b9 0001 33bc 	clrl 133bc <__sf+0x70>
    23a8:	42b9 0001 3418 	clrl 13418 <__sf+0xcc>
    23ae:	23fc 0009 0001 	movel #589825,133c0 <__sf+0x74>
    23b4:	0001 33c0 
    23b8:	42b9 0001 33c4 	clrl 133c4 <__sf+0x78>
    23be:	42b9 0001 33c8 	clrl 133c8 <__sf+0x7c>
    23c4:	42b9 0001 33cc 	clrl 133cc <__sf+0x80>
    23ca:	4878 0008      	pea 8 <DIVIDE_BY_ZERO>
    23ce:	42a7           	clrl %sp@-
    23d0:	4879 0001 3410 	pea 13410 <__sf+0xc4>
    23d6:	4e92           	jsr %a2@
    23d8:	23fc 0001 33b4 	movel #78772,133d0 <__sf+0x84>
    23de:	0001 33d0 
    23e2:	23fc 0000 51ac 	movel #20908,133d4 <__sf+0x88>
    23e8:	0001 33d4 
    23ec:	23fc 0000 51e8 	movel #20968,133d8 <__sf+0x8c>
    23f2:	0001 33d8 
    23f6:	23fc 0000 526e 	movel #21102,133dc <__sf+0x90>
    23fc:	0001 33dc 
    2400:	23fc 0000 52ae 	movel #21166,133e0 <__sf+0x94>
    2406:	0001 33e0 
    240a:	42b9 0001 341c 	clrl 1341c <__sf+0xd0>
    2410:	42b9 0001 3420 	clrl 13420 <__sf+0xd4>
    2416:	42b9 0001 3424 	clrl 13424 <__sf+0xd8>
    241c:	42b9 0001 3480 	clrl 13480 <__sf+0x134>
    2422:	23fc 0012 0002 	movel #1179650,13428 <__sf+0xdc>
    2428:	0001 3428 
    242c:	42b9 0001 342c 	clrl 1342c <__sf+0xe0>
    2432:	42b9 0001 3430 	clrl 13430 <__sf+0xe4>
    2438:	42b9 0001 3434 	clrl 13434 <__sf+0xe8>
    243e:	4878 0008      	pea 8 <DIVIDE_BY_ZERO>
    2442:	42a7           	clrl %sp@-
    2444:	4879 0001 3478 	pea 13478 <__sf+0x12c>
    244a:	4e92           	jsr %a2@
    244c:	23fc 0001 341c 	movel #78876,13438 <__sf+0xec>
    2452:	0001 3438 
    2456:	23fc 0000 51ac 	movel #20908,1343c <__sf+0xf0>
    245c:	0001 343c 
    2460:	23fc 0000 51e8 	movel #20968,13440 <__sf+0xf4>
    2466:	0001 3440 
    246a:	23fc 0000 526e 	movel #21102,13444 <__sf+0xf8>
    2470:	0001 3444 
    2474:	23fc 0000 52ae 	movel #21166,13448 <__sf+0xfc>
    247a:	0001 3448 
    247e:	4fef 0024      	lea %sp@(36),%sp
    2482:	245f           	moveal %sp@+,%a2
    2484:	265f           	moveal %sp@+,%a3
    2486:	4e75           	rts

00002488 <__sfp>:
    2488:	2f0b           	movel %a3,%sp@-
    248a:	2f0a           	movel %a2,%sp@-
    248c:	4ab9 0001 3484 	tstl 13484 <__stdio_exit_handler>
    2492:	6700 00d2      	beqw 2566 <__sfp+0xde>
    2496:	47f9 0001 2c64 	lea 12c64 <__sglue>,%a3
    249c:	246b 0008      	moveal %a3@(8),%a2
    24a0:	202b 0004      	movel %a3@(4),%d0
    24a4:	5380           	subql #1,%d0
    24a6:	6b14           	bmis 24bc <__sfp+0x34>
    24a8:	4a6a 000c      	tstw %a2@(12)
    24ac:	6726           	beqs 24d4 <__sfp+0x4c>
    24ae:	45ea 0068      	lea %a2@(104),%a2
    24b2:	51c8 fff4      	dbf %d0,24a8 <__sfp+0x20>
    24b6:	4240           	clrw %d0
    24b8:	5380           	subql #1,%d0
    24ba:	64ec           	bccs 24a8 <__sfp+0x20>
    24bc:	2453           	moveal %a3@,%a2
    24be:	b4fc 0000      	cmpaw #0,%a2
    24c2:	6762           	beqs 2526 <__sfp+0x9e>
    24c4:	264a           	moveal %a2,%a3
    24c6:	246b 0008      	moveal %a3@(8),%a2
    24ca:	202b 0004      	movel %a3@(4),%d0
    24ce:	5380           	subql #1,%d0
    24d0:	6ad6           	bpls 24a8 <__sfp+0x20>
    24d2:	60e8           	bras 24bc <__sfp+0x34>
    24d4:	357c ffff 000e 	movew #-1,%a2@(14)
    24da:	357c 0001 000c 	movew #1,%a2@(12)
    24e0:	42aa 0064      	clrl %a2@(100)
    24e4:	4292           	clrl %a2@
    24e6:	42aa 0008      	clrl %a2@(8)
    24ea:	42aa 0004      	clrl %a2@(4)
    24ee:	42aa 0010      	clrl %a2@(16)
    24f2:	42aa 0014      	clrl %a2@(20)
    24f6:	42aa 0018      	clrl %a2@(24)
    24fa:	4878 0008      	pea 8 <DIVIDE_BY_ZERO>
    24fe:	42a7           	clrl %sp@-
    2500:	486a 005c      	pea %a2@(92)
    2504:	4eb9 0000 263c 	jsr 263c <memset>
    250a:	42aa 0030      	clrl %a2@(48)
    250e:	42aa 0034      	clrl %a2@(52)
    2512:	42aa 0044      	clrl %a2@(68)
    2516:	42aa 0048      	clrl %a2@(72)
    251a:	4fef 000c      	lea %sp@(12),%sp
    251e:	200a           	movel %a2,%d0
    2520:	245f           	moveal %sp@+,%a2
    2522:	265f           	moveal %sp@+,%a3
    2524:	4e75           	rts
    2526:	4878 01ac      	pea 1ac <DBL_MANT_DIG+0x177>
    252a:	2f2f 0010      	movel %sp@(16),%sp@-
    252e:	4eb9 0000 2804 	jsr 2804 <_malloc_r>
    2534:	2440           	moveal %d0,%a2
    2536:	508f           	addql #8,%sp
    2538:	4a80           	tstl %d0
    253a:	673a           	beqs 2576 <__sfp+0xee>
    253c:	4292           	clrl %a2@
    253e:	7004           	moveq #4,%d0
    2540:	2540 0004      	movel %d0,%a2@(4)
    2544:	41ea 000c      	lea %a2@(12),%a0
    2548:	2548 0008      	movel %a0,%a2@(8)
    254c:	4878 01a0      	pea 1a0 <DBL_MANT_DIG+0x16b>
    2550:	42a7           	clrl %sp@-
    2552:	2f08           	movel %a0,%sp@-
    2554:	4eb9 0000 263c 	jsr 263c <memset>
    255a:	268a           	movel %a2,%a3@
    255c:	4fef 000c      	lea %sp@(12),%sp
    2560:	264a           	moveal %a2,%a3
    2562:	6000 ff62      	braw 24c6 <__sfp+0x3e>
    2566:	4eb9 0000 2310 	jsr 2310 <global_stdio_init.part.0>
    256c:	47f9 0001 2c64 	lea 12c64 <__sglue>,%a3
    2572:	6000 ff28      	braw 249c <__sfp+0x14>
    2576:	4293           	clrl %a3@
    2578:	700c           	moveq #12,%d0
    257a:	206f 000c      	moveal %sp@(12),%a0
    257e:	2080           	movel %d0,%a0@
    2580:	200a           	movel %a2,%d0
    2582:	245f           	moveal %sp@+,%a2
    2584:	265f           	moveal %sp@+,%a3
    2586:	4e75           	rts

00002588 <__sinit>:
    2588:	206f 0004      	moveal %sp@(4),%a0
    258c:	4aa8 0032      	tstl %a0@(50)
    2590:	6702           	beqs 2594 <__sinit+0xc>
    2592:	4e75           	rts
    2594:	217c 0000 22ba 	movel #8890,%a0@(50)
    259a:	0032 
    259c:	4ab9 0001 3484 	tstl 13484 <__stdio_exit_handler>
    25a2:	66ee           	bnes 2592 <__sinit+0xa>
    25a4:	4ef9 0000 2310 	jmp 2310 <global_stdio_init.part.0>

000025aa <__sfp_lock_acquire>:
    25aa:	4e75           	rts

000025ac <__sfp_lock_release>:
    25ac:	4e75           	rts

000025ae <__fp_lock_all>:
    25ae:	4879 0001 2c64 	pea 12c64 <__sglue>
    25b4:	4879 0000 2298 	pea 2298 <__fp_lock>
    25ba:	42a7           	clrl %sp@-
    25bc:	4eb9 0000 25e4 	jsr 25e4 <_fwalk_sglue>
    25c2:	4fef 000c      	lea %sp@(12),%sp
    25c6:	4e75           	rts

000025c8 <__fp_unlock_all>:
    25c8:	4879 0001 2c64 	pea 12c64 <__sglue>
    25ce:	4879 0000 230c 	pea 230c <__fp_unlock>
    25d4:	42a7           	clrl %sp@-
    25d6:	4eb9 0000 25e4 	jsr 25e4 <_fwalk_sglue>
    25dc:	4fef 000c      	lea %sp@(12),%sp
    25e0:	4e75           	rts
	...

000025e4 <_fwalk_sglue>:
    25e4:	48e7 3838      	moveml %d2-%d4/%a2-%a4,%sp@-
    25e8:	282f 001c      	movel %sp@(28),%d4
    25ec:	286f 0020      	moveal %sp@(32),%a4
    25f0:	266f 0024      	moveal %sp@(36),%a3
    25f4:	7600           	moveq #0,%d3
    25f6:	246b 0008      	moveal %a3@(8),%a2
    25fa:	242b 0004      	movel %a3@(4),%d2
    25fe:	5382           	subql #1,%d2
    2600:	6b28           	bmis 262a <_fwalk_sglue+0x46>
    2602:	0c6a 0001 000c 	cmpiw #1,%a2@(12)
    2608:	6312           	blss 261c <_fwalk_sglue+0x38>
    260a:	0c6a ffff 000e 	cmpiw #-1,%a2@(14)
    2610:	670a           	beqs 261c <_fwalk_sglue+0x38>
    2612:	2f0a           	movel %a2,%sp@-
    2614:	2f04           	movel %d4,%sp@-
    2616:	4e94           	jsr %a4@
    2618:	8680           	orl %d0,%d3
    261a:	508f           	addql #8,%sp
    261c:	45ea 0068      	lea %a2@(104),%a2
    2620:	51ca ffe0      	dbf %d2,2602 <_fwalk_sglue+0x1e>
    2624:	4242           	clrw %d2
    2626:	5382           	subql #1,%d2
    2628:	64d8           	bccs 2602 <_fwalk_sglue+0x1e>
    262a:	2653           	moveal %a3@,%a3
    262c:	b6fc 0000      	cmpaw #0,%a3
    2630:	66c4           	bnes 25f6 <_fwalk_sglue+0x12>
    2632:	2003           	movel %d3,%d0
    2634:	4cdf 1c1c      	moveml %sp@+,%d2-%d4/%a2-%a4
    2638:	4e75           	rts
	...

0000263c <memset>:
    263c:	206f 0004      	moveal %sp@(4),%a0
    2640:	202f 0008      	movel %sp@(8),%d0
    2644:	222f 000c      	movel %sp@(12),%d1
    2648:	0c81 0000 0010 	cmpil #16,%d1
    264e:	6500 0054      	bcsw 26a4 <memset+0x68>
    2652:	2f02           	movel %d2,%sp@-
    2654:	1400           	moveb %d0,%d2
    2656:	e188           	lsll #8,%d0
    2658:	1002           	moveb %d2,%d0
    265a:	3400           	movew %d0,%d2
    265c:	4840           	swap %d0
    265e:	3002           	movew %d2,%d0
    2660:	2408           	movel %a0,%d2
    2662:	4482           	negl %d2
    2664:	0282 0000 0003 	andil #3,%d2
    266a:	6700 0014      	beqw 2680 <memset+0x44>
    266e:	9282           	subl %d2,%d1
    2670:	e28a           	lsrl #1,%d2
    2672:	6400 0004      	bccw 2678 <memset+0x3c>
    2676:	10c0           	moveb %d0,%a0@+
    2678:	e28a           	lsrl #1,%d2
    267a:	6400 0004      	bccw 2680 <memset+0x44>
    267e:	30c0           	movew %d0,%a0@+
    2680:	2401           	movel %d1,%d2
    2682:	e48a           	lsrl #2,%d2
    2684:	5382           	subql #1,%d2
    2686:	20c0           	movel %d0,%a0@+
    2688:	51ca fffc      	dbf %d2,2686 <memset+0x4a>
    268c:	0482 0001 0000 	subil #65536,%d2
    2692:	6a00 fff2      	bplw 2686 <memset+0x4a>
    2696:	0281 0000 0003 	andil #3,%d1
    269c:	241f           	movel %sp@+,%d2
    269e:	6000 0004      	braw 26a4 <memset+0x68>
    26a2:	10c0           	moveb %d0,%a0@+
    26a4:	51c9 fffc      	dbf %d1,26a2 <memset+0x66>
    26a8:	202f 0004      	movel %sp@(4),%d0
    26ac:	4e75           	rts
	...

000026b0 <__register_exitproc>:
    26b0:	2f03           	movel %d3,%sp@-
    26b2:	2f02           	movel %d2,%sp@-
    26b4:	222f 000c      	movel %sp@(12),%d1
    26b8:	2079 0001 3618 	moveal 13618 <__atexit>,%a0
    26be:	b0fc 0000      	cmpaw #0,%a0
    26c2:	674c           	beqs 2710 <__register_exitproc+0x60>
    26c4:	2028 0004      	movel %a0@(4),%d0
    26c8:	741f           	moveq #31,%d2
    26ca:	b480           	cmpl %d0,%d2
    26cc:	6d70           	blts 273e <__register_exitproc+0x8e>
    26ce:	4a81           	tstl %d1
    26d0:	6722           	beqs 26f4 <__register_exitproc+0x44>
    26d2:	2240           	moveal %d0,%a1
    26d4:	d3c0           	addal %d0,%a1
    26d6:	d3c9           	addal %a1,%a1
    26d8:	43f0 9800      	lea %a0@(0,%a1:l),%a1
    26dc:	236f 0014 0088 	movel %sp@(20),%a1@(136)
    26e2:	7401           	moveq #1,%d2
    26e4:	e1aa           	lsll %d0,%d2
    26e6:	85a8 0188      	orl %d2,%a0@(392)
    26ea:	236f 0018 0108 	movel %sp@(24),%a1@(264)
    26f0:	5581           	subql #2,%d1
    26f2:	672e           	beqs 2722 <__register_exitproc+0x72>
    26f4:	2200           	movel %d0,%d1
    26f6:	5281           	addql #1,%d1
    26f8:	2141 0004      	movel %d1,%a0@(4)
    26fc:	5480           	addql #2,%d0
    26fe:	d080           	addl %d0,%d0
    2700:	d080           	addl %d0,%d0
    2702:	21af 0010 0800 	movel %sp@(16),%a0@(0,%d0:l)
    2708:	7000           	moveq #0,%d0
    270a:	241f           	movel %sp@+,%d2
    270c:	261f           	movel %sp@+,%d3
    270e:	4e75           	rts
    2710:	23fc 0001 3488 	movel #78984,13618 <__atexit>
    2716:	0001 3618 
    271a:	41f9 0001 3488 	lea 13488 <__atexit0>,%a0
    2720:	60a2           	bras 26c4 <__register_exitproc+0x14>
    2722:	85a8 018c      	orl %d2,%a0@(396)
    2726:	2200           	movel %d0,%d1
    2728:	5281           	addql #1,%d1
    272a:	2141 0004      	movel %d1,%a0@(4)
    272e:	5480           	addql #2,%d0
    2730:	d080           	addl %d0,%d0
    2732:	d080           	addl %d0,%d0
    2734:	21af 0010 0800 	movel %sp@(16),%a0@(0,%d0:l)
    273a:	7000           	moveq #0,%d0
    273c:	60cc           	bras 270a <__register_exitproc+0x5a>
    273e:	70ff           	moveq #-1,%d0
    2740:	241f           	movel %sp@+,%d2
    2742:	261f           	movel %sp@+,%d3
    2744:	4e75           	rts
	...

00002748 <__call_exitprocs>:
    2748:	48e7 3e30      	moveml %d2-%d6/%a2-%a3,%sp@-
    274c:	2a2f 0020      	movel %sp@(32),%d5
    2750:	262f 0024      	movel %sp@(36),%d3
    2754:	2679 0001 3618 	moveal 13618 <__atexit>,%a3
    275a:	7801           	moveq #1,%d4
    275c:	b6fc 0000      	cmpaw #0,%a3
    2760:	675a           	beqs 27bc <__call_exitprocs+0x74>
    2762:	202b 0004      	movel %a3@(4),%d0
    2766:	2400           	movel %d0,%d2
    2768:	5382           	subql #1,%d2
    276a:	6b50           	bmis 27bc <__call_exitprocs+0x74>
    276c:	5280           	addql #1,%d0
    276e:	d080           	addl %d0,%d0
    2770:	d080           	addl %d0,%d0
    2772:	45f3 0800      	lea %a3@(0,%d0:l),%a2
    2776:	4a83           	tstl %d3
    2778:	6648           	bnes 27c2 <__call_exitprocs+0x7a>
    277a:	2052           	moveal %a2@,%a0
    277c:	202b 0004      	movel %a3@(4),%d0
    2780:	5380           	subql #1,%d0
    2782:	b480           	cmpl %d0,%d2
    2784:	6770           	beqs 27f6 <__call_exitprocs+0xae>
    2786:	4292           	clrl %a2@
    2788:	b0fc 0000      	cmpaw #0,%a0
    278c:	6722           	beqs 27b0 <__call_exitprocs+0x68>
    278e:	2c2b 0004      	movel %a3@(4),%d6
    2792:	2004           	movel %d4,%d0
    2794:	e5a8           	lsll %d2,%d0
    2796:	2200           	movel %d0,%d1
    2798:	c2ab 0188      	andl %a3@(392),%d1
    279c:	6644           	bnes 27e2 <__call_exitprocs+0x9a>
    279e:	4e90           	jsr %a0@
    27a0:	2039 0001 3618 	movel 13618 <__atexit>,%d0
    27a6:	bcab 0004      	cmpl %a3@(4),%d6
    27aa:	662e           	bnes 27da <__call_exitprocs+0x92>
    27ac:	b7c0           	cmpal %d0,%a3
    27ae:	662a           	bnes 27da <__call_exitprocs+0x92>
    27b0:	598a           	subql #4,%a2
    27b2:	51ca ffc2      	dbf %d2,2776 <__call_exitprocs+0x2e>
    27b6:	4242           	clrw %d2
    27b8:	5382           	subql #1,%d2
    27ba:	64ba           	bccs 2776 <__call_exitprocs+0x2e>
    27bc:	4cdf 0c7c      	moveml %sp@+,%d2-%d6/%a2-%a3
    27c0:	4e75           	rts
    27c2:	b6aa 0100      	cmpl %a2@(256),%d3
    27c6:	67b2           	beqs 277a <__call_exitprocs+0x32>
    27c8:	598a           	subql #4,%a2
    27ca:	51ca fff6      	dbf %d2,27c2 <__call_exitprocs+0x7a>
    27ce:	4242           	clrw %d2
    27d0:	5382           	subql #1,%d2
    27d2:	64ee           	bccs 27c2 <__call_exitprocs+0x7a>
    27d4:	4cdf 0c7c      	moveml %sp@+,%d2-%d6/%a2-%a3
    27d8:	4e75           	rts
    27da:	4a80           	tstl %d0
    27dc:	67de           	beqs 27bc <__call_exitprocs+0x74>
    27de:	2640           	moveal %d0,%a3
    27e0:	6080           	bras 2762 <__call_exitprocs+0x1a>
    27e2:	222a 0080      	movel %a2@(128),%d1
    27e6:	c0ab 018c      	andl %a3@(396),%d0
    27ea:	6610           	bnes 27fc <__call_exitprocs+0xb4>
    27ec:	2f01           	movel %d1,%sp@-
    27ee:	2f05           	movel %d5,%sp@-
    27f0:	4e90           	jsr %a0@
    27f2:	508f           	addql #8,%sp
    27f4:	60aa           	bras 27a0 <__call_exitprocs+0x58>
    27f6:	2742 0004      	movel %d2,%a3@(4)
    27fa:	608c           	bras 2788 <__call_exitprocs+0x40>
    27fc:	2f01           	movel %d1,%sp@-
    27fe:	4e90           	jsr %a0@
    2800:	588f           	addql #4,%sp
    2802:	609c           	bras 27a0 <__call_exitprocs+0x58>

00002804 <_malloc_r>:
    2804:	48e7 3e3e      	moveml %d2-%d6/%a2-%fp,%sp@-
    2808:	266f 002c      	moveal %sp@(44),%a3
    280c:	226f 0030      	moveal %sp@(48),%a1
    2810:	41e9 000b      	lea %a1@(11),%a0
    2814:	7016           	moveq #22,%d0
    2816:	b088           	cmpl %a0,%d0
    2818:	655e           	bcss 2878 <_malloc_r+0x74>
    281a:	7210           	moveq #16,%d1
    281c:	b289           	cmpl %a1,%d1
    281e:	6500 01e2      	bcsw 2a02 <_malloc_r+0x1fe>
    2822:	2f0b           	movel %a3,%sp@-
    2824:	4eb9 0000 4e10 	jsr 4e10 <__malloc_lock>
    282a:	588f           	addql #4,%sp
    282c:	307c 0018      	moveaw #24,%a0
    2830:	7602           	moveq #2,%d3
    2832:	7410           	moveq #16,%d2
    2834:	d1fc 0001 2d94 	addal #77204,%a0
    283a:	2468 0004      	moveal %a0@(4),%a2
    283e:	2008           	movel %a0,%d0
    2840:	5180           	subql #8,%d0
    2842:	b08a           	cmpl %a2,%d0
    2844:	6700 01ee      	beqw 2a34 <_malloc_r+0x230>
    2848:	70fc           	moveq #-4,%d0
    284a:	c0aa 0004      	andl %a2@(4),%d0
    284e:	206a 000c      	moveal %a2@(12),%a0
    2852:	226a 0008      	moveal %a2@(8),%a1
    2856:	2348 000c      	movel %a0,%a1@(12)
    285a:	2149 0008      	movel %a1,%a0@(8)
    285e:	7a01           	moveq #1,%d5
    2860:	8bb2 0804      	orl %d5,%a2@(4,%d0:l)
    2864:	2f0b           	movel %a3,%sp@-
    2866:	4eb9 0000 4e12 	jsr 4e12 <__malloc_unlock>
    286c:	200a           	movel %a2,%d0
    286e:	5080           	addql #8,%d0
    2870:	588f           	addql #4,%sp
    2872:	4cdf 7c7c      	moveml %sp@+,%d2-%d6/%a2-%fp
    2876:	4e75           	rts
    2878:	2408           	movel %a0,%d2
    287a:	76f8           	moveq #-8,%d3
    287c:	c483           	andl %d3,%d2
    287e:	b0fc 0000      	cmpaw #0,%a0
    2882:	6d00 017e      	bltw 2a02 <_malloc_r+0x1fe>
    2886:	b489           	cmpl %a1,%d2
    2888:	6500 0178      	bcsw 2a02 <_malloc_r+0x1fe>
    288c:	2f0b           	movel %a3,%sp@-
    288e:	4eb9 0000 4e10 	jsr 4e10 <__malloc_lock>
    2894:	588f           	addql #4,%sp
    2896:	2602           	movel %d2,%d3
    2898:	0c82 0000 01f7 	cmpil #503,%d2
    289e:	6300 041c      	blsw 2cbc <_malloc_r+0x4b8>
    28a2:	7c09           	moveq #9,%d6
    28a4:	ecab           	lsrl %d6,%d3
    28a6:	6700 0166      	beqw 2a0e <_malloc_r+0x20a>
    28aa:	7004           	moveq #4,%d0
    28ac:	b083           	cmpl %d3,%d0
    28ae:	6500 0324      	bcsw 2bd4 <_malloc_r+0x3d0>
    28b2:	2602           	movel %d2,%d3
    28b4:	ec8b           	lsrl #6,%d3
    28b6:	387c 0038      	moveaw #56,%a4
    28ba:	d9c3           	addal %d3,%a4
    28bc:	7239           	moveq #57,%d1
    28be:	d681           	addl %d1,%d3
    28c0:	2003           	movel %d3,%d0
    28c2:	e788           	lsll #3,%d0
    28c4:	2040           	moveal %d0,%a0
    28c6:	d1fc 0001 2d94 	addal #77204,%a0
    28cc:	43e8 fff8      	lea %a0@(-8),%a1
    28d0:	2468 0004      	moveal %a0@(4),%a2
    28d4:	b5c9           	cmpal %a1,%a2
    28d6:	6732           	beqs 290a <_malloc_r+0x106>
    28d8:	72fc           	moveq #-4,%d1
    28da:	c2aa 0004      	andl %a2@(4),%d1
    28de:	2001           	movel %d1,%d0
    28e0:	9082           	subl %d2,%d0
    28e2:	780f           	moveq #15,%d4
    28e4:	b880           	cmpl %d0,%d4
    28e6:	6d20           	blts 2908 <_malloc_r+0x104>
    28e8:	206a 000c      	moveal %a2@(12),%a0
    28ec:	4a80           	tstl %d0
    28ee:	6c00 0260      	bgew 2b50 <_malloc_r+0x34c>
    28f2:	b1c9           	cmpal %a1,%a0
    28f4:	6714           	beqs 290a <_malloc_r+0x106>
    28f6:	2448           	moveal %a0,%a2
    28f8:	72fc           	moveq #-4,%d1
    28fa:	c2aa 0004      	andl %a2@(4),%d1
    28fe:	2001           	movel %d1,%d0
    2900:	9082           	subl %d2,%d0
    2902:	780f           	moveq #15,%d4
    2904:	b880           	cmpl %d0,%d4
    2906:	6ce0           	bges 28e8 <_malloc_r+0xe4>
    2908:	260c           	movel %a4,%d3
    290a:	2479 0001 2da4 	moveal 12da4 <__malloc_av_+0x10>,%a2
    2910:	b5fc 0001 2d9c 	cmpal #77212,%a2
    2916:	6700 0138      	beqw 2a50 <_malloc_r+0x24c>
    291a:	70fc           	moveq #-4,%d0
    291c:	c0aa 0004      	andl %a2@(4),%d0
    2920:	2200           	movel %d0,%d1
    2922:	9282           	subl %d2,%d1
    2924:	7c0f           	moveq #15,%d6
    2926:	bc81           	cmpl %d1,%d6
    2928:	6d00 03b0      	bltw 2cda <_malloc_r+0x4d6>
    292c:	23fc 0001 2d9c 	movel #77212,12da8 <__malloc_av_+0x14>
    2932:	0001 2da8 
    2936:	23fc 0001 2d9c 	movel #77212,12da4 <__malloc_av_+0x10>
    293c:	0001 2da4 
    2940:	4a81           	tstl %d1
    2942:	6c00 0360      	bgew 2ca4 <_malloc_r+0x4a0>
    2946:	2239 0001 2d98 	movel 12d98 <__malloc_av_+0x4>,%d1
    294c:	0c80 0000 01ff 	cmpil #511,%d0
    2952:	6200 0220      	bhiw 2b74 <_malloc_r+0x370>
    2956:	e688           	lsrl #3,%d0
    2958:	2a00           	movel %d0,%d5
    295a:	e485           	asrl #2,%d5
    295c:	7801           	moveq #1,%d4
    295e:	ebac           	lsll %d5,%d4
    2960:	8284           	orl %d4,%d1
    2962:	23c1 0001 2d98 	movel %d1,12d98 <__malloc_av_+0x4>
    2968:	e788           	lsll #3,%d0
    296a:	2040           	moveal %d0,%a0
    296c:	d1fc 0001 2d9c 	addal #77212,%a0
    2972:	2250           	moveal %a0@,%a1
    2974:	49e8 fff8      	lea %a0@(-8),%a4
    2978:	254c 000c      	movel %a4,%a2@(12)
    297c:	2549 0008      	movel %a1,%a2@(8)
    2980:	208a           	movel %a2,%a0@
    2982:	234a 000c      	movel %a2,%a1@(12)
    2986:	2003           	movel %d3,%d0
    2988:	e480           	asrl #2,%d0
    298a:	7801           	moveq #1,%d4
    298c:	e1ac           	lsll %d0,%d4
    298e:	b284           	cmpl %d4,%d1
    2990:	6500 00d2      	bcsw 2a64 <_malloc_r+0x260>
    2994:	2004           	movel %d4,%d0
    2996:	c081           	andl %d1,%d0
    2998:	660e           	bnes 29a8 <_malloc_r+0x1a4>
    299a:	7afc           	moveq #-4,%d5
    299c:	c685           	andl %d5,%d3
    299e:	5883           	addql #4,%d3
    29a0:	d884           	addl %d4,%d4
    29a2:	2004           	movel %d4,%d0
    29a4:	c081           	andl %d1,%d0
    29a6:	67f6           	beqs 299e <_malloc_r+0x19a>
    29a8:	2003           	movel %d3,%d0
    29aa:	e788           	lsll #3,%d0
    29ac:	2840           	moveal %d0,%a4
    29ae:	d9fc 0001 2d94 	addal #77204,%a4
    29b4:	224c           	moveal %a4,%a1
    29b6:	2a03           	movel %d3,%d5
    29b8:	2069 000c      	moveal %a1@(12),%a0
    29bc:	b1c9           	cmpal %a1,%a0
    29be:	6700 0252      	beqw 2c12 <_malloc_r+0x40e>
    29c2:	72fc           	moveq #-4,%d1
    29c4:	c2a8 0004      	andl %a0@(4),%d1
    29c8:	2001           	movel %d1,%d0
    29ca:	9082           	subl %d2,%d0
    29cc:	2448           	moveal %a0,%a2
    29ce:	2068 000c      	moveal %a0@(12),%a0
    29d2:	7c0f           	moveq #15,%d6
    29d4:	bc80           	cmpl %d0,%d6
    29d6:	6d00 027a      	bltw 2c52 <_malloc_r+0x44e>
    29da:	4a80           	tstl %d0
    29dc:	6dde           	blts 29bc <_malloc_r+0x1b8>
    29de:	7a01           	moveq #1,%d5
    29e0:	8bb2 1804      	orl %d5,%a2@(4,%d1:l)
    29e4:	226a 0008      	moveal %a2@(8),%a1
    29e8:	2348 000c      	movel %a0,%a1@(12)
    29ec:	2149 0008      	movel %a1,%a0@(8)
    29f0:	2f0b           	movel %a3,%sp@-
    29f2:	4eb9 0000 4e12 	jsr 4e12 <__malloc_unlock>
    29f8:	200a           	movel %a2,%d0
    29fa:	5080           	addql #8,%d0
    29fc:	588f           	addql #4,%sp
    29fe:	6000 fe72      	braw 2872 <_malloc_r+0x6e>
    2a02:	780c           	moveq #12,%d4
    2a04:	2684           	movel %d4,%a3@
    2a06:	7000           	moveq #0,%d0
    2a08:	4cdf 7c7c      	moveml %sp@+,%d2-%d6/%a2-%fp
    2a0c:	4e75           	rts
    2a0e:	203c 0000 0200 	movel #512,%d0
    2a14:	7640           	moveq #64,%d3
    2a16:	387c 003f      	moveaw #63,%a4
    2a1a:	2040           	moveal %d0,%a0
    2a1c:	d1fc 0001 2d94 	addal #77204,%a0
    2a22:	43e8 fff8      	lea %a0@(-8),%a1
    2a26:	2468 0004      	moveal %a0@(4),%a2
    2a2a:	b5c9           	cmpal %a1,%a2
    2a2c:	6600 feaa      	bnew 28d8 <_malloc_r+0xd4>
    2a30:	6000 fed8      	braw 290a <_malloc_r+0x106>
    2a34:	2468 000c      	moveal %a0@(12),%a2
    2a38:	b5c8           	cmpal %a0,%a2
    2a3a:	6600 fe0c      	bnew 2848 <_malloc_r+0x44>
    2a3e:	5483           	addql #2,%d3
    2a40:	2479 0001 2da4 	moveal 12da4 <__malloc_av_+0x10>,%a2
    2a46:	b5fc 0001 2d9c 	cmpal #77212,%a2
    2a4c:	6600 fecc      	bnew 291a <_malloc_r+0x116>
    2a50:	2239 0001 2d98 	movel 12d98 <__malloc_av_+0x4>,%d1
    2a56:	2003           	movel %d3,%d0
    2a58:	e480           	asrl #2,%d0
    2a5a:	7801           	moveq #1,%d4
    2a5c:	e1ac           	lsll %d0,%d4
    2a5e:	b284           	cmpl %d4,%d1
    2a60:	6400 ff32      	bccw 2994 <_malloc_r+0x190>
    2a64:	2479 0001 2d9c 	moveal 12d9c <__malloc_av_+0x8>,%a2
    2a6a:	7afc           	moveq #-4,%d5
    2a6c:	caaa 0004      	andl %a2@(4),%d5
    2a70:	b485           	cmpl %d5,%d2
    2a72:	620c           	bhis 2a80 <_malloc_r+0x27c>
    2a74:	2005           	movel %d5,%d0
    2a76:	9082           	subl %d2,%d0
    2a78:	7c0f           	moveq #15,%d6
    2a7a:	bc80           	cmpl %d0,%d6
    2a7c:	6d00 00a6      	bltw 2b24 <_malloc_r+0x320>
    2a80:	280a           	movel %a2,%d4
    2a82:	d885           	addl %d5,%d4
    2a84:	2602           	movel %d2,%d3
    2a86:	d6b9 0001 364c 	addl 1364c <__malloc_top_pad>,%d3
    2a8c:	70ff           	moveq #-1,%d0
    2a8e:	b0b9 0001 2d8c 	cmpl 12d8c <__malloc_sbrk_base>,%d0
    2a94:	6700 03de      	beqw 2e74 <_malloc_r+0x670>
    2a98:	0683 0000 100f 	addil #4111,%d3
    2a9e:	0243 f000      	andiw #-4096,%d3
    2aa2:	2f03           	movel %d3,%sp@-
    2aa4:	2f0b           	movel %a3,%sp@-
    2aa6:	4df9 0000 5a9c 	lea 5a9c <_sbrk_r>,%fp
    2aac:	4e96           	jsr %fp@
    2aae:	2840           	moveal %d0,%a4
    2ab0:	508f           	addql #8,%sp
    2ab2:	7cff           	moveq #-1,%d6
    2ab4:	bc80           	cmpl %d0,%d6
    2ab6:	6700 0298      	beqw 2d50 <_malloc_r+0x54c>
    2aba:	b084           	cmpl %d4,%d0
    2abc:	6500 028a      	bcsw 2d48 <_malloc_r+0x544>
    2ac0:	4bf9 0001 361c 	lea 1361c <__malloc_current_mallinfo>,%a5
    2ac6:	2043           	moveal %d3,%a0
    2ac8:	d1d5           	addal %a5@,%a0
    2aca:	2008           	movel %a0,%d0
    2acc:	2a88           	movel %a0,%a5@
    2ace:	b9c4           	cmpal %d4,%a4
    2ad0:	6600 02e4      	bnew 2db6 <_malloc_r+0x5b2>
    2ad4:	220c           	movel %a4,%d1
    2ad6:	0281 0000 0fff 	andil #4095,%d1
    2adc:	6600 02d8      	bnew 2db6 <_malloc_r+0x5b2>
    2ae0:	2879 0001 2d9c 	moveal 12d9c <__malloc_av_+0x8>,%a4
    2ae6:	d685           	addl %d5,%d3
    2ae8:	7001           	moveq #1,%d0
    2aea:	8680           	orl %d0,%d3
    2aec:	2943 0004      	movel %d3,%a4@(4)
    2af0:	b1f9 0001 3648 	cmpal 13648 <__malloc_max_sbrked_mem>,%a0
    2af6:	6306           	blss 2afe <_malloc_r+0x2fa>
    2af8:	23c8 0001 3648 	movel %a0,13648 <__malloc_max_sbrked_mem>
    2afe:	b1f9 0001 3644 	cmpal 13644 <__malloc_max_total_mem>,%a0
    2b04:	6306           	blss 2b0c <_malloc_r+0x308>
    2b06:	23c8 0001 3644 	movel %a0,13644 <__malloc_max_total_mem>
    2b0c:	244c           	moveal %a4,%a2
    2b0e:	7cfc           	moveq #-4,%d6
    2b10:	c686           	andl %d6,%d3
    2b12:	2003           	movel %d3,%d0
    2b14:	9082           	subl %d2,%d0
    2b16:	b483           	cmpl %d3,%d2
    2b18:	6200 033c      	bhiw 2e56 <_malloc_r+0x652>
    2b1c:	720f           	moveq #15,%d1
    2b1e:	b280           	cmpl %d0,%d1
    2b20:	6c00 0334      	bgew 2e56 <_malloc_r+0x652>
    2b24:	7601           	moveq #1,%d3
    2b26:	8682           	orl %d2,%d3
    2b28:	2543 0004      	movel %d3,%a2@(4)
    2b2c:	41f2 2800      	lea %a2@(0,%d2:l),%a0
    2b30:	23c8 0001 2d9c 	movel %a0,12d9c <__malloc_av_+0x8>
    2b36:	7801           	moveq #1,%d4
    2b38:	8880           	orl %d0,%d4
    2b3a:	2144 0004      	movel %d4,%a0@(4)
    2b3e:	2f0b           	movel %a3,%sp@-
    2b40:	4eb9 0000 4e12 	jsr 4e12 <__malloc_unlock>
    2b46:	200a           	movel %a2,%d0
    2b48:	5080           	addql #8,%d0
    2b4a:	588f           	addql #4,%sp
    2b4c:	6000 fd24      	braw 2872 <_malloc_r+0x6e>
    2b50:	226a 0008      	moveal %a2@(8),%a1
    2b54:	2348 000c      	movel %a0,%a1@(12)
    2b58:	2149 0008      	movel %a1,%a0@(8)
    2b5c:	7a01           	moveq #1,%d5
    2b5e:	8bb2 1804      	orl %d5,%a2@(4,%d1:l)
    2b62:	2f0b           	movel %a3,%sp@-
    2b64:	4eb9 0000 4e12 	jsr 4e12 <__malloc_unlock>
    2b6a:	200a           	movel %a2,%d0
    2b6c:	5080           	addql #8,%d0
    2b6e:	588f           	addql #4,%sp
    2b70:	6000 fd00      	braw 2872 <_malloc_r+0x6e>
    2b74:	2800           	movel %d0,%d4
    2b76:	7a09           	moveq #9,%d5
    2b78:	eaac           	lsrl %d5,%d4
    2b7a:	7c04           	moveq #4,%d6
    2b7c:	bc84           	cmpl %d4,%d6
    2b7e:	6400 01a0      	bccw 2d20 <_malloc_r+0x51c>
    2b82:	7a14           	moveq #20,%d5
    2b84:	ba84           	cmpl %d4,%d5
    2b86:	6500 0316      	bcsw 2e9e <_malloc_r+0x69a>
    2b8a:	327c 005b      	moveaw #91,%a1
    2b8e:	d3c4           	addal %d4,%a1
    2b90:	7c5c           	moveq #92,%d6
    2b92:	d886           	addl %d6,%d4
    2b94:	e78c           	lsll #3,%d4
    2b96:	2044           	moveal %d4,%a0
    2b98:	d1fc 0001 2d94 	addal #77204,%a0
    2b9e:	49e8 fff8      	lea %a0@(-8),%a4
    2ba2:	2050           	moveal %a0@,%a0
    2ba4:	b1cc           	cmpal %a4,%a0
    2ba6:	6700 01de      	beqw 2d86 <_malloc_r+0x582>
    2baa:	78fc           	moveq #-4,%d4
    2bac:	c8a8 0004      	andl %a0@(4),%d4
    2bb0:	b084           	cmpl %d4,%d0
    2bb2:	6408           	bccs 2bbc <_malloc_r+0x3b8>
    2bb4:	2068 0008      	moveal %a0@(8),%a0
    2bb8:	b1cc           	cmpal %a4,%a0
    2bba:	66ee           	bnes 2baa <_malloc_r+0x3a6>
    2bbc:	2868 000c      	moveal %a0@(12),%a4
    2bc0:	254c 000c      	movel %a4,%a2@(12)
    2bc4:	2548 0008      	movel %a0,%a2@(8)
    2bc8:	294a 0008      	movel %a2,%a4@(8)
    2bcc:	214a 000c      	movel %a2,%a0@(12)
    2bd0:	6000 fdb4      	braw 2986 <_malloc_r+0x182>
    2bd4:	7814           	moveq #20,%d4
    2bd6:	b883           	cmpl %d3,%d4
    2bd8:	6400 0184      	bccw 2d5e <_malloc_r+0x55a>
    2bdc:	7c54           	moveq #84,%d6
    2bde:	bc83           	cmpl %d3,%d6
    2be0:	6500 02ee      	bcsw 2ed0 <_malloc_r+0x6cc>
    2be4:	2602           	movel %d2,%d3
    2be6:	700c           	moveq #12,%d0
    2be8:	e0ab           	lsrl %d0,%d3
    2bea:	387c 006e      	moveaw #110,%a4
    2bee:	d9c3           	addal %d3,%a4
    2bf0:	726f           	moveq #111,%d1
    2bf2:	d681           	addl %d1,%d3
    2bf4:	2003           	movel %d3,%d0
    2bf6:	e788           	lsll #3,%d0
    2bf8:	2040           	moveal %d0,%a0
    2bfa:	d1fc 0001 2d94 	addal #77204,%a0
    2c00:	43e8 fff8      	lea %a0@(-8),%a1
    2c04:	2468 0004      	moveal %a0@(4),%a2
    2c08:	b5c9           	cmpal %a1,%a2
    2c0a:	6600 fccc      	bnew 28d8 <_malloc_r+0xd4>
    2c0e:	6000 fcfa      	braw 290a <_malloc_r+0x106>
    2c12:	5089           	addql #8,%a1
    2c14:	5285           	addql #1,%d5
    2c16:	7003           	moveq #3,%d0
    2c18:	c085           	andl %d5,%d0
    2c1a:	6600 fd9c      	bnew 29b8 <_malloc_r+0x1b4>
    2c1e:	7003           	moveq #3,%d0
    2c20:	c083           	andl %d3,%d0
    2c22:	6700 040e      	beqw 3032 <_malloc_r+0x82e>
    2c26:	5383           	subql #1,%d3
    2c28:	518c           	subql #8,%a4
    2c2a:	b9ec 0008      	cmpal %a4@(8),%a4
    2c2e:	67ee           	beqs 2c1e <_malloc_r+0x41a>
    2c30:	2039 0001 2d98 	movel 12d98 <__malloc_av_+0x4>,%d0
    2c36:	d884           	addl %d4,%d4
    2c38:	b084           	cmpl %d4,%d0
    2c3a:	6500 fe28      	bcsw 2a64 <_malloc_r+0x260>
    2c3e:	4a84           	tstl %d4
    2c40:	6700 fe22      	beqw 2a64 <_malloc_r+0x260>
    2c44:	2204           	movel %d4,%d1
    2c46:	c280           	andl %d0,%d1
    2c48:	6600 03b0      	bnew 2ffa <_malloc_r+0x7f6>
    2c4c:	5885           	addql #4,%d5
    2c4e:	d884           	addl %d4,%d4
    2c50:	60f2           	bras 2c44 <_malloc_r+0x440>
    2c52:	43f2 2800      	lea %a2@(0,%d2:l),%a1
    2c56:	7601           	moveq #1,%d3
    2c58:	8682           	orl %d2,%d3
    2c5a:	2543 0004      	movel %d3,%a2@(4)
    2c5e:	286a 0008      	moveal %a2@(8),%a4
    2c62:	2948 000c      	movel %a0,%a4@(12)
    2c66:	214c 0008      	movel %a4,%a0@(8)
    2c6a:	23c9 0001 2da8 	movel %a1,12da8 <__malloc_av_+0x14>
    2c70:	23c9 0001 2da4 	movel %a1,12da4 <__malloc_av_+0x10>
    2c76:	237c 0001 2d9c 	movel #77212,%a1@(12)
    2c7c:	000c 
    2c7e:	237c 0001 2d9c 	movel #77212,%a1@(8)
    2c84:	0008 
    2c86:	7801           	moveq #1,%d4
    2c88:	8880           	orl %d0,%d4
    2c8a:	2344 0004      	movel %d4,%a1@(4)
    2c8e:	2580 1800      	movel %d0,%a2@(0,%d1:l)
    2c92:	2f0b           	movel %a3,%sp@-
    2c94:	4eb9 0000 4e12 	jsr 4e12 <__malloc_unlock>
    2c9a:	200a           	movel %a2,%d0
    2c9c:	5080           	addql #8,%d0
    2c9e:	588f           	addql #4,%sp
    2ca0:	6000 fbd0      	braw 2872 <_malloc_r+0x6e>
    2ca4:	7a01           	moveq #1,%d5
    2ca6:	8bb2 0804      	orl %d5,%a2@(4,%d0:l)
    2caa:	2f0b           	movel %a3,%sp@-
    2cac:	4eb9 0000 4e12 	jsr 4e12 <__malloc_unlock>
    2cb2:	200a           	movel %a2,%d0
    2cb4:	5080           	addql #8,%d0
    2cb6:	588f           	addql #4,%sp
    2cb8:	6000 fbb8      	braw 2872 <_malloc_r+0x6e>
    2cbc:	e68b           	lsrl #3,%d3
    2cbe:	2042           	moveal %d2,%a0
    2cc0:	5088           	addql #8,%a0
    2cc2:	d1fc 0001 2d94 	addal #77204,%a0
    2cc8:	2468 0004      	moveal %a0@(4),%a2
    2ccc:	2008           	movel %a0,%d0
    2cce:	5180           	subql #8,%d0
    2cd0:	b08a           	cmpl %a2,%d0
    2cd2:	6600 fb74      	bnew 2848 <_malloc_r+0x44>
    2cd6:	6000 fd5c      	braw 2a34 <_malloc_r+0x230>
    2cda:	41f2 2800      	lea %a2@(0,%d2:l),%a0
    2cde:	7601           	moveq #1,%d3
    2ce0:	8682           	orl %d2,%d3
    2ce2:	2543 0004      	movel %d3,%a2@(4)
    2ce6:	23c8 0001 2da8 	movel %a0,12da8 <__malloc_av_+0x14>
    2cec:	23c8 0001 2da4 	movel %a0,12da4 <__malloc_av_+0x10>
    2cf2:	217c 0001 2d9c 	movel #77212,%a0@(12)
    2cf8:	000c 
    2cfa:	217c 0001 2d9c 	movel #77212,%a0@(8)
    2d00:	0008 
    2d02:	7801           	moveq #1,%d4
    2d04:	8881           	orl %d1,%d4
    2d06:	2144 0004      	movel %d4,%a0@(4)
    2d0a:	2581 0800      	movel %d1,%a2@(0,%d0:l)
    2d0e:	2f0b           	movel %a3,%sp@-
    2d10:	4eb9 0000 4e12 	jsr 4e12 <__malloc_unlock>
    2d16:	200a           	movel %a2,%d0
    2d18:	5080           	addql #8,%d0
    2d1a:	588f           	addql #4,%sp
    2d1c:	6000 fb54      	braw 2872 <_malloc_r+0x6e>
    2d20:	2800           	movel %d0,%d4
    2d22:	ec8c           	lsrl #6,%d4
    2d24:	2044           	moveal %d4,%a0
    2d26:	43e8 0038      	lea %a0@(56),%a1
    2d2a:	41e8 0039      	lea %a0@(57),%a0
    2d2e:	2808           	movel %a0,%d4
    2d30:	e78c           	lsll #3,%d4
    2d32:	2044           	moveal %d4,%a0
    2d34:	d1fc 0001 2d94 	addal #77204,%a0
    2d3a:	49e8 fff8      	lea %a0@(-8),%a4
    2d3e:	2050           	moveal %a0@,%a0
    2d40:	b1cc           	cmpal %a4,%a0
    2d42:	6600 fe66      	bnew 2baa <_malloc_r+0x3a6>
    2d46:	603e           	bras 2d86 <_malloc_r+0x582>
    2d48:	b5fc 0001 2d94 	cmpal #77204,%a2
    2d4e:	675a           	beqs 2daa <_malloc_r+0x5a6>
    2d50:	2479 0001 2d9c 	moveal 12d9c <__malloc_av_+0x8>,%a2
    2d56:	262a 0004      	movel %a2@(4),%d3
    2d5a:	6000 fdb2      	braw 2b0e <_malloc_r+0x30a>
    2d5e:	387c 005b      	moveaw #91,%a4
    2d62:	d9c3           	addal %d3,%a4
    2d64:	7a5c           	moveq #92,%d5
    2d66:	d685           	addl %d5,%d3
    2d68:	2003           	movel %d3,%d0
    2d6a:	e788           	lsll #3,%d0
    2d6c:	2040           	moveal %d0,%a0
    2d6e:	d1fc 0001 2d94 	addal #77204,%a0
    2d74:	43e8 fff8      	lea %a0@(-8),%a1
    2d78:	2468 0004      	moveal %a0@(4),%a2
    2d7c:	b5c9           	cmpal %a1,%a2
    2d7e:	6600 fb58      	bnew 28d8 <_malloc_r+0xd4>
    2d82:	6000 fb86      	braw 290a <_malloc_r+0x106>
    2d86:	2009           	movel %a1,%d0
    2d88:	e480           	asrl #2,%d0
    2d8a:	7801           	moveq #1,%d4
    2d8c:	e1ac           	lsll %d0,%d4
    2d8e:	8284           	orl %d4,%d1
    2d90:	23c1 0001 2d98 	movel %d1,12d98 <__malloc_av_+0x4>
    2d96:	254c 000c      	movel %a4,%a2@(12)
    2d9a:	2548 0008      	movel %a0,%a2@(8)
    2d9e:	294a 0008      	movel %a2,%a4@(8)
    2da2:	214a 000c      	movel %a2,%a0@(12)
    2da6:	6000 fbde      	braw 2986 <_malloc_r+0x182>
    2daa:	4bf9 0001 361c 	lea 1361c <__malloc_current_mallinfo>,%a5
    2db0:	2003           	movel %d3,%d0
    2db2:	d095           	addl %a5@,%d0
    2db4:	2a80           	movel %d0,%a5@
    2db6:	72ff           	moveq #-1,%d1
    2db8:	b2b9 0001 2d8c 	cmpl 12d8c <__malloc_sbrk_base>,%d1
    2dbe:	6700 0146      	beqw 2f06 <_malloc_r+0x702>
    2dc2:	220c           	movel %a4,%d1
    2dc4:	9284           	subl %d4,%d1
    2dc6:	d280           	addl %d0,%d1
    2dc8:	2a81           	movel %d1,%a5@
    2dca:	2c0c           	movel %a4,%d6
    2dcc:	7807           	moveq #7,%d4
    2dce:	cc84           	andl %d4,%d6
    2dd0:	6700 00aa      	beqw 2e7c <_malloc_r+0x678>
    2dd4:	7008           	moveq #8,%d0
    2dd6:	9086           	subl %d6,%d0
    2dd8:	d9c0           	addal %d0,%a4
    2dda:	d68c           	addl %a4,%d3
    2ddc:	283c 0000 1008 	movel #4104,%d4
    2de2:	9886           	subl %d6,%d4
    2de4:	9883           	subl %d3,%d4
    2de6:	0284 0000 0fff 	andil #4095,%d4
    2dec:	2f04           	movel %d4,%sp@-
    2dee:	2f0b           	movel %a3,%sp@-
    2df0:	4e96           	jsr %fp@
    2df2:	508f           	addql #8,%sp
    2df4:	72ff           	moveq #-1,%d1
    2df6:	b280           	cmpl %d0,%d1
    2df8:	676c           	beqs 2e66 <_malloc_r+0x662>
    2dfa:	908c           	subl %a4,%d0
    2dfc:	2600           	movel %d0,%d3
    2dfe:	d684           	addl %d4,%d3
    2e00:	2044           	moveal %d4,%a0
    2e02:	d1d5           	addal %a5@,%a0
    2e04:	2a88           	movel %a0,%a5@
    2e06:	23cc 0001 2d9c 	movel %a4,12d9c <__malloc_av_+0x8>
    2e0c:	7001           	moveq #1,%d0
    2e0e:	8680           	orl %d0,%d3
    2e10:	2943 0004      	movel %d3,%a4@(4)
    2e14:	b5fc 0001 2d94 	cmpal #77204,%a2
    2e1a:	6700 fcd4      	beqw 2af0 <_malloc_r+0x2ec>
    2e1e:	720f           	moveq #15,%d1
    2e20:	b285           	cmpl %d5,%d1
    2e22:	642e           	bccs 2e52 <_malloc_r+0x64e>
    2e24:	72f4           	moveq #-12,%d1
    2e26:	d285           	addl %d5,%d1
    2e28:	76f8           	moveq #-8,%d3
    2e2a:	c283           	andl %d3,%d1
    2e2c:	7001           	moveq #1,%d0
    2e2e:	c0aa 0004      	andl %a2@(4),%d0
    2e32:	8081           	orl %d1,%d0
    2e34:	2540 0004      	movel %d0,%a2@(4)
    2e38:	7805           	moveq #5,%d4
    2e3a:	2584 1804      	movel %d4,%a2@(4,%d1:l)
    2e3e:	2584 1808      	movel %d4,%a2@(8,%d1:l)
    2e42:	7a0f           	moveq #15,%d5
    2e44:	ba81           	cmpl %d1,%d5
    2e46:	6500 0138      	bcsw 2f80 <_malloc_r+0x77c>
    2e4a:	262c 0004      	movel %a4@(4),%d3
    2e4e:	6000 fca0      	braw 2af0 <_malloc_r+0x2ec>
    2e52:	2940 0004      	movel %d0,%a4@(4)
    2e56:	2f0b           	movel %a3,%sp@-
    2e58:	4eb9 0000 4e12 	jsr 4e12 <__malloc_unlock>
    2e5e:	588f           	addql #4,%sp
    2e60:	7000           	moveq #0,%d0
    2e62:	6000 fba4      	braw 2a08 <_malloc_r+0x204>
    2e66:	2243           	moveal %d3,%a1
    2e68:	41f1 68f8      	lea %a1@(fffffffffffffff8,%d6:l),%a0
    2e6c:	2608           	movel %a0,%d3
    2e6e:	968c           	subl %a4,%d3
    2e70:	7800           	moveq #0,%d4
    2e72:	608c           	bras 2e00 <_malloc_r+0x5fc>
    2e74:	7210           	moveq #16,%d1
    2e76:	d681           	addl %d1,%d3
    2e78:	6000 fc28      	braw 2aa2 <_malloc_r+0x29e>
    2e7c:	280c           	movel %a4,%d4
    2e7e:	d883           	addl %d3,%d4
    2e80:	4484           	negl %d4
    2e82:	0284 0000 0fff 	andil #4095,%d4
    2e88:	2f04           	movel %d4,%sp@-
    2e8a:	2f0b           	movel %a3,%sp@-
    2e8c:	4e96           	jsr %fp@
    2e8e:	508f           	addql #8,%sp
    2e90:	7cff           	moveq #-1,%d6
    2e92:	bc80           	cmpl %d0,%d6
    2e94:	6600 ff64      	bnew 2dfa <_malloc_r+0x5f6>
    2e98:	7800           	moveq #0,%d4
    2e9a:	6000 ff64      	braw 2e00 <_malloc_r+0x5fc>
    2e9e:	7a54           	moveq #84,%d5
    2ea0:	ba84           	cmpl %d4,%d5
    2ea2:	656c           	bcss 2f10 <_malloc_r+0x70c>
    2ea4:	2c00           	movel %d0,%d6
    2ea6:	780c           	moveq #12,%d4
    2ea8:	e8ae           	lsrl %d4,%d6
    2eaa:	2046           	moveal %d6,%a0
    2eac:	43e8 006e      	lea %a0@(110),%a1
    2eb0:	41e8 006f      	lea %a0@(111),%a0
    2eb4:	2808           	movel %a0,%d4
    2eb6:	e78c           	lsll #3,%d4
    2eb8:	2044           	moveal %d4,%a0
    2eba:	d1fc 0001 2d94 	addal #77204,%a0
    2ec0:	49e8 fff8      	lea %a0@(-8),%a4
    2ec4:	2050           	moveal %a0@,%a0
    2ec6:	b1cc           	cmpal %a4,%a0
    2ec8:	6600 fce0      	bnew 2baa <_malloc_r+0x3a6>
    2ecc:	6000 feb8      	braw 2d86 <_malloc_r+0x582>
    2ed0:	0c83 0000 0154 	cmpil #340,%d3
    2ed6:	626e           	bhis 2f46 <_malloc_r+0x742>
    2ed8:	2602           	movel %d2,%d3
    2eda:	780f           	moveq #15,%d4
    2edc:	e8ab           	lsrl %d4,%d3
    2ede:	387c 0077      	moveaw #119,%a4
    2ee2:	d9c3           	addal %d3,%a4
    2ee4:	7a78           	moveq #120,%d5
    2ee6:	d685           	addl %d5,%d3
    2ee8:	2003           	movel %d3,%d0
    2eea:	e788           	lsll #3,%d0
    2eec:	2040           	moveal %d0,%a0
    2eee:	d1fc 0001 2d94 	addal #77204,%a0
    2ef4:	43e8 fff8      	lea %a0@(-8),%a1
    2ef8:	2468 0004      	moveal %a0@(4),%a2
    2efc:	b5c9           	cmpal %a1,%a2
    2efe:	6600 f9d8      	bnew 28d8 <_malloc_r+0xd4>
    2f02:	6000 fa06      	braw 290a <_malloc_r+0x106>
    2f06:	23cc 0001 2d8c 	movel %a4,12d8c <__malloc_sbrk_base>
    2f0c:	6000 febc      	braw 2dca <_malloc_r+0x5c6>
    2f10:	0c84 0000 0154 	cmpil #340,%d4
    2f16:	6200 0086      	bhiw 2f9e <_malloc_r+0x79a>
    2f1a:	2a00           	movel %d0,%d5
    2f1c:	7c0f           	moveq #15,%d6
    2f1e:	ecad           	lsrl %d6,%d5
    2f20:	2045           	moveal %d5,%a0
    2f22:	43e8 0077      	lea %a0@(119),%a1
    2f26:	41e8 0078      	lea %a0@(120),%a0
    2f2a:	2808           	movel %a0,%d4
    2f2c:	e78c           	lsll #3,%d4
    2f2e:	2044           	moveal %d4,%a0
    2f30:	d1fc 0001 2d94 	addal #77204,%a0
    2f36:	49e8 fff8      	lea %a0@(-8),%a4
    2f3a:	2050           	moveal %a0@,%a0
    2f3c:	b1cc           	cmpal %a4,%a0
    2f3e:	6600 fc6a      	bnew 2baa <_malloc_r+0x3a6>
    2f42:	6000 fe42      	braw 2d86 <_malloc_r+0x582>
    2f46:	0c83 0000 0554 	cmpil #1364,%d3
    2f4c:	6200 0086      	bhiw 2fd4 <_malloc_r+0x7d0>
    2f50:	2602           	movel %d2,%d3
    2f52:	4243           	clrw %d3
    2f54:	4843           	swap %d3
    2f56:	e44b           	lsrw #2,%d3
    2f58:	387c 007c      	moveaw #124,%a4
    2f5c:	d9c3           	addal %d3,%a4
    2f5e:	7c7d           	moveq #125,%d6
    2f60:	d686           	addl %d6,%d3
    2f62:	2003           	movel %d3,%d0
    2f64:	e788           	lsll #3,%d0
    2f66:	2040           	moveal %d0,%a0
    2f68:	d1fc 0001 2d94 	addal #77204,%a0
    2f6e:	43e8 fff8      	lea %a0@(-8),%a1
    2f72:	2468 0004      	moveal %a0@(4),%a2
    2f76:	b5c9           	cmpal %a1,%a2
    2f78:	6600 f95e      	bnew 28d8 <_malloc_r+0xd4>
    2f7c:	6000 f98c      	braw 290a <_malloc_r+0x106>
    2f80:	486a 0008      	pea %a2@(8)
    2f84:	2f0b           	movel %a3,%sp@-
    2f86:	4eb9 0000 7766 	jsr 7766 <_free_r>
    2f8c:	2055           	moveal %a5@,%a0
    2f8e:	2879 0001 2d9c 	moveal 12d9c <__malloc_av_+0x8>,%a4
    2f94:	262c 0004      	movel %a4@(4),%d3
    2f98:	508f           	addql #8,%sp
    2f9a:	6000 fb54      	braw 2af0 <_malloc_r+0x2ec>
    2f9e:	0c84 0000 0554 	cmpil #1364,%d4
    2fa4:	626a           	bhis 3010 <_malloc_r+0x80c>
    2fa6:	2800           	movel %d0,%d4
    2fa8:	4244           	clrw %d4
    2faa:	4844           	swap %d4
    2fac:	e44c           	lsrw #2,%d4
    2fae:	2044           	moveal %d4,%a0
    2fb0:	43e8 007c      	lea %a0@(124),%a1
    2fb4:	41e8 007d      	lea %a0@(125),%a0
    2fb8:	2808           	movel %a0,%d4
    2fba:	e78c           	lsll #3,%d4
    2fbc:	2044           	moveal %d4,%a0
    2fbe:	d1fc 0001 2d94 	addal #77204,%a0
    2fc4:	49e8 fff8      	lea %a0@(-8),%a4
    2fc8:	2050           	moveal %a0@,%a0
    2fca:	b1cc           	cmpal %a4,%a0
    2fcc:	6600 fbdc      	bnew 2baa <_malloc_r+0x3a6>
    2fd0:	6000 fdb4      	braw 2d86 <_malloc_r+0x582>
    2fd4:	203c 0000 03f8 	movel #1016,%d0
    2fda:	767f           	moveq #127,%d3
    2fdc:	387c 007e      	moveaw #126,%a4
    2fe0:	2040           	moveal %d0,%a0
    2fe2:	d1fc 0001 2d94 	addal #77204,%a0
    2fe8:	43e8 fff8      	lea %a0@(-8),%a1
    2fec:	2468 0004      	moveal %a0@(4),%a2
    2ff0:	b5c9           	cmpal %a1,%a2
    2ff2:	6600 f8e4      	bnew 28d8 <_malloc_r+0xd4>
    2ff6:	6000 f912      	braw 290a <_malloc_r+0x106>
    2ffa:	2605           	movel %d5,%d3
    2ffc:	2003           	movel %d3,%d0
    2ffe:	e788           	lsll #3,%d0
    3000:	2840           	moveal %d0,%a4
    3002:	d9fc 0001 2d94 	addal #77204,%a4
    3008:	224c           	moveal %a4,%a1
    300a:	2a03           	movel %d3,%d5
    300c:	6000 f9aa      	braw 29b8 <_malloc_r+0x1b4>
    3010:	283c 0000 03f8 	movel #1016,%d4
    3016:	327c 007e      	moveaw #126,%a1
    301a:	2044           	moveal %d4,%a0
    301c:	d1fc 0001 2d94 	addal #77204,%a0
    3022:	49e8 fff8      	lea %a0@(-8),%a4
    3026:	2050           	moveal %a0@,%a0
    3028:	b1cc           	cmpal %a4,%a0
    302a:	6600 fb7e      	bnew 2baa <_malloc_r+0x3a6>
    302e:	6000 fd56      	braw 2d86 <_malloc_r+0x582>
    3032:	2004           	movel %d4,%d0
    3034:	4680           	notl %d0
    3036:	c0b9 0001 2d98 	andl 12d98 <__malloc_av_+0x4>,%d0
    303c:	23c0 0001 2d98 	movel %d0,12d98 <__malloc_av_+0x4>
    3042:	6000 fbf2      	braw 2c36 <_malloc_r+0x432>
	...

00003048 <_vfprintf_r>:
    3048:	4e56 ff20      	linkw %fp,#-224
    304c:	48e7 3f3c      	moveml %d2-%d7/%a2-%a5,%sp@-
    3050:	2d6e 0008 ff30 	movel %fp@(8),%fp@(-208)
    3056:	2d6e 000c ff2c 	movel %fp@(12),%fp@(-212)
    305c:	2d6e 0010 ff28 	movel %fp@(16),%fp@(-216)
    3062:	2d6e 0014 ff38 	movel %fp@(20),%fp@(-200)
    3068:	2f2e ff30      	movel %fp@(-208),%sp@-
    306c:	4eb9 0000 5940 	jsr 5940 <_localeconv_r>
    3072:	2040           	moveal %d0,%a0
    3074:	2d50 ff50      	movel %a0@,%fp@(-176)
    3078:	2f2e ff50      	movel %fp@(-176),%sp@-
    307c:	4eb9 0000 5afc 	jsr 5afc <strlen>
    3082:	2d40 ff4c      	movel %d0,%fp@(-180)
    3086:	508f           	addql #8,%sp
    3088:	4aae ff30      	tstl %fp@(-208)
    308c:	670c           	beqs 309a <_vfprintf_r+0x52>
    308e:	226e ff30      	moveal %fp@(-208),%a1
    3092:	4aa9 0032      	tstl %a1@(50)
    3096:	6700 1198      	beqw 4230 <_vfprintf_r+0x11e8>
    309a:	206e ff2c      	moveal %fp@(-212),%a0
    309e:	2028 0064      	movel %a0@(100),%d0
    30a2:	3228 000c      	movew %a0@(12),%d1
    30a6:	0801 000d      	btst #13,%d1
    30aa:	6610           	bnes 30bc <_vfprintf_r+0x74>
    30ac:	0041 2000      	oriw #8192,%d1
    30b0:	3141 000c      	movew %d1,%a0@(12)
    30b4:	0240 dfff      	andiw #-8193,%d0
    30b8:	2140 0064      	movel %d0,%a0@(100)
    30bc:	0800 000d      	btst #13,%d0
    30c0:	6600 189c      	bnew 495e <_vfprintf_r+0x1916>
    30c4:	206e ff2c      	moveal %fp@(-212),%a0
    30c8:	3028 000c      	movew %a0@(12),%d0
    30cc:	0800 0003      	btst #3,%d0
    30d0:	6700 01de      	beqw 32b0 <_vfprintf_r+0x268>
    30d4:	4aa8 0010      	tstl %a0@(16)
    30d8:	6700 01d6      	beqw 32b0 <_vfprintf_r+0x268>
    30dc:	0240 001a      	andiw #26,%d0
    30e0:	0c40 000a      	cmpiw #10,%d0
    30e4:	6700 0490      	beqw 3576 <_vfprintf_r+0x52e>
    30e8:	43ee ffc0      	lea %fp@(-64),%a1
    30ec:	2d49 ff8c      	movel %a1,%fp@(-116)
    30f0:	42ae ff94      	clrl %fp@(-108)
    30f4:	42ae ff90      	clrl %fp@(-112)
    30f8:	42ae ff40      	clrl %fp@(-192)
    30fc:	42ae ff44      	clrl %fp@(-188)
    3100:	42ae ff48      	clrl %fp@(-184)
    3104:	2d49 ff24      	movel %a1,%fp@(-220)
    3108:	2849           	moveal %a1,%a4
    310a:	42ae ff58      	clrl %fp@(-168)
    310e:	42ae ff54      	clrl %fp@(-172)
    3112:	42ae ff34      	clrl %fp@(-204)
    3116:	2d6e ff28 ff20 	movel %fp@(-216),%fp@(-224)
    311c:	226e ff20      	moveal %fp@(-224),%a1
    3120:	1011           	moveb %a1@,%d0
    3122:	6700 0226      	beqw 334a <_vfprintf_r+0x302>
    3126:	246e ff20      	moveal %fp@(-224),%a2
    312a:	0c00 0025      	cmpib #37,%d0
    312e:	6700 01c4      	beqw 32f4 <_vfprintf_r+0x2ac>
    3132:	528a           	addql #1,%a2
    3134:	1012           	moveb %a2@,%d0
    3136:	66f2           	bnes 312a <_vfprintf_r+0xe2>
    3138:	264a           	moveal %a2,%a3
    313a:	97ee ff20      	subal %fp@(-224),%a3
    313e:	b5ee ff20      	cmpal %fp@(-224),%a2
    3142:	6700 0206      	beqw 334a <_vfprintf_r+0x302>
    3146:	28ae ff20      	movel %fp@(-224),%a4@
    314a:	294b 0004      	movel %a3,%a4@(4)
    314e:	200b           	movel %a3,%d0
    3150:	d1ae ff94      	addl %d0,%fp@(-108)
    3154:	202e ff90      	movel %fp@(-112),%d0
    3158:	5280           	addql #1,%d0
    315a:	2d40 ff90      	movel %d0,%fp@(-112)
    315e:	7207           	moveq #7,%d1
    3160:	b280           	cmpl %d0,%d1
    3162:	6d00 01be      	bltw 3322 <_vfprintf_r+0x2da>
    3166:	508c           	addql #8,%a4
    3168:	240b           	movel %a3,%d2
    316a:	d5ae ff34      	addl %d2,%fp@(-204)
    316e:	1012           	moveb %a2@,%d0
    3170:	6700 01d8      	beqw 334a <_vfprintf_r+0x302>
    3174:	528a           	addql #1,%a2
    3176:	422e ff71      	clrb %fp@(-143)
    317a:	74ff           	moveq #-1,%d2
    317c:	7600           	moveq #0,%d3
    317e:	7c00           	moveq #0,%d6
    3180:	2d4a ff28      	movel %a2,%fp@(-216)
    3184:	206e ff28      	moveal %fp@(-216),%a0
    3188:	52ae ff28      	addql #1,%fp@(-216)
    318c:	1018           	moveb %a0@+,%d0
    318e:	4880           	extw %d0
    3190:	3640           	moveaw %d0,%a3
    3192:	41eb ffe0      	lea %a3@(-32),%a0
    3196:	7058           	moveq #88,%d0
    3198:	b088           	cmpl %a0,%d0
    319a:	6500 01d2      	bcsw 336e <_vfprintf_r+0x326>
    319e:	2008           	movel %a0,%d0
    31a0:	d080           	addl %d0,%d0
    31a2:	303b 0806      	movew %pc@(31aa <_vfprintf_r+0x162>,%d0:l),%d0
    31a6:	4efb 0002      	jmp %pc@(31aa <_vfprintf_r+0x162>,%d0:w)
    31aa:	0926           	btst %d4,%fp@-
    31ac:	01c4           	bset %d0,%d4
    31ae:	01c4           	bset %d0,%d4
    31b0:	0910           	btst %d4,%a0@
    31b2:	01c4           	bset %d0,%d4
    31b4:	01c4           	bset %d0,%d4
    31b6:	01c4           	bset %d0,%d4
    31b8:	01c4           	bset %d0,%d4
    31ba:	01c4           	bset %d0,%d4
    31bc:	01c4           	bset %d0,%d4
    31be:	0864 08f8      	bchg #-8,%a4@-
    31c2:	01c4           	bset %d0,%d4
    31c4:	0874 088a 01c4 	bchg #-118,@(0)@(0)
    31ca:	08e0 00b2      	bset #-78,%a0@-
    31ce:	00b2 00b2 00b2 	oril #11665586,%a2@(ffffffffffffffb2,%d0:w)
    31d4:	00b2 
    31d6:	00b2 00b2 00b2 	oril #11665586,%a2@(ffffffffffffffb2,%d0:w)
    31dc:	00b2 
    31de:	01c4           	bset %d0,%d4
    31e0:	01c4           	bset %d0,%d4
    31e2:	01c4           	bset %d0,%d4
    31e4:	01c4           	bset %d0,%d4
    31e6:	01c4           	bset %d0,%d4
    31e8:	01c4           	bset %d0,%d4
    31ea:	01c4           	bset %d0,%d4
    31ec:	01c4           	bset %d0,%d4
    31ee:	01c4           	bset %d0,%d4
    31f0:	01c4           	bset %d0,%d4
    31f2:	07c2           	bset %d3,%d2
    31f4:	02d6           	.short 0x02d6
    31f6:	01c4           	bset %d0,%d4
    31f8:	02d6           	.short 0x02d6
    31fa:	01c4           	bset %d0,%d4
    31fc:	01c4           	bset %d0,%d4
    31fe:	01c4           	bset %d0,%d4
    3200:	01c4           	bset %d0,%d4
    3202:	097c           	.short 0x097c
    3204:	01c4           	bset %d0,%d4
    3206:	01c4           	bset %d0,%d4
    3208:	09e6           	bset %d4,%fp@-
    320a:	01c4           	bset %d0,%d4
    320c:	01c4           	bset %d0,%d4
    320e:	01c4           	bset %d0,%d4
    3210:	01c4           	bset %d0,%d4
    3212:	01c4           	bset %d0,%d4
    3214:	0992           	bclr %d4,%a2@
    3216:	01c4           	bset %d0,%d4
    3218:	01c4           	bset %d0,%d4
    321a:	10dc           	moveb %a4@+,%a0@+
    321c:	01c4           	bset %d0,%d4
    321e:	01c4           	bset %d0,%d4
    3220:	01c4           	bset %d0,%d4
    3222:	01c4           	bset %d0,%d4
    3224:	01c4           	bset %d0,%d4
    3226:	01c4           	bset %d0,%d4
    3228:	01c4           	bset %d0,%d4
    322a:	01c4           	bset %d0,%d4
    322c:	01c4           	bset %d0,%d4
    322e:	01c4           	bset %d0,%d4
    3230:	0946           	bchg %d4,%d6
    3232:	0748 02d6      	movepl %a0@(726),%d3
    3236:	02d6           	.short 0x02d6
    3238:	02d6           	.short 0x02d6
    323a:	0a02 0748      	eorib #72,%d2
    323e:	01c4           	bset %d0,%d4
    3240:	01c4           	bset %d0,%d4
    3242:	0134 01c4      	btst %d0,@(0)@(0)
    3246:	0af8           	.short 0x0af8
    3248:	0acc           	.short 0x0acc
    324a:	0aa0 0134 01c4 	eoril #20185540,%a0@-
    3250:	0a44 01c4      	eoriw #452,%d4
    3254:	0a18 01c4      	eorib #-60,%a0@+
    3258:	01c4           	bset %d0,%d4
    325a:	112c 7600      	moveb %a4@(30208),%a0@-
    325e:	41eb ffd0      	lea %a3@(-48),%a0
    3262:	2003           	movel %d3,%d0
    3264:	d083           	addl %d3,%d0
    3266:	d080           	addl %d0,%d0
    3268:	d680           	addl %d0,%d3
    326a:	d683           	addl %d3,%d3
    326c:	d688           	addl %a0,%d3
    326e:	206e ff28      	moveal %fp@(-216),%a0
    3272:	52ae ff28      	addql #1,%fp@(-216)
    3276:	1018           	moveb %a0@+,%d0
    3278:	4880           	extw %d0
    327a:	3640           	moveaw %d0,%a3
    327c:	41eb ffd0      	lea %a3@(-48),%a0
    3280:	7009           	moveq #9,%d0
    3282:	b088           	cmpl %a0,%d0
    3284:	6500 ff0c      	bcsw 3192 <_vfprintf_r+0x14a>
    3288:	2003           	movel %d3,%d0
    328a:	d083           	addl %d3,%d0
    328c:	d080           	addl %d0,%d0
    328e:	d680           	addl %d0,%d3
    3290:	d683           	addl %d3,%d3
    3292:	d688           	addl %a0,%d3
    3294:	206e ff28      	moveal %fp@(-216),%a0
    3298:	52ae ff28      	addql #1,%fp@(-216)
    329c:	1018           	moveb %a0@+,%d0
    329e:	4880           	extw %d0
    32a0:	3640           	moveaw %d0,%a3
    32a2:	41eb ffd0      	lea %a3@(-48),%a0
    32a6:	7009           	moveq #9,%d0
    32a8:	b088           	cmpl %a0,%d0
    32aa:	64b6           	bccs 3262 <_vfprintf_r+0x21a>
    32ac:	6000 fee4      	braw 3192 <_vfprintf_r+0x14a>
    32b0:	2f2e ff2c      	movel %fp@(-212),%sp@-
    32b4:	2f2e ff30      	movel %fp@(-208),%sp@-
    32b8:	4eb9 0000 5678 	jsr 5678 <__swsetup_r>
    32be:	508f           	addql #8,%sp
    32c0:	4a80           	tstl %d0
    32c2:	6600 169a      	bnew 495e <_vfprintf_r+0x1916>
    32c6:	226e ff2c      	moveal %fp@(-212),%a1
    32ca:	3029 000c      	movew %a1@(12),%d0
    32ce:	0240 001a      	andiw #26,%d0
    32d2:	0c40 000a      	cmpiw #10,%d0
    32d6:	6600 fe10      	bnew 30e8 <_vfprintf_r+0xa0>
    32da:	6000 029a      	braw 3576 <_vfprintf_r+0x52e>
    32de:	7a10           	moveq #16,%d5
    32e0:	8c85           	orl %d5,%d6
    32e2:	206e ff28      	moveal %fp@(-216),%a0
    32e6:	52ae ff28      	addql #1,%fp@(-216)
    32ea:	1018           	moveb %a0@+,%d0
    32ec:	4880           	extw %d0
    32ee:	3640           	moveaw %d0,%a3
    32f0:	6000 fea0      	braw 3192 <_vfprintf_r+0x14a>
    32f4:	264a           	moveal %a2,%a3
    32f6:	97ee ff20      	subal %fp@(-224),%a3
    32fa:	b5ee ff20      	cmpal %fp@(-224),%a2
    32fe:	6700 fe6e      	beqw 316e <_vfprintf_r+0x126>
    3302:	28ae ff20      	movel %fp@(-224),%a4@
    3306:	294b 0004      	movel %a3,%a4@(4)
    330a:	200b           	movel %a3,%d0
    330c:	d1ae ff94      	addl %d0,%fp@(-108)
    3310:	202e ff90      	movel %fp@(-112),%d0
    3314:	5280           	addql #1,%d0
    3316:	2d40 ff90      	movel %d0,%fp@(-112)
    331a:	7207           	moveq #7,%d1
    331c:	b280           	cmpl %d0,%d1
    331e:	6c00 fe46      	bgew 3166 <_vfprintf_r+0x11e>
    3322:	486e ff8c      	pea %fp@(-116)
    3326:	2f2e ff2c      	movel %fp@(-212),%sp@-
    332a:	2f2e ff30      	movel %fp@(-208),%sp@-
    332e:	4eb9 0000 4e14 	jsr 4e14 <__sprint_r>
    3334:	4fef 000c      	lea %sp@(12),%sp
    3338:	4a80           	tstl %d0
    333a:	6616           	bnes 3352 <_vfprintf_r+0x30a>
    333c:	49ee ffc0      	lea %fp@(-64),%a4
    3340:	240b           	movel %a3,%d2
    3342:	d5ae ff34      	addl %d2,%fp@(-204)
    3346:	6000 fe26      	braw 316e <_vfprintf_r+0x126>
    334a:	4aae ff94      	tstl %fp@(-108)
    334e:	6600 15b2      	bnew 4902 <_vfprintf_r+0x18ba>
    3352:	206e ff2c      	moveal %fp@(-212),%a0
    3356:	0828 0006 000d 	btst #6,%a0@(13)
    335c:	6600 1600      	bnew 495e <_vfprintf_r+0x1916>
    3360:	202e ff34      	movel %fp@(-204),%d0
    3364:	4cee 3cfc fef8 	moveml %fp@(-264),%d2-%d7/%a2-%a5
    336a:	4e5e           	unlk %fp
    336c:	4e75           	rts
    336e:	2d6e ff28 ff20 	movel %fp@(-216),%fp@(-224)
    3374:	b6fc 0000      	cmpaw #0,%a3
    3378:	67d0           	beqs 334a <_vfprintf_r+0x302>
    337a:	340b           	movew %a3,%d2
    337c:	1d42 ff98      	moveb %d2,%fp@(-104)
    3380:	422e ff71      	clrb %fp@(-143)
    3384:	7801           	moveq #1,%d4
    3386:	2d44 ff28      	movel %d4,%fp@(-216)
    338a:	7a01           	moveq #1,%d5
    338c:	7e98           	moveq #-104,%d7
    338e:	de8e           	addl %fp,%d7
    3390:	2806           	movel %d6,%d4
    3392:	7400           	moveq #0,%d2
    3394:	42ae ff3c      	clrl %fp@(-196)
    3398:	9bcd           	subal %a5,%a5
    339a:	7c7b           	moveq #123,%d6
    339c:	4606           	notb %d6
    339e:	cc84           	andl %d4,%d6
    33a0:	246e ff94      	moveal %fp@(-108),%a2
    33a4:	660e           	bnes 33b4 <_vfprintf_r+0x36c>
    33a6:	2243           	moveal %d3,%a1
    33a8:	93ee ff28      	subal %fp@(-216),%a1
    33ac:	b2fc 0000      	cmpaw #0,%a1
    33b0:	6e00 0430      	bgtw 37e2 <_vfprintf_r+0x79a>
    33b4:	4a2e ff71      	tstb %fp@(-143)
    33b8:	6726           	beqs 33e0 <_vfprintf_r+0x398>
    33ba:	41ee ff71      	lea %fp@(-143),%a0
    33be:	2888           	movel %a0,%a4@
    33c0:	7001           	moveq #1,%d0
    33c2:	2940 0004      	movel %d0,%a4@(4)
    33c6:	528a           	addql #1,%a2
    33c8:	2d4a ff94      	movel %a2,%fp@(-108)
    33cc:	202e ff90      	movel %fp@(-112),%d0
    33d0:	5280           	addql #1,%d0
    33d2:	2d40 ff90      	movel %d0,%fp@(-112)
    33d6:	7207           	moveq #7,%d1
    33d8:	b280           	cmpl %d0,%d1
    33da:	6d00 0af6      	bltw 3ed2 <_vfprintf_r+0xe8a>
    33de:	508c           	addql #8,%a4
    33e0:	bafc 0000      	cmpaw #0,%a5
    33e4:	6726           	beqs 340c <_vfprintf_r+0x3c4>
    33e6:	41ee ff72      	lea %fp@(-142),%a0
    33ea:	2888           	movel %a0,%a4@
    33ec:	7002           	moveq #2,%d0
    33ee:	2940 0004      	movel %d0,%a4@(4)
    33f2:	548a           	addql #2,%a2
    33f4:	2d4a ff94      	movel %a2,%fp@(-108)
    33f8:	202e ff90      	movel %fp@(-112),%d0
    33fc:	5280           	addql #1,%d0
    33fe:	2d40 ff90      	movel %d0,%fp@(-112)
    3402:	7207           	moveq #7,%d1
    3404:	b280           	cmpl %d0,%d1
    3406:	6d00 0a98      	bltw 3ea0 <_vfprintf_r+0xe58>
    340a:	508c           	addql #8,%a4
    340c:	0c86 0000 0080 	cmpil #128,%d6
    3412:	6700 0192      	beqw 35a6 <_vfprintf_r+0x55e>
    3416:	2a42           	moveal %d2,%a5
    3418:	9bc5           	subal %d5,%a5
    341a:	bafc 0000      	cmpaw #0,%a5
    341e:	6e00 0218      	bgtw 3638 <_vfprintf_r+0x5f0>
    3422:	0804 0008      	btst #8,%d4
    3426:	6600 0278      	bnew 36a0 <_vfprintf_r+0x658>
    342a:	2887           	movel %d7,%a4@
    342c:	2945 0004      	movel %d5,%a4@(4)
    3430:	d5c5           	addal %d5,%a2
    3432:	2d4a ff94      	movel %a2,%fp@(-108)
    3436:	202e ff90      	movel %fp@(-112),%d0
    343a:	5280           	addql #1,%d0
    343c:	2d40 ff90      	movel %d0,%fp@(-112)
    3440:	7a07           	moveq #7,%d5
    3442:	ba80           	cmpl %d0,%d5
    3444:	6d00 034c      	bltw 3792 <_vfprintf_r+0x74a>
    3448:	508c           	addql #8,%a4
    344a:	0804 0002      	btst #2,%d4
    344e:	670e           	beqs 345e <_vfprintf_r+0x416>
    3450:	2a43           	moveal %d3,%a5
    3452:	9bee ff28      	subal %fp@(-216),%a5
    3456:	bafc 0000      	cmpaw #0,%a5
    345a:	6e00 040a      	bgtw 3866 <_vfprintf_r+0x81e>
    345e:	b6ae ff28      	cmpl %fp@(-216),%d3
    3462:	6c04           	bges 3468 <_vfprintf_r+0x420>
    3464:	262e ff28      	movel %fp@(-216),%d3
    3468:	d7ae ff34      	addl %d3,%fp@(-204)
    346c:	b4fc 0000      	cmpaw #0,%a2
    3470:	6600 0348      	bnew 37ba <_vfprintf_r+0x772>
    3474:	42ae ff90      	clrl %fp@(-112)
    3478:	49ee ffc0      	lea %fp@(-64),%a4
    347c:	6000 fc9e      	braw 311c <_vfprintf_r+0xd4>
    3480:	2d6e ff28 ff20 	movel %fp@(-216),%fp@(-224)
    3486:	0806 0003      	btst #3,%d6
    348a:	6700 0d90      	beqw 421c <_vfprintf_r+0x11d4>
    348e:	246e ff38      	moveal %fp@(-200),%a2
    3492:	9ffc 0000 000c 	subal #12,%sp
    3498:	2e9a           	movel %a2@+,%sp@
    349a:	2f5a 0004      	movel %a2@+,%sp@(4)
    349e:	2f5a 0008      	movel %a2@+,%sp@(8)
    34a2:	4eb9 0001 00b4 	jsr 100b4 <__truncxfdf2>
    34a8:	4fef 000c      	lea %sp@(12),%sp
    34ac:	2040           	moveal %d0,%a0
    34ae:	2241           	moveal %d1,%a1
    34b0:	2d48 ff44      	movel %a0,%fp@(-188)
    34b4:	2d49 ff48      	movel %a1,%fp@(-184)
    34b8:	2d4a ff38      	movel %a2,%fp@(-200)
    34bc:	202e ff44      	movel %fp@(-188),%d0
    34c0:	0880 001f      	bclr #31,%d0
    34c4:	2d40 ff60      	movel %d0,%fp@(-160)
    34c8:	2d6e ff48 ff64 	movel %fp@(-184),%fp@(-156)
    34ce:	283c 7fef ffff 	movel #2146435071,%d4
    34d4:	7aff           	moveq #-1,%d5
    34d6:	45f9 0000 fb26 	lea fb26 <__unorddf2>,%a2
    34dc:	2f05           	movel %d5,%sp@-
    34de:	2f04           	movel %d4,%sp@-
    34e0:	2f2e ff64      	movel %fp@(-156),%sp@-
    34e4:	2f2e ff60      	movel %fp@(-160),%sp@-
    34e8:	4e92           	jsr %a2@
    34ea:	4fef 0010      	lea %sp@(16),%sp
    34ee:	4a80           	tstl %d0
    34f0:	6600 0ff8      	bnew 44ea <_vfprintf_r+0x14a2>
    34f4:	2f05           	movel %d5,%sp@-
    34f6:	2f04           	movel %d4,%sp@-
    34f8:	2f2e ff64      	movel %fp@(-156),%sp@-
    34fc:	2f2e ff60      	movel %fp@(-160),%sp@-
    3500:	4eb9 0000 fa2c 	jsr fa2c <__ledf2>
    3506:	4fef 0010      	lea %sp@(16),%sp
    350a:	4a80           	tstl %d0
    350c:	6f00 0fdc      	blew 44ea <_vfprintf_r+0x14a2>
    3510:	42a7           	clrl %sp@-
    3512:	42a7           	clrl %sp@-
    3514:	2f2e ff48      	movel %fp@(-184),%sp@-
    3518:	2f2e ff44      	movel %fp@(-188),%sp@-
    351c:	4eb9 0000 fa08 	jsr fa08 <__ltdf2>
    3522:	4fef 0010      	lea %sp@(16),%sp
    3526:	4a80           	tstl %d0
    3528:	6d00 11fc      	bltw 4726 <_vfprintf_r+0x16de>
    352c:	122e ff71      	moveb %fp@(-143),%d1
    3530:	3a41           	moveaw %d1,%a5
    3532:	7447           	moveq #71,%d2
    3534:	b48b           	cmpl %a3,%d2
    3536:	6d00 11d2      	bltw 470a <_vfprintf_r+0x16c2>
    353a:	2e3c 0001 08cb 	movel #67787,%d7
    3540:	7880           	moveq #-128,%d4
    3542:	4604           	notb %d4
    3544:	c886           	andl %d6,%d4
    3546:	7a03           	moveq #3,%d5
    3548:	2d45 ff28      	movel %d5,%fp@(-216)
    354c:	7400           	moveq #0,%d2
    354e:	42ae ff3c      	clrl %fp@(-196)
    3552:	320d           	movew %a5,%d1
    3554:	4a01           	tstb %d1
    3556:	6704           	beqs 355c <_vfprintf_r+0x514>
    3558:	52ae ff28      	addql #1,%fp@(-216)
    355c:	7002           	moveq #2,%d0
    355e:	c084           	andl %d4,%d0
    3560:	2a40           	moveal %d0,%a5
    3562:	0804 0001      	btst #1,%d4
    3566:	6700 fe32      	beqw 339a <_vfprintf_r+0x352>
    356a:	54ae ff28      	addql #2,%fp@(-216)
    356e:	3a7c 0002      	moveaw #2,%a5
    3572:	6000 fe26      	braw 339a <_vfprintf_r+0x352>
    3576:	206e ff2c      	moveal %fp@(-212),%a0
    357a:	4a68 000e      	tstw %a0@(14)
    357e:	6d00 fb68      	bltw 30e8 <_vfprintf_r+0xa0>
    3582:	2d6e ff38 0014 	movel %fp@(-200),%fp@(20)
    3588:	2d6e ff28 0010 	movel %fp@(-216),%fp@(16)
    358e:	2d48 000c      	movel %a0,%fp@(12)
    3592:	2d6e ff30 0008 	movel %fp@(-208),%fp@(8)
    3598:	4cee 3cfc fef8 	moveml %fp@(-264),%d2-%d7/%a2-%a5
    359e:	4e5e           	unlk %fp
    35a0:	4ef9 0000 4d6a 	jmp 4d6a <__sbprintf>
    35a6:	2a43           	moveal %d3,%a5
    35a8:	9bee ff28      	subal %fp@(-216),%a5
    35ac:	bafc 0000      	cmpaw #0,%a5
    35b0:	6f00 fe64      	blew 3416 <_vfprintf_r+0x3ce>
    35b4:	202e ff90      	movel %fp@(-112),%d0
    35b8:	7210           	moveq #16,%d1
    35ba:	b28d           	cmpl %a5,%d1
    35bc:	6c4e           	bges 360c <_vfprintf_r+0x5c4>
    35be:	7c8c           	moveq #-116,%d6
    35c0:	dc8e           	addl %fp,%d6
    35c2:	204c           	moveal %a4,%a0
    35c4:	2845           	moveal %d5,%a4
    35c6:	2a03           	movel %d3,%d5
    35c8:	224a           	moveal %a2,%a1
    35ca:	2442           	moveal %d2,%a2
    35cc:	242e ff30      	movel %fp@(-208),%d2
    35d0:	262e ff2c      	movel %fp@(-212),%d3
    35d4:	20bc 0001 09d4 	movel #68052,%a0@
    35da:	7210           	moveq #16,%d1
    35dc:	2141 0004      	movel %d1,%a0@(4)
    35e0:	43e9 0010      	lea %a1@(16),%a1
    35e4:	2d49 ff94      	movel %a1,%fp@(-108)
    35e8:	5280           	addql #1,%d0
    35ea:	2d40 ff90      	movel %d0,%fp@(-112)
    35ee:	7207           	moveq #7,%d1
    35f0:	b280           	cmpl %d0,%d1
    35f2:	6d00 077a      	bltw 3d6e <_vfprintf_r+0xd26>
    35f6:	5088           	addql #8,%a0
    35f8:	4bed fff0      	lea %a5@(-16),%a5
    35fc:	7210           	moveq #16,%d1
    35fe:	b28d           	cmpl %a5,%d1
    3600:	6dd2           	blts 35d4 <_vfprintf_r+0x58c>
    3602:	2605           	movel %d5,%d3
    3604:	240a           	movel %a2,%d2
    3606:	2a0c           	movel %a4,%d5
    3608:	2848           	moveal %a0,%a4
    360a:	2449           	moveal %a1,%a2
    360c:	28bc 0001 09d4 	movel #68052,%a4@
    3612:	294d 0004      	movel %a5,%a4@(4)
    3616:	d5cd           	addal %a5,%a2
    3618:	2d4a ff94      	movel %a2,%fp@(-108)
    361c:	5280           	addql #1,%d0
    361e:	2d40 ff90      	movel %d0,%fp@(-112)
    3622:	7207           	moveq #7,%d1
    3624:	b280           	cmpl %d0,%d1
    3626:	6d00 0fce      	bltw 45f6 <_vfprintf_r+0x15ae>
    362a:	508c           	addql #8,%a4
    362c:	2a42           	moveal %d2,%a5
    362e:	9bc5           	subal %d5,%a5
    3630:	bafc 0000      	cmpaw #0,%a5
    3634:	6f00 fdec      	blew 3422 <_vfprintf_r+0x3da>
    3638:	202e ff90      	movel %fp@(-112),%d0
    363c:	7410           	moveq #16,%d2
    363e:	b48d           	cmpl %a5,%d2
    3640:	6c36           	bges 3678 <_vfprintf_r+0x630>
    3642:	242e ff30      	movel %fp@(-208),%d2
    3646:	2c2e ff2c      	movel %fp@(-212),%d6
    364a:	28bc 0001 09d4 	movel #68052,%a4@
    3650:	7210           	moveq #16,%d1
    3652:	2941 0004      	movel %d1,%a4@(4)
    3656:	45ea 0010      	lea %a2@(16),%a2
    365a:	2d4a ff94      	movel %a2,%fp@(-108)
    365e:	5280           	addql #1,%d0
    3660:	2d40 ff90      	movel %d0,%fp@(-112)
    3664:	7207           	moveq #7,%d1
    3666:	b280           	cmpl %d0,%d1
    3668:	6d00 066e      	bltw 3cd8 <_vfprintf_r+0xc90>
    366c:	508c           	addql #8,%a4
    366e:	4bed fff0      	lea %a5@(-16),%a5
    3672:	7210           	moveq #16,%d1
    3674:	b28d           	cmpl %a5,%d1
    3676:	6dd2           	blts 364a <_vfprintf_r+0x602>
    3678:	28bc 0001 09d4 	movel #68052,%a4@
    367e:	294d 0004      	movel %a5,%a4@(4)
    3682:	d5cd           	addal %a5,%a2
    3684:	2d4a ff94      	movel %a2,%fp@(-108)
    3688:	5280           	addql #1,%d0
    368a:	2d40 ff90      	movel %d0,%fp@(-112)
    368e:	7407           	moveq #7,%d2
    3690:	b480           	cmpl %d0,%d2
    3692:	6d00 0a4e      	bltw 40e2 <_vfprintf_r+0x109a>
    3696:	508c           	addql #8,%a4
    3698:	0804 0008      	btst #8,%d4
    369c:	6700 fd8c      	beqw 342a <_vfprintf_r+0x3e2>
    36a0:	7065           	moveq #101,%d0
    36a2:	b08b           	cmpl %a3,%d0
    36a4:	6c00 06fa      	bgew 3da0 <_vfprintf_r+0xd58>
    36a8:	42a7           	clrl %sp@-
    36aa:	42a7           	clrl %sp@-
    36ac:	2f2e ff48      	movel %fp@(-184),%sp@-
    36b0:	2f2e ff44      	movel %fp@(-188),%sp@-
    36b4:	4eb9 0000 f99c 	jsr f99c <__eqdf2>
    36ba:	4fef 0010      	lea %sp@(16),%sp
    36be:	4a80           	tstl %d0
    36c0:	6600 0838      	bnew 3efa <_vfprintf_r+0xeb2>
    36c4:	28bc 0001 0904 	movel #67844,%a4@
    36ca:	7201           	moveq #1,%d1
    36cc:	2941 0004      	movel %d1,%a4@(4)
    36d0:	528a           	addql #1,%a2
    36d2:	2d4a ff94      	movel %a2,%fp@(-108)
    36d6:	202e ff90      	movel %fp@(-112),%d0
    36da:	5280           	addql #1,%d0
    36dc:	2d40 ff90      	movel %d0,%fp@(-112)
    36e0:	7407           	moveq #7,%d2
    36e2:	b480           	cmpl %d0,%d2
    36e4:	6d00 0edc      	bltw 45c2 <_vfprintf_r+0x157a>
    36e8:	508c           	addql #8,%a4
    36ea:	2a2e ff40      	movel %fp@(-192),%d5
    36ee:	baae ff74      	cmpl %fp@(-140),%d5
    36f2:	6f00 0a8a      	blew 417e <_vfprintf_r+0x1136>
    36f6:	28ae ff50      	movel %fp@(-176),%a4@
    36fa:	296e ff4c 0004 	movel %fp@(-180),%a4@(4)
    3700:	d5ee ff4c      	addal %fp@(-180),%a2
    3704:	2d4a ff94      	movel %a2,%fp@(-108)
    3708:	202e ff90      	movel %fp@(-112),%d0
    370c:	5280           	addql #1,%d0
    370e:	2d40 ff90      	movel %d0,%fp@(-112)
    3712:	7e07           	moveq #7,%d7
    3714:	be80           	cmpl %d0,%d7
    3716:	6d00 0b46      	bltw 425e <_vfprintf_r+0x1216>
    371a:	508c           	addql #8,%a4
    371c:	2a6e ff40      	moveal %fp@(-192),%a5
    3720:	538d           	subql #1,%a5
    3722:	bafc 0000      	cmpaw #0,%a5
    3726:	6f00 fd22      	blew 344a <_vfprintf_r+0x402>
    372a:	202e ff90      	movel %fp@(-112),%d0
    372e:	7210           	moveq #16,%d1
    3730:	b28d           	cmpl %a5,%d1
    3732:	6c40           	bges 3774 <_vfprintf_r+0x72c>
    3734:	748c           	moveq #-116,%d2
    3736:	d48e           	addl %fp,%d2
    3738:	47f9 0000 4e14 	lea 4e14 <__sprint_r>,%a3
    373e:	2a2e ff30      	movel %fp@(-208),%d5
    3742:	2c2e ff2c      	movel %fp@(-212),%d6
    3746:	28bc 0001 09d4 	movel #68052,%a4@
    374c:	7e10           	moveq #16,%d7
    374e:	2947 0004      	movel %d7,%a4@(4)
    3752:	45ea 0010      	lea %a2@(16),%a2
    3756:	2d4a ff94      	movel %a2,%fp@(-108)
    375a:	5280           	addql #1,%d0
    375c:	2d40 ff90      	movel %d0,%fp@(-112)
    3760:	7207           	moveq #7,%d1
    3762:	b280           	cmpl %d0,%d1
    3764:	6d00 0c76      	bltw 43dc <_vfprintf_r+0x1394>
    3768:	508c           	addql #8,%a4
    376a:	4bed fff0      	lea %a5@(-16),%a5
    376e:	7e10           	moveq #16,%d7
    3770:	be8d           	cmpl %a5,%d7
    3772:	6dd2           	blts 3746 <_vfprintf_r+0x6fe>
    3774:	28bc 0001 09d4 	movel #68052,%a4@
    377a:	294d 0004      	movel %a5,%a4@(4)
    377e:	d5cd           	addal %a5,%a2
    3780:	2d4a ff94      	movel %a2,%fp@(-108)
    3784:	5280           	addql #1,%d0
    3786:	2d40 ff90      	movel %d0,%fp@(-112)
    378a:	7207           	moveq #7,%d1
    378c:	b280           	cmpl %d0,%d1
    378e:	6c00 fcb8      	bgew 3448 <_vfprintf_r+0x400>
    3792:	486e ff8c      	pea %fp@(-116)
    3796:	2f2e ff2c      	movel %fp@(-212),%sp@-
    379a:	2f2e ff30      	movel %fp@(-208),%sp@-
    379e:	4eb9 0000 4e14 	jsr 4e14 <__sprint_r>
    37a4:	4fef 000c      	lea %sp@(12),%sp
    37a8:	4a80           	tstl %d0
    37aa:	6600 fba6      	bnew 3352 <_vfprintf_r+0x30a>
    37ae:	246e ff94      	moveal %fp@(-108),%a2
    37b2:	49ee ffc0      	lea %fp@(-64),%a4
    37b6:	6000 fc92      	braw 344a <_vfprintf_r+0x402>
    37ba:	486e ff8c      	pea %fp@(-116)
    37be:	2f2e ff2c      	movel %fp@(-212),%sp@-
    37c2:	2f2e ff30      	movel %fp@(-208),%sp@-
    37c6:	4eb9 0000 4e14 	jsr 4e14 <__sprint_r>
    37cc:	4fef 000c      	lea %sp@(12),%sp
    37d0:	4a80           	tstl %d0
    37d2:	6600 fb7e      	bnew 3352 <_vfprintf_r+0x30a>
    37d6:	42ae ff90      	clrl %fp@(-112)
    37da:	49ee ffc0      	lea %fp@(-64),%a4
    37de:	6000 f93c      	braw 311c <_vfprintf_r+0xd4>
    37e2:	202e ff90      	movel %fp@(-112),%d0
    37e6:	7210           	moveq #16,%d1
    37e8:	b289           	cmpl %a1,%d1
    37ea:	6c56           	bges 3842 <_vfprintf_r+0x7fa>
    37ec:	2d42 ff5c      	movel %d2,%fp@(-164)
    37f0:	204c           	moveal %a4,%a0
    37f2:	2845           	moveal %d5,%a4
    37f4:	2a03           	movel %d3,%d5
    37f6:	220a           	movel %a2,%d1
    37f8:	2449           	moveal %a1,%a2
    37fa:	242e ff30      	movel %fp@(-208),%d2
    37fe:	262e ff2c      	movel %fp@(-212),%d3
    3802:	2241           	moveal %d1,%a1
    3804:	20bc 0001 09e4 	movel #68068,%a0@
    380a:	7210           	moveq #16,%d1
    380c:	2141 0004      	movel %d1,%a0@(4)
    3810:	43e9 0010      	lea %a1@(16),%a1
    3814:	2d49 ff94      	movel %a1,%fp@(-108)
    3818:	5280           	addql #1,%d0
    381a:	2d40 ff90      	movel %d0,%fp@(-112)
    381e:	7207           	moveq #7,%d1
    3820:	b280           	cmpl %d0,%d1
    3822:	6d00 04e8      	bltw 3d0c <_vfprintf_r+0xcc4>
    3826:	5088           	addql #8,%a0
    3828:	45ea fff0      	lea %a2@(-16),%a2
    382c:	7210           	moveq #16,%d1
    382e:	b28a           	cmpl %a2,%d1
    3830:	6dd2           	blts 3804 <_vfprintf_r+0x7bc>
    3832:	2605           	movel %d5,%d3
    3834:	242e ff5c      	movel %fp@(-164),%d2
    3838:	2a0c           	movel %a4,%d5
    383a:	2848           	moveal %a0,%a4
    383c:	2209           	movel %a1,%d1
    383e:	224a           	moveal %a2,%a1
    3840:	2441           	moveal %d1,%a2
    3842:	28bc 0001 09e4 	movel #68068,%a4@
    3848:	2949 0004      	movel %a1,%a4@(4)
    384c:	d5c9           	addal %a1,%a2
    384e:	2d4a ff94      	movel %a2,%fp@(-108)
    3852:	5280           	addql #1,%d0
    3854:	2d40 ff90      	movel %d0,%fp@(-112)
    3858:	7207           	moveq #7,%d1
    385a:	b280           	cmpl %d0,%d1
    385c:	6d00 0c64      	bltw 44c2 <_vfprintf_r+0x147a>
    3860:	508c           	addql #8,%a4
    3862:	6000 fb50      	braw 33b4 <_vfprintf_r+0x36c>
    3866:	202e ff90      	movel %fp@(-112),%d0
    386a:	7210           	moveq #16,%d1
    386c:	b28d           	cmpl %a5,%d1
    386e:	6c40           	bges 38b0 <_vfprintf_r+0x868>
    3870:	748c           	moveq #-116,%d2
    3872:	d48e           	addl %fp,%d2
    3874:	47f9 0000 4e14 	lea 4e14 <__sprint_r>,%a3
    387a:	282e ff30      	movel %fp@(-208),%d4
    387e:	2a2e ff2c      	movel %fp@(-212),%d5
    3882:	28bc 0001 09e4 	movel #68068,%a4@
    3888:	7e10           	moveq #16,%d7
    388a:	2947 0004      	movel %d7,%a4@(4)
    388e:	45ea 0010      	lea %a2@(16),%a2
    3892:	2d4a ff94      	movel %a2,%fp@(-108)
    3896:	5280           	addql #1,%d0
    3898:	2d40 ff90      	movel %d0,%fp@(-112)
    389c:	7207           	moveq #7,%d1
    389e:	b280           	cmpl %d0,%d1
    38a0:	6d00 049e      	bltw 3d40 <_vfprintf_r+0xcf8>
    38a4:	508c           	addql #8,%a4
    38a6:	4bed fff0      	lea %a5@(-16),%a5
    38aa:	7e10           	moveq #16,%d7
    38ac:	be8d           	cmpl %a5,%d7
    38ae:	6dd2           	blts 3882 <_vfprintf_r+0x83a>
    38b0:	28bc 0001 09e4 	movel #68068,%a4@
    38b6:	294d 0004      	movel %a5,%a4@(4)
    38ba:	d5cd           	addal %a5,%a2
    38bc:	2d4a ff94      	movel %a2,%fp@(-108)
    38c0:	5280           	addql #1,%d0
    38c2:	2d40 ff90      	movel %d0,%fp@(-112)
    38c6:	7207           	moveq #7,%d1
    38c8:	b280           	cmpl %d0,%d1
    38ca:	6c00 fb92      	bgew 345e <_vfprintf_r+0x416>
    38ce:	486e ff8c      	pea %fp@(-116)
    38d2:	2f2e ff2c      	movel %fp@(-212),%sp@-
    38d6:	2f2e ff30      	movel %fp@(-208),%sp@-
    38da:	4eb9 0000 4e14 	jsr 4e14 <__sprint_r>
    38e0:	4fef 000c      	lea %sp@(12),%sp
    38e4:	4a80           	tstl %d0
    38e6:	6600 fa6a      	bnew 3352 <_vfprintf_r+0x30a>
    38ea:	246e ff94      	moveal %fp@(-108),%a2
    38ee:	6000 fb6e      	braw 345e <_vfprintf_r+0x416>
    38f2:	2d6e ff28 ff20 	movel %fp@(-216),%fp@(-224)
    38f8:	206e ff38      	moveal %fp@(-200),%a0
    38fc:	58ae ff38      	addql #4,%fp@(-200)
    3900:	2018           	movel %a0@+,%d0
    3902:	0806 0004      	btst #4,%d6
    3906:	6678           	bnes 3980 <_vfprintf_r+0x938>
    3908:	0806 0006      	btst #6,%d6
    390c:	6772           	beqs 3980 <_vfprintf_r+0x938>
    390e:	48c0           	extl %d0
    3910:	2a00           	movel %d0,%d5
    3912:	6b70           	bmis 3984 <_vfprintf_r+0x93c>
    3914:	122e ff71      	moveb %fp@(-143),%d1
    3918:	3a41           	moveaw %d1,%a5
    391a:	4a82           	tstl %d2
    391c:	6d00 00d4      	bltw 39f2 <_vfprintf_r+0x9aa>
    3920:	7880           	moveq #-128,%d4
    3922:	4604           	notb %d4
    3924:	c886           	andl %d6,%d4
    3926:	4a80           	tstl %d0
    3928:	6600 00c6      	bnew 39f0 <_vfprintf_r+0x9a8>
    392c:	7001           	moveq #1,%d0
    392e:	4a82           	tstl %d2
    3930:	6600 0226      	bnew 3b58 <_vfprintf_r+0xb10>
    3934:	4a80           	tstl %d0
    3936:	6600 072a      	bnew 4062 <_vfprintf_r+0x101a>
    393a:	7a01           	moveq #1,%d5
    393c:	ca86           	andl %d6,%d5
    393e:	0806 0000      	btst #0,%d6
    3942:	6700 08d0      	beqw 4214 <_vfprintf_r+0x11cc>
    3946:	1d7c 0030 ffbf 	moveb #48,%fp@(-65)
    394c:	7ebf           	moveq #-65,%d7
    394e:	de8e           	addl %fp,%d7
    3950:	2d42 ff28      	movel %d2,%fp@(-216)
    3954:	ba82           	cmpl %d2,%d5
    3956:	6f04           	bles 395c <_vfprintf_r+0x914>
    3958:	2d45 ff28      	movel %d5,%fp@(-216)
    395c:	42ae ff3c      	clrl %fp@(-196)
    3960:	320d           	movew %a5,%d1
    3962:	4a01           	tstb %d1
    3964:	6600 fbf2      	bnew 3558 <_vfprintf_r+0x510>
    3968:	6000 fbf2      	braw 355c <_vfprintf_r+0x514>
    396c:	2d6e ff28 ff20 	movel %fp@(-216),%fp@(-224)
    3972:	7810           	moveq #16,%d4
    3974:	8c84           	orl %d4,%d6
    3976:	206e ff38      	moveal %fp@(-200),%a0
    397a:	58ae ff38      	addql #4,%fp@(-200)
    397e:	2018           	movel %a0@+,%d0
    3980:	2a00           	movel %d0,%d5
    3982:	6a90           	bpls 3914 <_vfprintf_r+0x8cc>
    3984:	2a00           	movel %d0,%d5
    3986:	4485           	negl %d5
    3988:	3a7c 002d      	moveaw #45,%a5
    398c:	7001           	moveq #1,%d0
    398e:	380d           	movew %a5,%d4
    3990:	1d44 ff71      	moveb %d4,%fp@(-143)
    3994:	4a82           	tstl %d2
    3996:	6d0c           	blts 39a4 <_vfprintf_r+0x95c>
    3998:	7880           	moveq #-128,%d4
    399a:	4604           	notb %d4
    399c:	c886           	andl %d6,%d4
    399e:	4a85           	tstl %d5
    39a0:	678c           	beqs 392e <_vfprintf_r+0x8e6>
    39a2:	2c04           	movel %d4,%d6
    39a4:	7e01           	moveq #1,%d7
    39a6:	be80           	cmpl %d0,%d7
    39a8:	6748           	beqs 39f2 <_vfprintf_r+0x9aa>
    39aa:	5580           	subql #2,%d0
    39ac:	6700 01be      	beqw 3b6c <_vfprintf_r+0xb24>
    39b0:	7ec0           	moveq #-64,%d7
    39b2:	41f6 7800      	lea %fp@(0,%d7:l),%a0
    39b6:	2208           	movel %a0,%d1
    39b8:	1005           	moveb %d5,%d0
    39ba:	0200 0007      	andib #7,%d0
    39be:	0600 0030      	addib #48,%d0
    39c2:	1100           	moveb %d0,%a0@-
    39c4:	e68d           	lsrl #3,%d5
    39c6:	66ee           	bnes 39b6 <_vfprintf_r+0x96e>
    39c8:	2e08           	movel %a0,%d7
    39ca:	0806 0000      	btst #0,%d6
    39ce:	6700 01b4      	beqw 3b84 <_vfprintf_r+0xb3c>
    39d2:	0c00 0030      	cmpib #48,%d0
    39d6:	6700 01ac      	beqw 3b84 <_vfprintf_r+0xb3c>
    39da:	5581           	subql #2,%d1
    39dc:	117c 0030 ffff 	moveb #48,%a0@(-1)
    39e2:	2a2e ff24      	movel %fp@(-220),%d5
    39e6:	9a81           	subl %d1,%d5
    39e8:	2806           	movel %d6,%d4
    39ea:	2e01           	movel %d1,%d7
    39ec:	6000 ff62      	braw 3950 <_vfprintf_r+0x908>
    39f0:	2c04           	movel %d4,%d6
    39f2:	7009           	moveq #9,%d0
    39f4:	b085           	cmpl %d5,%d0
    39f6:	6500 07b6      	bcsw 41ae <_vfprintf_r+0x1166>
    39fa:	0605 0030      	addib #48,%d5
    39fe:	1d45 ffbf      	moveb %d5,%fp@(-65)
    3a02:	2806           	movel %d6,%d4
    3a04:	7a01           	moveq #1,%d5
    3a06:	7ebf           	moveq #-65,%d7
    3a08:	de8e           	addl %fp,%d7
    3a0a:	6000 ff44      	braw 3950 <_vfprintf_r+0x908>
    3a0e:	206e ff38      	moveal %fp@(-200),%a0
    3a12:	2618           	movel %a0@+,%d3
    3a14:	6a00 07e8      	bplw 41fe <_vfprintf_r+0x11b6>
    3a18:	4483           	negl %d3
    3a1a:	2d48 ff38      	movel %a0,%fp@(-200)
    3a1e:	7204           	moveq #4,%d1
    3a20:	8c81           	orl %d1,%d6
    3a22:	206e ff28      	moveal %fp@(-216),%a0
    3a26:	52ae ff28      	addql #1,%fp@(-216)
    3a2a:	1018           	moveb %a0@+,%d0
    3a2c:	4880           	extw %d0
    3a2e:	3640           	moveaw %d0,%a3
    3a30:	6000 f760      	braw 3192 <_vfprintf_r+0x14a>
    3a34:	206e ff28      	moveal %fp@(-216),%a0
    3a38:	52ae ff28      	addql #1,%fp@(-216)
    3a3c:	1018           	moveb %a0@+,%d0
    3a3e:	4880           	extw %d0
    3a40:	3640           	moveaw %d0,%a3
    3a42:	0c40 002a      	cmpiw #42,%d0
    3a46:	6700 07ac      	beqw 41f4 <_vfprintf_r+0x11ac>
    3a4a:	41eb ffd0      	lea %a3@(-48),%a0
    3a4e:	7400           	moveq #0,%d2
    3a50:	7009           	moveq #9,%d0
    3a52:	b088           	cmpl %a0,%d0
    3a54:	6500 f73c      	bcsw 3192 <_vfprintf_r+0x14a>
    3a58:	2002           	movel %d2,%d0
    3a5a:	d082           	addl %d2,%d0
    3a5c:	d080           	addl %d0,%d0
    3a5e:	d082           	addl %d2,%d0
    3a60:	d080           	addl %d0,%d0
    3a62:	2400           	movel %d0,%d2
    3a64:	d488           	addl %a0,%d2
    3a66:	206e ff28      	moveal %fp@(-216),%a0
    3a6a:	52ae ff28      	addql #1,%fp@(-216)
    3a6e:	1018           	moveb %a0@+,%d0
    3a70:	4880           	extw %d0
    3a72:	3640           	moveaw %d0,%a3
    3a74:	41eb ffd0      	lea %a3@(-48),%a0
    3a78:	7009           	moveq #9,%d0
    3a7a:	b088           	cmpl %a0,%d0
    3a7c:	64da           	bccs 3a58 <_vfprintf_r+0xa10>
    3a7e:	4a82           	tstl %d2
    3a80:	6c00 f710      	bgew 3192 <_vfprintf_r+0x14a>
    3a84:	74ff           	moveq #-1,%d2
    3a86:	6000 f70a      	braw 3192 <_vfprintf_r+0x14a>
    3a8a:	727f           	moveq #127,%d1
    3a8c:	4601           	notb %d1
    3a8e:	8c81           	orl %d1,%d6
    3a90:	206e ff28      	moveal %fp@(-216),%a0
    3a94:	52ae ff28      	addql #1,%fp@(-216)
    3a98:	1018           	moveb %a0@+,%d0
    3a9a:	4880           	extw %d0
    3a9c:	3640           	moveaw %d0,%a3
    3a9e:	6000 f6f2      	braw 3192 <_vfprintf_r+0x14a>
    3aa2:	1d7c 002b ff71 	moveb #43,%fp@(-143)
    3aa8:	206e ff28      	moveal %fp@(-216),%a0
    3aac:	52ae ff28      	addql #1,%fp@(-216)
    3ab0:	1018           	moveb %a0@+,%d0
    3ab2:	4880           	extw %d0
    3ab4:	3640           	moveaw %d0,%a3
    3ab6:	6000 f6da      	braw 3192 <_vfprintf_r+0x14a>
    3aba:	7001           	moveq #1,%d0
    3abc:	8c80           	orl %d0,%d6
    3abe:	206e ff28      	moveal %fp@(-216),%a0
    3ac2:	52ae ff28      	addql #1,%fp@(-216)
    3ac6:	1018           	moveb %a0@+,%d0
    3ac8:	4880           	extw %d0
    3aca:	3640           	moveaw %d0,%a3
    3acc:	6000 f6c4      	braw 3192 <_vfprintf_r+0x14a>
    3ad0:	4a2e ff71      	tstb %fp@(-143)
    3ad4:	6600 f6ae      	bnew 3184 <_vfprintf_r+0x13c>
    3ad8:	1d7c 0020 ff71 	moveb #32,%fp@(-143)
    3ade:	206e ff28      	moveal %fp@(-216),%a0
    3ae2:	52ae ff28      	addql #1,%fp@(-216)
    3ae6:	1018           	moveb %a0@+,%d0
    3ae8:	4880           	extw %d0
    3aea:	3640           	moveaw %d0,%a3
    3aec:	6000 f6a4      	braw 3192 <_vfprintf_r+0x14a>
    3af0:	2d6e ff28 ff20 	movel %fp@(-216),%fp@(-224)
    3af6:	206e ff38      	moveal %fp@(-200),%a0
    3afa:	2248           	moveal %a0,%a1
    3afc:	5888           	addql #4,%a0
    3afe:	1d69 0003 ff98 	moveb %a1@(3),%fp@(-104)
    3b04:	422e ff71      	clrb %fp@(-143)
    3b08:	2d48 ff38      	movel %a0,%fp@(-200)
    3b0c:	7201           	moveq #1,%d1
    3b0e:	2d41 ff28      	movel %d1,%fp@(-216)
    3b12:	7a01           	moveq #1,%d5
    3b14:	7e98           	moveq #-104,%d7
    3b16:	de8e           	addl %fp,%d7
    3b18:	2806           	movel %d6,%d4
    3b1a:	7400           	moveq #0,%d2
    3b1c:	42ae ff3c      	clrl %fp@(-196)
    3b20:	9bcd           	subal %a5,%a5
    3b22:	6000 f876      	braw 339a <_vfprintf_r+0x352>
    3b26:	7208           	moveq #8,%d1
    3b28:	8c81           	orl %d1,%d6
    3b2a:	206e ff28      	moveal %fp@(-216),%a0
    3b2e:	52ae ff28      	addql #1,%fp@(-216)
    3b32:	1018           	moveb %a0@+,%d0
    3b34:	4880           	extw %d0
    3b36:	3640           	moveaw %d0,%a3
    3b38:	6000 f658      	braw 3192 <_vfprintf_r+0x14a>
    3b3c:	2d6e ff28 ff20 	movel %fp@(-216),%fp@(-224)
    3b42:	7810           	moveq #16,%d4
    3b44:	8c84           	orl %d4,%d6
    3b46:	206e ff38      	moveal %fp@(-200),%a0
    3b4a:	58ae ff38      	addql #4,%fp@(-200)
    3b4e:	2a18           	movel %a0@+,%d5
    3b50:	7001           	moveq #1,%d0
    3b52:	9bcd           	subal %a5,%a5
    3b54:	6000 fe38      	braw 398e <_vfprintf_r+0x946>
    3b58:	7a01           	moveq #1,%d5
    3b5a:	ba80           	cmpl %d0,%d5
    3b5c:	6700 0efe      	beqw 4a5c <_vfprintf_r+0x1a14>
    3b60:	7e02           	moveq #2,%d7
    3b62:	2c04           	movel %d4,%d6
    3b64:	7a00           	moveq #0,%d5
    3b66:	be80           	cmpl %d0,%d7
    3b68:	6600 fe46      	bnew 39b0 <_vfprintf_r+0x968>
    3b6c:	7ec0           	moveq #-64,%d7
    3b6e:	226e ff58      	moveal %fp@(-168),%a1
    3b72:	41f6 7800      	lea %fp@(0,%d7:l),%a0
    3b76:	700f           	moveq #15,%d0
    3b78:	c085           	andl %d5,%d0
    3b7a:	1131 0800      	moveb %a1@(0,%d0:l),%a0@-
    3b7e:	e88d           	lsrl #4,%d5
    3b80:	66f4           	bnes 3b76 <_vfprintf_r+0xb2e>
    3b82:	2e08           	movel %a0,%d7
    3b84:	2a2e ff24      	movel %fp@(-220),%d5
    3b88:	9a87           	subl %d7,%d5
    3b8a:	2806           	movel %d6,%d4
    3b8c:	6000 fdc2      	braw 3950 <_vfprintf_r+0x908>
    3b90:	2d6e ff28 ff20 	movel %fp@(-216),%fp@(-224)
    3b96:	7010           	moveq #16,%d0
    3b98:	8c80           	orl %d0,%d6
    3b9a:	206e ff38      	moveal %fp@(-200),%a0
    3b9e:	58ae ff38      	addql #4,%fp@(-200)
    3ba2:	2a18           	movel %a0@+,%d5
    3ba4:	7000           	moveq #0,%d0
    3ba6:	9bcd           	subal %a5,%a5
    3ba8:	6000 fde4      	braw 398e <_vfprintf_r+0x946>
    3bac:	7840           	moveq #64,%d4
    3bae:	8c84           	orl %d4,%d6
    3bb0:	206e ff28      	moveal %fp@(-216),%a0
    3bb4:	52ae ff28      	addql #1,%fp@(-216)
    3bb8:	1018           	moveb %a0@+,%d0
    3bba:	4880           	extw %d0
    3bbc:	3640           	moveaw %d0,%a3
    3bbe:	6000 f5d2      	braw 3192 <_vfprintf_r+0x14a>
    3bc2:	2d6e ff28 ff20 	movel %fp@(-216),%fp@(-224)
    3bc8:	206e ff38      	moveal %fp@(-200),%a0
    3bcc:	58ae ff38      	addql #4,%fp@(-200)
    3bd0:	2a18           	movel %a0@+,%d5
    3bd2:	0806 0004      	btst #4,%d6
    3bd6:	6600 ff78      	bnew 3b50 <_vfprintf_r+0xb08>
    3bda:	0806 0006      	btst #6,%d6
    3bde:	6700 ff70      	beqw 3b50 <_vfprintf_r+0xb08>
    3be2:	0285 0000 ffff 	andil #65535,%d5
    3be8:	7001           	moveq #1,%d0
    3bea:	6000 ff66      	braw 3b52 <_vfprintf_r+0xb0a>
    3bee:	2d6e ff28 ff20 	movel %fp@(-216),%fp@(-224)
    3bf4:	246e ff38      	moveal %fp@(-200),%a2
    3bf8:	2e1a           	movel %a2@+,%d7
    3bfa:	422e ff71      	clrb %fp@(-143)
    3bfe:	4a87           	tstl %d7
    3c00:	6700 06e4      	beqw 42e6 <_vfprintf_r+0x129e>
    3c04:	4a82           	tstl %d2
    3c06:	6d00 0778      	bltw 4380 <_vfprintf_r+0x1338>
    3c0a:	2f02           	movel %d2,%sp@-
    3c0c:	42a7           	clrl %sp@-
    3c0e:	2f07           	movel %d7,%sp@-
    3c10:	4eb9 0000 57a0 	jsr 57a0 <memchr>
    3c16:	4fef 000c      	lea %sp@(12),%sp
    3c1a:	4a80           	tstl %d0
    3c1c:	6700 0ec6      	beqw 4ae4 <_vfprintf_r+0x1a9c>
    3c20:	2a00           	movel %d0,%d5
    3c22:	9a87           	subl %d7,%d5
    3c24:	102e ff71      	moveb %fp@(-143),%d0
    3c28:	3a40           	moveaw %d0,%a5
    3c2a:	2d45 ff28      	movel %d5,%fp@(-216)
    3c2e:	6b00 076a      	bmiw 439a <_vfprintf_r+0x1352>
    3c32:	2d4a ff38      	movel %a2,%fp@(-200)
    3c36:	2806           	movel %d6,%d4
    3c38:	7400           	moveq #0,%d2
    3c3a:	42ae ff3c      	clrl %fp@(-196)
    3c3e:	320d           	movew %a5,%d1
    3c40:	4a01           	tstb %d1
    3c42:	6600 f914      	bnew 3558 <_vfprintf_r+0x510>
    3c46:	6000 f914      	braw 355c <_vfprintf_r+0x514>
    3c4a:	2d6e ff28 ff20 	movel %fp@(-216),%fp@(-224)
    3c50:	206e ff38      	moveal %fp@(-200),%a0
    3c54:	2a18           	movel %a0@+,%d5
    3c56:	7002           	moveq #2,%d0
    3c58:	8c80           	orl %d0,%d6
    3c5a:	3d7c 3078 ff72 	movew #12408,%fp@(-142)
    3c60:	2d48 ff38      	movel %a0,%fp@(-200)
    3c64:	2d7c 0001 08ec 	movel #67820,%fp@(-168)
    3c6a:	ff58 
    3c6c:	367c 0078      	moveaw #120,%a3
    3c70:	9bcd           	subal %a5,%a5
    3c72:	6000 fd1a      	braw 398e <_vfprintf_r+0x946>
    3c76:	2d6e ff28 ff20 	movel %fp@(-216),%fp@(-224)
    3c7c:	226e ff38      	moveal %fp@(-200),%a1
    3c80:	58ae ff38      	addql #4,%fp@(-200)
    3c84:	2a19           	movel %a1@+,%d5
    3c86:	0806 0004      	btst #4,%d6
    3c8a:	6600 ff18      	bnew 3ba4 <_vfprintf_r+0xb5c>
    3c8e:	0806 0006      	btst #6,%d6
    3c92:	6700 ff10      	beqw 3ba4 <_vfprintf_r+0xb5c>
    3c96:	0285 0000 ffff 	andil #65535,%d5
    3c9c:	7000           	moveq #0,%d0
    3c9e:	6000 ff06      	braw 3ba6 <_vfprintf_r+0xb5e>
    3ca2:	2d6e ff28 ff20 	movel %fp@(-216),%fp@(-224)
    3ca8:	0806 0004      	btst #4,%d6
    3cac:	6618           	bnes 3cc6 <_vfprintf_r+0xc7e>
    3cae:	0806 0006      	btst #6,%d6
    3cb2:	6712           	beqs 3cc6 <_vfprintf_r+0xc7e>
    3cb4:	226e ff38      	moveal %fp@(-200),%a1
    3cb8:	2051           	moveal %a1@,%a0
    3cba:	30ae ff36      	movew %fp@(-202),%a0@
    3cbe:	58ae ff38      	addql #4,%fp@(-200)
    3cc2:	6000 f458      	braw 311c <_vfprintf_r+0xd4>
    3cc6:	226e ff38      	moveal %fp@(-200),%a1
    3cca:	2051           	moveal %a1@,%a0
    3ccc:	20ae ff34      	movel %fp@(-204),%a0@
    3cd0:	58ae ff38      	addql #4,%fp@(-200)
    3cd4:	6000 f446      	braw 311c <_vfprintf_r+0xd4>
    3cd8:	486e ff8c      	pea %fp@(-116)
    3cdc:	2f06           	movel %d6,%sp@-
    3cde:	2f02           	movel %d2,%sp@-
    3ce0:	4eb9 0000 4e14 	jsr 4e14 <__sprint_r>
    3ce6:	4fef 000c      	lea %sp@(12),%sp
    3cea:	4a80           	tstl %d0
    3cec:	6600 f664      	bnew 3352 <_vfprintf_r+0x30a>
    3cf0:	246e ff94      	moveal %fp@(-108),%a2
    3cf4:	202e ff90      	movel %fp@(-112),%d0
    3cf8:	49ee ffc0      	lea %fp@(-64),%a4
    3cfc:	4bed fff0      	lea %a5@(-16),%a5
    3d00:	7210           	moveq #16,%d1
    3d02:	b28d           	cmpl %a5,%d1
    3d04:	6d00 f944      	bltw 364a <_vfprintf_r+0x602>
    3d08:	6000 f96e      	braw 3678 <_vfprintf_r+0x630>
    3d0c:	486e ff8c      	pea %fp@(-116)
    3d10:	2f03           	movel %d3,%sp@-
    3d12:	2f02           	movel %d2,%sp@-
    3d14:	4eb9 0000 4e14 	jsr 4e14 <__sprint_r>
    3d1a:	4fef 000c      	lea %sp@(12),%sp
    3d1e:	4a80           	tstl %d0
    3d20:	6600 f630      	bnew 3352 <_vfprintf_r+0x30a>
    3d24:	226e ff94      	moveal %fp@(-108),%a1
    3d28:	202e ff90      	movel %fp@(-112),%d0
    3d2c:	41ee ffc0      	lea %fp@(-64),%a0
    3d30:	45ea fff0      	lea %a2@(-16),%a2
    3d34:	7210           	moveq #16,%d1
    3d36:	b28a           	cmpl %a2,%d1
    3d38:	6d00 faca      	bltw 3804 <_vfprintf_r+0x7bc>
    3d3c:	6000 faf4      	braw 3832 <_vfprintf_r+0x7ea>
    3d40:	2f02           	movel %d2,%sp@-
    3d42:	2f05           	movel %d5,%sp@-
    3d44:	2f04           	movel %d4,%sp@-
    3d46:	4e93           	jsr %a3@
    3d48:	4fef 000c      	lea %sp@(12),%sp
    3d4c:	4a80           	tstl %d0
    3d4e:	6600 f602      	bnew 3352 <_vfprintf_r+0x30a>
    3d52:	246e ff94      	moveal %fp@(-108),%a2
    3d56:	202e ff90      	movel %fp@(-112),%d0
    3d5a:	49ee ffc0      	lea %fp@(-64),%a4
    3d5e:	4bed fff0      	lea %a5@(-16),%a5
    3d62:	7e10           	moveq #16,%d7
    3d64:	be8d           	cmpl %a5,%d7
    3d66:	6d00 fb1a      	bltw 3882 <_vfprintf_r+0x83a>
    3d6a:	6000 fb44      	braw 38b0 <_vfprintf_r+0x868>
    3d6e:	2f06           	movel %d6,%sp@-
    3d70:	2f03           	movel %d3,%sp@-
    3d72:	2f02           	movel %d2,%sp@-
    3d74:	4eb9 0000 4e14 	jsr 4e14 <__sprint_r>
    3d7a:	4fef 000c      	lea %sp@(12),%sp
    3d7e:	4a80           	tstl %d0
    3d80:	6600 f5d0      	bnew 3352 <_vfprintf_r+0x30a>
    3d84:	226e ff94      	moveal %fp@(-108),%a1
    3d88:	202e ff90      	movel %fp@(-112),%d0
    3d8c:	41ee ffc0      	lea %fp@(-64),%a0
    3d90:	4bed fff0      	lea %a5@(-16),%a5
    3d94:	7210           	moveq #16,%d1
    3d96:	b28d           	cmpl %a5,%d1
    3d98:	6d00 f83a      	bltw 35d4 <_vfprintf_r+0x58c>
    3d9c:	6000 f864      	braw 3602 <_vfprintf_r+0x5ba>
    3da0:	528a           	addql #1,%a2
    3da2:	242e ff90      	movel %fp@(-112),%d2
    3da6:	5282           	addql #1,%d2
    3da8:	47ec 0008      	lea %a4@(8),%a3
    3dac:	7a01           	moveq #1,%d5
    3dae:	baae ff40      	cmpl %fp@(-192),%d5
    3db2:	6c00 00a4      	bgew 3e58 <_vfprintf_r+0xe10>
    3db6:	2887           	movel %d7,%a4@
    3db8:	7001           	moveq #1,%d0
    3dba:	2940 0004      	movel %d0,%a4@(4)
    3dbe:	2d4a ff94      	movel %a2,%fp@(-108)
    3dc2:	2d42 ff90      	movel %d2,%fp@(-112)
    3dc6:	7207           	moveq #7,%d1
    3dc8:	b282           	cmpl %d2,%d1
    3dca:	6d00 033e      	bltw 410a <_vfprintf_r+0x10c2>
    3dce:	26ae ff50      	movel %fp@(-176),%a3@
    3dd2:	276e ff4c 0004 	movel %fp@(-180),%a3@(4)
    3dd8:	d5ee ff4c      	addal %fp@(-180),%a2
    3ddc:	2d4a ff94      	movel %a2,%fp@(-108)
    3de0:	5282           	addql #1,%d2
    3de2:	2d42 ff90      	movel %d2,%fp@(-112)
    3de6:	7a07           	moveq #7,%d5
    3de8:	ba82           	cmpl %d2,%d5
    3dea:	6d00 0366      	bltw 4152 <_vfprintf_r+0x110a>
    3dee:	508b           	addql #8,%a3
    3df0:	2a6e ff40      	moveal %fp@(-192),%a5
    3df4:	538d           	subql #1,%a5
    3df6:	42a7           	clrl %sp@-
    3df8:	42a7           	clrl %sp@-
    3dfa:	2f2e ff48      	movel %fp@(-184),%sp@-
    3dfe:	2f2e ff44      	movel %fp@(-188),%sp@-
    3e02:	4eb9 0000 f9c0 	jsr f9c0 <__nedf2>
    3e08:	4fef 0010      	lea %sp@(16),%sp
    3e0c:	4a80           	tstl %d0
    3e0e:	6700 025c      	beqw 406c <_vfprintf_r+0x1024>
    3e12:	5282           	addql #1,%d2
    3e14:	5287           	addql #1,%d7
    3e16:	2687           	movel %d7,%a3@
    3e18:	274d 0004      	movel %a5,%a3@(4)
    3e1c:	d5cd           	addal %a5,%a2
    3e1e:	2d4a ff94      	movel %a2,%fp@(-108)
    3e22:	2d42 ff90      	movel %d2,%fp@(-112)
    3e26:	7e07           	moveq #7,%d7
    3e28:	be82           	cmpl %d2,%d7
    3e2a:	6d4a           	blts 3e76 <_vfprintf_r+0xe2e>
    3e2c:	508b           	addql #8,%a3
    3e2e:	41ee ff7c      	lea %fp@(-132),%a0
    3e32:	2688           	movel %a0,%a3@
    3e34:	276e ff54 0004 	movel %fp@(-172),%a3@(4)
    3e3a:	d5ee ff54      	addal %fp@(-172),%a2
    3e3e:	2d4a ff94      	movel %a2,%fp@(-108)
    3e42:	5282           	addql #1,%d2
    3e44:	2d42 ff90      	movel %d2,%fp@(-112)
    3e48:	7007           	moveq #7,%d0
    3e4a:	b082           	cmpl %d2,%d0
    3e4c:	6d00 f944      	bltw 3792 <_vfprintf_r+0x74a>
    3e50:	49eb 0008      	lea %a3@(8),%a4
    3e54:	6000 f5f4      	braw 344a <_vfprintf_r+0x402>
    3e58:	0804 0000      	btst #0,%d4
    3e5c:	6600 ff58      	bnew 3db6 <_vfprintf_r+0xd6e>
    3e60:	2887           	movel %d7,%a4@
    3e62:	7a01           	moveq #1,%d5
    3e64:	2945 0004      	movel %d5,%a4@(4)
    3e68:	2d4a ff94      	movel %a2,%fp@(-108)
    3e6c:	2d42 ff90      	movel %d2,%fp@(-112)
    3e70:	7e07           	moveq #7,%d7
    3e72:	be82           	cmpl %d2,%d7
    3e74:	6cb8           	bges 3e2e <_vfprintf_r+0xde6>
    3e76:	486e ff8c      	pea %fp@(-116)
    3e7a:	2f2e ff2c      	movel %fp@(-212),%sp@-
    3e7e:	2f2e ff30      	movel %fp@(-208),%sp@-
    3e82:	4eb9 0000 4e14 	jsr 4e14 <__sprint_r>
    3e88:	4fef 000c      	lea %sp@(12),%sp
    3e8c:	4a80           	tstl %d0
    3e8e:	6600 f4c2      	bnew 3352 <_vfprintf_r+0x30a>
    3e92:	246e ff94      	moveal %fp@(-108),%a2
    3e96:	242e ff90      	movel %fp@(-112),%d2
    3e9a:	47ee ffc0      	lea %fp@(-64),%a3
    3e9e:	608e           	bras 3e2e <_vfprintf_r+0xde6>
    3ea0:	486e ff8c      	pea %fp@(-116)
    3ea4:	2f2e ff2c      	movel %fp@(-212),%sp@-
    3ea8:	2f2e ff30      	movel %fp@(-208),%sp@-
    3eac:	4eb9 0000 4e14 	jsr 4e14 <__sprint_r>
    3eb2:	4fef 000c      	lea %sp@(12),%sp
    3eb6:	4a80           	tstl %d0
    3eb8:	6600 f498      	bnew 3352 <_vfprintf_r+0x30a>
    3ebc:	246e ff94      	moveal %fp@(-108),%a2
    3ec0:	49ee ffc0      	lea %fp@(-64),%a4
    3ec4:	0c86 0000 0080 	cmpil #128,%d6
    3eca:	6600 f54a      	bnew 3416 <_vfprintf_r+0x3ce>
    3ece:	6000 f6d6      	braw 35a6 <_vfprintf_r+0x55e>
    3ed2:	486e ff8c      	pea %fp@(-116)
    3ed6:	2f2e ff2c      	movel %fp@(-212),%sp@-
    3eda:	2f2e ff30      	movel %fp@(-208),%sp@-
    3ede:	4eb9 0000 4e14 	jsr 4e14 <__sprint_r>
    3ee4:	4fef 000c      	lea %sp@(12),%sp
    3ee8:	4a80           	tstl %d0
    3eea:	6600 f466      	bnew 3352 <_vfprintf_r+0x30a>
    3eee:	246e ff94      	moveal %fp@(-108),%a2
    3ef2:	49ee ffc0      	lea %fp@(-64),%a4
    3ef6:	6000 f4e8      	braw 33e0 <_vfprintf_r+0x398>
    3efa:	222e ff74      	movel %fp@(-140),%d1
    3efe:	6f00 0540      	blew 4440 <_vfprintf_r+0x13f8>
    3f02:	242e ff40      	movel %fp@(-192),%d2
    3f06:	b4ae ff3c      	cmpl %fp@(-196),%d2
    3f0a:	6e00 0332      	bgtw 423e <_vfprintf_r+0x11f6>
    3f0e:	4a82           	tstl %d2
    3f10:	6f20           	bles 3f32 <_vfprintf_r+0xeea>
    3f12:	2887           	movel %d7,%a4@
    3f14:	2942 0004      	movel %d2,%a4@(4)
    3f18:	d5c2           	addal %d2,%a2
    3f1a:	2d4a ff94      	movel %a2,%fp@(-108)
    3f1e:	202e ff90      	movel %fp@(-112),%d0
    3f22:	5280           	addql #1,%d0
    3f24:	2d40 ff90      	movel %d0,%fp@(-112)
    3f28:	7207           	moveq #7,%d1
    3f2a:	b280           	cmpl %d0,%d1
    3f2c:	6d00 0b46      	bltw 4a74 <_vfprintf_r+0x1a2c>
    3f30:	508c           	addql #8,%a4
    3f32:	4a82           	tstl %d2
    3f34:	6d00 0314      	bltw 424a <_vfprintf_r+0x1202>
    3f38:	2a6e ff3c      	moveal %fp@(-196),%a5
    3f3c:	9bc2           	subal %d2,%a5
    3f3e:	bafc 0000      	cmpaw #0,%a5
    3f42:	6e00 03c8      	bgtw 430c <_vfprintf_r+0x12c4>
    3f46:	222e ff74      	movel %fp@(-140),%d1
    3f4a:	b2ae ff40      	cmpl %fp@(-192),%d1
    3f4e:	6d06           	blts 3f56 <_vfprintf_r+0xf0e>
    3f50:	0804 0000      	btst #0,%d4
    3f54:	6726           	beqs 3f7c <_vfprintf_r+0xf34>
    3f56:	28ae ff50      	movel %fp@(-176),%a4@
    3f5a:	296e ff4c 0004 	movel %fp@(-180),%a4@(4)
    3f60:	d5ee ff4c      	addal %fp@(-180),%a2
    3f64:	2d4a ff94      	movel %a2,%fp@(-108)
    3f68:	202e ff90      	movel %fp@(-112),%d0
    3f6c:	5280           	addql #1,%d0
    3f6e:	2d40 ff90      	movel %d0,%fp@(-112)
    3f72:	7a07           	moveq #7,%d5
    3f74:	ba80           	cmpl %d0,%d5
    3f76:	6d00 0ab8      	bltw 4a30 <_vfprintf_r+0x19e8>
    3f7a:	508c           	addql #8,%a4
    3f7c:	202e ff40      	movel %fp@(-192),%d0
    3f80:	9081           	subl %d1,%d0
    3f82:	242e ff40      	movel %fp@(-192),%d2
    3f86:	94ae ff3c      	subl %fp@(-196),%d2
    3f8a:	b082           	cmpl %d2,%d0
    3f8c:	6c02           	bges 3f90 <_vfprintf_r+0xf48>
    3f8e:	2400           	movel %d0,%d2
    3f90:	4a82           	tstl %d2
    3f92:	6f24           	bles 3fb8 <_vfprintf_r+0xf70>
    3f94:	deae ff3c      	addl %fp@(-196),%d7
    3f98:	2887           	movel %d7,%a4@
    3f9a:	2942 0004      	movel %d2,%a4@(4)
    3f9e:	d5c2           	addal %d2,%a2
    3fa0:	2d4a ff94      	movel %a2,%fp@(-108)
    3fa4:	222e ff90      	movel %fp@(-112),%d1
    3fa8:	5281           	addql #1,%d1
    3faa:	2d41 ff90      	movel %d1,%fp@(-112)
    3fae:	7e07           	moveq #7,%d7
    3fb0:	be81           	cmpl %d1,%d7
    3fb2:	6d00 0aee      	bltw 4aa2 <_vfprintf_r+0x1a5a>
    3fb6:	508c           	addql #8,%a4
    3fb8:	4a82           	tstl %d2
    3fba:	6d00 03be      	bltw 437a <_vfprintf_r+0x1332>
    3fbe:	2a40           	moveal %d0,%a5
    3fc0:	9bc2           	subal %d2,%a5
    3fc2:	bafc 0000      	cmpaw #0,%a5
    3fc6:	6f00 f482      	blew 344a <_vfprintf_r+0x402>
    3fca:	202e ff90      	movel %fp@(-112),%d0
    3fce:	7210           	moveq #16,%d1
    3fd0:	b28d           	cmpl %a5,%d1
    3fd2:	6c00 f7a0      	bgew 3774 <_vfprintf_r+0x72c>
    3fd6:	748c           	moveq #-116,%d2
    3fd8:	d48e           	addl %fp,%d2
    3fda:	47f9 0000 4e14 	lea 4e14 <__sprint_r>,%a3
    3fe0:	2a2e ff30      	movel %fp@(-208),%d5
    3fe4:	2c2e ff2c      	movel %fp@(-212),%d6
    3fe8:	28bc 0001 09d4 	movel #68052,%a4@
    3fee:	7e10           	moveq #16,%d7
    3ff0:	2947 0004      	movel %d7,%a4@(4)
    3ff4:	45ea 0010      	lea %a2@(16),%a2
    3ff8:	2d4a ff94      	movel %a2,%fp@(-108)
    3ffc:	5280           	addql #1,%d0
    3ffe:	2d40 ff90      	movel %d0,%fp@(-112)
    4002:	7207           	moveq #7,%d1
    4004:	b280           	cmpl %d0,%d1
    4006:	6d2e           	blts 4036 <_vfprintf_r+0xfee>
    4008:	508c           	addql #8,%a4
    400a:	4bed fff0      	lea %a5@(-16),%a5
    400e:	7e10           	moveq #16,%d7
    4010:	be8d           	cmpl %a5,%d7
    4012:	6c00 f760      	bgew 3774 <_vfprintf_r+0x72c>
    4016:	28bc 0001 09d4 	movel #68052,%a4@
    401c:	7e10           	moveq #16,%d7
    401e:	2947 0004      	movel %d7,%a4@(4)
    4022:	45ea 0010      	lea %a2@(16),%a2
    4026:	2d4a ff94      	movel %a2,%fp@(-108)
    402a:	5280           	addql #1,%d0
    402c:	2d40 ff90      	movel %d0,%fp@(-112)
    4030:	7207           	moveq #7,%d1
    4032:	b280           	cmpl %d0,%d1
    4034:	6cd2           	bges 4008 <_vfprintf_r+0xfc0>
    4036:	2f02           	movel %d2,%sp@-
    4038:	2f06           	movel %d6,%sp@-
    403a:	2f05           	movel %d5,%sp@-
    403c:	4e93           	jsr %a3@
    403e:	4fef 000c      	lea %sp@(12),%sp
    4042:	4a80           	tstl %d0
    4044:	6600 f30c      	bnew 3352 <_vfprintf_r+0x30a>
    4048:	246e ff94      	moveal %fp@(-108),%a2
    404c:	202e ff90      	movel %fp@(-112),%d0
    4050:	49ee ffc0      	lea %fp@(-64),%a4
    4054:	4bed fff0      	lea %a5@(-16),%a5
    4058:	7e10           	moveq #16,%d7
    405a:	be8d           	cmpl %a5,%d7
    405c:	6db8           	blts 4016 <_vfprintf_r+0xfce>
    405e:	6000 f714      	braw 3774 <_vfprintf_r+0x72c>
    4062:	7a00           	moveq #0,%d5
    4064:	7ec0           	moveq #-64,%d7
    4066:	de8e           	addl %fp,%d7
    4068:	6000 f8e6      	braw 3950 <_vfprintf_r+0x908>
    406c:	7001           	moveq #1,%d0
    406e:	b0ae ff40      	cmpl %fp@(-192),%d0
    4072:	6c00 fdba      	bgew 3e2e <_vfprintf_r+0xde6>
    4076:	7211           	moveq #17,%d1
    4078:	b2ae ff40      	cmpl %fp@(-192),%d1
    407c:	6c40           	bges 40be <_vfprintf_r+0x1076>
    407e:	7a8c           	moveq #-116,%d5
    4080:	da8e           	addl %fp,%d5
    4082:	49f9 0000 4e14 	lea 4e14 <__sprint_r>,%a4
    4088:	2c2e ff30      	movel %fp@(-208),%d6
    408c:	2e2e ff2c      	movel %fp@(-212),%d7
    4090:	26bc 0001 09d4 	movel #68052,%a3@
    4096:	7010           	moveq #16,%d0
    4098:	2740 0004      	movel %d0,%a3@(4)
    409c:	45ea 0010      	lea %a2@(16),%a2
    40a0:	2d4a ff94      	movel %a2,%fp@(-108)
    40a4:	5282           	addql #1,%d2
    40a6:	2d42 ff90      	movel %d2,%fp@(-112)
    40aa:	7207           	moveq #7,%d1
    40ac:	b282           	cmpl %d2,%d1
    40ae:	6d00 02fe      	bltw 43ae <_vfprintf_r+0x1366>
    40b2:	508b           	addql #8,%a3
    40b4:	4bed fff0      	lea %a5@(-16),%a5
    40b8:	7010           	moveq #16,%d0
    40ba:	b08d           	cmpl %a5,%d0
    40bc:	6dd2           	blts 4090 <_vfprintf_r+0x1048>
    40be:	26bc 0001 09d4 	movel #68052,%a3@
    40c4:	274d 0004      	movel %a5,%a3@(4)
    40c8:	d5cd           	addal %a5,%a2
    40ca:	2d4a ff94      	movel %a2,%fp@(-108)
    40ce:	5282           	addql #1,%d2
    40d0:	2d42 ff90      	movel %d2,%fp@(-112)
    40d4:	7207           	moveq #7,%d1
    40d6:	b282           	cmpl %d2,%d1
    40d8:	6d00 fd9c      	bltw 3e76 <_vfprintf_r+0xe2e>
    40dc:	508b           	addql #8,%a3
    40de:	6000 fd4e      	braw 3e2e <_vfprintf_r+0xde6>
    40e2:	486e ff8c      	pea %fp@(-116)
    40e6:	2f2e ff2c      	movel %fp@(-212),%sp@-
    40ea:	2f2e ff30      	movel %fp@(-208),%sp@-
    40ee:	4eb9 0000 4e14 	jsr 4e14 <__sprint_r>
    40f4:	4fef 000c      	lea %sp@(12),%sp
    40f8:	4a80           	tstl %d0
    40fa:	6600 f256      	bnew 3352 <_vfprintf_r+0x30a>
    40fe:	246e ff94      	moveal %fp@(-108),%a2
    4102:	49ee ffc0      	lea %fp@(-64),%a4
    4106:	6000 f31a      	braw 3422 <_vfprintf_r+0x3da>
    410a:	486e ff8c      	pea %fp@(-116)
    410e:	2f2e ff2c      	movel %fp@(-212),%sp@-
    4112:	2f2e ff30      	movel %fp@(-208),%sp@-
    4116:	4eb9 0000 4e14 	jsr 4e14 <__sprint_r>
    411c:	4fef 000c      	lea %sp@(12),%sp
    4120:	4a80           	tstl %d0
    4122:	6600 f22e      	bnew 3352 <_vfprintf_r+0x30a>
    4126:	246e ff94      	moveal %fp@(-108),%a2
    412a:	242e ff90      	movel %fp@(-112),%d2
    412e:	47ee ffc0      	lea %fp@(-64),%a3
    4132:	26ae ff50      	movel %fp@(-176),%a3@
    4136:	276e ff4c 0004 	movel %fp@(-180),%a3@(4)
    413c:	d5ee ff4c      	addal %fp@(-180),%a2
    4140:	2d4a ff94      	movel %a2,%fp@(-108)
    4144:	5282           	addql #1,%d2
    4146:	2d42 ff90      	movel %d2,%fp@(-112)
    414a:	7a07           	moveq #7,%d5
    414c:	ba82           	cmpl %d2,%d5
    414e:	6c00 fc9e      	bgew 3dee <_vfprintf_r+0xda6>
    4152:	486e ff8c      	pea %fp@(-116)
    4156:	2f2e ff2c      	movel %fp@(-212),%sp@-
    415a:	2f2e ff30      	movel %fp@(-208),%sp@-
    415e:	4eb9 0000 4e14 	jsr 4e14 <__sprint_r>
    4164:	4fef 000c      	lea %sp@(12),%sp
    4168:	4a80           	tstl %d0
    416a:	6600 f1e6      	bnew 3352 <_vfprintf_r+0x30a>
    416e:	246e ff94      	moveal %fp@(-108),%a2
    4172:	242e ff90      	movel %fp@(-112),%d2
    4176:	47ee ffc0      	lea %fp@(-64),%a3
    417a:	6000 fc74      	braw 3df0 <_vfprintf_r+0xda8>
    417e:	0804 0000      	btst #0,%d4
    4182:	6700 f2c6      	beqw 344a <_vfprintf_r+0x402>
    4186:	28ae ff50      	movel %fp@(-176),%a4@
    418a:	296e ff4c 0004 	movel %fp@(-180),%a4@(4)
    4190:	d5ee ff4c      	addal %fp@(-180),%a2
    4194:	2d4a ff94      	movel %a2,%fp@(-108)
    4198:	202e ff90      	movel %fp@(-112),%d0
    419c:	5280           	addql #1,%d0
    419e:	2d40 ff90      	movel %d0,%fp@(-112)
    41a2:	7e07           	moveq #7,%d7
    41a4:	be80           	cmpl %d0,%d7
    41a6:	6c00 f572      	bgew 371a <_vfprintf_r+0x6d2>
    41aa:	6000 00b2      	braw 425e <_vfprintf_r+0x1216>
    41ae:	7ec0           	moveq #-64,%d7
    41b0:	45f9 0000 ee74 	lea ee74 <__udivsi3>,%a2
    41b6:	280b           	movel %a3,%d4
    41b8:	47f6 7800      	lea %fp@(0,%d7:l),%a3
    41bc:	4878 000a      	pea a <DUART_IMR>
    41c0:	2f05           	movel %d5,%sp@-
    41c2:	4eb9 0000 ef00 	jsr ef00 <__umodsi3>
    41c8:	508f           	addql #8,%sp
    41ca:	0600 0030      	addib #48,%d0
    41ce:	1700           	moveb %d0,%a3@-
    41d0:	2e05           	movel %d5,%d7
    41d2:	4878 000a      	pea a <DUART_IMR>
    41d6:	2f05           	movel %d5,%sp@-
    41d8:	4e92           	jsr %a2@
    41da:	508f           	addql #8,%sp
    41dc:	2a00           	movel %d0,%d5
    41de:	7209           	moveq #9,%d1
    41e0:	b287           	cmpl %d7,%d1
    41e2:	65d8           	bcss 41bc <_vfprintf_r+0x1174>
    41e4:	2e0b           	movel %a3,%d7
    41e6:	2644           	moveal %d4,%a3
    41e8:	2a2e ff24      	movel %fp@(-220),%d5
    41ec:	9a87           	subl %d7,%d5
    41ee:	2806           	movel %d6,%d4
    41f0:	6000 f75e      	braw 3950 <_vfprintf_r+0x908>
    41f4:	206e ff38      	moveal %fp@(-200),%a0
    41f8:	2418           	movel %a0@+,%d2
    41fa:	6a02           	bpls 41fe <_vfprintf_r+0x11b6>
    41fc:	74ff           	moveq #-1,%d2
    41fe:	2d48 ff38      	movel %a0,%fp@(-200)
    4202:	206e ff28      	moveal %fp@(-216),%a0
    4206:	52ae ff28      	addql #1,%fp@(-216)
    420a:	1018           	moveb %a0@+,%d0
    420c:	4880           	extw %d0
    420e:	3640           	moveaw %d0,%a3
    4210:	6000 ef80      	braw 3192 <_vfprintf_r+0x14a>
    4214:	7ec0           	moveq #-64,%d7
    4216:	de8e           	addl %fp,%d7
    4218:	6000 f736      	braw 3950 <_vfprintf_r+0x908>
    421c:	206e ff38      	moveal %fp@(-200),%a0
    4220:	2d58 ff44      	movel %a0@+,%fp@(-188)
    4224:	2d58 ff48      	movel %a0@+,%fp@(-184)
    4228:	2d48 ff38      	movel %a0,%fp@(-200)
    422c:	6000 f28e      	braw 34bc <_vfprintf_r+0x474>
    4230:	2f09           	movel %a1,%sp@-
    4232:	4eb9 0000 2588 	jsr 2588 <__sinit>
    4238:	588f           	addql #4,%sp
    423a:	6000 ee5e      	braw 309a <_vfprintf_r+0x52>
    423e:	242e ff3c      	movel %fp@(-196),%d2
    4242:	6e00 fcce      	bgtw 3f12 <_vfprintf_r+0xeca>
    4246:	6000 fcea      	braw 3f32 <_vfprintf_r+0xeea>
    424a:	7400           	moveq #0,%d2
    424c:	2a6e ff3c      	moveal %fp@(-196),%a5
    4250:	9bc2           	subal %d2,%a5
    4252:	bafc 0000      	cmpaw #0,%a5
    4256:	6f00 fcee      	blew 3f46 <_vfprintf_r+0xefe>
    425a:	6000 00b0      	braw 430c <_vfprintf_r+0x12c4>
    425e:	486e ff8c      	pea %fp@(-116)
    4262:	2f2e ff2c      	movel %fp@(-212),%sp@-
    4266:	2f2e ff30      	movel %fp@(-208),%sp@-
    426a:	4eb9 0000 4e14 	jsr 4e14 <__sprint_r>
    4270:	4fef 000c      	lea %sp@(12),%sp
    4274:	4a80           	tstl %d0
    4276:	6600 f0da      	bnew 3352 <_vfprintf_r+0x30a>
    427a:	246e ff94      	moveal %fp@(-108),%a2
    427e:	49ee ffc0      	lea %fp@(-64),%a4
    4282:	6000 f498      	braw 371c <_vfprintf_r+0x6d4>
    4286:	2d6e ff28 ff20 	movel %fp@(-216),%fp@(-224)
    428c:	2d7c 0001 08db 	movel #67803,%fp@(-168)
    4292:	ff58 
    4294:	226e ff38      	moveal %fp@(-200),%a1
    4298:	58ae ff38      	addql #4,%fp@(-200)
    429c:	2a19           	movel %a1@+,%d5
    429e:	0806 0004      	btst #4,%d6
    42a2:	660c           	bnes 42b0 <_vfprintf_r+0x1268>
    42a4:	0806 0006      	btst #6,%d6
    42a8:	6706           	beqs 42b0 <_vfprintf_r+0x1268>
    42aa:	0285 0000 ffff 	andil #65535,%d5
    42b0:	0806 0000      	btst #0,%d6
    42b4:	6700 0154      	beqw 440a <_vfprintf_r+0x13c2>
    42b8:	4a85           	tstl %d5
    42ba:	6700 014e      	beqw 440a <_vfprintf_r+0x13c2>
    42be:	1d7c 0030 ff72 	moveb #48,%fp@(-142)
    42c4:	300b           	movew %a3,%d0
    42c6:	1d40 ff73      	moveb %d0,%fp@(-141)
    42ca:	7202           	moveq #2,%d1
    42cc:	8c81           	orl %d1,%d6
    42ce:	7002           	moveq #2,%d0
    42d0:	9bcd           	subal %a5,%a5
    42d2:	6000 f6ba      	braw 398e <_vfprintf_r+0x946>
    42d6:	2d6e ff28 ff20 	movel %fp@(-216),%fp@(-224)
    42dc:	2d7c 0001 08ec 	movel #67820,%fp@(-168)
    42e2:	ff58 
    42e4:	60ae           	bras 4294 <_vfprintf_r+0x124c>
    42e6:	2a02           	movel %d2,%d5
    42e8:	7206           	moveq #6,%d1
    42ea:	b282           	cmpl %d2,%d1
    42ec:	6500 0472      	bcsw 4760 <_vfprintf_r+0x1718>
    42f0:	2d45 ff28      	movel %d5,%fp@(-216)
    42f4:	2d4a ff38      	movel %a2,%fp@(-200)
    42f8:	2e3c 0001 08fd 	movel #67837,%d7
    42fe:	2806           	movel %d6,%d4
    4300:	7400           	moveq #0,%d2
    4302:	42ae ff3c      	clrl %fp@(-196)
    4306:	9bcd           	subal %a5,%a5
    4308:	6000 f090      	braw 339a <_vfprintf_r+0x352>
    430c:	202e ff90      	movel %fp@(-112),%d0
    4310:	7410           	moveq #16,%d2
    4312:	b48d           	cmpl %a5,%d2
    4314:	6c40           	bges 4356 <_vfprintf_r+0x130e>
    4316:	748c           	moveq #-116,%d2
    4318:	d48e           	addl %fp,%d2
    431a:	47f9 0000 4e14 	lea 4e14 <__sprint_r>,%a3
    4320:	2a2e ff30      	movel %fp@(-208),%d5
    4324:	2c2e ff2c      	movel %fp@(-212),%d6
    4328:	28bc 0001 09d4 	movel #68052,%a4@
    432e:	7210           	moveq #16,%d1
    4330:	2941 0004      	movel %d1,%a4@(4)
    4334:	45ea 0010      	lea %a2@(16),%a2
    4338:	2d4a ff94      	movel %a2,%fp@(-108)
    433c:	5280           	addql #1,%d0
    433e:	2d40 ff90      	movel %d0,%fp@(-112)
    4342:	7207           	moveq #7,%d1
    4344:	b280           	cmpl %d0,%d1
    4346:	6d00 00ca      	bltw 4412 <_vfprintf_r+0x13ca>
    434a:	508c           	addql #8,%a4
    434c:	4bed fff0      	lea %a5@(-16),%a5
    4350:	7210           	moveq #16,%d1
    4352:	b28d           	cmpl %a5,%d1
    4354:	6dd2           	blts 4328 <_vfprintf_r+0x12e0>
    4356:	28bc 0001 09d4 	movel #68052,%a4@
    435c:	294d 0004      	movel %a5,%a4@(4)
    4360:	d5cd           	addal %a5,%a2
    4362:	2d4a ff94      	movel %a2,%fp@(-108)
    4366:	5280           	addql #1,%d0
    4368:	2d40 ff90      	movel %d0,%fp@(-112)
    436c:	7407           	moveq #7,%d2
    436e:	b480           	cmpl %d0,%d2
    4370:	6d00 0600      	bltw 4972 <_vfprintf_r+0x192a>
    4374:	508c           	addql #8,%a4
    4376:	6000 fbce      	braw 3f46 <_vfprintf_r+0xefe>
    437a:	7400           	moveq #0,%d2
    437c:	6000 fc40      	braw 3fbe <_vfprintf_r+0xf76>
    4380:	2f07           	movel %d7,%sp@-
    4382:	4eb9 0000 5afc 	jsr 5afc <strlen>
    4388:	2a00           	movel %d0,%d5
    438a:	122e ff71      	moveb %fp@(-143),%d1
    438e:	3a41           	moveaw %d1,%a5
    4390:	2d40 ff28      	movel %d0,%fp@(-216)
    4394:	588f           	addql #4,%sp
    4396:	6a00 f89a      	bplw 3c32 <_vfprintf_r+0xbea>
    439a:	42ae ff28      	clrl %fp@(-216)
    439e:	2d4a ff38      	movel %a2,%fp@(-200)
    43a2:	2806           	movel %d6,%d4
    43a4:	7400           	moveq #0,%d2
    43a6:	42ae ff3c      	clrl %fp@(-196)
    43aa:	6000 f892      	braw 3c3e <_vfprintf_r+0xbf6>
    43ae:	2f05           	movel %d5,%sp@-
    43b0:	2f07           	movel %d7,%sp@-
    43b2:	2f06           	movel %d6,%sp@-
    43b4:	4e94           	jsr %a4@
    43b6:	4fef 000c      	lea %sp@(12),%sp
    43ba:	4a80           	tstl %d0
    43bc:	6600 ef94      	bnew 3352 <_vfprintf_r+0x30a>
    43c0:	246e ff94      	moveal %fp@(-108),%a2
    43c4:	242e ff90      	movel %fp@(-112),%d2
    43c8:	47ee ffc0      	lea %fp@(-64),%a3
    43cc:	4bed fff0      	lea %a5@(-16),%a5
    43d0:	7010           	moveq #16,%d0
    43d2:	b08d           	cmpl %a5,%d0
    43d4:	6d00 fcba      	bltw 4090 <_vfprintf_r+0x1048>
    43d8:	6000 fce4      	braw 40be <_vfprintf_r+0x1076>
    43dc:	2f02           	movel %d2,%sp@-
    43de:	2f06           	movel %d6,%sp@-
    43e0:	2f05           	movel %d5,%sp@-
    43e2:	4e93           	jsr %a3@
    43e4:	4fef 000c      	lea %sp@(12),%sp
    43e8:	4a80           	tstl %d0
    43ea:	6600 ef66      	bnew 3352 <_vfprintf_r+0x30a>
    43ee:	246e ff94      	moveal %fp@(-108),%a2
    43f2:	202e ff90      	movel %fp@(-112),%d0
    43f6:	49ee ffc0      	lea %fp@(-64),%a4
    43fa:	4bed fff0      	lea %a5@(-16),%a5
    43fe:	7e10           	moveq #16,%d7
    4400:	be8d           	cmpl %a5,%d7
    4402:	6d00 f342      	bltw 3746 <_vfprintf_r+0x6fe>
    4406:	6000 f36c      	braw 3774 <_vfprintf_r+0x72c>
    440a:	7002           	moveq #2,%d0
    440c:	9bcd           	subal %a5,%a5
    440e:	6000 f57e      	braw 398e <_vfprintf_r+0x946>
    4412:	2f02           	movel %d2,%sp@-
    4414:	2f06           	movel %d6,%sp@-
    4416:	2f05           	movel %d5,%sp@-
    4418:	4e93           	jsr %a3@
    441a:	4fef 000c      	lea %sp@(12),%sp
    441e:	4a80           	tstl %d0
    4420:	6600 ef30      	bnew 3352 <_vfprintf_r+0x30a>
    4424:	246e ff94      	moveal %fp@(-108),%a2
    4428:	202e ff90      	movel %fp@(-112),%d0
    442c:	49ee ffc0      	lea %fp@(-64),%a4
    4430:	4bed fff0      	lea %a5@(-16),%a5
    4434:	7210           	moveq #16,%d1
    4436:	b28d           	cmpl %a5,%d1
    4438:	6d00 feee      	bltw 4328 <_vfprintf_r+0x12e0>
    443c:	6000 ff18      	braw 4356 <_vfprintf_r+0x130e>
    4440:	28bc 0001 0904 	movel #67844,%a4@
    4446:	7401           	moveq #1,%d2
    4448:	2942 0004      	movel %d2,%a4@(4)
    444c:	528a           	addql #1,%a2
    444e:	2d4a ff94      	movel %a2,%fp@(-108)
    4452:	202e ff90      	movel %fp@(-112),%d0
    4456:	5280           	addql #1,%d0
    4458:	2d40 ff90      	movel %d0,%fp@(-112)
    445c:	7a07           	moveq #7,%d5
    445e:	ba80           	cmpl %d0,%d5
    4460:	6d00 02d2      	bltw 4734 <_vfprintf_r+0x16ec>
    4464:	508c           	addql #8,%a4
    4466:	4a81           	tstl %d1
    4468:	6600 01c0      	bnew 462a <_vfprintf_r+0x15e2>
    446c:	7001           	moveq #1,%d0
    446e:	c084           	andl %d4,%d0
    4470:	80ae ff40      	orl %fp@(-192),%d0
    4474:	6700 efd4      	beqw 344a <_vfprintf_r+0x402>
    4478:	28ae ff50      	movel %fp@(-176),%a4@
    447c:	296e ff4c 0004 	movel %fp@(-180),%a4@(4)
    4482:	d5ee ff4c      	addal %fp@(-180),%a2
    4486:	2d4a ff94      	movel %a2,%fp@(-108)
    448a:	202e ff90      	movel %fp@(-112),%d0
    448e:	5280           	addql #1,%d0
    4490:	2d40 ff90      	movel %d0,%fp@(-112)
    4494:	7207           	moveq #7,%d1
    4496:	b280           	cmpl %d0,%d1
    4498:	6d00 048e      	bltw 4928 <_vfprintf_r+0x18e0>
    449c:	508c           	addql #8,%a4
    449e:	2887           	movel %d7,%a4@
    44a0:	296e ff40 0004 	movel %fp@(-192),%a4@(4)
    44a6:	d5ee ff40      	addal %fp@(-192),%a2
    44aa:	2d4a ff94      	movel %a2,%fp@(-108)
    44ae:	5280           	addql #1,%d0
    44b0:	2d40 ff90      	movel %d0,%fp@(-112)
    44b4:	7a07           	moveq #7,%d5
    44b6:	ba80           	cmpl %d0,%d5
    44b8:	6d00 f2d8      	bltw 3792 <_vfprintf_r+0x74a>
    44bc:	508c           	addql #8,%a4
    44be:	6000 ef8a      	braw 344a <_vfprintf_r+0x402>
    44c2:	486e ff8c      	pea %fp@(-116)
    44c6:	2f2e ff2c      	movel %fp@(-212),%sp@-
    44ca:	2f2e ff30      	movel %fp@(-208),%sp@-
    44ce:	4eb9 0000 4e14 	jsr 4e14 <__sprint_r>
    44d4:	4fef 000c      	lea %sp@(12),%sp
    44d8:	4a80           	tstl %d0
    44da:	6600 ee76      	bnew 3352 <_vfprintf_r+0x30a>
    44de:	246e ff94      	moveal %fp@(-108),%a2
    44e2:	49ee ffc0      	lea %fp@(-64),%a4
    44e6:	6000 eecc      	braw 33b4 <_vfprintf_r+0x36c>
    44ea:	2f2e ff48      	movel %fp@(-184),%sp@-
    44ee:	2f2e ff44      	movel %fp@(-188),%sp@-
    44f2:	2f2e ff48      	movel %fp@(-184),%sp@-
    44f6:	2f2e ff44      	movel %fp@(-188),%sp@-
    44fa:	4e92           	jsr %a2@
    44fc:	4fef 0010      	lea %sp@(16),%sp
    4500:	4a80           	tstl %d0
    4502:	6600 0732      	bnew 4c36 <_vfprintf_r+0x1bee>
    4506:	222e ff44      	movel %fp@(-188),%d1
    450a:	2001           	movel %d1,%d0
    450c:	2a0b           	movel %a3,%d5
    450e:	78df           	moveq #-33,%d4
    4510:	ca84           	andl %d4,%d5
    4512:	2806           	movel %d6,%d4
    4514:	0044 0100      	oriw #256,%d4
    4518:	7eff           	moveq #-1,%d7
    451a:	be82           	cmpl %d2,%d7
    451c:	6700 05ba      	beqw 4ad8 <_vfprintf_r+0x1a90>
    4520:	7e47           	moveq #71,%d7
    4522:	be85           	cmpl %d5,%d7
    4524:	6700 02c4      	beqw 47ea <_vfprintf_r+0x17a2>
    4528:	4a80           	tstl %d0
    452a:	6d00 02a0      	bltw 47cc <_vfprintf_r+0x1784>
    452e:	2d6e ff44 ff68 	movel %fp@(-188),%fp@(-152)
    4534:	2d6e ff48 ff6c 	movel %fp@(-184),%fp@(-148)
    453a:	422e ff5c      	clrb %fp@(-164)
    453e:	7066           	moveq #102,%d0
    4540:	b08b           	cmpl %a3,%d0
    4542:	6600 0620      	bnew 4b64 <_vfprintf_r+0x1b1c>
    4546:	2442           	moveal %d2,%a2
    4548:	7003           	moveq #3,%d0
    454a:	486e ff84      	pea %fp@(-124)
    454e:	486e ff78      	pea %fp@(-136)
    4552:	486e ff74      	pea %fp@(-140)
    4556:	2f0a           	movel %a2,%sp@-
    4558:	2f00           	movel %d0,%sp@-
    455a:	2f2e ff6c      	movel %fp@(-148),%sp@-
    455e:	2f2e ff68      	movel %fp@(-152),%sp@-
    4562:	2f2e ff30      	movel %fp@(-208),%sp@-
    4566:	4eb9 0000 5d22 	jsr 5d22 <_dtoa_r>
    456c:	2e00           	movel %d0,%d7
    456e:	4bf2 0800      	lea %a2@(0,%d0:l),%a5
    4572:	4fef 0020      	lea %sp@(32),%sp
    4576:	7066           	moveq #102,%d0
    4578:	b08b           	cmpl %a3,%d0
    457a:	6610           	bnes 458c <_vfprintf_r+0x1544>
    457c:	2047           	moveal %d7,%a0
    457e:	0c10 0030      	cmpib #48,%a0@
    4582:	6700 0680      	beqw 4c04 <_vfprintf_r+0x1bbc>
    4586:	202e ff74      	movel %fp@(-140),%d0
    458a:	dbc0           	addal %d0,%a5
    458c:	42a7           	clrl %sp@-
    458e:	42a7           	clrl %sp@-
    4590:	2f2e ff6c      	movel %fp@(-148),%sp@-
    4594:	2f2e ff68      	movel %fp@(-152),%sp@-
    4598:	4eb9 0000 f99c 	jsr f99c <__eqdf2>
    459e:	4fef 0010      	lea %sp@(16),%sp
    45a2:	4a80           	tstl %d0
    45a4:	6700 01ce      	beqw 4774 <_vfprintf_r+0x172c>
    45a8:	202e ff84      	movel %fp@(-124),%d0
    45ac:	b08d           	cmpl %a5,%d0
    45ae:	6400 0462      	bccw 4a12 <_vfprintf_r+0x19ca>
    45b2:	2200           	movel %d0,%d1
    45b4:	5281           	addql #1,%d1
    45b6:	2d41 ff84      	movel %d1,%fp@(-124)
    45ba:	2040           	moveal %d0,%a0
    45bc:	10bc 0030      	moveb #48,%a0@
    45c0:	60e6           	bras 45a8 <_vfprintf_r+0x1560>
    45c2:	486e ff8c      	pea %fp@(-116)
    45c6:	2f2e ff2c      	movel %fp@(-212),%sp@-
    45ca:	2f2e ff30      	movel %fp@(-208),%sp@-
    45ce:	4eb9 0000 4e14 	jsr 4e14 <__sprint_r>
    45d4:	4fef 000c      	lea %sp@(12),%sp
    45d8:	4a80           	tstl %d0
    45da:	6600 ed76      	bnew 3352 <_vfprintf_r+0x30a>
    45de:	246e ff94      	moveal %fp@(-108),%a2
    45e2:	49ee ffc0      	lea %fp@(-64),%a4
    45e6:	2a2e ff40      	movel %fp@(-192),%d5
    45ea:	baae ff74      	cmpl %fp@(-140),%d5
    45ee:	6e00 f106      	bgtw 36f6 <_vfprintf_r+0x6ae>
    45f2:	6000 fb8a      	braw 417e <_vfprintf_r+0x1136>
    45f6:	486e ff8c      	pea %fp@(-116)
    45fa:	2f2e ff2c      	movel %fp@(-212),%sp@-
    45fe:	2f2e ff30      	movel %fp@(-208),%sp@-
    4602:	4eb9 0000 4e14 	jsr 4e14 <__sprint_r>
    4608:	4fef 000c      	lea %sp@(12),%sp
    460c:	4a80           	tstl %d0
    460e:	6600 ed42      	bnew 3352 <_vfprintf_r+0x30a>
    4612:	246e ff94      	moveal %fp@(-108),%a2
    4616:	49ee ffc0      	lea %fp@(-64),%a4
    461a:	2a42           	moveal %d2,%a5
    461c:	9bc5           	subal %d5,%a5
    461e:	bafc 0000      	cmpaw #0,%a5
    4622:	6f00 edfe      	blew 3422 <_vfprintf_r+0x3da>
    4626:	6000 f010      	braw 3638 <_vfprintf_r+0x5f0>
    462a:	28ae ff50      	movel %fp@(-176),%a4@
    462e:	296e ff4c 0004 	movel %fp@(-180),%a4@(4)
    4634:	d5ee ff4c      	addal %fp@(-180),%a2
    4638:	2d4a ff94      	movel %a2,%fp@(-108)
    463c:	202e ff90      	movel %fp@(-112),%d0
    4640:	5280           	addql #1,%d0
    4642:	2d40 ff90      	movel %d0,%fp@(-112)
    4646:	7407           	moveq #7,%d2
    4648:	b480           	cmpl %d0,%d2
    464a:	6d00 02dc      	bltw 4928 <_vfprintf_r+0x18e0>
    464e:	508c           	addql #8,%a4
    4650:	4a81           	tstl %d1
    4652:	6c00 fe4a      	bgew 449e <_vfprintf_r+0x1456>
    4656:	2a01           	movel %d1,%d5
    4658:	4485           	negl %d5
    465a:	2a45           	moveal %d5,%a5
    465c:	74f0           	moveq #-16,%d2
    465e:	b481           	cmpl %d1,%d2
    4660:	6f40           	bles 46a2 <_vfprintf_r+0x165a>
    4662:	748c           	moveq #-116,%d2
    4664:	d48e           	addl %fp,%d2
    4666:	47f9 0000 4e14 	lea 4e14 <__sprint_r>,%a3
    466c:	2a2e ff30      	movel %fp@(-208),%d5
    4670:	2c2e ff2c      	movel %fp@(-212),%d6
    4674:	28bc 0001 09d4 	movel #68052,%a4@
    467a:	7210           	moveq #16,%d1
    467c:	2941 0004      	movel %d1,%a4@(4)
    4680:	45ea 0010      	lea %a2@(16),%a2
    4684:	2d4a ff94      	movel %a2,%fp@(-108)
    4688:	5280           	addql #1,%d0
    468a:	2d40 ff90      	movel %d0,%fp@(-112)
    468e:	7207           	moveq #7,%d1
    4690:	b280           	cmpl %d0,%d1
    4692:	6d00 0350      	bltw 49e4 <_vfprintf_r+0x199c>
    4696:	508c           	addql #8,%a4
    4698:	4bed fff0      	lea %a5@(-16),%a5
    469c:	7210           	moveq #16,%d1
    469e:	b28d           	cmpl %a5,%d1
    46a0:	6dd2           	blts 4674 <_vfprintf_r+0x162c>
    46a2:	28bc 0001 09d4 	movel #68052,%a4@
    46a8:	294d 0004      	movel %a5,%a4@(4)
    46ac:	d5cd           	addal %a5,%a2
    46ae:	2d4a ff94      	movel %a2,%fp@(-108)
    46b2:	5280           	addql #1,%d0
    46b4:	2d40 ff90      	movel %d0,%fp@(-112)
    46b8:	7407           	moveq #7,%d2
    46ba:	b480           	cmpl %d0,%d2
    46bc:	6c00 fdde      	bgew 449c <_vfprintf_r+0x1454>
    46c0:	486e ff8c      	pea %fp@(-116)
    46c4:	2f2e ff2c      	movel %fp@(-212),%sp@-
    46c8:	2f2e ff30      	movel %fp@(-208),%sp@-
    46cc:	4eb9 0000 4e14 	jsr 4e14 <__sprint_r>
    46d2:	4fef 000c      	lea %sp@(12),%sp
    46d6:	4a80           	tstl %d0
    46d8:	6600 ec78      	bnew 3352 <_vfprintf_r+0x30a>
    46dc:	246e ff94      	moveal %fp@(-108),%a2
    46e0:	202e ff90      	movel %fp@(-112),%d0
    46e4:	49ee ffc0      	lea %fp@(-64),%a4
    46e8:	2887           	movel %d7,%a4@
    46ea:	296e ff40 0004 	movel %fp@(-192),%a4@(4)
    46f0:	d5ee ff40      	addal %fp@(-192),%a2
    46f4:	2d4a ff94      	movel %a2,%fp@(-108)
    46f8:	5280           	addql #1,%d0
    46fa:	2d40 ff90      	movel %d0,%fp@(-112)
    46fe:	7a07           	moveq #7,%d5
    4700:	ba80           	cmpl %d0,%d5
    4702:	6c00 fdb8      	bgew 44bc <_vfprintf_r+0x1474>
    4706:	6000 f08a      	braw 3792 <_vfprintf_r+0x74a>
    470a:	2e3c 0001 08cf 	movel #67791,%d7
    4710:	7880           	moveq #-128,%d4
    4712:	4604           	notb %d4
    4714:	c886           	andl %d6,%d4
    4716:	7a03           	moveq #3,%d5
    4718:	2d45 ff28      	movel %d5,%fp@(-216)
    471c:	7400           	moveq #0,%d2
    471e:	42ae ff3c      	clrl %fp@(-196)
    4722:	6000 ee2e      	braw 3552 <_vfprintf_r+0x50a>
    4726:	1d7c 002d ff71 	moveb #45,%fp@(-143)
    472c:	3a7c 002d      	moveaw #45,%a5
    4730:	6000 ee00      	braw 3532 <_vfprintf_r+0x4ea>
    4734:	486e ff8c      	pea %fp@(-116)
    4738:	2f2e ff2c      	movel %fp@(-212),%sp@-
    473c:	2f2e ff30      	movel %fp@(-208),%sp@-
    4740:	4eb9 0000 4e14 	jsr 4e14 <__sprint_r>
    4746:	4fef 000c      	lea %sp@(12),%sp
    474a:	4a80           	tstl %d0
    474c:	6600 ec04      	bnew 3352 <_vfprintf_r+0x30a>
    4750:	222e ff74      	movel %fp@(-140),%d1
    4754:	246e ff94      	moveal %fp@(-108),%a2
    4758:	49ee ffc0      	lea %fp@(-64),%a4
    475c:	6000 fd08      	braw 4466 <_vfprintf_r+0x141e>
    4760:	7a06           	moveq #6,%d5
    4762:	2d45 ff28      	movel %d5,%fp@(-216)
    4766:	2d4a ff38      	movel %a2,%fp@(-200)
    476a:	2e3c 0001 08fd 	movel #67837,%d7
    4770:	6000 fb8c      	braw 42fe <_vfprintf_r+0x12b6>
    4774:	2d6e ff74 ff3c 	movel %fp@(-140),%fp@(-196)
    477a:	200d           	movel %a5,%d0
    477c:	9087           	subl %d7,%d0
    477e:	2d40 ff40      	movel %d0,%fp@(-192)
    4782:	7047           	moveq #71,%d0
    4784:	b085           	cmpl %d5,%d0
    4786:	6700 00c0      	beqw 4848 <_vfprintf_r+0x1800>
    478a:	7a66           	moveq #102,%d5
    478c:	ba8b           	cmpl %a3,%d5
    478e:	6600 0240      	bnew 49d0 <_vfprintf_r+0x1988>
    4792:	7001           	moveq #1,%d0
    4794:	c086           	andl %d6,%d0
    4796:	8082           	orl %d2,%d0
    4798:	4aae ff3c      	tstl %fp@(-196)
    479c:	6f00 0580      	blew 4d1e <_vfprintf_r+0x1cd6>
    47a0:	4a80           	tstl %d0
    47a2:	6600 0506      	bnew 4caa <_vfprintf_r+0x1c62>
    47a6:	2d6e ff3c ff28 	movel %fp@(-196),%fp@(-216)
    47ac:	2a2e ff3c      	movel %fp@(-196),%d5
    47b0:	367c 0066      	moveaw #102,%a3
    47b4:	4a2e ff5c      	tstb %fp@(-164)
    47b8:	6700 0262      	beqw 4a1c <_vfprintf_r+0x19d4>
    47bc:	1d7c 002d ff71 	moveb #45,%fp@(-143)
    47c2:	7400           	moveq #0,%d2
    47c4:	52ae ff28      	addql #1,%fp@(-216)
    47c8:	6000 ed92      	braw 355c <_vfprintf_r+0x514>
    47cc:	2e2e ff44      	movel %fp@(-188),%d7
    47d0:	0687 8000 0000 	addil #-2147483648,%d7
    47d6:	2d47 ff68      	movel %d7,%fp@(-152)
    47da:	2d6e ff48 ff6c 	movel %fp@(-184),%fp@(-148)
    47e0:	1d7c 002d ff5c 	moveb #45,%fp@(-164)
    47e6:	6000 fd56      	braw 453e <_vfprintf_r+0x14f6>
    47ea:	4a82           	tstl %d2
    47ec:	6700 03b4      	beqw 4ba2 <_vfprintf_r+0x1b5a>
    47f0:	4a81           	tstl %d1
    47f2:	6d00 047c      	bltw 4c70 <_vfprintf_r+0x1c28>
    47f6:	2d6e ff44 ff68 	movel %fp@(-188),%fp@(-152)
    47fc:	2d6e ff48 ff6c 	movel %fp@(-184),%fp@(-148)
    4802:	422e ff5c      	clrb %fp@(-164)
    4806:	486e ff84      	pea %fp@(-124)
    480a:	486e ff78      	pea %fp@(-136)
    480e:	486e ff74      	pea %fp@(-140)
    4812:	2f02           	movel %d2,%sp@-
    4814:	4878 0002      	pea 2 <DOUBLE_FLOAT>
    4818:	2f2e ff6c      	movel %fp@(-148),%sp@-
    481c:	2f2e ff68      	movel %fp@(-152),%sp@-
    4820:	2f2e ff30      	movel %fp@(-208),%sp@-
    4824:	4eb9 0000 5d22 	jsr 5d22 <_dtoa_r>
    482a:	2e00           	movel %d0,%d7
    482c:	4fef 0020      	lea %sp@(32),%sp
    4830:	0806 0000      	btst #0,%d6
    4834:	6600 030a      	bnew 4b40 <_vfprintf_r+0x1af8>
    4838:	2a2e ff84      	movel %fp@(-124),%d5
    483c:	9a80           	subl %d0,%d5
    483e:	2d45 ff40      	movel %d5,%fp@(-192)
    4842:	2d6e ff74 ff3c 	movel %fp@(-140),%fp@(-196)
    4848:	72fd           	moveq #-3,%d1
    484a:	b2ae ff3c      	cmpl %fp@(-196),%d1
    484e:	6f00 0176      	blew 49c6 <_vfprintf_r+0x197e>
    4852:	558b           	subql #2,%a3
    4854:	222e ff3c      	movel %fp@(-196),%d1
    4858:	5381           	subql #1,%d1
    485a:	300b           	movew %a3,%d0
    485c:	7a01           	moveq #1,%d5
    485e:	9aae ff3c      	subl %fp@(-196),%d5
    4862:	742d           	moveq #45,%d2
    4864:	2d41 ff74      	movel %d1,%fp@(-140)
    4868:	e148           	lslw #8,%d0
    486a:	1002           	moveb %d2,%d0
    486c:	3d40 ff7c      	movew %d0,%fp@(-132)
    4870:	7009           	moveq #9,%d0
    4872:	b085           	cmpl %d5,%d0
    4874:	6c00 0300      	bgew 4b76 <_vfprintf_r+0x1b2e>
    4878:	41ee ff8b      	lea %fp@(-117),%a0
    487c:	2d48 ff28      	movel %a0,%fp@(-216)
    4880:	2448           	moveal %a0,%a2
    4882:	240a           	movel %a2,%d2
    4884:	4878 000a      	pea a <DUART_IMR>
    4888:	2f05           	movel %d5,%sp@-
    488a:	4eb9 0000 ef30 	jsr ef30 <__modsi3>
    4890:	508f           	addql #8,%sp
    4892:	0600 0030      	addib #48,%d0
    4896:	1500           	moveb %d0,%a2@-
    4898:	2a45           	moveal %d5,%a5
    489a:	4878 000a      	pea a <DUART_IMR>
    489e:	2f05           	movel %d5,%sp@-
    48a0:	4eb9 0000 eed0 	jsr eed0 <__divsi3>
    48a6:	508f           	addql #8,%sp
    48a8:	2a00           	movel %d0,%d5
    48aa:	7063           	moveq #99,%d0
    48ac:	b08d           	cmpl %a5,%d0
    48ae:	6dd2           	blts 4882 <_vfprintf_r+0x183a>
    48b0:	2242           	moveal %d2,%a1
    48b2:	5589           	subql #2,%a1
    48b4:	0605 0030      	addib #48,%d5
    48b8:	1545 ffff      	moveb %d5,%a2@(-1)
    48bc:	b3ee ff28      	cmpal %fp@(-216),%a1
    48c0:	6400 043e      	bccw 4d00 <_vfprintf_r+0x1cb8>
    48c4:	45ee ff7e      	lea %fp@(-130),%a2
    48c8:	14d9           	moveb %a1@+,%a2@+
    48ca:	b3ee ff28      	cmpal %fp@(-216),%a1
    48ce:	66f8           	bnes 48c8 <_vfprintf_r+0x1880>
    48d0:	224e           	moveal %fp,%a1
    48d2:	93c2           	subal %d2,%a1
    48d4:	43e9 ff8f      	lea %a1@(-113),%a1
    48d8:	2d49 ff54      	movel %a1,%fp@(-172)
    48dc:	2a2e ff40      	movel %fp@(-192),%d5
    48e0:	daae ff54      	addl %fp@(-172),%d5
    48e4:	7001           	moveq #1,%d0
    48e6:	b0ae ff40      	cmpl %fp@(-192),%d0
    48ea:	6c00 00ae      	bgew 499a <_vfprintf_r+0x1952>
    48ee:	daae ff4c      	addl %fp@(-180),%d5
    48f2:	2d45 ff28      	movel %d5,%fp@(-216)
    48f6:	6b00 00c2      	bmiw 49ba <_vfprintf_r+0x1972>
    48fa:	42ae ff3c      	clrl %fp@(-196)
    48fe:	6000 feb4      	braw 47b4 <_vfprintf_r+0x176c>
    4902:	486e ff8c      	pea %fp@(-116)
    4906:	2f2e ff2c      	movel %fp@(-212),%sp@-
    490a:	2f2e ff30      	movel %fp@(-208),%sp@-
    490e:	4eb9 0000 4e14 	jsr 4e14 <__sprint_r>
    4914:	4fef 000c      	lea %sp@(12),%sp
    4918:	206e ff2c      	moveal %fp@(-212),%a0
    491c:	0828 0006 000d 	btst #6,%a0@(13)
    4922:	6700 ea3c      	beqw 3360 <_vfprintf_r+0x318>
    4926:	6036           	bras 495e <_vfprintf_r+0x1916>
    4928:	486e ff8c      	pea %fp@(-116)
    492c:	2f2e ff2c      	movel %fp@(-212),%sp@-
    4930:	2f2e ff30      	movel %fp@(-208),%sp@-
    4934:	4eb9 0000 4e14 	jsr 4e14 <__sprint_r>
    493a:	4fef 000c      	lea %sp@(12),%sp
    493e:	4a80           	tstl %d0
    4940:	6600 ea10      	bnew 3352 <_vfprintf_r+0x30a>
    4944:	222e ff74      	movel %fp@(-140),%d1
    4948:	246e ff94      	moveal %fp@(-108),%a2
    494c:	202e ff90      	movel %fp@(-112),%d0
    4950:	49ee ffc0      	lea %fp@(-64),%a4
    4954:	4a81           	tstl %d1
    4956:	6c00 fb46      	bgew 449e <_vfprintf_r+0x1456>
    495a:	6000 fcfa      	braw 4656 <_vfprintf_r+0x160e>
    495e:	74ff           	moveq #-1,%d2
    4960:	2d42 ff34      	movel %d2,%fp@(-204)
    4964:	202e ff34      	movel %fp@(-204),%d0
    4968:	4cee 3cfc fef8 	moveml %fp@(-264),%d2-%d7/%a2-%a5
    496e:	4e5e           	unlk %fp
    4970:	4e75           	rts
    4972:	486e ff8c      	pea %fp@(-116)
    4976:	2f2e ff2c      	movel %fp@(-212),%sp@-
    497a:	2f2e ff30      	movel %fp@(-208),%sp@-
    497e:	4eb9 0000 4e14 	jsr 4e14 <__sprint_r>
    4984:	4fef 000c      	lea %sp@(12),%sp
    4988:	4a80           	tstl %d0
    498a:	6600 e9c6      	bnew 3352 <_vfprintf_r+0x30a>
    498e:	246e ff94      	moveal %fp@(-108),%a2
    4992:	49ee ffc0      	lea %fp@(-64),%a4
    4996:	6000 f5ae      	braw 3f46 <_vfprintf_r+0xefe>
    499a:	7201           	moveq #1,%d1
    499c:	c286           	andl %d6,%d1
    499e:	2d41 ff3c      	movel %d1,%fp@(-196)
    49a2:	0806 0000      	btst #0,%d6
    49a6:	6600 ff46      	bnew 48ee <_vfprintf_r+0x18a6>
    49aa:	2d45 ff28      	movel %d5,%fp@(-216)
    49ae:	6a00 fe04      	bplw 47b4 <_vfprintf_r+0x176c>
    49b2:	42ae ff28      	clrl %fp@(-216)
    49b6:	6000 fdfc      	braw 47b4 <_vfprintf_r+0x176c>
    49ba:	42ae ff28      	clrl %fp@(-216)
    49be:	42ae ff3c      	clrl %fp@(-196)
    49c2:	6000 fdf0      	braw 47b4 <_vfprintf_r+0x176c>
    49c6:	b4ae ff3c      	cmpl %fp@(-196),%d2
    49ca:	6c00 013c      	bgew 4b08 <_vfprintf_r+0x1ac0>
    49ce:	558b           	subql #2,%a3
    49d0:	2a2e ff3c      	movel %fp@(-196),%d5
    49d4:	5385           	subql #1,%d5
    49d6:	300b           	movew %a3,%d0
    49d8:	2205           	movel %d5,%d1
    49da:	6b00 fe80      	bmiw 485c <_vfprintf_r+0x1814>
    49de:	742b           	moveq #43,%d2
    49e0:	6000 fe82      	braw 4864 <_vfprintf_r+0x181c>
    49e4:	2f02           	movel %d2,%sp@-
    49e6:	2f06           	movel %d6,%sp@-
    49e8:	2f05           	movel %d5,%sp@-
    49ea:	4e93           	jsr %a3@
    49ec:	4fef 000c      	lea %sp@(12),%sp
    49f0:	4a80           	tstl %d0
    49f2:	6600 e95e      	bnew 3352 <_vfprintf_r+0x30a>
    49f6:	246e ff94      	moveal %fp@(-108),%a2
    49fa:	202e ff90      	movel %fp@(-112),%d0
    49fe:	49ee ffc0      	lea %fp@(-64),%a4
    4a02:	4bed fff0      	lea %a5@(-16),%a5
    4a06:	7210           	moveq #16,%d1
    4a08:	b28d           	cmpl %a5,%d1
    4a0a:	6d00 fc68      	bltw 4674 <_vfprintf_r+0x162c>
    4a0e:	6000 fc92      	braw 46a2 <_vfprintf_r+0x165a>
    4a12:	2d6e ff74 ff3c 	movel %fp@(-140),%fp@(-196)
    4a18:	6000 fd62      	braw 477c <_vfprintf_r+0x1734>
    4a1c:	102e ff71      	moveb %fp@(-143),%d0
    4a20:	3a40           	moveaw %d0,%a5
    4a22:	7400           	moveq #0,%d2
    4a24:	320d           	movew %a5,%d1
    4a26:	4a01           	tstb %d1
    4a28:	6600 eb2e      	bnew 3558 <_vfprintf_r+0x510>
    4a2c:	6000 eb2e      	braw 355c <_vfprintf_r+0x514>
    4a30:	486e ff8c      	pea %fp@(-116)
    4a34:	2f2e ff2c      	movel %fp@(-212),%sp@-
    4a38:	2f2e ff30      	movel %fp@(-208),%sp@-
    4a3c:	4eb9 0000 4e14 	jsr 4e14 <__sprint_r>
    4a42:	4fef 000c      	lea %sp@(12),%sp
    4a46:	4a80           	tstl %d0
    4a48:	6600 e908      	bnew 3352 <_vfprintf_r+0x30a>
    4a4c:	222e ff74      	movel %fp@(-140),%d1
    4a50:	246e ff94      	moveal %fp@(-108),%a2
    4a54:	49ee ffc0      	lea %fp@(-64),%a4
    4a58:	6000 f522      	braw 3f7c <_vfprintf_r+0xf34>
    4a5c:	2c04           	movel %d4,%d6
    4a5e:	7a00           	moveq #0,%d5
    4a60:	0605 0030      	addib #48,%d5
    4a64:	1d45 ffbf      	moveb %d5,%fp@(-65)
    4a68:	2806           	movel %d6,%d4
    4a6a:	7a01           	moveq #1,%d5
    4a6c:	7ebf           	moveq #-65,%d7
    4a6e:	de8e           	addl %fp,%d7
    4a70:	6000 eede      	braw 3950 <_vfprintf_r+0x908>
    4a74:	486e ff8c      	pea %fp@(-116)
    4a78:	2f2e ff2c      	movel %fp@(-212),%sp@-
    4a7c:	2f2e ff30      	movel %fp@(-208),%sp@-
    4a80:	4eb9 0000 4e14 	jsr 4e14 <__sprint_r>
    4a86:	4fef 000c      	lea %sp@(12),%sp
    4a8a:	4a80           	tstl %d0
    4a8c:	6600 e8c4      	bnew 3352 <_vfprintf_r+0x30a>
    4a90:	246e ff94      	moveal %fp@(-108),%a2
    4a94:	49ee ffc0      	lea %fp@(-64),%a4
    4a98:	4a82           	tstl %d2
    4a9a:	6c00 f49c      	bgew 3f38 <_vfprintf_r+0xef0>
    4a9e:	6000 f7aa      	braw 424a <_vfprintf_r+0x1202>
    4aa2:	486e ff8c      	pea %fp@(-116)
    4aa6:	2f2e ff2c      	movel %fp@(-212),%sp@-
    4aaa:	2f2e ff30      	movel %fp@(-208),%sp@-
    4aae:	4eb9 0000 4e14 	jsr 4e14 <__sprint_r>
    4ab4:	4fef 000c      	lea %sp@(12),%sp
    4ab8:	4a80           	tstl %d0
    4aba:	6600 e896      	bnew 3352 <_vfprintf_r+0x30a>
    4abe:	202e ff40      	movel %fp@(-192),%d0
    4ac2:	90ae ff74      	subl %fp@(-140),%d0
    4ac6:	246e ff94      	moveal %fp@(-108),%a2
    4aca:	49ee ffc0      	lea %fp@(-64),%a4
    4ace:	4a82           	tstl %d2
    4ad0:	6c00 f4ec      	bgew 3fbe <_vfprintf_r+0xf76>
    4ad4:	6000 f8a4      	braw 437a <_vfprintf_r+0x1332>
    4ad8:	7406           	moveq #6,%d2
    4ada:	4a80           	tstl %d0
    4adc:	6c00 fa50      	bgew 452e <_vfprintf_r+0x14e6>
    4ae0:	6000 fcea      	braw 47cc <_vfprintf_r+0x1784>
    4ae4:	182e ff71      	moveb %fp@(-143),%d4
    4ae8:	3a44           	moveaw %d4,%a5
    4aea:	2d42 ff28      	movel %d2,%fp@(-216)
    4aee:	2d4a ff38      	movel %a2,%fp@(-200)
    4af2:	2a02           	movel %d2,%d5
    4af4:	2806           	movel %d6,%d4
    4af6:	7400           	moveq #0,%d2
    4af8:	42ae ff3c      	clrl %fp@(-196)
    4afc:	320d           	movew %a5,%d1
    4afe:	4a01           	tstb %d1
    4b00:	6600 ea56      	bnew 3558 <_vfprintf_r+0x510>
    4b04:	6000 ea56      	braw 355c <_vfprintf_r+0x514>
    4b08:	242e ff40      	movel %fp@(-192),%d2
    4b0c:	b4ae ff3c      	cmpl %fp@(-196),%d2
    4b10:	6e00 00ac      	bgtw 4bbe <_vfprintf_r+0x1b76>
    4b14:	0806 0000      	btst #0,%d6
    4b18:	6600 00c0      	bnew 4bda <_vfprintf_r+0x1b92>
    4b1c:	2d6e ff3c ff28 	movel %fp@(-196),%fp@(-216)
    4b22:	6b0c           	bmis 4b30 <_vfprintf_r+0x1ae8>
    4b24:	2a2e ff3c      	movel %fp@(-196),%d5
    4b28:	367c 0067      	moveaw #103,%a3
    4b2c:	6000 fc86      	braw 47b4 <_vfprintf_r+0x176c>
    4b30:	42ae ff28      	clrl %fp@(-216)
    4b34:	2a2e ff3c      	movel %fp@(-196),%d5
    4b38:	367c 0067      	moveaw #103,%a3
    4b3c:	6000 fc76      	braw 47b4 <_vfprintf_r+0x176c>
    4b40:	2a40           	moveal %d0,%a5
    4b42:	dbc2           	addal %d2,%a5
    4b44:	42a7           	clrl %sp@-
    4b46:	42a7           	clrl %sp@-
    4b48:	2f2e ff6c      	movel %fp@(-148),%sp@-
    4b4c:	2f2e ff68      	movel %fp@(-152),%sp@-
    4b50:	4eb9 0000 f99c 	jsr f99c <__eqdf2>
    4b56:	4fef 0010      	lea %sp@(16),%sp
    4b5a:	4a80           	tstl %d0
    4b5c:	6600 fa4a      	bnew 45a8 <_vfprintf_r+0x1560>
    4b60:	6000 fc12      	braw 4774 <_vfprintf_r+0x172c>
    4b64:	7245           	moveq #69,%d1
    4b66:	b285           	cmpl %d5,%d1
    4b68:	6600 fc9c      	bnew 4806 <_vfprintf_r+0x17be>
    4b6c:	2442           	moveal %d2,%a2
    4b6e:	528a           	addql #1,%a2
    4b70:	7002           	moveq #2,%d0
    4b72:	6000 f9d6      	braw 454a <_vfprintf_r+0x1502>
    4b76:	1d7c 0030 ff7e 	moveb #48,%fp@(-130)
    4b7c:	0605 0030      	addib #48,%d5
    4b80:	1d45 ff7f      	moveb %d5,%fp@(-129)
    4b84:	307c 0004      	moveaw #4,%a0
    4b88:	2d48 ff54      	movel %a0,%fp@(-172)
    4b8c:	2a2e ff40      	movel %fp@(-192),%d5
    4b90:	daae ff54      	addl %fp@(-172),%d5
    4b94:	7001           	moveq #1,%d0
    4b96:	b0ae ff40      	cmpl %fp@(-192),%d0
    4b9a:	6d00 fd52      	bltw 48ee <_vfprintf_r+0x18a6>
    4b9e:	6000 fdfa      	braw 499a <_vfprintf_r+0x1952>
    4ba2:	4a81           	tstl %d1
    4ba4:	6d00 00e4      	bltw 4c8a <_vfprintf_r+0x1c42>
    4ba8:	2d6e ff44 ff68 	movel %fp@(-188),%fp@(-152)
    4bae:	2d6e ff48 ff6c 	movel %fp@(-184),%fp@(-148)
    4bb4:	422e ff5c      	clrb %fp@(-164)
    4bb8:	7401           	moveq #1,%d2
    4bba:	6000 fc4a      	braw 4806 <_vfprintf_r+0x17be>
    4bbe:	2a2e ff40      	movel %fp@(-192),%d5
    4bc2:	daae ff4c      	addl %fp@(-180),%d5
    4bc6:	4aae ff3c      	tstl %fp@(-196)
    4bca:	6f28           	bles 4bf4 <_vfprintf_r+0x1bac>
    4bcc:	2d45 ff28      	movel %d5,%fp@(-216)
    4bd0:	6b16           	bmis 4be8 <_vfprintf_r+0x1ba0>
    4bd2:	367c 0067      	moveaw #103,%a3
    4bd6:	6000 fbdc      	braw 47b4 <_vfprintf_r+0x176c>
    4bda:	2a2e ff3c      	movel %fp@(-196),%d5
    4bde:	daae ff4c      	addl %fp@(-180),%d5
    4be2:	2d45 ff28      	movel %d5,%fp@(-216)
    4be6:	6aea           	bpls 4bd2 <_vfprintf_r+0x1b8a>
    4be8:	42ae ff28      	clrl %fp@(-216)
    4bec:	367c 0067      	moveaw #103,%a3
    4bf0:	6000 fbc2      	braw 47b4 <_vfprintf_r+0x176c>
    4bf4:	7001           	moveq #1,%d0
    4bf6:	90ae ff3c      	subl %fp@(-196),%d0
    4bfa:	da80           	addl %d0,%d5
    4bfc:	2d45 ff28      	movel %d5,%fp@(-216)
    4c00:	6ad0           	bpls 4bd2 <_vfprintf_r+0x1b8a>
    4c02:	60e4           	bras 4be8 <_vfprintf_r+0x1ba0>
    4c04:	42a7           	clrl %sp@-
    4c06:	42a7           	clrl %sp@-
    4c08:	2f2e ff6c      	movel %fp@(-148),%sp@-
    4c0c:	2f2e ff68      	movel %fp@(-152),%sp@-
    4c10:	4eb9 0000 f9c0 	jsr f9c0 <__nedf2>
    4c16:	4fef 0010      	lea %sp@(16),%sp
    4c1a:	4a80           	tstl %d0
    4c1c:	6600 00d4      	bnew 4cf2 <_vfprintf_r+0x1caa>
    4c20:	2d6e ff74 ff3c 	movel %fp@(-140),%fp@(-196)
    4c26:	202e ff3c      	movel %fp@(-196),%d0
    4c2a:	d08d           	addl %a5,%d0
    4c2c:	9087           	subl %d7,%d0
    4c2e:	2d40 ff40      	movel %d0,%fp@(-192)
    4c32:	6000 fb5e      	braw 4792 <_vfprintf_r+0x174a>
    4c36:	4aae ff44      	tstl %fp@(-188)
    4c3a:	6d00 00a8      	bltw 4ce4 <_vfprintf_r+0x1c9c>
    4c3e:	1e2e ff71      	moveb %fp@(-143),%d7
    4c42:	3a47           	moveaw %d7,%a5
    4c44:	7047           	moveq #71,%d0
    4c46:	b08b           	cmpl %a3,%d0
    4c48:	6d7e           	blts 4cc8 <_vfprintf_r+0x1c80>
    4c4a:	2e3c 0001 08d3 	movel #67795,%d7
    4c50:	7880           	moveq #-128,%d4
    4c52:	4604           	notb %d4
    4c54:	c886           	andl %d6,%d4
    4c56:	7203           	moveq #3,%d1
    4c58:	2d41 ff28      	movel %d1,%fp@(-216)
    4c5c:	7a03           	moveq #3,%d5
    4c5e:	7400           	moveq #0,%d2
    4c60:	42ae ff3c      	clrl %fp@(-196)
    4c64:	320d           	movew %a5,%d1
    4c66:	4a01           	tstb %d1
    4c68:	6600 e8ee      	bnew 3558 <_vfprintf_r+0x510>
    4c6c:	6000 e8ee      	braw 355c <_vfprintf_r+0x514>
    4c70:	0680 8000 0000 	addil #-2147483648,%d0
    4c76:	2d40 ff68      	movel %d0,%fp@(-152)
    4c7a:	2d6e ff48 ff6c 	movel %fp@(-184),%fp@(-148)
    4c80:	1d7c 002d ff5c 	moveb #45,%fp@(-164)
    4c86:	6000 fb7e      	braw 4806 <_vfprintf_r+0x17be>
    4c8a:	222e ff44      	movel %fp@(-188),%d1
    4c8e:	0681 8000 0000 	addil #-2147483648,%d1
    4c94:	2d41 ff68      	movel %d1,%fp@(-152)
    4c98:	2d6e ff48 ff6c 	movel %fp@(-184),%fp@(-148)
    4c9e:	1d7c 002d ff5c 	moveb #45,%fp@(-164)
    4ca4:	7401           	moveq #1,%d2
    4ca6:	6000 fb5e      	braw 4806 <_vfprintf_r+0x17be>
    4caa:	d4ae ff3c      	addl %fp@(-196),%d2
    4cae:	2a02           	movel %d2,%d5
    4cb0:	daae ff4c      	addl %fp@(-180),%d5
    4cb4:	2d45 ff28      	movel %d5,%fp@(-216)
    4cb8:	6a00 faf6      	bplw 47b0 <_vfprintf_r+0x1768>
    4cbc:	42ae ff28      	clrl %fp@(-216)
    4cc0:	367c 0066      	moveaw #102,%a3
    4cc4:	6000 faee      	braw 47b4 <_vfprintf_r+0x176c>
    4cc8:	2e3c 0001 08d7 	movel #67799,%d7
    4cce:	7880           	moveq #-128,%d4
    4cd0:	4604           	notb %d4
    4cd2:	c886           	andl %d6,%d4
    4cd4:	7203           	moveq #3,%d1
    4cd6:	2d41 ff28      	movel %d1,%fp@(-216)
    4cda:	7a03           	moveq #3,%d5
    4cdc:	7400           	moveq #0,%d2
    4cde:	42ae ff3c      	clrl %fp@(-196)
    4ce2:	6080           	bras 4c64 <_vfprintf_r+0x1c1c>
    4ce4:	1d7c 002d ff71 	moveb #45,%fp@(-143)
    4cea:	3a7c 002d      	moveaw #45,%a5
    4cee:	6000 ff54      	braw 4c44 <_vfprintf_r+0x1bfc>
    4cf2:	7001           	moveq #1,%d0
    4cf4:	908a           	subl %a2,%d0
    4cf6:	2d40 ff74      	movel %d0,%fp@(-140)
    4cfa:	dbc0           	addal %d0,%a5
    4cfc:	6000 f88e      	braw 458c <_vfprintf_r+0x1544>
    4d00:	327c 0002      	moveaw #2,%a1
    4d04:	2d49 ff54      	movel %a1,%fp@(-172)
    4d08:	2a2e ff40      	movel %fp@(-192),%d5
    4d0c:	daae ff54      	addl %fp@(-172),%d5
    4d10:	7001           	moveq #1,%d0
    4d12:	b0ae ff40      	cmpl %fp@(-192),%d0
    4d16:	6d00 fbd6      	bltw 48ee <_vfprintf_r+0x18a6>
    4d1a:	6000 fc7e      	braw 499a <_vfprintf_r+0x1952>
    4d1e:	4a80           	tstl %d0
    4d20:	6610           	bnes 4d32 <_vfprintf_r+0x1cea>
    4d22:	7201           	moveq #1,%d1
    4d24:	2d41 ff28      	movel %d1,%fp@(-216)
    4d28:	367c 0066      	moveaw #102,%a3
    4d2c:	7a01           	moveq #1,%d5
    4d2e:	6000 fa84      	braw 47b4 <_vfprintf_r+0x176c>
    4d32:	206e ff4c      	moveal %fp@(-180),%a0
    4d36:	41f0 2801      	lea %a0@(1,%d2:l),%a0
    4d3a:	2a08           	movel %a0,%d5
    4d3c:	2d48 ff28      	movel %a0,%fp@(-216)
    4d40:	6b00 ff7a      	bmiw 4cbc <_vfprintf_r+0x1c74>
    4d44:	367c 0066      	moveaw #102,%a3
    4d48:	6000 fa6a      	braw 47b4 <_vfprintf_r+0x176c>

00004d4c <vfprintf>:
    4d4c:	2f2f 000c      	movel %sp@(12),%sp@-
    4d50:	2f2f 000c      	movel %sp@(12),%sp@-
    4d54:	2f2f 000c      	movel %sp@(12),%sp@-
    4d58:	2f39 0001 2c70 	movel 12c70 <_impure_ptr>,%sp@-
    4d5e:	4eb9 0000 3048 	jsr 3048 <_vfprintf_r>
    4d64:	4fef 0010      	lea %sp@(16),%sp
    4d68:	4e75           	rts

00004d6a <__sbprintf>:
    4d6a:	4fef fb98      	lea %sp@(-1128),%sp
    4d6e:	48e7 3820      	moveml %d2-%d4/%a2,%sp@-
    4d72:	262f 047c      	movel %sp@(1148),%d3
    4d76:	246f 0480      	moveal %sp@(1152),%a2
    4d7a:	302a 000c      	movew %a2@(12),%d0
    4d7e:	0240 fffd      	andiw #-3,%d0
    4d82:	3f40 001c      	movew %d0,%sp@(28)
    4d86:	2f6a 0064 0074 	movel %a2@(100),%sp@(116)
    4d8c:	3f6a 000e 001e 	movew %a2@(14),%sp@(30)
    4d92:	2f6a 001c 002c 	movel %a2@(28),%sp@(44)
    4d98:	2f6a 0024 0034 	movel %a2@(36),%sp@(52)
    4d9e:	7078           	moveq #120,%d0
    4da0:	d08f           	addl %sp,%d0
    4da2:	2f40 0010      	movel %d0,%sp@(16)
    4da6:	7078           	moveq #120,%d0
    4da8:	d08f           	addl %sp,%d0
    4daa:	2f40 0020      	movel %d0,%sp@(32)
    4dae:	2f7c 0000 0400 	movel #1024,%sp@(24)
    4db4:	0018 
    4db6:	2f7c 0000 0400 	movel #1024,%sp@(36)
    4dbc:	0024 
    4dbe:	42af 0028      	clrl %sp@(40)
    4dc2:	2f2f 0488      	movel %sp@(1160),%sp@-
    4dc6:	2f2f 0488      	movel %sp@(1160),%sp@-
    4dca:	7818           	moveq #24,%d4
    4dcc:	d88f           	addl %sp,%d4
    4dce:	2f04           	movel %d4,%sp@-
    4dd0:	2f03           	movel %d3,%sp@-
    4dd2:	4eb9 0000 3048 	jsr 3048 <_vfprintf_r>
    4dd8:	2400           	movel %d0,%d2
    4dda:	4fef 0010      	lea %sp@(16),%sp
    4dde:	6a1a           	bpls 4dfa <__sbprintf+0x90>
    4de0:	082f 0006 001d 	btst #6,%sp@(29)
    4de6:	6706           	beqs 4dee <__sbprintf+0x84>
    4de8:	006a 0040 000c 	oriw #64,%a2@(12)
    4dee:	2002           	movel %d2,%d0
    4df0:	4cdf 041c      	moveml %sp@+,%d2-%d4/%a2
    4df4:	4fef 0468      	lea %sp@(1128),%sp
    4df8:	4e75           	rts
    4dfa:	2f04           	movel %d4,%sp@-
    4dfc:	2f03           	movel %d3,%sp@-
    4dfe:	4eb9 0000 50f2 	jsr 50f2 <_fflush_r>
    4e04:	508f           	addql #8,%sp
    4e06:	4a80           	tstl %d0
    4e08:	67d6           	beqs 4de0 <__sbprintf+0x76>
    4e0a:	74ff           	moveq #-1,%d2
    4e0c:	60d2           	bras 4de0 <__sbprintf+0x76>
	...

00004e10 <__malloc_lock>:
    4e10:	4e75           	rts

00004e12 <__malloc_unlock>:
    4e12:	4e75           	rts

00004e14 <__sprint_r>:
    4e14:	2f0a           	movel %a2,%sp@-
    4e16:	246f 0010      	moveal %sp@(16),%a2
    4e1a:	4aaa 0008      	tstl %a2@(8)
    4e1e:	660a           	bnes 4e2a <__sprint_r+0x16>
    4e20:	7000           	moveq #0,%d0
    4e22:	42aa 0004      	clrl %a2@(4)
    4e26:	245f           	moveal %sp@+,%a2
    4e28:	4e75           	rts
    4e2a:	2f0a           	movel %a2,%sp@-
    4e2c:	2f2f 0010      	movel %sp@(16),%sp@-
    4e30:	2f2f 0010      	movel %sp@(16),%sp@-
    4e34:	4eb9 0000 52c0 	jsr 52c0 <__sfvwrite_r>
    4e3a:	42aa 0008      	clrl %a2@(8)
    4e3e:	4fef 000c      	lea %sp@(12),%sp
    4e42:	42aa 0004      	clrl %a2@(4)
    4e46:	245f           	moveal %sp@+,%a2
    4e48:	4e75           	rts
	...

00004e4c <_fclose_r>:
    4e4c:	48e7 2030      	moveml %d2/%a2-%a3,%sp@-
    4e50:	266f 0010      	moveal %sp@(16),%a3
    4e54:	246f 0014      	moveal %sp@(20),%a2
    4e58:	b4fc 0000      	cmpaw #0,%a2
    4e5c:	6714           	beqs 4e72 <_fclose_r+0x26>
    4e5e:	b6fc 0000      	cmpaw #0,%a3
    4e62:	6708           	beqs 4e6c <_fclose_r+0x20>
    4e64:	4aab 0032      	tstl %a3@(50)
    4e68:	6700 00a4      	beqw 4f0e <_fclose_r+0xc2>
    4e6c:	4a6a 000c      	tstw %a2@(12)
    4e70:	660a           	bnes 4e7c <_fclose_r+0x30>
    4e72:	7400           	moveq #0,%d2
    4e74:	2002           	movel %d2,%d0
    4e76:	4cdf 0c04      	moveml %sp@+,%d2/%a2-%a3
    4e7a:	4e75           	rts
    4e7c:	2f0a           	movel %a2,%sp@-
    4e7e:	2f0b           	movel %a3,%sp@-
    4e80:	4eb9 0000 4f38 	jsr 4f38 <__sflush_r>
    4e86:	2400           	movel %d0,%d2
    4e88:	206a 002c      	moveal %a2@(44),%a0
    4e8c:	508f           	addql #8,%sp
    4e8e:	b0fc 0000      	cmpaw #0,%a0
    4e92:	670e           	beqs 4ea2 <_fclose_r+0x56>
    4e94:	2f2a 001c      	movel %a2@(28),%sp@-
    4e98:	2f0b           	movel %a3,%sp@-
    4e9a:	4e90           	jsr %a0@
    4e9c:	508f           	addql #8,%sp
    4e9e:	4a80           	tstl %d0
    4ea0:	6d62           	blts 4f04 <_fclose_r+0xb8>
    4ea2:	4a2a 000d      	tstb %a2@(13)
    4ea6:	6b4c           	bmis 4ef4 <_fclose_r+0xa8>
    4ea8:	202a 0030      	movel %a2@(48),%d0
    4eac:	6718           	beqs 4ec6 <_fclose_r+0x7a>
    4eae:	41ea 0040      	lea %a2@(64),%a0
    4eb2:	b1c0           	cmpal %d0,%a0
    4eb4:	670c           	beqs 4ec2 <_fclose_r+0x76>
    4eb6:	2f00           	movel %d0,%sp@-
    4eb8:	2f0b           	movel %a3,%sp@-
    4eba:	4eb9 0000 7766 	jsr 7766 <_free_r>
    4ec0:	508f           	addql #8,%sp
    4ec2:	42aa 0030      	clrl %a2@(48)
    4ec6:	202a 0044      	movel %a2@(68),%d0
    4eca:	6710           	beqs 4edc <_fclose_r+0x90>
    4ecc:	2f00           	movel %d0,%sp@-
    4ece:	2f0b           	movel %a3,%sp@-
    4ed0:	4eb9 0000 7766 	jsr 7766 <_free_r>
    4ed6:	42aa 0044      	clrl %a2@(68)
    4eda:	508f           	addql #8,%sp
    4edc:	4eb9 0000 25aa 	jsr 25aa <__sfp_lock_acquire>
    4ee2:	426a 000c      	clrw %a2@(12)
    4ee6:	4eb9 0000 25ac 	jsr 25ac <__sfp_lock_release>
    4eec:	2002           	movel %d2,%d0
    4eee:	4cdf 0c04      	moveml %sp@+,%d2/%a2-%a3
    4ef2:	4e75           	rts
    4ef4:	2f2a 0010      	movel %a2@(16),%sp@-
    4ef8:	2f0b           	movel %a3,%sp@-
    4efa:	4eb9 0000 7766 	jsr 7766 <_free_r>
    4f00:	508f           	addql #8,%sp
    4f02:	60a4           	bras 4ea8 <_fclose_r+0x5c>
    4f04:	74ff           	moveq #-1,%d2
    4f06:	4a2a 000d      	tstb %a2@(13)
    4f0a:	6a9c           	bpls 4ea8 <_fclose_r+0x5c>
    4f0c:	60e6           	bras 4ef4 <_fclose_r+0xa8>
    4f0e:	2f0b           	movel %a3,%sp@-
    4f10:	4eb9 0000 2588 	jsr 2588 <__sinit>
    4f16:	588f           	addql #4,%sp
    4f18:	4a6a 000c      	tstw %a2@(12)
    4f1c:	6700 ff54      	beqw 4e72 <_fclose_r+0x26>
    4f20:	6000 ff5a      	braw 4e7c <_fclose_r+0x30>

00004f24 <fclose>:
    4f24:	2f2f 0004      	movel %sp@(4),%sp@-
    4f28:	2f39 0001 2c70 	movel 12c70 <_impure_ptr>,%sp@-
    4f2e:	4eb9 0000 4e4c 	jsr 4e4c <_fclose_r>
    4f34:	508f           	addql #8,%sp
    4f36:	4e75           	rts

00004f38 <__sflush_r>:
    4f38:	48e7 3830      	moveml %d2-%d4/%a2-%a3,%sp@-
    4f3c:	266f 0018      	moveal %sp@(24),%a3
    4f40:	246f 001c      	moveal %sp@(28),%a2
    4f44:	322a 000c      	movew %a2@(12),%d1
    4f48:	0801 0003      	btst #3,%d1
    4f4c:	6600 00c0      	bnew 500e <__sflush_r+0xd6>
    4f50:	3401           	movew %d1,%d2
    4f52:	0042 0800      	oriw #2048,%d2
    4f56:	3542 000c      	movew %d2,%a2@(12)
    4f5a:	4aaa 0004      	tstl %a2@(4)
    4f5e:	6f00 0118      	blew 5078 <__sflush_r+0x140>
    4f62:	206a 0028      	moveal %a2@(40),%a0
    4f66:	b0fc 0000      	cmpaw #0,%a0
    4f6a:	6700 009a      	beqw 5006 <__sflush_r+0xce>
    4f6e:	2613           	movel %a3@,%d3
    4f70:	4293           	clrl %a3@
    4f72:	202a 001c      	movel %a2@(28),%d0
    4f76:	0801 000c      	btst #12,%d1
    4f7a:	6700 0116      	beqw 5092 <__sflush_r+0x15a>
    4f7e:	202a 0050      	movel %a2@(80),%d0
    4f82:	0802 0002      	btst #2,%d2
    4f86:	670e           	beqs 4f96 <__sflush_r+0x5e>
    4f88:	90aa 0004      	subl %a2@(4),%d0
    4f8c:	4aaa 0030      	tstl %a2@(48)
    4f90:	6704           	beqs 4f96 <__sflush_r+0x5e>
    4f92:	90aa 003c      	subl %a2@(60),%d0
    4f96:	42a7           	clrl %sp@-
    4f98:	2f00           	movel %d0,%sp@-
    4f9a:	2f2a 001c      	movel %a2@(28),%sp@-
    4f9e:	2f0b           	movel %a3,%sp@-
    4fa0:	4e90           	jsr %a0@
    4fa2:	4fef 0010      	lea %sp@(16),%sp
    4fa6:	72ff           	moveq #-1,%d1
    4fa8:	b280           	cmpl %d0,%d1
    4faa:	6600 0120      	bnew 50cc <__sflush_r+0x194>
    4fae:	2413           	movel %a3@,%d2
    4fb0:	322a 000c      	movew %a2@(12),%d1
    4fb4:	781d           	moveq #29,%d4
    4fb6:	b882           	cmpl %d2,%d4
    4fb8:	6500 00ae      	bcsw 5068 <__sflush_r+0x130>
    4fbc:	283c 2040 0001 	movel #541065217,%d4
    4fc2:	0504           	btst %d2,%d4
    4fc4:	6700 00a2      	beqw 5068 <__sflush_r+0x130>
    4fc8:	3801           	movew %d1,%d4
    4fca:	0244 f7ff      	andiw #-2049,%d4
    4fce:	3544 000c      	movew %d4,%a2@(12)
    4fd2:	42aa 0004      	clrl %a2@(4)
    4fd6:	24aa 0010      	movel %a2@(16),%a2@
    4fda:	0801 000c      	btst #12,%d1
    4fde:	6706           	beqs 4fe6 <__sflush_r+0xae>
    4fe0:	4a82           	tstl %d2
    4fe2:	6700 0106      	beqw 50ea <__sflush_r+0x1b2>
    4fe6:	2683           	movel %d3,%a3@
    4fe8:	202a 0030      	movel %a2@(48),%d0
    4fec:	6718           	beqs 5006 <__sflush_r+0xce>
    4fee:	41ea 0040      	lea %a2@(64),%a0
    4ff2:	b1c0           	cmpal %d0,%a0
    4ff4:	670c           	beqs 5002 <__sflush_r+0xca>
    4ff6:	2f00           	movel %d0,%sp@-
    4ff8:	2f0b           	movel %a3,%sp@-
    4ffa:	4eb9 0000 7766 	jsr 7766 <_free_r>
    5000:	508f           	addql #8,%sp
    5002:	42aa 0030      	clrl %a2@(48)
    5006:	7000           	moveq #0,%d0
    5008:	4cdf 0c1c      	moveml %sp@+,%d2-%d4/%a2-%a3
    500c:	4e75           	rts
    500e:	262a 0010      	movel %a2@(16),%d3
    5012:	67f2           	beqs 5006 <__sflush_r+0xce>
    5014:	2412           	movel %a2@,%d2
    5016:	9483           	subl %d3,%d2
    5018:	2483           	movel %d3,%a2@
    501a:	0241 0003      	andiw #3,%d1
    501e:	6664           	bnes 5084 <__sflush_r+0x14c>
    5020:	202a 0014      	movel %a2@(20),%d0
    5024:	2540 0008      	movel %d0,%a2@(8)
    5028:	4a82           	tstl %d2
    502a:	6fda           	bles 5006 <__sflush_r+0xce>
    502c:	2f02           	movel %d2,%sp@-
    502e:	2f03           	movel %d3,%sp@-
    5030:	2f2a 001c      	movel %a2@(28),%sp@-
    5034:	2f0b           	movel %a3,%sp@-
    5036:	206a 0024      	moveal %a2@(36),%a0
    503a:	4e90           	jsr %a0@
    503c:	4fef 0010      	lea %sp@(16),%sp
    5040:	4a80           	tstl %d0
    5042:	6f20           	bles 5064 <__sflush_r+0x12c>
    5044:	d680           	addl %d0,%d3
    5046:	9480           	subl %d0,%d2
    5048:	4a82           	tstl %d2
    504a:	6fba           	bles 5006 <__sflush_r+0xce>
    504c:	2f02           	movel %d2,%sp@-
    504e:	2f03           	movel %d3,%sp@-
    5050:	2f2a 001c      	movel %a2@(28),%sp@-
    5054:	2f0b           	movel %a3,%sp@-
    5056:	206a 0024      	moveal %a2@(36),%a0
    505a:	4e90           	jsr %a0@
    505c:	4fef 0010      	lea %sp@(16),%sp
    5060:	4a80           	tstl %d0
    5062:	6ee0           	bgts 5044 <__sflush_r+0x10c>
    5064:	322a 000c      	movew %a2@(12),%d1
    5068:	0041 0040      	oriw #64,%d1
    506c:	3541 000c      	movew %d1,%a2@(12)
    5070:	70ff           	moveq #-1,%d0
    5072:	4cdf 0c1c      	moveml %sp@+,%d2-%d4/%a2-%a3
    5076:	4e75           	rts
    5078:	4aaa 003c      	tstl %a2@(60)
    507c:	6e00 fee4      	bgtw 4f62 <__sflush_r+0x2a>
    5080:	7000           	moveq #0,%d0
    5082:	6084           	bras 5008 <__sflush_r+0xd0>
    5084:	7000           	moveq #0,%d0
    5086:	2540 0008      	movel %d0,%a2@(8)
    508a:	4a82           	tstl %d2
    508c:	6e9e           	bgts 502c <__sflush_r+0xf4>
    508e:	6000 ff76      	braw 5006 <__sflush_r+0xce>
    5092:	4878 0001      	pea 1 <ADD>
    5096:	42a7           	clrl %sp@-
    5098:	2f00           	movel %d0,%sp@-
    509a:	2f0b           	movel %a3,%sp@-
    509c:	4e90           	jsr %a0@
    509e:	4fef 0010      	lea %sp@(16),%sp
    50a2:	72ff           	moveq #-1,%d1
    50a4:	b280           	cmpl %d0,%d1
    50a6:	670c           	beqs 50b4 <__sflush_r+0x17c>
    50a8:	342a 000c      	movew %a2@(12),%d2
    50ac:	206a 0028      	moveal %a2@(40),%a0
    50b0:	6000 fed0      	braw 4f82 <__sflush_r+0x4a>
    50b4:	2213           	movel %a3@,%d1
    50b6:	67f0           	beqs 50a8 <__sflush_r+0x170>
    50b8:	741d           	moveq #29,%d2
    50ba:	b481           	cmpl %d1,%d2
    50bc:	6706           	beqs 50c4 <__sflush_r+0x18c>
    50be:	7816           	moveq #22,%d4
    50c0:	b881           	cmpl %d1,%d4
    50c2:	66a0           	bnes 5064 <__sflush_r+0x12c>
    50c4:	2683           	movel %d3,%a3@
    50c6:	7000           	moveq #0,%d0
    50c8:	6000 ff3e      	braw 5008 <__sflush_r+0xd0>
    50cc:	322a 000c      	movew %a2@(12),%d1
    50d0:	3401           	movew %d1,%d2
    50d2:	0242 f7ff      	andiw #-2049,%d2
    50d6:	3542 000c      	movew %d2,%a2@(12)
    50da:	42aa 0004      	clrl %a2@(4)
    50de:	24aa 0010      	movel %a2@(16),%a2@
    50e2:	0801 000c      	btst #12,%d1
    50e6:	6700 fefe      	beqw 4fe6 <__sflush_r+0xae>
    50ea:	2540 0050      	movel %d0,%a2@(80)
    50ee:	6000 fef6      	braw 4fe6 <__sflush_r+0xae>

000050f2 <_fflush_r>:
    50f2:	2f0b           	movel %a3,%sp@-
    50f4:	2f0a           	movel %a2,%sp@-
    50f6:	246f 000c      	moveal %sp@(12),%a2
    50fa:	266f 0010      	moveal %sp@(16),%a3
    50fe:	b4fc 0000      	cmpaw #0,%a2
    5102:	6706           	beqs 510a <_fflush_r+0x18>
    5104:	4aaa 0032      	tstl %a2@(50)
    5108:	6720           	beqs 512a <_fflush_r+0x38>
    510a:	4a6b 000c      	tstw %a3@(12)
    510e:	6608           	bnes 5118 <_fflush_r+0x26>
    5110:	7000           	moveq #0,%d0
    5112:	245f           	moveal %sp@+,%a2
    5114:	265f           	moveal %sp@+,%a3
    5116:	4e75           	rts
    5118:	2f4b 0010      	movel %a3,%sp@(16)
    511c:	2f4a 000c      	movel %a2,%sp@(12)
    5120:	245f           	moveal %sp@+,%a2
    5122:	265f           	moveal %sp@+,%a3
    5124:	4ef9 0000 4f38 	jmp 4f38 <__sflush_r>
    512a:	2f0a           	movel %a2,%sp@-
    512c:	4eb9 0000 2588 	jsr 2588 <__sinit>
    5132:	588f           	addql #4,%sp
    5134:	60d4           	bras 510a <_fflush_r+0x18>

00005136 <fflush>:
    5136:	2f0b           	movel %a3,%sp@-
    5138:	2f0a           	movel %a2,%sp@-
    513a:	246f 000c      	moveal %sp@(12),%a2
    513e:	b4fc 0000      	cmpaw #0,%a2
    5142:	6744           	beqs 5188 <fflush+0x52>
    5144:	2679 0001 2c70 	moveal 12c70 <_impure_ptr>,%a3
    514a:	b6fc 0000      	cmpaw #0,%a3
    514e:	6706           	beqs 5156 <fflush+0x20>
    5150:	4aab 0032      	tstl %a3@(50)
    5154:	6720           	beqs 5176 <fflush+0x40>
    5156:	4a6a 000c      	tstw %a2@(12)
    515a:	6608           	bnes 5164 <fflush+0x2e>
    515c:	7000           	moveq #0,%d0
    515e:	245f           	moveal %sp@+,%a2
    5160:	265f           	moveal %sp@+,%a3
    5162:	4e75           	rts
    5164:	2f0a           	movel %a2,%sp@-
    5166:	2f0b           	movel %a3,%sp@-
    5168:	4eb9 0000 4f38 	jsr 4f38 <__sflush_r>
    516e:	508f           	addql #8,%sp
    5170:	245f           	moveal %sp@+,%a2
    5172:	265f           	moveal %sp@+,%a3
    5174:	4e75           	rts
    5176:	2f0b           	movel %a3,%sp@-
    5178:	4eb9 0000 2588 	jsr 2588 <__sinit>
    517e:	588f           	addql #4,%sp
    5180:	4a6a 000c      	tstw %a2@(12)
    5184:	67d6           	beqs 515c <fflush+0x26>
    5186:	60dc           	bras 5164 <fflush+0x2e>
    5188:	4879 0001 2c64 	pea 12c64 <__sglue>
    518e:	4879 0000 50f2 	pea 50f2 <_fflush_r>
    5194:	4879 0001 2c74 	pea 12c74 <_impure_data>
    519a:	4eb9 0000 25e4 	jsr 25e4 <_fwalk_sglue>
    51a0:	4fef 000c      	lea %sp@(12),%sp
    51a4:	245f           	moveal %sp@+,%a2
    51a6:	265f           	moveal %sp@+,%a3
    51a8:	4e75           	rts
	...

000051ac <__sread>:
    51ac:	2f0a           	movel %a2,%sp@-
    51ae:	246f 000c      	moveal %sp@(12),%a2
    51b2:	2f2f 0014      	movel %sp@(20),%sp@-
    51b6:	2f2f 0014      	movel %sp@(20),%sp@-
    51ba:	306a 000e      	moveaw %a2@(14),%a0
    51be:	2f08           	movel %a0,%sp@-
    51c0:	2f2f 0014      	movel %sp@(20),%sp@-
    51c4:	4eb9 0000 5a68 	jsr 5a68 <_read_r>
    51ca:	4fef 0010      	lea %sp@(16),%sp
    51ce:	4a80           	tstl %d0
    51d0:	6d08           	blts 51da <__sread+0x2e>
    51d2:	d1aa 0050      	addl %d0,%a2@(80)
    51d6:	245f           	moveal %sp@+,%a2
    51d8:	4e75           	rts
    51da:	026a efff 000c 	andiw #-4097,%a2@(12)
    51e0:	245f           	moveal %sp@+,%a2
    51e2:	4e75           	rts

000051e4 <__seofread>:
    51e4:	7000           	moveq #0,%d0
    51e6:	4e75           	rts

000051e8 <__swrite>:
    51e8:	48e7 3820      	moveml %d2-%d4/%a2,%sp@-
    51ec:	242f 0014      	movel %sp@(20),%d2
    51f0:	246f 0018      	moveal %sp@(24),%a2
    51f4:	262f 001c      	movel %sp@(28),%d3
    51f8:	282f 0020      	movel %sp@(32),%d4
    51fc:	302a 000c      	movew %a2@(12),%d0
    5200:	0800 0008      	btst #8,%d0
    5204:	6626           	bnes 522c <__swrite+0x44>
    5206:	0240 efff      	andiw #-4097,%d0
    520a:	3540 000c      	movew %d0,%a2@(12)
    520e:	2f44 0020      	movel %d4,%sp@(32)
    5212:	2f43 001c      	movel %d3,%sp@(28)
    5216:	346a 000e      	moveaw %a2@(14),%a2
    521a:	2f4a 0018      	movel %a2,%sp@(24)
    521e:	2f42 0014      	movel %d2,%sp@(20)
    5222:	4cdf 041c      	moveml %sp@+,%d2-%d4/%a2
    5226:	4ef9 0000 5ac8 	jmp 5ac8 <_write_r>
    522c:	4878 0002      	pea 2 <DOUBLE_FLOAT>
    5230:	42a7           	clrl %sp@-
    5232:	306a 000e      	moveaw %a2@(14),%a0
    5236:	2f08           	movel %a0,%sp@-
    5238:	2f02           	movel %d2,%sp@-
    523a:	4eb9 0000 5a34 	jsr 5a34 <_lseek_r>
    5240:	302a 000c      	movew %a2@(12),%d0
    5244:	4fef 0010      	lea %sp@(16),%sp
    5248:	0240 efff      	andiw #-4097,%d0
    524c:	3540 000c      	movew %d0,%a2@(12)
    5250:	2f44 0020      	movel %d4,%sp@(32)
    5254:	2f43 001c      	movel %d3,%sp@(28)
    5258:	346a 000e      	moveaw %a2@(14),%a2
    525c:	2f4a 0018      	movel %a2,%sp@(24)
    5260:	2f42 0014      	movel %d2,%sp@(20)
    5264:	4cdf 041c      	moveml %sp@+,%d2-%d4/%a2
    5268:	4ef9 0000 5ac8 	jmp 5ac8 <_write_r>

0000526e <__sseek>:
    526e:	2f0a           	movel %a2,%sp@-
    5270:	246f 000c      	moveal %sp@(12),%a2
    5274:	2f2f 0014      	movel %sp@(20),%sp@-
    5278:	2f2f 0014      	movel %sp@(20),%sp@-
    527c:	306a 000e      	moveaw %a2@(14),%a0
    5280:	2f08           	movel %a0,%sp@-
    5282:	2f2f 0014      	movel %sp@(20),%sp@-
    5286:	4eb9 0000 5a34 	jsr 5a34 <_lseek_r>
    528c:	4fef 0010      	lea %sp@(16),%sp
    5290:	72ff           	moveq #-1,%d1
    5292:	b280           	cmpl %d0,%d1
    5294:	670e           	beqs 52a4 <__sseek+0x36>
    5296:	006a 1000 000c 	oriw #4096,%a2@(12)
    529c:	2540 0050      	movel %d0,%a2@(80)
    52a0:	245f           	moveal %sp@+,%a2
    52a2:	4e75           	rts
    52a4:	026a efff 000c 	andiw #-4097,%a2@(12)
    52aa:	245f           	moveal %sp@+,%a2
    52ac:	4e75           	rts

000052ae <__sclose>:
    52ae:	206f 0008      	moveal %sp@(8),%a0
    52b2:	3068 000e      	moveaw %a0@(14),%a0
    52b6:	2f48 0008      	movel %a0,%sp@(8)
    52ba:	4ef9 0000 5950 	jmp 5950 <_close_r>

000052c0 <__sfvwrite_r>:
    52c0:	48e7 3f3e      	moveml %d2-%d7/%a2-%fp,%sp@-
    52c4:	2c6f 0030      	moveal %sp@(48),%fp
    52c8:	246f 0034      	moveal %sp@(52),%a2
    52cc:	2a6f 0038      	moveal %sp@(56),%a5
    52d0:	4aad 0008      	tstl %a5@(8)
    52d4:	6700 00fa      	beqw 53d0 <__sfvwrite_r+0x110>
    52d8:	302a 000c      	movew %a2@(12),%d0
    52dc:	0800 0003      	btst #3,%d0
    52e0:	6700 00f6      	beqw 53d8 <__sfvwrite_r+0x118>
    52e4:	4aaa 0010      	tstl %a2@(16)
    52e8:	6700 00ee      	beqw 53d8 <__sfvwrite_r+0x118>
    52ec:	2655           	moveal %a5@,%a3
    52ee:	0800 0001      	btst #1,%d0
    52f2:	675e           	beqs 5352 <__sfvwrite_r+0x92>
    52f4:	7600           	moveq #0,%d3
    52f6:	7400           	moveq #0,%d2
    52f8:	226a 0024      	moveal %a2@(36),%a1
    52fc:	206a 001c      	moveal %a2@(28),%a0
    5300:	283c 7fff fc00 	movel #2147482624,%d4
    5306:	4a82           	tstl %d2
    5308:	673e           	beqs 5348 <__sfvwrite_r+0x88>
    530a:	2202           	movel %d2,%d1
    530c:	0c82 7fff fc00 	cmpil #2147482624,%d2
    5312:	6302           	blss 5316 <__sfvwrite_r+0x56>
    5314:	2204           	movel %d4,%d1
    5316:	2f01           	movel %d1,%sp@-
    5318:	2f03           	movel %d3,%sp@-
    531a:	2f08           	movel %a0,%sp@-
    531c:	2f0e           	movel %fp,%sp@-
    531e:	4e91           	jsr %a1@
    5320:	4fef 0010      	lea %sp@(16),%sp
    5324:	4a80           	tstl %d0
    5326:	6f00 00d4      	blew 53fc <__sfvwrite_r+0x13c>
    532a:	d680           	addl %d0,%d3
    532c:	9480           	subl %d0,%d2
    532e:	222d 0008      	movel %a5@(8),%d1
    5332:	9280           	subl %d0,%d1
    5334:	2b41 0008      	movel %d1,%a5@(8)
    5338:	6700 0096      	beqw 53d0 <__sfvwrite_r+0x110>
    533c:	226a 0024      	moveal %a2@(36),%a1
    5340:	206a 001c      	moveal %a2@(28),%a0
    5344:	4a82           	tstl %d2
    5346:	66c2           	bnes 530a <__sfvwrite_r+0x4a>
    5348:	2613           	movel %a3@,%d3
    534a:	242b 0004      	movel %a3@(4),%d2
    534e:	508b           	addql #8,%a3
    5350:	60b4           	bras 5306 <__sfvwrite_r+0x46>
    5352:	7600           	moveq #0,%d3
    5354:	0800 0000      	btst #0,%d0
    5358:	6700 0108      	beqw 5462 <__sfvwrite_r+0x1a2>
    535c:	7000           	moveq #0,%d0
    535e:	7800           	moveq #0,%d4
    5360:	7e00           	moveq #0,%d7
    5362:	2a3c 0000 583c 	movel #22588,%d5
    5368:	49f9 0000 50f2 	lea 50f2 <_fflush_r>,%a4
    536e:	4a87           	tstl %d7
    5370:	6700 009e      	beqw 5410 <__sfvwrite_r+0x150>
    5374:	4a80           	tstl %d0
    5376:	6700 00a4      	beqw 541c <__sfvwrite_r+0x15c>
    537a:	2003           	movel %d3,%d0
    537c:	2c07           	movel %d7,%d6
    537e:	b087           	cmpl %d7,%d0
    5380:	6402           	bccs 5384 <__sfvwrite_r+0xc4>
    5382:	2c00           	movel %d0,%d6
    5384:	242a 0008      	movel %a2@(8),%d2
    5388:	202a 0014      	movel %a2@(20),%d0
    538c:	2212           	movel %a2@,%d1
    538e:	b2aa 0010      	cmpl %a2@(16),%d1
    5392:	6308           	blss 539c <__sfvwrite_r+0xdc>
    5394:	d480           	addl %d0,%d2
    5396:	b486           	cmpl %d6,%d2
    5398:	6d00 00a6      	bltw 5440 <__sfvwrite_r+0x180>
    539c:	bc80           	cmpl %d0,%d6
    539e:	6d00 0262      	bltw 5602 <__sfvwrite_r+0x342>
    53a2:	2f00           	movel %d0,%sp@-
    53a4:	2f04           	movel %d4,%sp@-
    53a6:	2f2a 001c      	movel %a2@(28),%sp@-
    53aa:	2f0e           	movel %fp,%sp@-
    53ac:	206a 0024      	moveal %a2@(36),%a0
    53b0:	4e90           	jsr %a0@
    53b2:	2400           	movel %d0,%d2
    53b4:	4fef 0010      	lea %sp@(16),%sp
    53b8:	6f42           	bles 53fc <__sfvwrite_r+0x13c>
    53ba:	9682           	subl %d2,%d3
    53bc:	6732           	beqs 53f0 <__sfvwrite_r+0x130>
    53be:	7001           	moveq #1,%d0
    53c0:	d882           	addl %d2,%d4
    53c2:	9e82           	subl %d2,%d7
    53c4:	222d 0008      	movel %a5@(8),%d1
    53c8:	9282           	subl %d2,%d1
    53ca:	2b41 0008      	movel %d1,%a5@(8)
    53ce:	669e           	bnes 536e <__sfvwrite_r+0xae>
    53d0:	7000           	moveq #0,%d0
    53d2:	4cdf 7cfc      	moveml %sp@+,%d2-%d7/%a2-%fp
    53d6:	4e75           	rts
    53d8:	2f0a           	movel %a2,%sp@-
    53da:	2f0e           	movel %fp,%sp@-
    53dc:	4eb9 0000 5678 	jsr 5678 <__swsetup_r>
    53e2:	508f           	addql #8,%sp
    53e4:	4a80           	tstl %d0
    53e6:	6620           	bnes 5408 <__sfvwrite_r+0x148>
    53e8:	302a 000c      	movew %a2@(12),%d0
    53ec:	6000 fefe      	braw 52ec <__sfvwrite_r+0x2c>
    53f0:	2f0a           	movel %a2,%sp@-
    53f2:	2f0e           	movel %fp,%sp@-
    53f4:	4e94           	jsr %a4@
    53f6:	508f           	addql #8,%sp
    53f8:	4a80           	tstl %d0
    53fa:	67c4           	beqs 53c0 <__sfvwrite_r+0x100>
    53fc:	302a 000c      	movew %a2@(12),%d0
    5400:	0040 0040      	oriw #64,%d0
    5404:	3540 000c      	movew %d0,%a2@(12)
    5408:	70ff           	moveq #-1,%d0
    540a:	4cdf 7cfc      	moveml %sp@+,%d2-%d7/%a2-%fp
    540e:	4e75           	rts
    5410:	2e2b 0004      	movel %a3@(4),%d7
    5414:	204b           	moveal %a3,%a0
    5416:	508b           	addql #8,%a3
    5418:	67f6           	beqs 5410 <__sfvwrite_r+0x150>
    541a:	2810           	movel %a0@,%d4
    541c:	2f07           	movel %d7,%sp@-
    541e:	4878 000a      	pea a <DUART_IMR>
    5422:	2f04           	movel %d4,%sp@-
    5424:	4eb9 0000 57a0 	jsr 57a0 <memchr>
    542a:	4fef 000c      	lea %sp@(12),%sp
    542e:	4a80           	tstl %d0
    5430:	6700 0226      	beqw 5658 <__sfvwrite_r+0x398>
    5434:	5280           	addql #1,%d0
    5436:	2600           	movel %d0,%d3
    5438:	9684           	subl %d4,%d3
    543a:	2003           	movel %d3,%d0
    543c:	6000 ff3e      	braw 537c <__sfvwrite_r+0xbc>
    5440:	2f02           	movel %d2,%sp@-
    5442:	2f04           	movel %d4,%sp@-
    5444:	2f01           	movel %d1,%sp@-
    5446:	2045           	moveal %d5,%a0
    5448:	4e90           	jsr %a0@
    544a:	d592           	addl %d2,%a2@
    544c:	2f0a           	movel %a2,%sp@-
    544e:	2f0e           	movel %fp,%sp@-
    5450:	4e94           	jsr %a4@
    5452:	4fef 0014      	lea %sp@(20),%sp
    5456:	4a80           	tstl %d0
    5458:	6700 ff60      	beqw 53ba <__sfvwrite_r+0xfa>
    545c:	302a 000c      	movew %a2@(12),%d0
    5460:	609e           	bras 5400 <__sfvwrite_r+0x140>
    5462:	99cc           	subal %a4,%a4
    5464:	2212           	movel %a2@,%d1
    5466:	242a 0008      	movel %a2@(8),%d2
    546a:	283c 0000 583c 	movel #22588,%d4
    5470:	2a3c 0000 ef30 	movel #61232,%d5
    5476:	2041           	moveal %d1,%a0
    5478:	2c02           	movel %d2,%d6
    547a:	b8fc 0000      	cmpaw #0,%a4
    547e:	6700 00d2      	beqw 5552 <__sfvwrite_r+0x292>
    5482:	0800 0009      	btst #9,%d0
    5486:	6700 00d6      	beqw 555e <__sfvwrite_r+0x29e>
    548a:	b9c2           	cmpal %d2,%a4
    548c:	6500 0154      	bcsw 55e2 <__sfvwrite_r+0x322>
    5490:	3e00           	movew %d0,%d7
    5492:	0247 0480      	andiw #1152,%d7
    5496:	677c           	beqs 5514 <__sfvwrite_r+0x254>
    5498:	206a 0010      	moveal %a2@(16),%a0
    549c:	2401           	movel %d1,%d2
    549e:	9488           	subl %a0,%d2
    54a0:	222a 0014      	movel %a2@(20),%d1
    54a4:	2e01           	movel %d1,%d7
    54a6:	de81           	addl %d1,%d7
    54a8:	de81           	addl %d1,%d7
    54aa:	2e07           	movel %d7,%d7
    54ac:	6a02           	bpls 54b0 <__sfvwrite_r+0x1f0>
    54ae:	5287           	addql #1,%d7
    54b0:	e287           	asrl #1,%d7
    54b2:	43f4 2801      	lea %a4@(1,%d2:l),%a1
    54b6:	2207           	movel %d7,%d1
    54b8:	be89           	cmpl %a1,%d7
    54ba:	6404           	bccs 54c0 <__sfvwrite_r+0x200>
    54bc:	2e09           	movel %a1,%d7
    54be:	2209           	movel %a1,%d1
    54c0:	0800 000a      	btst #10,%d0
    54c4:	6700 0156      	beqw 561c <__sfvwrite_r+0x35c>
    54c8:	2f01           	movel %d1,%sp@-
    54ca:	2f0e           	movel %fp,%sp@-
    54cc:	4eb9 0000 2804 	jsr 2804 <_malloc_r>
    54d2:	2c00           	movel %d0,%d6
    54d4:	508f           	addql #8,%sp
    54d6:	6700 018a      	beqw 5662 <__sfvwrite_r+0x3a2>
    54da:	2f02           	movel %d2,%sp@-
    54dc:	2f2a 0010      	movel %a2@(16),%sp@-
    54e0:	2f00           	movel %d0,%sp@-
    54e2:	4eb9 0000 5b10 	jsr 5b10 <memcpy>
    54e8:	302a 000c      	movew %a2@(12),%d0
    54ec:	0240 fb7f      	andiw #-1153,%d0
    54f0:	0040 0080      	oriw #128,%d0
    54f4:	3540 000c      	movew %d0,%a2@(12)
    54f8:	4fef 000c      	lea %sp@(12),%sp
    54fc:	2546 0010      	movel %d6,%a2@(16)
    5500:	2046           	moveal %d6,%a0
    5502:	d1c2           	addal %d2,%a0
    5504:	2488           	movel %a0,%a2@
    5506:	2547 0014      	movel %d7,%a2@(20)
    550a:	2c0c           	movel %a4,%d6
    550c:	9e82           	subl %d2,%d7
    550e:	2547 0008      	movel %d7,%a2@(8)
    5512:	240c           	movel %a4,%d2
    5514:	2f02           	movel %d2,%sp@-
    5516:	2f03           	movel %d3,%sp@-
    5518:	2f08           	movel %a0,%sp@-
    551a:	2044           	moveal %d4,%a0
    551c:	4e90           	jsr %a0@
    551e:	9daa 0008      	subl %d6,%a2@(8)
    5522:	d592           	addl %d2,%a2@
    5524:	4fef 000c      	lea %sp@(12),%sp
    5528:	240c           	movel %a4,%d2
    552a:	99cc           	subal %a4,%a4
    552c:	d682           	addl %d2,%d3
    552e:	202d 0008      	movel %a5@(8),%d0
    5532:	9082           	subl %d2,%d0
    5534:	2b40 0008      	movel %d0,%a5@(8)
    5538:	6700 fe96      	beqw 53d0 <__sfvwrite_r+0x110>
    553c:	302a 000c      	movew %a2@(12),%d0
    5540:	2212           	movel %a2@,%d1
    5542:	242a 0008      	movel %a2@(8),%d2
    5546:	2041           	moveal %d1,%a0
    5548:	2c02           	movel %d2,%d6
    554a:	b8fc 0000      	cmpaw #0,%a4
    554e:	6600 ff32      	bnew 5482 <__sfvwrite_r+0x1c2>
    5552:	2613           	movel %a3@,%d3
    5554:	286b 0004      	moveal %a3@(4),%a4
    5558:	508b           	addql #8,%a3
    555a:	6000 ff1a      	braw 5476 <__sfvwrite_r+0x1b6>
    555e:	b2aa 0010      	cmpl %a2@(16),%d1
    5562:	6242           	bhis 55a6 <__sfvwrite_r+0x2e6>
    5564:	202a 0014      	movel %a2@(20),%d0
    5568:	b9c0           	cmpal %d0,%a4
    556a:	653a           	bcss 55a6 <__sfvwrite_r+0x2e6>
    556c:	240c           	movel %a4,%d2
    556e:	b9fc 7fff ffff 	cmpal #2147483647,%a4
    5574:	6306           	blss 557c <__sfvwrite_r+0x2bc>
    5576:	243c 7fff ffff 	movel #2147483647,%d2
    557c:	2f00           	movel %d0,%sp@-
    557e:	2f02           	movel %d2,%sp@-
    5580:	2045           	moveal %d5,%a0
    5582:	4e90           	jsr %a0@
    5584:	508f           	addql #8,%sp
    5586:	9480           	subl %d0,%d2
    5588:	2f02           	movel %d2,%sp@-
    558a:	2f03           	movel %d3,%sp@-
    558c:	2f2a 001c      	movel %a2@(28),%sp@-
    5590:	2f0e           	movel %fp,%sp@-
    5592:	206a 0024      	moveal %a2@(36),%a0
    5596:	4e90           	jsr %a0@
    5598:	2400           	movel %d0,%d2
    559a:	4fef 0010      	lea %sp@(16),%sp
    559e:	6f00 fe5c      	blew 53fc <__sfvwrite_r+0x13c>
    55a2:	99c2           	subal %d2,%a4
    55a4:	6086           	bras 552c <__sfvwrite_r+0x26c>
    55a6:	b9c2           	cmpal %d2,%a4
    55a8:	6402           	bccs 55ac <__sfvwrite_r+0x2ec>
    55aa:	240c           	movel %a4,%d2
    55ac:	2f02           	movel %d2,%sp@-
    55ae:	2f03           	movel %d3,%sp@-
    55b0:	2f01           	movel %d1,%sp@-
    55b2:	2044           	moveal %d4,%a0
    55b4:	4e90           	jsr %a0@
    55b6:	202a 0008      	movel %a2@(8),%d0
    55ba:	9082           	subl %d2,%d0
    55bc:	2540 0008      	movel %d0,%a2@(8)
    55c0:	d592           	addl %d2,%a2@
    55c2:	4fef 000c      	lea %sp@(12),%sp
    55c6:	4a80           	tstl %d0
    55c8:	66d8           	bnes 55a2 <__sfvwrite_r+0x2e2>
    55ca:	2f0a           	movel %a2,%sp@-
    55cc:	2f0e           	movel %fp,%sp@-
    55ce:	4eb9 0000 50f2 	jsr 50f2 <_fflush_r>
    55d4:	508f           	addql #8,%sp
    55d6:	4a80           	tstl %d0
    55d8:	6600 fe22      	bnew 53fc <__sfvwrite_r+0x13c>
    55dc:	99c2           	subal %d2,%a4
    55de:	6000 ff4c      	braw 552c <__sfvwrite_r+0x26c>
    55e2:	2c0c           	movel %a4,%d6
    55e4:	240c           	movel %a4,%d2
    55e6:	2f02           	movel %d2,%sp@-
    55e8:	2f03           	movel %d3,%sp@-
    55ea:	2f08           	movel %a0,%sp@-
    55ec:	2044           	moveal %d4,%a0
    55ee:	4e90           	jsr %a0@
    55f0:	9daa 0008      	subl %d6,%a2@(8)
    55f4:	d592           	addl %d2,%a2@
    55f6:	4fef 000c      	lea %sp@(12),%sp
    55fa:	240c           	movel %a4,%d2
    55fc:	99cc           	subal %a4,%a4
    55fe:	6000 ff2c      	braw 552c <__sfvwrite_r+0x26c>
    5602:	2f06           	movel %d6,%sp@-
    5604:	2f04           	movel %d4,%sp@-
    5606:	2f01           	movel %d1,%sp@-
    5608:	2045           	moveal %d5,%a0
    560a:	4e90           	jsr %a0@
    560c:	9daa 0008      	subl %d6,%a2@(8)
    5610:	dd92           	addl %d6,%a2@
    5612:	4fef 000c      	lea %sp@(12),%sp
    5616:	2406           	movel %d6,%d2
    5618:	6000 fda0      	braw 53ba <__sfvwrite_r+0xfa>
    561c:	2f01           	movel %d1,%sp@-
    561e:	2f08           	movel %a0,%sp@-
    5620:	2f0e           	movel %fp,%sp@-
    5622:	4eb9 0000 8ae4 	jsr 8ae4 <_realloc_r>
    5628:	2c00           	movel %d0,%d6
    562a:	4fef 000c      	lea %sp@(12),%sp
    562e:	6600 fecc      	bnew 54fc <__sfvwrite_r+0x23c>
    5632:	2f2a 0010      	movel %a2@(16),%sp@-
    5636:	2f0e           	movel %fp,%sp@-
    5638:	4eb9 0000 7766 	jsr 7766 <_free_r>
    563e:	302a 000c      	movew %a2@(12),%d0
    5642:	0240 ff7f      	andiw #-129,%d0
    5646:	720c           	moveq #12,%d1
    5648:	2c81           	movel %d1,%fp@
    564a:	508f           	addql #8,%sp
    564c:	0040 0040      	oriw #64,%d0
    5650:	3540 000c      	movew %d0,%a2@(12)
    5654:	6000 fdb2      	braw 5408 <__sfvwrite_r+0x148>
    5658:	2007           	movel %d7,%d0
    565a:	5280           	addql #1,%d0
    565c:	2600           	movel %d0,%d3
    565e:	6000 fd1c      	braw 537c <__sfvwrite_r+0xbc>
    5662:	700c           	moveq #12,%d0
    5664:	2c80           	movel %d0,%fp@
    5666:	302a 000c      	movew %a2@(12),%d0
    566a:	0040 0040      	oriw #64,%d0
    566e:	3540 000c      	movew %d0,%a2@(12)
    5672:	6000 fd94      	braw 5408 <__sfvwrite_r+0x148>
	...

00005678 <__swsetup_r>:
    5678:	2f0a           	movel %a2,%sp@-
    567a:	2f02           	movel %d2,%sp@-
    567c:	246f 0010      	moveal %sp@(16),%a2
    5680:	2079 0001 2c70 	moveal 12c70 <_impure_ptr>,%a0
    5686:	b0fc 0000      	cmpaw #0,%a0
    568a:	6708           	beqs 5694 <__swsetup_r+0x1c>
    568c:	4aa8 0032      	tstl %a0@(50)
    5690:	6700 00ea      	beqw 577c <__swsetup_r+0x104>
    5694:	322a 000c      	movew %a2@(12),%d1
    5698:	0801 0003      	btst #3,%d1
    569c:	6778           	beqs 5716 <__swsetup_r+0x9e>
    569e:	202a 0010      	movel %a2@(16),%d0
    56a2:	6748           	beqs 56ec <__swsetup_r+0x74>
    56a4:	0801 0000      	btst #0,%d1
    56a8:	661c           	bnes 56c6 <__swsetup_r+0x4e>
    56aa:	0801 0001      	btst #1,%d1
    56ae:	6600 0086      	bnew 5736 <__swsetup_r+0xbe>
    56b2:	206a 0014      	moveal %a2@(20),%a0
    56b6:	2548 0008      	movel %a0,%a2@(8)
    56ba:	4a80           	tstl %d0
    56bc:	671a           	beqs 56d8 <__swsetup_r+0x60>
    56be:	7000           	moveq #0,%d0
    56c0:	241f           	movel %sp@+,%d2
    56c2:	245f           	moveal %sp@+,%a2
    56c4:	4e75           	rts
    56c6:	42aa 0008      	clrl %a2@(8)
    56ca:	242a 0014      	movel %a2@(20),%d2
    56ce:	4482           	negl %d2
    56d0:	2542 0018      	movel %d2,%a2@(24)
    56d4:	4a80           	tstl %d0
    56d6:	66e6           	bnes 56be <__swsetup_r+0x46>
    56d8:	4a01           	tstb %d1
    56da:	6ae4           	bpls 56c0 <__swsetup_r+0x48>
    56dc:	0041 0040      	oriw #64,%d1
    56e0:	3541 000c      	movew %d1,%a2@(12)
    56e4:	70ff           	moveq #-1,%d0
    56e6:	241f           	movel %sp@+,%d2
    56e8:	245f           	moveal %sp@+,%a2
    56ea:	4e75           	rts
    56ec:	3401           	movew %d1,%d2
    56ee:	0242 0280      	andiw #640,%d2
    56f2:	0c42 0200      	cmpiw #512,%d2
    56f6:	67ac           	beqs 56a4 <__swsetup_r+0x2c>
    56f8:	2f0a           	movel %a2,%sp@-
    56fa:	2f2f 0010      	movel %sp@(16),%sp@-
    56fe:	4eb9 0000 8910 	jsr 8910 <__smakebuf_r>
    5704:	322a 000c      	movew %a2@(12),%d1
    5708:	202a 0010      	movel %a2@(16),%d0
    570c:	508f           	addql #8,%sp
    570e:	0801 0000      	btst #0,%d1
    5712:	6796           	beqs 56aa <__swsetup_r+0x32>
    5714:	60b0           	bras 56c6 <__swsetup_r+0x4e>
    5716:	0801 0004      	btst #4,%d1
    571a:	676e           	beqs 578a <__swsetup_r+0x112>
    571c:	0801 0002      	btst #2,%d1
    5720:	661e           	bnes 5740 <__swsetup_r+0xc8>
    5722:	202a 0010      	movel %a2@(16),%d0
    5726:	0041 0008      	oriw #8,%d1
    572a:	3541 000c      	movew %d1,%a2@(12)
    572e:	4a80           	tstl %d0
    5730:	6600 ff72      	bnew 56a4 <__swsetup_r+0x2c>
    5734:	60b6           	bras 56ec <__swsetup_r+0x74>
    5736:	91c8           	subal %a0,%a0
    5738:	2548 0008      	movel %a0,%a2@(8)
    573c:	6000 ff7c      	braw 56ba <__swsetup_r+0x42>
    5740:	202a 0030      	movel %a2@(48),%d0
    5744:	671e           	beqs 5764 <__swsetup_r+0xec>
    5746:	41ea 0040      	lea %a2@(64),%a0
    574a:	b1c0           	cmpal %d0,%a0
    574c:	6712           	beqs 5760 <__swsetup_r+0xe8>
    574e:	2f00           	movel %d0,%sp@-
    5750:	2f2f 0010      	movel %sp@(16),%sp@-
    5754:	4eb9 0000 7766 	jsr 7766 <_free_r>
    575a:	322a 000c      	movew %a2@(12),%d1
    575e:	508f           	addql #8,%sp
    5760:	42aa 0030      	clrl %a2@(48)
    5764:	0241 ffdb      	andiw #-37,%d1
    5768:	42aa 0004      	clrl %a2@(4)
    576c:	202a 0010      	movel %a2@(16),%d0
    5770:	2480           	movel %d0,%a2@
    5772:	0041 0008      	oriw #8,%d1
    5776:	3541 000c      	movew %d1,%a2@(12)
    577a:	60b2           	bras 572e <__swsetup_r+0xb6>
    577c:	2f08           	movel %a0,%sp@-
    577e:	4eb9 0000 2588 	jsr 2588 <__sinit>
    5784:	588f           	addql #4,%sp
    5786:	6000 ff0c      	braw 5694 <__swsetup_r+0x1c>
    578a:	7009           	moveq #9,%d0
    578c:	206f 000c      	moveal %sp@(12),%a0
    5790:	2080           	movel %d0,%a0@
    5792:	0041 0040      	oriw #64,%d1
    5796:	3541 000c      	movew %d1,%a2@(12)
    579a:	70ff           	moveq #-1,%d0
    579c:	6000 ff48      	braw 56e6 <__swsetup_r+0x6e>

000057a0 <memchr>:
    57a0:	48e7 3820      	moveml %d2-%d4/%a2,%sp@-
    57a4:	202f 0014      	movel %sp@(20),%d0
    57a8:	142f 001b      	moveb %sp@(27),%d2
    57ac:	2200           	movel %d0,%d1
    57ae:	7603           	moveq #3,%d3
    57b0:	c680           	andl %d0,%d3
    57b2:	206f 001c      	moveal %sp@(28),%a0
    57b6:	672a           	beqs 57e2 <memchr+0x42>
    57b8:	5388           	subql #1,%a0
    57ba:	4aaf 001c      	tstl %sp@(28)
    57be:	6716           	beqs 57d6 <memchr+0x36>
    57c0:	2241           	moveal %d1,%a1
    57c2:	5281           	addql #1,%d1
    57c4:	b411           	cmpb %a1@,%d2
    57c6:	6710           	beqs 57d8 <memchr+0x38>
    57c8:	7003           	moveq #3,%d0
    57ca:	c081           	andl %d1,%d0
    57cc:	6712           	beqs 57e0 <memchr+0x40>
    57ce:	5388           	subql #1,%a0
    57d0:	70ff           	moveq #-1,%d0
    57d2:	b088           	cmpl %a0,%d0
    57d4:	66ea           	bnes 57c0 <memchr+0x20>
    57d6:	93c9           	subal %a1,%a1
    57d8:	2009           	movel %a1,%d0
    57da:	4cdf 041c      	moveml %sp@+,%d2-%d4/%a2
    57de:	4e75           	rts
    57e0:	2001           	movel %d1,%d0
    57e2:	7203           	moveq #3,%d1
    57e4:	b288           	cmpl %a0,%d1
    57e6:	643c           	bccs 5824 <memchr+0x84>
    57e8:	7200           	moveq #0,%d1
    57ea:	4601           	notb %d1
    57ec:	c2af 0018      	andl %sp@(24),%d1
    57f0:	2801           	movel %d1,%d4
    57f2:	e18c           	lsll #8,%d4
    57f4:	d881           	addl %d1,%d4
    57f6:	2204           	movel %d4,%d1
    57f8:	4841           	swap %d1
    57fa:	4241           	clrw %d1
    57fc:	d881           	addl %d1,%d4
    57fe:	2240           	moveal %d0,%a1
    5800:	2009           	movel %a1,%d0
    5802:	2619           	movel %a1@+,%d3
    5804:	b983           	eorl %d4,%d3
    5806:	2203           	movel %d3,%d1
    5808:	0681 fefe feff 	addil #-16843009,%d1
    580e:	4683           	notl %d3
    5810:	c283           	andl %d3,%d1
    5812:	0281 8080 8080 	andil #-2139062144,%d1
    5818:	6610           	bnes 582a <memchr+0x8a>
    581a:	5988           	subql #4,%a0
    581c:	7003           	moveq #3,%d0
    581e:	b088           	cmpl %a0,%d0
    5820:	65de           	bcss 5800 <memchr+0x60>
    5822:	2009           	movel %a1,%d0
    5824:	b0fc 0000      	cmpaw #0,%a0
    5828:	67ac           	beqs 57d6 <memchr+0x36>
    582a:	2440           	moveal %d0,%a2
    582c:	d088           	addl %a0,%d0
    582e:	224a           	moveal %a2,%a1
    5830:	b41a           	cmpb %a2@+,%d2
    5832:	67a4           	beqs 57d8 <memchr+0x38>
    5834:	b08a           	cmpl %a2,%d0
    5836:	66f6           	bnes 582e <memchr+0x8e>
    5838:	93c9           	subal %a1,%a1
    583a:	609c           	bras 57d8 <memchr+0x38>

0000583c <memmove>:
    583c:	48e7 3038      	moveml %d2-%d3/%a2-%a4,%sp@-
    5840:	202f 0018      	movel %sp@(24),%d0
    5844:	206f 001c      	moveal %sp@(28),%a0
    5848:	222f 0020      	movel %sp@(32),%d1
    584c:	b1c0           	cmpal %d0,%a0
    584e:	6420           	bccs 5870 <memmove+0x34>
    5850:	43f0 1800      	lea %a0@(0,%d1:l),%a1
    5854:	b089           	cmpl %a1,%d0
    5856:	6418           	bccs 5870 <memmove+0x34>
    5858:	4a81           	tstl %d1
    585a:	670e           	beqs 586a <memmove+0x2e>
    585c:	2640           	moveal %d0,%a3
    585e:	45f3 18ff      	lea %a3@(ffffffffffffffff,%d1:l),%a2
    5862:	14a1           	moveb %a1@-,%a2@
    5864:	538a           	subql #1,%a2
    5866:	b3c8           	cmpal %a0,%a1
    5868:	66f8           	bnes 5862 <memmove+0x26>
    586a:	4cdf 1c0c      	moveml %sp@+,%d2-%d3/%a2-%a4
    586e:	4e75           	rts
    5870:	740f           	moveq #15,%d2
    5872:	b481           	cmpl %d1,%d2
    5874:	6400 0096      	bccw 590c <memmove+0xd0>
    5878:	2408           	movel %a0,%d2
    587a:	8480           	orl %d0,%d2
    587c:	7603           	moveq #3,%d3
    587e:	c483           	andl %d3,%d2
    5880:	6600 0098      	bnew 591a <memmove+0xde>
    5884:	387c fff0      	moveaw #-16,%a4
    5888:	d9c1           	addal %d1,%a4
    588a:	240c           	movel %a4,%d2
    588c:	76f0           	moveq #-16,%d3
    588e:	c483           	andl %d3,%d2
    5890:	2842           	moveal %d2,%a4
    5892:	49ec 0010      	lea %a4@(16),%a4
    5896:	43f4 0800      	lea %a4@(0,%d0:l),%a1
    589a:	2648           	moveal %a0,%a3
    589c:	2440           	moveal %d0,%a2
    589e:	2493           	movel %a3@,%a2@
    58a0:	256b 0004 0004 	movel %a3@(4),%a2@(4)
    58a6:	256b 0008 0008 	movel %a3@(8),%a2@(8)
    58ac:	47eb 0010      	lea %a3@(16),%a3
    58b0:	45ea 0010      	lea %a2@(16),%a2
    58b4:	256b fffc fffc 	movel %a3@(-4),%a2@(-4)
    58ba:	b3ca           	cmpal %a2,%a1
    58bc:	66e0           	bnes 589e <memmove+0x62>
    58be:	d1cc           	addal %a4,%a0
    58c0:	740f           	moveq #15,%d2
    58c2:	c481           	andl %d1,%d2
    58c4:	760c           	moveq #12,%d3
    58c6:	c681           	andl %d1,%d3
    58c8:	675c           	beqs 5926 <memmove+0xea>
    58ca:	2649           	moveal %a1,%a3
    58cc:	2448           	moveal %a0,%a2
    58ce:	26da           	movel %a2@+,%a3@+
    58d0:	2842           	moveal %d2,%a4
    58d2:	99ca           	subal %a2,%a4
    58d4:	49f0 c800      	lea %a0@(0,%a4:l),%a4
    58d8:	7603           	moveq #3,%d3
    58da:	b68c           	cmpl %a4,%d3
    58dc:	65f0           	bcss 58ce <memmove+0x92>
    58de:	c283           	andl %d3,%d1
    58e0:	5982           	subql #4,%d2
    58e2:	76fc           	moveq #-4,%d3
    58e4:	c483           	andl %d3,%d2
    58e6:	5882           	addql #4,%d2
    58e8:	d3c2           	addal %d2,%a1
    58ea:	d1c2           	addal %d2,%a0
    58ec:	2401           	movel %d1,%d2
    58ee:	5382           	subql #1,%d2
    58f0:	4a81           	tstl %d1
    58f2:	6700 ff76      	beqw 586a <memmove+0x2e>
    58f6:	45f0 2801      	lea %a0@(1,%d2:l),%a2
    58fa:	12d8           	moveb %a0@+,%a1@+
    58fc:	b5c8           	cmpal %a0,%a2
    58fe:	6700 ff6a      	beqw 586a <memmove+0x2e>
    5902:	12d8           	moveb %a0@+,%a1@+
    5904:	b5c8           	cmpal %a0,%a2
    5906:	66f2           	bnes 58fa <memmove+0xbe>
    5908:	6000 ff60      	braw 586a <memmove+0x2e>
    590c:	2240           	moveal %d0,%a1
    590e:	2401           	movel %d1,%d2
    5910:	5382           	subql #1,%d2
    5912:	4a81           	tstl %d1
    5914:	66e0           	bnes 58f6 <memmove+0xba>
    5916:	6000 ff52      	braw 586a <memmove+0x2e>
    591a:	2401           	movel %d1,%d2
    591c:	5382           	subql #1,%d2
    591e:	2240           	moveal %d0,%a1
    5920:	45f0 2801      	lea %a0@(1,%d2:l),%a2
    5924:	60d4           	bras 58fa <memmove+0xbe>
    5926:	2202           	movel %d2,%d1
    5928:	2401           	movel %d1,%d2
    592a:	5382           	subql #1,%d2
    592c:	4a81           	tstl %d1
    592e:	66c6           	bnes 58f6 <memmove+0xba>
    5930:	6000 ff38      	braw 586a <memmove+0x2e>

00005934 <__localeconv_l>:
    5934:	202f 0004      	movel %sp@(4),%d0
    5938:	0680 0000 00f0 	addil #240,%d0
    593e:	4e75           	rts

00005940 <_localeconv_r>:
    5940:	203c 0001 328c 	movel #78476,%d0
    5946:	4e75           	rts

00005948 <localeconv>:
    5948:	203c 0001 328c 	movel #78476,%d0
    594e:	4e75           	rts

00005950 <_close_r>:
    5950:	42b9 0001 3650 	clrl 13650 <errno>
    5956:	2f2f 0008      	movel %sp@(8),%sp@-
    595a:	4eb9 0000 a73c 	jsr a73c <_close>
    5960:	588f           	addql #4,%sp
    5962:	72ff           	moveq #-1,%d1
    5964:	b280           	cmpl %d0,%d1
    5966:	6702           	beqs 596a <_close_r+0x1a>
    5968:	4e75           	rts
    596a:	2239 0001 3650 	movel 13650 <errno>,%d1
    5970:	67f6           	beqs 5968 <_close_r+0x18>
    5972:	206f 0004      	moveal %sp@(4),%a0
    5976:	2081           	movel %d1,%a0@
    5978:	4e75           	rts
	...

0000597c <_reclaim_reent>:
    597c:	48e7 2038      	moveml %d2/%a2-%a4,%sp@-
    5980:	266f 0014      	moveal %sp@(20),%a3
    5984:	b7f9 0001 2c70 	cmpal 12c70 <_impure_ptr>,%a3
    598a:	6700 00a0      	beqw 5a2c <_reclaim_reent+0xb0>
    598e:	206b 0042      	moveal %a3@(66),%a0
    5992:	b0fc 0000      	cmpaw #0,%a0
    5996:	673a           	beqs 59d2 <_reclaim_reent+0x56>
    5998:	7400           	moveq #0,%d2
    599a:	49f9 0000 7766 	lea 7766 <_free_r>,%a4
    59a0:	2470 2800      	moveal %a0@(0,%d2:l),%a2
    59a4:	b4fc 0000      	cmpaw #0,%a2
    59a8:	6716           	beqs 59c0 <_reclaim_reent+0x44>
    59aa:	200a           	movel %a2,%d0
    59ac:	2452           	moveal %a2@,%a2
    59ae:	2f00           	movel %d0,%sp@-
    59b0:	2f0b           	movel %a3,%sp@-
    59b2:	4e94           	jsr %a4@
    59b4:	508f           	addql #8,%sp
    59b6:	b4fc 0000      	cmpaw #0,%a2
    59ba:	66ee           	bnes 59aa <_reclaim_reent+0x2e>
    59bc:	206b 0042      	moveal %a3@(66),%a0
    59c0:	5882           	addql #4,%d2
    59c2:	0c82 0000 0080 	cmpil #128,%d2
    59c8:	66d6           	bnes 59a0 <_reclaim_reent+0x24>
    59ca:	2f08           	movel %a0,%sp@-
    59cc:	2f0b           	movel %a3,%sp@-
    59ce:	4e94           	jsr %a4@
    59d0:	508f           	addql #8,%sp
    59d2:	202b 0036      	movel %a3@(54),%d0
    59d6:	670c           	beqs 59e4 <_reclaim_reent+0x68>
    59d8:	2f00           	movel %d0,%sp@-
    59da:	2f0b           	movel %a3,%sp@-
    59dc:	4eb9 0000 7766 	jsr 7766 <_free_r>
    59e2:	508f           	addql #8,%sp
    59e4:	246b 003e      	moveal %a3@(62),%a2
    59e8:	49f9 0000 7766 	lea 7766 <_free_r>,%a4
    59ee:	b4fc 0000      	cmpaw #0,%a2
    59f2:	6712           	beqs 5a06 <_reclaim_reent+0x8a>
    59f4:	200a           	movel %a2,%d0
    59f6:	2452           	moveal %a2@,%a2
    59f8:	2f00           	movel %d0,%sp@-
    59fa:	2f0b           	movel %a3,%sp@-
    59fc:	4e94           	jsr %a4@
    59fe:	508f           	addql #8,%sp
    5a00:	b4fc 0000      	cmpaw #0,%a2
    5a04:	66ee           	bnes 59f4 <_reclaim_reent+0x78>
    5a06:	202b 004a      	movel %a3@(74),%d0
    5a0a:	670c           	beqs 5a18 <_reclaim_reent+0x9c>
    5a0c:	2f00           	movel %d0,%sp@-
    5a0e:	2f0b           	movel %a3,%sp@-
    5a10:	4eb9 0000 7766 	jsr 7766 <_free_r>
    5a16:	508f           	addql #8,%sp
    5a18:	226b 0032      	moveal %a3@(50),%a1
    5a1c:	b2fc 0000      	cmpaw #0,%a1
    5a20:	670a           	beqs 5a2c <_reclaim_reent+0xb0>
    5a22:	2f4b 0014      	movel %a3,%sp@(20)
    5a26:	4cdf 1c04      	moveml %sp@+,%d2/%a2-%a4
    5a2a:	4ed1           	jmp %a1@
    5a2c:	4cdf 1c04      	moveml %sp@+,%d2/%a2-%a4
    5a30:	4e75           	rts
	...

00005a34 <_lseek_r>:
    5a34:	42b9 0001 3650 	clrl 13650 <errno>
    5a3a:	2f2f 0010      	movel %sp@(16),%sp@-
    5a3e:	2f2f 0010      	movel %sp@(16),%sp@-
    5a42:	2f2f 0010      	movel %sp@(16),%sp@-
    5a46:	4eb9 0000 a896 	jsr a896 <_lseek>
    5a4c:	4fef 000c      	lea %sp@(12),%sp
    5a50:	72ff           	moveq #-1,%d1
    5a52:	b280           	cmpl %d0,%d1
    5a54:	6702           	beqs 5a58 <_lseek_r+0x24>
    5a56:	4e75           	rts
    5a58:	2239 0001 3650 	movel 13650 <errno>,%d1
    5a5e:	67f6           	beqs 5a56 <_lseek_r+0x22>
    5a60:	206f 0004      	moveal %sp@(4),%a0
    5a64:	2081           	movel %d1,%a0@
    5a66:	4e75           	rts

00005a68 <_read_r>:
    5a68:	42b9 0001 3650 	clrl 13650 <errno>
    5a6e:	2f2f 0010      	movel %sp@(16),%sp@-
    5a72:	2f2f 0010      	movel %sp@(16),%sp@-
    5a76:	2f2f 0010      	movel %sp@(16),%sp@-
    5a7a:	4eb9 0000 aa4e 	jsr aa4e <_read>
    5a80:	4fef 000c      	lea %sp@(12),%sp
    5a84:	72ff           	moveq #-1,%d1
    5a86:	b280           	cmpl %d0,%d1
    5a88:	6702           	beqs 5a8c <_read_r+0x24>
    5a8a:	4e75           	rts
    5a8c:	2239 0001 3650 	movel 13650 <errno>,%d1
    5a92:	67f6           	beqs 5a8a <_read_r+0x22>
    5a94:	206f 0004      	moveal %sp@(4),%a0
    5a98:	2081           	movel %d1,%a0@
    5a9a:	4e75           	rts

00005a9c <_sbrk_r>:
    5a9c:	42b9 0001 3650 	clrl 13650 <errno>
    5aa2:	2f2f 0008      	movel %sp@(8),%sp@-
    5aa6:	4eb9 0000 ab72 	jsr ab72 <_sbrk>
    5aac:	588f           	addql #4,%sp
    5aae:	72ff           	moveq #-1,%d1
    5ab0:	b280           	cmpl %d0,%d1
    5ab2:	6702           	beqs 5ab6 <_sbrk_r+0x1a>
    5ab4:	4e75           	rts
    5ab6:	2239 0001 3650 	movel 13650 <errno>,%d1
    5abc:	67f6           	beqs 5ab4 <_sbrk_r+0x18>
    5abe:	206f 0004      	moveal %sp@(4),%a0
    5ac2:	2081           	movel %d1,%a0@
    5ac4:	4e75           	rts
	...

00005ac8 <_write_r>:
    5ac8:	42b9 0001 3650 	clrl 13650 <errno>
    5ace:	2f2f 0010      	movel %sp@(16),%sp@-
    5ad2:	2f2f 0010      	movel %sp@(16),%sp@-
    5ad6:	2f2f 0010      	movel %sp@(16),%sp@-
    5ada:	4eb9 0000 add2 	jsr add2 <_write>
    5ae0:	4fef 000c      	lea %sp@(12),%sp
    5ae4:	72ff           	moveq #-1,%d1
    5ae6:	b280           	cmpl %d0,%d1
    5ae8:	6702           	beqs 5aec <_write_r+0x24>
    5aea:	4e75           	rts
    5aec:	2239 0001 3650 	movel 13650 <errno>,%d1
    5af2:	67f6           	beqs 5aea <_write_r+0x22>
    5af4:	206f 0004      	moveal %sp@(4),%a0
    5af8:	2081           	movel %d1,%a0@
    5afa:	4e75           	rts

00005afc <strlen>:
    5afc:	222f 0004      	movel %sp@(4),%d1
    5b00:	2041           	moveal %d1,%a0
    5b02:	70ff           	moveq #-1,%d0
    5b04:	4a18           	tstb %a0@+
    5b06:	66fc           	bnes 5b04 <strlen+0x8>
    5b08:	91c1           	subal %d1,%a0
    5b0a:	2008           	movel %a0,%d0
    5b0c:	5380           	subql #1,%d0
    5b0e:	4e75           	rts

00005b10 <memcpy>:
    5b10:	206f 0004      	moveal %sp@(4),%a0
    5b14:	226f 0008      	moveal %sp@(8),%a1
    5b18:	222f 000c      	movel %sp@(12),%d1
    5b1c:	0c81 0000 0008 	cmpil #8,%d1
    5b22:	6500 0050      	bcsw 5b74 <memcpy+0x64>
    5b26:	2008           	movel %a0,%d0
    5b28:	0280 0000 0003 	andil #3,%d0
    5b2e:	6600 0044      	bnew 5b74 <memcpy+0x64>
    5b32:	2009           	movel %a1,%d0
    5b34:	0280 0000 0003 	andil #3,%d0
    5b3a:	6600 0038      	bnew 5b74 <memcpy+0x64>
    5b3e:	2001           	movel %d1,%d0
    5b40:	0281 0000 0003 	andil #3,%d1
    5b46:	e688           	lsrl #3,%d0
    5b48:	6400 0004      	bccw 5b4e <memcpy+0x3e>
    5b4c:	20d9           	movel %a1@+,%a0@+
    5b4e:	e288           	lsrl #1,%d0
    5b50:	6400 000e      	bccw 5b60 <memcpy+0x50>
    5b54:	6000 0006      	braw 5b5c <memcpy+0x4c>
    5b58:	20d9           	movel %a1@+,%a0@+
    5b5a:	20d9           	movel %a1@+,%a0@+
    5b5c:	20d9           	movel %a1@+,%a0@+
    5b5e:	20d9           	movel %a1@+,%a0@+
    5b60:	51c8 fff6      	dbf %d0,5b58 <memcpy+0x48>
    5b64:	0480 0001 0000 	subil #65536,%d0
    5b6a:	6a00 ffec      	bplw 5b58 <memcpy+0x48>
    5b6e:	6000 0004      	braw 5b74 <memcpy+0x64>
    5b72:	10d9           	moveb %a1@+,%a0@+
    5b74:	51c9 fffc      	dbf %d1,5b72 <memcpy+0x62>
    5b78:	202f 0004      	movel %sp@(4),%d0
    5b7c:	4e75           	rts
	...

00005b80 <quorem>:
    5b80:	518f           	subql #8,%sp
    5b82:	48e7 3f3e      	moveml %d2-%d7/%a2-%fp,%sp@-
    5b86:	206f 003c      	moveal %sp@(60),%a0
    5b8a:	2828 0010      	movel %a0@(16),%d4
    5b8e:	206f 0038      	moveal %sp@(56),%a0
    5b92:	b8a8 0010      	cmpl %a0@(16),%d4
    5b96:	6e00 0180      	bgtw 5d18 <quorem+0x198>
    5b9a:	3c7c 0014      	moveaw #20,%fp
    5b9e:	ddef 003c      	addal %sp@(60),%fp
    5ba2:	5384           	subql #1,%d4
    5ba4:	2004           	movel %d4,%d0
    5ba6:	d084           	addl %d4,%d0
    5ba8:	d080           	addl %d0,%d0
    5baa:	45f6 0800      	lea %fp@(0,%d0:l),%a2
    5bae:	307c 0014      	moveaw #20,%a0
    5bb2:	d1ef 0038      	addal %sp@(56),%a0
    5bb6:	2f48 002c      	movel %a0,%sp@(44)
    5bba:	d088           	addl %a0,%d0
    5bbc:	2f40 0030      	movel %d0,%sp@(48)
    5bc0:	2040           	moveal %d0,%a0
    5bc2:	2610           	movel %a0@,%d3
    5bc4:	2412           	movel %a2@,%d2
    5bc6:	5282           	addql #1,%d2
    5bc8:	2f02           	movel %d2,%sp@-
    5bca:	2f03           	movel %d3,%sp@-
    5bcc:	4eb9 0000 ee74 	jsr ee74 <__udivsi3>
    5bd2:	508f           	addql #8,%sp
    5bd4:	2a00           	movel %d0,%d5
    5bd6:	b483           	cmpl %d3,%d2
    5bd8:	6200 00a6      	bhiw 5c80 <quorem+0x100>
    5bdc:	2a4e           	moveal %fp,%a5
    5bde:	266f 002c      	moveal %sp@(44),%a3
    5be2:	7e00           	moveq #0,%d7
    5be4:	7c00           	moveq #0,%d6
    5be6:	49f9 0000 ee50 	lea ee50 <__mulsi3>,%a4
    5bec:	261d           	movel %a5@+,%d3
    5bee:	2f05           	movel %d5,%sp@-
    5bf0:	3f03           	movew %d3,%sp@-
    5bf2:	4267           	clrw %sp@-
    5bf4:	4e94           	jsr %a4@
    5bf6:	508f           	addql #8,%sp
    5bf8:	2400           	movel %d0,%d2
    5bfa:	d487           	addl %d7,%d2
    5bfc:	4243           	clrw %d3
    5bfe:	4843           	swap %d3
    5c00:	2f05           	movel %d5,%sp@-
    5c02:	2f03           	movel %d3,%sp@-
    5c04:	4e94           	jsr %a4@
    5c06:	508f           	addql #8,%sp
    5c08:	2202           	movel %d2,%d1
    5c0a:	4241           	clrw %d1
    5c0c:	4841           	swap %d1
    5c0e:	d280           	addl %d0,%d1
    5c10:	2e01           	movel %d1,%d7
    5c12:	4247           	clrw %d7
    5c14:	4847           	swap %d7
    5c16:	2013           	movel %a3@,%d0
    5c18:	2600           	movel %d0,%d3
    5c1a:	0283 0000 ffff 	andil #65535,%d3
    5c20:	0282 0000 ffff 	andil #65535,%d2
    5c26:	2043           	moveal %d3,%a0
    5c28:	91c2           	subal %d2,%a0
    5c2a:	2408           	movel %a0,%d2
    5c2c:	d486           	addl %d6,%d2
    5c2e:	2602           	movel %d2,%d3
    5c30:	4843           	swap %d3
    5c32:	48c3           	extl %d3
    5c34:	0281 0000 ffff 	andil #65535,%d1
    5c3a:	2043           	moveal %d3,%a0
    5c3c:	91c1           	subal %d1,%a0
    5c3e:	4240           	clrw %d0
    5c40:	4840           	swap %d0
    5c42:	d088           	addl %a0,%d0
    5c44:	2c00           	movel %d0,%d6
    5c46:	4846           	swap %d6
    5c48:	48c6           	extl %d6
    5c4a:	4840           	swap %d0
    5c4c:	4240           	clrw %d0
    5c4e:	8042           	orw %d2,%d0
    5c50:	26c0           	movel %d0,%a3@+
    5c52:	bbca           	cmpal %a2,%a5
    5c54:	6396           	blss 5bec <quorem+0x6c>
    5c56:	206f 0030      	moveal %sp@(48),%a0
    5c5a:	4a90           	tstl %a0@
    5c5c:	6622           	bnes 5c80 <quorem+0x100>
    5c5e:	47e8 fffc      	lea %a0@(-4),%a3
    5c62:	b7ef 002c      	cmpal %sp@(44),%a3
    5c66:	6310           	blss 5c78 <quorem+0xf8>
    5c68:	202f 002c      	movel %sp@(44),%d0
    5c6c:	4a93           	tstl %a3@
    5c6e:	6608           	bnes 5c78 <quorem+0xf8>
    5c70:	5384           	subql #1,%d4
    5c72:	598b           	subql #4,%a3
    5c74:	b7c0           	cmpal %d0,%a3
    5c76:	62f4           	bhis 5c6c <quorem+0xec>
    5c78:	206f 0038      	moveal %sp@(56),%a0
    5c7c:	2144 0010      	movel %d4,%a0@(16)
    5c80:	2f2f 003c      	movel %sp@(60),%sp@-
    5c84:	2f2f 003c      	movel %sp@(60),%sp@-
    5c88:	4eb9 0000 82e4 	jsr 82e4 <__mcmp>
    5c8e:	508f           	addql #8,%sp
    5c90:	4a80           	tstl %d0
    5c92:	6d7a           	blts 5d0e <quorem+0x18e>
    5c94:	226f 002c      	moveal %sp@(44),%a1
    5c98:	7600           	moveq #0,%d3
    5c9a:	221e           	movel %fp@+,%d1
    5c9c:	2011           	movel %a1@,%d0
    5c9e:	2400           	movel %d0,%d2
    5ca0:	0282 0000 ffff 	andil #65535,%d2
    5ca6:	2c01           	movel %d1,%d6
    5ca8:	0286 0000 ffff 	andil #65535,%d6
    5cae:	2042           	moveal %d2,%a0
    5cb0:	91c6           	subal %d6,%a0
    5cb2:	2c08           	movel %a0,%d6
    5cb4:	dc83           	addl %d3,%d6
    5cb6:	2406           	movel %d6,%d2
    5cb8:	4842           	swap %d2
    5cba:	48c2           	extl %d2
    5cbc:	4241           	clrw %d1
    5cbe:	4841           	swap %d1
    5cc0:	2042           	moveal %d2,%a0
    5cc2:	91c1           	subal %d1,%a0
    5cc4:	4240           	clrw %d0
    5cc6:	4840           	swap %d0
    5cc8:	d088           	addl %a0,%d0
    5cca:	2600           	movel %d0,%d3
    5ccc:	4843           	swap %d3
    5cce:	48c3           	extl %d3
    5cd0:	4840           	swap %d0
    5cd2:	4240           	clrw %d0
    5cd4:	8046           	orw %d6,%d0
    5cd6:	22c0           	movel %d0,%a1@+
    5cd8:	bdca           	cmpal %a2,%fp
    5cda:	63be           	blss 5c9a <quorem+0x11a>
    5cdc:	2004           	movel %d4,%d0
    5cde:	d084           	addl %d4,%d0
    5ce0:	d080           	addl %d0,%d0
    5ce2:	206f 002c      	moveal %sp@(44),%a0
    5ce6:	d1c0           	addal %d0,%a0
    5ce8:	4a90           	tstl %a0@
    5cea:	6620           	bnes 5d0c <quorem+0x18c>
    5cec:	5988           	subql #4,%a0
    5cee:	b1ef 002c      	cmpal %sp@(44),%a0
    5cf2:	6310           	blss 5d04 <quorem+0x184>
    5cf4:	202f 002c      	movel %sp@(44),%d0
    5cf8:	4a90           	tstl %a0@
    5cfa:	6608           	bnes 5d04 <quorem+0x184>
    5cfc:	5384           	subql #1,%d4
    5cfe:	5988           	subql #4,%a0
    5d00:	b1c0           	cmpal %d0,%a0
    5d02:	62f4           	bhis 5cf8 <quorem+0x178>
    5d04:	206f 0038      	moveal %sp@(56),%a0
    5d08:	2144 0010      	movel %d4,%a0@(16)
    5d0c:	5285           	addql #1,%d5
    5d0e:	2005           	movel %d5,%d0
    5d10:	4cdf 7cfc      	moveml %sp@+,%d2-%d7/%a2-%fp
    5d14:	508f           	addql #8,%sp
    5d16:	4e75           	rts
    5d18:	7000           	moveq #0,%d0
    5d1a:	4cdf 7cfc      	moveml %sp@+,%d2-%d7/%a2-%fp
    5d1e:	508f           	addql #8,%sp
    5d20:	4e75           	rts

00005d22 <_dtoa_r>:
    5d22:	4e56 ff80      	linkw %fp,#-128
    5d26:	48e7 3f3c      	moveml %d2-%d7/%a2-%a5,%sp@-
    5d2a:	242e 000c      	movel %fp@(12),%d2
    5d2e:	2d6e 0010 ff9c 	movel %fp@(16),%fp@(-100)
    5d34:	246e 0020      	moveal %fp@(32),%a2
    5d38:	2d42 ff94      	movel %d2,%fp@(-108)
    5d3c:	2d6e ff9c ffa8 	movel %fp@(-100),%fp@(-88)
    5d42:	226e 0008      	moveal %fp@(8),%a1
    5d46:	2069 0036      	moveal %a1@(54),%a0
    5d4a:	b0fc 0000      	cmpaw #0,%a0
    5d4e:	6724           	beqs 5d74 <_dtoa_r+0x52>
    5d50:	2229 003a      	movel %a1@(58),%d1
    5d54:	2141 0004      	movel %d1,%a0@(4)
    5d58:	7001           	moveq #1,%d0
    5d5a:	e3a8           	lsll %d1,%d0
    5d5c:	2140 0008      	movel %d0,%a0@(8)
    5d60:	2f08           	movel %a0,%sp@-
    5d62:	2f09           	movel %a1,%sp@-
    5d64:	4eb9 0000 7b48 	jsr 7b48 <_Bfree>
    5d6a:	2a6e 0008      	moveal %fp@(8),%a5
    5d6e:	42ad 0036      	clrl %a5@(54)
    5d72:	508f           	addql #8,%sp
    5d74:	2802           	movel %d2,%d4
    5d76:	6b00 05b0      	bmiw 6328 <_dtoa_r+0x606>
    5d7a:	4292           	clrl %a2@
    5d7c:	2004           	movel %d4,%d0
    5d7e:	0280 7ff0 0000 	andil #2146435072,%d0
    5d84:	0c80 7ff0 0000 	cmpil #2146435072,%d0
    5d8a:	6700 05bc      	beqw 6348 <_dtoa_r+0x626>
    5d8e:	242e ff94      	movel %fp@(-108),%d2
    5d92:	262e ff9c      	movel %fp@(-100),%d3
    5d96:	2d42 ffac      	movel %d2,%fp@(-84)
    5d9a:	2d43 ffb0      	movel %d3,%fp@(-80)
    5d9e:	42a7           	clrl %sp@-
    5da0:	42a7           	clrl %sp@-
    5da2:	2f03           	movel %d3,%sp@-
    5da4:	2f02           	movel %d2,%sp@-
    5da6:	4eb9 0000 f99c 	jsr f99c <__eqdf2>
    5dac:	4fef 0010      	lea %sp@(16),%sp
    5db0:	4a80           	tstl %d0
    5db2:	662e           	bnes 5de2 <_dtoa_r+0xc0>
    5db4:	7001           	moveq #1,%d0
    5db6:	206e 001c      	moveal %fp@(28),%a0
    5dba:	2080           	movel %d0,%a0@
    5dbc:	4aae 0024      	tstl %fp@(36)
    5dc0:	670a           	beqs 5dcc <_dtoa_r+0xaa>
    5dc2:	226e 0024      	moveal %fp@(36),%a1
    5dc6:	22bc 0001 0905 	movel #67845,%a1@
    5dcc:	2d7c 0001 0904 	movel #67844,%fp@(-104)
    5dd2:	ff98 
    5dd4:	202e ff98      	movel %fp@(-104),%d0
    5dd8:	4cee 3cfc ff58 	moveml %fp@(-168),%d2-%d7/%a2-%a5
    5dde:	4e5e           	unlk %fp
    5de0:	4e75           	rts
    5de2:	486e fff8      	pea %fp@(-8)
    5de6:	486e fffc      	pea %fp@(-4)
    5dea:	2f03           	movel %d3,%sp@-
    5dec:	2f02           	movel %d2,%sp@-
    5dee:	2f2e 0008      	movel %fp@(8),%sp@-
    5df2:	4eb9 0000 8648 	jsr 8648 <__d2b>
    5df8:	2e00           	movel %d0,%d7
    5dfa:	2a04           	movel %d4,%d5
    5dfc:	4245           	clrw %d5
    5dfe:	4845           	swap %d5
    5e00:	e84d           	lsrw #4,%d5
    5e02:	4fef 0014      	lea %sp@(20),%sp
    5e06:	4a85           	tstl %d5
    5e08:	6600 0580      	bnew 638a <_dtoa_r+0x668>
    5e0c:	2c2e fff8      	movel %fp@(-8),%d6
    5e10:	2a06           	movel %d6,%d5
    5e12:	daae fffc      	addl %fp@(-4),%d5
    5e16:	2005           	movel %d5,%d0
    5e18:	0680 0000 0432 	addil #1074,%d0
    5e1e:	7220           	moveq #32,%d1
    5e20:	b280           	cmpl %d0,%d1
    5e22:	6c00 071e      	bgew 6542 <_dtoa_r+0x820>
    5e26:	7240           	moveq #64,%d1
    5e28:	9280           	subl %d0,%d1
    5e2a:	e3ac           	lsll %d1,%d4
    5e2c:	2205           	movel %d5,%d1
    5e2e:	0681 0000 0412 	addil #1042,%d1
    5e34:	202e ff9c      	movel %fp@(-100),%d0
    5e38:	e2a8           	lsrl %d1,%d0
    5e3a:	8880           	orl %d0,%d4
    5e3c:	2f04           	movel %d4,%sp@-
    5e3e:	4eb9 0000 fb8a 	jsr fb8a <__floatunsidf>
    5e44:	588f           	addql #4,%sp
    5e46:	2400           	movel %d0,%d2
    5e48:	2601           	movel %d1,%d3
    5e4a:	0682 fe10 0000 	addil #-32505856,%d2
    5e50:	5385           	subql #1,%d5
    5e52:	7001           	moveq #1,%d0
    5e54:	2d40 ffd8      	movel %d0,%fp@(-40)
    5e58:	49f9 0000 efba 	lea efba <__subdf3>,%a4
    5e5e:	42a7           	clrl %sp@-
    5e60:	2f3c 3ff8 0000 	movel #1073217536,%sp@-
    5e66:	2f03           	movel %d3,%sp@-
    5e68:	2f02           	movel %d2,%sp@-
    5e6a:	4e94           	jsr %a4@
    5e6c:	4fef 0010      	lea %sp@(16),%sp
    5e70:	47f9 0000 f356 	lea f356 <__muldf3>,%a3
    5e76:	2f3c 636f 4361 	movel #1668236129,%sp@-
    5e7c:	2f3c 3fd2 87a7 	movel #1070761895,%sp@-
    5e82:	2f01           	movel %d1,%sp@-
    5e84:	2f00           	movel %d0,%sp@-
    5e86:	4e93           	jsr %a3@
    5e88:	4fef 000c      	lea %sp@(12),%sp
    5e8c:	2ebc 8b60 c8b3 	movel #-1956591437,%sp@
    5e92:	2f3c 3fc6 8a28 	movel #1069976104,%sp@-
    5e98:	2f01           	movel %d1,%sp@-
    5e9a:	2f00           	movel %d0,%sp@-
    5e9c:	4eb9 0000 efc0 	jsr efc0 <__adddf3>
    5ea2:	4fef 0010      	lea %sp@(16),%sp
    5ea6:	2400           	movel %d0,%d2
    5ea8:	2601           	movel %d1,%d3
    5eaa:	2f05           	movel %d5,%sp@-
    5eac:	4eb9 0000 fc0c 	jsr fc0c <__floatsidf>
    5eb2:	2ebc 509f 79fb 	movel #1352628731,%sp@
    5eb8:	2f3c 3fd3 4413 	movel #1070810131,%sp@-
    5ebe:	2f01           	movel %d1,%sp@-
    5ec0:	2f00           	movel %d0,%sp@-
    5ec2:	4e93           	jsr %a3@
    5ec4:	4fef 000c      	lea %sp@(12),%sp
    5ec8:	2e81           	movel %d1,%sp@
    5eca:	2f00           	movel %d0,%sp@-
    5ecc:	2f03           	movel %d3,%sp@-
    5ece:	2f02           	movel %d2,%sp@-
    5ed0:	4eb9 0000 efc0 	jsr efc0 <__adddf3>
    5ed6:	4fef 0010      	lea %sp@(16),%sp
    5eda:	2400           	movel %d0,%d2
    5edc:	2601           	movel %d1,%d3
    5ede:	2f01           	movel %d1,%sp@-
    5ee0:	2f02           	movel %d2,%sp@-
    5ee2:	4eb9 0000 fe56 	jsr fe56 <__fixdfsi>
    5ee8:	508f           	addql #8,%sp
    5eea:	2800           	movel %d0,%d4
    5eec:	42a7           	clrl %sp@-
    5eee:	42a7           	clrl %sp@-
    5ef0:	2f03           	movel %d3,%sp@-
    5ef2:	2f02           	movel %d2,%sp@-
    5ef4:	4eb9 0000 fa08 	jsr fa08 <__ltdf2>
    5efa:	4fef 0010      	lea %sp@(16),%sp
    5efe:	4a80           	tstl %d0
    5f00:	6d00 055c      	bltw 645e <_dtoa_r+0x73c>
    5f04:	9c85           	subl %d5,%d6
    5f06:	2606           	movel %d6,%d3
    5f08:	5383           	subql #1,%d3
    5f0a:	2d43 ff90      	movel %d3,%fp@(-112)
    5f0e:	7016           	moveq #22,%d0
    5f10:	b084           	cmpl %d4,%d0
    5f12:	6500 057e      	bcsw 6492 <_dtoa_r+0x770>
    5f16:	41f9 0001 0a50 	lea 10a50 <__mprec_tens>,%a0
    5f1c:	2004           	movel %d4,%d0
    5f1e:	e788           	lsll #3,%d0
    5f20:	2f30 0804      	movel %a0@(4,%d0:l),%sp@-
    5f24:	2f30 0800      	movel %a0@(0,%d0:l),%sp@-
    5f28:	2f2e ffb0      	movel %fp@(-80),%sp@-
    5f2c:	2f2e ffac      	movel %fp@(-84),%sp@-
    5f30:	4eb9 0000 fa08 	jsr fa08 <__ltdf2>
    5f36:	4fef 0010      	lea %sp@(16),%sp
    5f3a:	4a80           	tstl %d0
    5f3c:	6c00 05e6      	bgew 6524 <_dtoa_r+0x802>
    5f40:	5384           	subql #1,%d4
    5f42:	42ae ffd0      	clrl %fp@(-48)
    5f46:	4aae ff90      	tstl %fp@(-112)
    5f4a:	6d00 0554      	bltw 64a0 <_dtoa_r+0x77e>
    5f4e:	42ae ffa4      	clrl %fp@(-92)
    5f52:	4a84           	tstl %d4
    5f54:	6c00 055c      	bgew 64b2 <_dtoa_r+0x790>
    5f58:	99ae ffa4      	subl %d4,%fp@(-92)
    5f5c:	2604           	movel %d4,%d3
    5f5e:	4483           	negl %d3
    5f60:	2d43 ffc0      	movel %d3,%fp@(-64)
    5f64:	2d44 ffb4      	movel %d4,%fp@(-76)
    5f68:	7800           	moveq #0,%d4
    5f6a:	7009           	moveq #9,%d0
    5f6c:	b0ae 0014      	cmpl %fp@(20),%d0
    5f70:	6500 0556      	bcsw 64c8 <_dtoa_r+0x7a6>
    5f74:	7205           	moveq #5,%d1
    5f76:	b2ae 0014      	cmpl %fp@(20),%d1
    5f7a:	6c00 058c      	bgew 6508 <_dtoa_r+0x7e6>
    5f7e:	59ae 0014      	subql #4,%fp@(20)
    5f82:	7603           	moveq #3,%d3
    5f84:	7400           	moveq #0,%d2
    5f86:	b6ae 0014      	cmpl %fp@(20),%d3
    5f8a:	6700 10e0      	beqw 706c <_dtoa_r+0x134a>
    5f8e:	6c00 0620      	bgew 65b0 <_dtoa_r+0x88e>
    5f92:	7604           	moveq #4,%d3
    5f94:	b6ae 0014      	cmpl %fp@(20),%d3
    5f98:	6700 05ea      	beqw 6584 <_dtoa_r+0x862>
    5f9c:	7605           	moveq #5,%d3
    5f9e:	2d43 0014      	movel %d3,%fp@(20)
    5fa2:	7601           	moveq #1,%d3
    5fa4:	2d43 ffb8      	movel %d3,%fp@(-72)
    5fa8:	202e 0018      	movel %fp@(24),%d0
    5fac:	d0ae ffb4      	addl %fp@(-76),%d0
    5fb0:	2d40 ffd4      	movel %d0,%fp@(-44)
    5fb4:	2a00           	movel %d0,%d5
    5fb6:	5285           	addql #1,%d5
    5fb8:	2605           	movel %d5,%d3
    5fba:	6f00 05e6      	blew 65a2 <_dtoa_r+0x880>
    5fbe:	7217           	moveq #23,%d1
    5fc0:	b283           	cmpl %d3,%d1
    5fc2:	6c00 05de      	bgew 65a2 <_dtoa_r+0x880>
    5fc6:	7001           	moveq #1,%d0
    5fc8:	307c 0004      	moveaw #4,%a0
    5fcc:	2d6e 0008 ff88 	movel %fp@(8),%fp@(-120)
    5fd2:	d1c8           	addal %a0,%a0
    5fd4:	2200           	movel %d0,%d1
    5fd6:	5280           	addql #1,%d0
    5fd8:	43e8 0014      	lea %a0@(20),%a1
    5fdc:	b3c3           	cmpal %d3,%a1
    5fde:	63f2           	blss 5fd2 <_dtoa_r+0x2b0>
    5fe0:	2d6e ff88 0008 	movel %fp@(-120),%fp@(8)
    5fe6:	226e 0008      	moveal %fp@(8),%a1
    5fea:	2341 003a      	movel %d1,%a1@(58)
    5fee:	2f01           	movel %d1,%sp@-
    5ff0:	2f2e 0008      	movel %fp@(8),%sp@-
    5ff4:	2d7c 0000 7ab8 	movel #31416,%fp@(-52)
    5ffa:	ffcc 
    5ffc:	45f9 0000 7ab8 	lea 7ab8 <_Balloc>,%a2
    6002:	4e92           	jsr %a2@
    6004:	2d40 ff98      	movel %d0,%fp@(-104)
    6008:	508f           	addql #8,%sp
    600a:	6700 1648      	beqw 7654 <_dtoa_r+0x1932>
    600e:	2a6e 0008      	moveal %fp@(8),%a5
    6012:	2b6e ff98 0036 	movel %fp@(-104),%a5@(54)
    6018:	700e           	moveq #14,%d0
    601a:	b085           	cmpl %d5,%d0
    601c:	6500 05ea      	bcsw 6608 <_dtoa_r+0x8e6>
    6020:	4a82           	tstl %d2
    6022:	6700 05e4      	beqw 6608 <_dtoa_r+0x8e6>
    6026:	4aae ffb4      	tstl %fp@(-76)
    602a:	6f00 117c      	blew 71a8 <_dtoa_r+0x1486>
    602e:	700f           	moveq #15,%d0
    6030:	c0ae ffb4      	andl %fp@(-76),%d0
    6034:	e788           	lsll #3,%d0
    6036:	41f9 0001 0a50 	lea 10a50 <__mprec_tens>,%a0
    603c:	2430 0800      	movel %a0@(0,%d0:l),%d2
    6040:	2630 0804      	movel %a0@(4,%d0:l),%d3
    6044:	2c2e ffb4      	movel %fp@(-76),%d6
    6048:	e886           	asrl #4,%d6
    604a:	082e 0000 ffb6 	btst #0,%fp@(-74)
    6050:	6700 12ea      	beqw 733c <_dtoa_r+0x161a>
    6054:	720f           	moveq #15,%d1
    6056:	cc81           	andl %d1,%d6
    6058:	2d7c 0000 f504 	movel #62724,%fp@(-60)
    605e:	ffc4 
    6060:	2f39 0001 0a4c 	movel 10a4c <__mprec_bigtens+0x24>,%sp@-
    6066:	2f39 0001 0a48 	movel 10a48 <__mprec_bigtens+0x20>,%sp@-
    606c:	2f2e ffb0      	movel %fp@(-80),%sp@-
    6070:	2f2e ffac      	movel %fp@(-84),%sp@-
    6074:	41f9 0000 f504 	lea f504 <__divdf3>,%a0
    607a:	4e90           	jsr %a0@
    607c:	4fef 0010      	lea %sp@(16),%sp
    6080:	2040           	moveal %d0,%a0
    6082:	2241           	moveal %d1,%a1
    6084:	2d48 ffdc      	movel %a0,%fp@(-36)
    6088:	2d49 ffe0      	movel %a1,%fp@(-32)
    608c:	347c 0003      	moveaw #3,%a2
    6090:	4a86           	tstl %d6
    6092:	6734           	beqs 60c8 <_dtoa_r+0x3a6>
    6094:	4bf9 0001 0a28 	lea 10a28 <__mprec_bigtens>,%a5
    609a:	2d6e 0008 ff88 	movel %fp@(8),%fp@(-120)
    60a0:	0806 0000      	btst #0,%d6
    60a4:	6716           	beqs 60bc <_dtoa_r+0x39a>
    60a6:	528a           	addql #1,%a2
    60a8:	2f2d 0004      	movel %a5@(4),%sp@-
    60ac:	2f15           	movel %a5@,%sp@-
    60ae:	2f03           	movel %d3,%sp@-
    60b0:	2f02           	movel %d2,%sp@-
    60b2:	4e93           	jsr %a3@
    60b4:	4fef 0010      	lea %sp@(16),%sp
    60b8:	2400           	movel %d0,%d2
    60ba:	2601           	movel %d1,%d3
    60bc:	e286           	asrl #1,%d6
    60be:	508d           	addql #8,%a5
    60c0:	66de           	bnes 60a0 <_dtoa_r+0x37e>
    60c2:	2d6e ff88 0008 	movel %fp@(-120),%fp@(8)
    60c8:	2f03           	movel %d3,%sp@-
    60ca:	2f02           	movel %d2,%sp@-
    60cc:	2f2e ffe0      	movel %fp@(-32),%sp@-
    60d0:	2f2e ffdc      	movel %fp@(-36),%sp@-
    60d4:	226e ffc4      	moveal %fp@(-60),%a1
    60d8:	4e91           	jsr %a1@
    60da:	4fef 0010      	lea %sp@(16),%sp
    60de:	2040           	moveal %d0,%a0
    60e0:	2241           	moveal %d1,%a1
    60e2:	2d48 ffc4      	movel %a0,%fp@(-60)
    60e6:	2d49 ffc8      	movel %a1,%fp@(-56)
    60ea:	4aae ffd0      	tstl %fp@(-48)
    60ee:	6720           	beqs 6110 <_dtoa_r+0x3ee>
    60f0:	42a7           	clrl %sp@-
    60f2:	2f3c 3ff0 0000 	movel #1072693248,%sp@-
    60f8:	2f2e ffc8      	movel %fp@(-56),%sp@-
    60fc:	2f2e ffc4      	movel %fp@(-60),%sp@-
    6100:	4eb9 0000 fa08 	jsr fa08 <__ltdf2>
    6106:	4fef 0010      	lea %sp@(16),%sp
    610a:	4a80           	tstl %d0
    610c:	6d00 05a8      	bltw 66b6 <_dtoa_r+0x994>
    6110:	2f0a           	movel %a2,%sp@-
    6112:	4eb9 0000 fc0c 	jsr fc0c <__floatsidf>
    6118:	2eae ffc8      	movel %fp@(-56),%sp@
    611c:	2f2e ffc4      	movel %fp@(-60),%sp@-
    6120:	2f01           	movel %d1,%sp@-
    6122:	2f00           	movel %d0,%sp@-
    6124:	4e93           	jsr %a3@
    6126:	4fef 000c      	lea %sp@(12),%sp
    612a:	4297           	clrl %sp@
    612c:	2f3c 401c 0000 	movel #1075576832,%sp@-
    6132:	2f01           	movel %d1,%sp@-
    6134:	2f00           	movel %d0,%sp@-
    6136:	4eb9 0000 efc0 	jsr efc0 <__adddf3>
    613c:	4fef 0010      	lea %sp@(16),%sp
    6140:	2401           	movel %d1,%d2
    6142:	2600           	movel %d0,%d3
    6144:	0683 fcc0 0000 	addil #-54525952,%d3
    614a:	4a85           	tstl %d5
    614c:	6700 0fac      	beqw 70fa <_dtoa_r+0x13d8>
    6150:	2d6e ffb4 fff4 	movel %fp@(-76),%fp@(-12)
    6156:	2d45 ffe8      	movel %d5,%fp@(-24)
    615a:	2d43 ffdc      	movel %d3,%fp@(-36)
    615e:	2d42 ffe0      	movel %d2,%fp@(-32)
    6162:	202e ffe8      	movel %fp@(-24),%d0
    6166:	e788           	lsll #3,%d0
    6168:	41f9 0001 0a50 	lea 10a50 <__mprec_tens>,%a0
    616e:	2d70 08f8 ffec 	movel %a0@(fffffffffffffff8,%d0:l),%fp@(-20)
    6174:	2d70 08fc fff0 	movel %a0@(fffffffffffffffc,%d0:l),%fp@(-16)
    617a:	2f2e ffc8      	movel %fp@(-56),%sp@-
    617e:	2f2e ffc4      	movel %fp@(-60),%sp@-
    6182:	4eb9 0000 fe56 	jsr fe56 <__fixdfsi>
    6188:	508f           	addql #8,%sp
    618a:	2a6e ff98      	moveal %fp@(-104),%a5
    618e:	528d           	addql #1,%a5
    6190:	2d4d ffe4      	movel %a5,%fp@(-28)
    6194:	1c00           	moveb %d0,%d6
    6196:	0606 0030      	addib #48,%d6
    619a:	2f00           	movel %d0,%sp@-
    619c:	4eb9 0000 fc0c 	jsr fc0c <__floatsidf>
    61a2:	2e81           	movel %d1,%sp@
    61a4:	2f00           	movel %d0,%sp@-
    61a6:	2f2e ffc8      	movel %fp@(-56),%sp@-
    61aa:	2f2e ffc4      	movel %fp@(-60),%sp@-
    61ae:	4e94           	jsr %a4@
    61b0:	4fef 0010      	lea %sp@(16),%sp
    61b4:	2400           	movel %d0,%d2
    61b6:	2601           	movel %d1,%d3
    61b8:	4aae ffb8      	tstl %fp@(-72)
    61bc:	6700 1202      	beqw 73c0 <_dtoa_r+0x169e>
    61c0:	2f2e fff0      	movel %fp@(-16),%sp@-
    61c4:	2f2e ffec      	movel %fp@(-20),%sp@-
    61c8:	42a7           	clrl %sp@-
    61ca:	2f3c 3fe0 0000 	movel #1071644672,%sp@-
    61d0:	4eb9 0000 f504 	jsr f504 <__divdf3>
    61d6:	4fef 000c      	lea %sp@(12),%sp
    61da:	2eae ffe0      	movel %fp@(-32),%sp@
    61de:	2f2e ffdc      	movel %fp@(-36),%sp@-
    61e2:	2f01           	movel %d1,%sp@-
    61e4:	2f00           	movel %d0,%sp@-
    61e6:	4e94           	jsr %a4@
    61e8:	4fef 0010      	lea %sp@(16),%sp
    61ec:	2040           	moveal %d0,%a0
    61ee:	246e ff98      	moveal %fp@(-104),%a2
    61f2:	1486           	moveb %d6,%a2@
    61f4:	2f03           	movel %d3,%sp@-
    61f6:	2f02           	movel %d2,%sp@-
    61f8:	2f01           	movel %d1,%sp@-
    61fa:	2f08           	movel %a0,%sp@-
    61fc:	2d48 ff80      	movel %a0,%fp@(-128)
    6200:	2d41 ff84      	movel %d1,%fp@(-124)
    6204:	4eb9 0000 f9e4 	jsr f9e4 <__gtdf2>
    620a:	4fef 0010      	lea %sp@(16),%sp
    620e:	206e ff80      	moveal %fp@(-128),%a0
    6212:	226e ff84      	moveal %fp@(-124),%a1
    6216:	4a80           	tstl %d0
    6218:	6e00 00ce      	bgtw 62e8 <_dtoa_r+0x5c6>
    621c:	7c00           	moveq #0,%d6
    621e:	2d44 ffdc      	movel %d4,%fp@(-36)
    6222:	2d47 ffc4      	movel %d7,%fp@(-60)
    6226:	2d45 ffe4      	movel %d5,%fp@(-28)
    622a:	2808           	movel %a0,%d4
    622c:	2a09           	movel %a1,%d5
    622e:	2e2e ffe8      	movel %fp@(-24),%d7
    6232:	2d6e 0008 ff88 	movel %fp@(8),%fp@(-120)
    6238:	2f03           	movel %d3,%sp@-
    623a:	2f02           	movel %d2,%sp@-
    623c:	42a7           	clrl %sp@-
    623e:	2f3c 3ff0 0000 	movel #1072693248,%sp@-
    6244:	4e94           	jsr %a4@
    6246:	4fef 000c      	lea %sp@(12),%sp
    624a:	2e85           	movel %d5,%sp@
    624c:	2f04           	movel %d4,%sp@-
    624e:	2f01           	movel %d1,%sp@-
    6250:	2f00           	movel %d0,%sp@-
    6252:	4eb9 0000 fa08 	jsr fa08 <__ltdf2>
    6258:	4fef 0010      	lea %sp@(16),%sp
    625c:	4a80           	tstl %d0
    625e:	6d00 132a      	bltw 758a <_dtoa_r+0x1868>
    6262:	5286           	addql #1,%d6
    6264:	be86           	cmpl %d6,%d7
    6266:	6f00 133c      	blew 75a4 <_dtoa_r+0x1882>
    626a:	42a7           	clrl %sp@-
    626c:	2f3c 4024 0000 	movel #1076101120,%sp@-
    6272:	2f05           	movel %d5,%sp@-
    6274:	2f04           	movel %d4,%sp@-
    6276:	4e93           	jsr %a3@
    6278:	4fef 0010      	lea %sp@(16),%sp
    627c:	2800           	movel %d0,%d4
    627e:	2a01           	movel %d1,%d5
    6280:	42a7           	clrl %sp@-
    6282:	2f3c 4024 0000 	movel #1076101120,%sp@-
    6288:	2f03           	movel %d3,%sp@-
    628a:	2f02           	movel %d2,%sp@-
    628c:	4e93           	jsr %a3@
    628e:	4fef 0010      	lea %sp@(16),%sp
    6292:	2400           	movel %d0,%d2
    6294:	2601           	movel %d1,%d3
    6296:	2f01           	movel %d1,%sp@-
    6298:	2f02           	movel %d2,%sp@-
    629a:	4eb9 0000 fe56 	jsr fe56 <__fixdfsi>
    62a0:	508f           	addql #8,%sp
    62a2:	2440           	moveal %d0,%a2
    62a4:	2f00           	movel %d0,%sp@-
    62a6:	4eb9 0000 fc0c 	jsr fc0c <__floatsidf>
    62ac:	2e81           	movel %d1,%sp@
    62ae:	2f00           	movel %d0,%sp@-
    62b0:	2f03           	movel %d3,%sp@-
    62b2:	2f02           	movel %d2,%sp@-
    62b4:	4e94           	jsr %a4@
    62b6:	4fef 0010      	lea %sp@(16),%sp
    62ba:	2400           	movel %d0,%d2
    62bc:	2601           	movel %d1,%d3
    62be:	300a           	movew %a2,%d0
    62c0:	0600 0030      	addib #48,%d0
    62c4:	1ac0           	moveb %d0,%a5@+
    62c6:	2f05           	movel %d5,%sp@-
    62c8:	2f04           	movel %d4,%sp@-
    62ca:	2f01           	movel %d1,%sp@-
    62cc:	2f02           	movel %d2,%sp@-
    62ce:	4eb9 0000 fa08 	jsr fa08 <__ltdf2>
    62d4:	4fef 0010      	lea %sp@(16),%sp
    62d8:	4a80           	tstl %d0
    62da:	6c00 ff5c      	bgew 6238 <_dtoa_r+0x516>
    62de:	2e2e ffc4      	movel %fp@(-60),%d7
    62e2:	2d6e ff88 0008 	movel %fp@(-120),%fp@(8)
    62e8:	262e fff4      	movel %fp@(-12),%d3
    62ec:	5283           	addql #1,%d3
    62ee:	2d7c 0000 7b48 	movel #31560,%fp@(-112)
    62f4:	ff90 
    62f6:	2f07           	movel %d7,%sp@-
    62f8:	2f2e 0008      	movel %fp@(8),%sp@-
    62fc:	246e ff90      	moveal %fp@(-112),%a2
    6300:	4e92           	jsr %a2@
    6302:	4215           	clrb %a5@
    6304:	206e 001c      	moveal %fp@(28),%a0
    6308:	2083           	movel %d3,%a0@
    630a:	508f           	addql #8,%sp
    630c:	4aae 0024      	tstl %fp@(36)
    6310:	6700 fac2      	beqw 5dd4 <_dtoa_r+0xb2>
    6314:	226e 0024      	moveal %fp@(36),%a1
    6318:	228d           	movel %a5,%a1@
    631a:	202e ff98      	movel %fp@(-104),%d0
    631e:	4cee 3cfc ff58 	moveml %fp@(-168),%d2-%d7/%a2-%a5
    6324:	4e5e           	unlk %fp
    6326:	4e75           	rts
    6328:	7001           	moveq #1,%d0
    632a:	2480           	movel %d0,%a2@
    632c:	0882 001f      	bclr #31,%d2
    6330:	2d42 ff94      	movel %d2,%fp@(-108)
    6334:	2802           	movel %d2,%d4
    6336:	2004           	movel %d4,%d0
    6338:	0280 7ff0 0000 	andil #2146435072,%d0
    633e:	0c80 7ff0 0000 	cmpil #2146435072,%d0
    6344:	6600 fa48      	bnew 5d8e <_dtoa_r+0x6c>
    6348:	206e 001c      	moveal %fp@(28),%a0
    634c:	20bc 0000 270f 	movel #9999,%a0@
    6352:	0284 000f ffff 	andil #1048575,%d4
    6358:	88ae ff9c      	orl %fp@(-100),%d4
    635c:	6600 018e      	bnew 64ec <_dtoa_r+0x7ca>
    6360:	4aae 0024      	tstl %fp@(36)
    6364:	6700 1306      	beqw 766c <_dtoa_r+0x194a>
    6368:	2d7c 0001 0906 	movel #67846,%fp@(-104)
    636e:	ff98 
    6370:	203c 0001 090e 	movel #67854,%d0
    6376:	226e 0024      	moveal %fp@(36),%a1
    637a:	2280           	movel %d0,%a1@
    637c:	202e ff98      	movel %fp@(-104),%d0
    6380:	4cee 3cfc ff58 	moveml %fp@(-168),%d2-%d7/%a2-%a5
    6386:	4e5e           	unlk %fp
    6388:	4e75           	rts
    638a:	242e ffac      	movel %fp@(-84),%d2
    638e:	262e ffb0      	movel %fp@(-80),%d3
    6392:	202e ffac      	movel %fp@(-84),%d0
    6396:	0280 000f ffff 	andil #1048575,%d0
    639c:	2400           	movel %d0,%d2
    639e:	0082 3ff0 0000 	oril #1072693248,%d2
    63a4:	0685 ffff fc01 	addil #-1023,%d5
    63aa:	2c2e fff8      	movel %fp@(-8),%d6
    63ae:	42ae ffd8      	clrl %fp@(-40)
    63b2:	49f9 0000 efba 	lea efba <__subdf3>,%a4
    63b8:	42a7           	clrl %sp@-
    63ba:	2f3c 3ff8 0000 	movel #1073217536,%sp@-
    63c0:	2f03           	movel %d3,%sp@-
    63c2:	2f02           	movel %d2,%sp@-
    63c4:	4e94           	jsr %a4@
    63c6:	4fef 0010      	lea %sp@(16),%sp
    63ca:	47f9 0000 f356 	lea f356 <__muldf3>,%a3
    63d0:	2f3c 636f 4361 	movel #1668236129,%sp@-
    63d6:	2f3c 3fd2 87a7 	movel #1070761895,%sp@-
    63dc:	2f01           	movel %d1,%sp@-
    63de:	2f00           	movel %d0,%sp@-
    63e0:	4e93           	jsr %a3@
    63e2:	4fef 000c      	lea %sp@(12),%sp
    63e6:	2ebc 8b60 c8b3 	movel #-1956591437,%sp@
    63ec:	2f3c 3fc6 8a28 	movel #1069976104,%sp@-
    63f2:	2f01           	movel %d1,%sp@-
    63f4:	2f00           	movel %d0,%sp@-
    63f6:	4eb9 0000 efc0 	jsr efc0 <__adddf3>
    63fc:	4fef 0010      	lea %sp@(16),%sp
    6400:	2400           	movel %d0,%d2
    6402:	2601           	movel %d1,%d3
    6404:	2f05           	movel %d5,%sp@-
    6406:	4eb9 0000 fc0c 	jsr fc0c <__floatsidf>
    640c:	2ebc 509f 79fb 	movel #1352628731,%sp@
    6412:	2f3c 3fd3 4413 	movel #1070810131,%sp@-
    6418:	2f01           	movel %d1,%sp@-
    641a:	2f00           	movel %d0,%sp@-
    641c:	4e93           	jsr %a3@
    641e:	4fef 000c      	lea %sp@(12),%sp
    6422:	2e81           	movel %d1,%sp@
    6424:	2f00           	movel %d0,%sp@-
    6426:	2f03           	movel %d3,%sp@-
    6428:	2f02           	movel %d2,%sp@-
    642a:	4eb9 0000 efc0 	jsr efc0 <__adddf3>
    6430:	4fef 0010      	lea %sp@(16),%sp
    6434:	2400           	movel %d0,%d2
    6436:	2601           	movel %d1,%d3
    6438:	2f01           	movel %d1,%sp@-
    643a:	2f02           	movel %d2,%sp@-
    643c:	4eb9 0000 fe56 	jsr fe56 <__fixdfsi>
    6442:	508f           	addql #8,%sp
    6444:	2800           	movel %d0,%d4
    6446:	42a7           	clrl %sp@-
    6448:	42a7           	clrl %sp@-
    644a:	2f03           	movel %d3,%sp@-
    644c:	2f02           	movel %d2,%sp@-
    644e:	4eb9 0000 fa08 	jsr fa08 <__ltdf2>
    6454:	4fef 0010      	lea %sp@(16),%sp
    6458:	4a80           	tstl %d0
    645a:	6c00 faa8      	bgew 5f04 <_dtoa_r+0x1e2>
    645e:	2f04           	movel %d4,%sp@-
    6460:	4eb9 0000 fc0c 	jsr fc0c <__floatsidf>
    6466:	2e83           	movel %d3,%sp@
    6468:	2f02           	movel %d2,%sp@-
    646a:	2f01           	movel %d1,%sp@-
    646c:	2f00           	movel %d0,%sp@-
    646e:	4eb9 0000 f9c0 	jsr f9c0 <__nedf2>
    6474:	4fef 0010      	lea %sp@(16),%sp
    6478:	4a80           	tstl %d0
    647a:	6700 fa88      	beqw 5f04 <_dtoa_r+0x1e2>
    647e:	5384           	subql #1,%d4
    6480:	9c85           	subl %d5,%d6
    6482:	2606           	movel %d6,%d3
    6484:	5383           	subql #1,%d3
    6486:	2d43 ff90      	movel %d3,%fp@(-112)
    648a:	7016           	moveq #22,%d0
    648c:	b084           	cmpl %d4,%d0
    648e:	6400 fa86      	bccw 5f16 <_dtoa_r+0x1f4>
    6492:	7601           	moveq #1,%d3
    6494:	2d43 ffd0      	movel %d3,%fp@(-48)
    6498:	4aae ff90      	tstl %fp@(-112)
    649c:	6c00 fab0      	bgew 5f4e <_dtoa_r+0x22c>
    64a0:	7601           	moveq #1,%d3
    64a2:	9686           	subl %d6,%d3
    64a4:	2d43 ffa4      	movel %d3,%fp@(-92)
    64a8:	42ae ff90      	clrl %fp@(-112)
    64ac:	4a84           	tstl %d4
    64ae:	6d00 faa8      	bltw 5f58 <_dtoa_r+0x236>
    64b2:	d9ae ff90      	addl %d4,%fp@(-112)
    64b6:	2d44 ffb4      	movel %d4,%fp@(-76)
    64ba:	42ae ffc0      	clrl %fp@(-64)
    64be:	7009           	moveq #9,%d0
    64c0:	b0ae 0014      	cmpl %fp@(20),%d0
    64c4:	6400 faae      	bccw 5f74 <_dtoa_r+0x252>
    64c8:	7401           	moveq #1,%d2
    64ca:	42ae 0014      	clrl %fp@(20)
    64ce:	7601           	moveq #1,%d3
    64d0:	2d43 ffb8      	movel %d3,%fp@(-72)
    64d4:	7aff           	moveq #-1,%d5
    64d6:	42ae 0018      	clrl %fp@(24)
    64da:	206e 0008      	moveal %fp@(8),%a0
    64de:	42a8 003a      	clrl %a0@(58)
    64e2:	2d45 ffd4      	movel %d5,%fp@(-44)
    64e6:	7200           	moveq #0,%d1
    64e8:	6000 fb04      	braw 5fee <_dtoa_r+0x2cc>
    64ec:	4aae 0024      	tstl %fp@(36)
    64f0:	667a           	bnes 656c <_dtoa_r+0x84a>
    64f2:	2d7c 0001 090f 	movel #67855,%fp@(-104)
    64f8:	ff98 
    64fa:	202e ff98      	movel %fp@(-104),%d0
    64fe:	4cee 3cfc ff58 	moveml %fp@(-168),%d2-%d7/%a2-%a5
    6504:	4e5e           	unlk %fp
    6506:	4e75           	rts
    6508:	7003           	moveq #3,%d0
    650a:	b0ae 0014      	cmpl %fp@(20),%d0
    650e:	6700 0b5a      	beqw 706a <_dtoa_r+0x1348>
    6512:	6c00 00a8      	bgew 65bc <_dtoa_r+0x89a>
    6516:	7401           	moveq #1,%d2
    6518:	7604           	moveq #4,%d3
    651a:	b6ae 0014      	cmpl %fp@(20),%d3
    651e:	6764           	beqs 6584 <_dtoa_r+0x862>
    6520:	6000 fa7a      	braw 5f9c <_dtoa_r+0x27a>
    6524:	4a86           	tstl %d6
    6526:	6f00 0c60      	blew 7188 <_dtoa_r+0x1466>
    652a:	42ae ffd0      	clrl %fp@(-48)
    652e:	42ae ffa4      	clrl %fp@(-92)
    6532:	d9ae ff90      	addl %d4,%fp@(-112)
    6536:	2d44 ffb4      	movel %d4,%fp@(-76)
    653a:	42ae ffc0      	clrl %fp@(-64)
    653e:	6000 ff7e      	braw 64be <_dtoa_r+0x79c>
    6542:	7220           	moveq #32,%d1
    6544:	9280           	subl %d0,%d1
    6546:	282e ff9c      	movel %fp@(-100),%d4
    654a:	e3ac           	lsll %d1,%d4
    654c:	2f04           	movel %d4,%sp@-
    654e:	4eb9 0000 fb8a 	jsr fb8a <__floatunsidf>
    6554:	588f           	addql #4,%sp
    6556:	2400           	movel %d0,%d2
    6558:	2601           	movel %d1,%d3
    655a:	0682 fe10 0000 	addil #-32505856,%d2
    6560:	5385           	subql #1,%d5
    6562:	7001           	moveq #1,%d0
    6564:	2d40 ffd8      	movel %d0,%fp@(-40)
    6568:	6000 f8ee      	braw 5e58 <_dtoa_r+0x136>
    656c:	2d7c 0001 090f 	movel #67855,%fp@(-104)
    6572:	ff98 
    6574:	203c 0001 0912 	movel #67858,%d0
    657a:	226e 0024      	moveal %fp@(36),%a1
    657e:	2280           	movel %d0,%a1@
    6580:	6000 fdfa      	braw 637c <_dtoa_r+0x65a>
    6584:	7601           	moveq #1,%d3
    6586:	2d43 ffb8      	movel %d3,%fp@(-72)
    658a:	4aae 0018      	tstl %fp@(24)
    658e:	6f00 08de      	blew 6e6e <_dtoa_r+0x114c>
    6592:	2d6e 0018 ffd4 	movel %fp@(24),%fp@(-44)
    6598:	2a2e 0018      	movel %fp@(24),%d5
    659c:	2605           	movel %d5,%d3
    659e:	6000 fa1e      	braw 5fbe <_dtoa_r+0x29c>
    65a2:	206e 0008      	moveal %fp@(8),%a0
    65a6:	42a8 003a      	clrl %a0@(58)
    65aa:	7200           	moveq #0,%d1
    65ac:	6000 fa40      	braw 5fee <_dtoa_r+0x2cc>
    65b0:	7602           	moveq #2,%d3
    65b2:	2d43 0014      	movel %d3,%fp@(20)
    65b6:	42ae ffb8      	clrl %fp@(-72)
    65ba:	60ce           	bras 658a <_dtoa_r+0x868>
    65bc:	7202           	moveq #2,%d1
    65be:	b2ae 0014      	cmpl %fp@(20),%d1
    65c2:	6700 10be      	beqw 7682 <_dtoa_r+0x1960>
    65c6:	226e 0008      	moveal %fp@(8),%a1
    65ca:	42a9 003a      	clrl %a1@(58)
    65ce:	42a7           	clrl %sp@-
    65d0:	2f09           	movel %a1,%sp@-
    65d2:	2d7c 0000 7ab8 	movel #31416,%fp@(-52)
    65d8:	ffcc 
    65da:	45f9 0000 7ab8 	lea 7ab8 <_Balloc>,%a2
    65e0:	4e92           	jsr %a2@
    65e2:	2d40 ff98      	movel %d0,%fp@(-104)
    65e6:	508f           	addql #8,%sp
    65e8:	6700 106a      	beqw 7654 <_dtoa_r+0x1932>
    65ec:	226e 0008      	moveal %fp@(8),%a1
    65f0:	236e ff98 0036 	movel %fp@(-104),%a1@(54)
    65f6:	7601           	moveq #1,%d3
    65f8:	2d43 ffb8      	movel %d3,%fp@(-72)
    65fc:	76ff           	moveq #-1,%d3
    65fe:	2d43 ffd4      	movel %d3,%fp@(-44)
    6602:	7aff           	moveq #-1,%d5
    6604:	42ae 0018      	clrl %fp@(24)
    6608:	202e fffc      	movel %fp@(-4),%d0
    660c:	6b00 0160      	bmiw 676e <_dtoa_r+0xa4c>
    6610:	720e           	moveq #14,%d1
    6612:	b2ae ffb4      	cmpl %fp@(-76),%d1
    6616:	6d00 0156      	bltw 676e <_dtoa_r+0xa4c>
    661a:	41f9 0001 0a50 	lea 10a50 <__mprec_tens>,%a0
    6620:	202e ffb4      	movel %fp@(-76),%d0
    6624:	e788           	lsll #3,%d0
    6626:	2d70 0800 ff88 	movel %a0@(0,%d0:l),%fp@(-120)
    662c:	2d70 0804 ff8c 	movel %a0@(4,%d0:l),%fp@(-116)
    6632:	4aae 0018      	tstl %fp@(24)
    6636:	6c00 0850      	bgew 6e88 <_dtoa_r+0x1166>
    663a:	4a85           	tstl %d5
    663c:	6e00 084a      	bgtw 6e88 <_dtoa_r+0x1166>
    6640:	6632           	bnes 6674 <_dtoa_r+0x952>
    6642:	42a7           	clrl %sp@-
    6644:	2f3c 4014 0000 	movel #1075052544,%sp@-
    664a:	2f2e ff8c      	movel %fp@(-116),%sp@-
    664e:	2f2e ff88      	movel %fp@(-120),%sp@-
    6652:	4e93           	jsr %a3@
    6654:	4fef 000c      	lea %sp@(12),%sp
    6658:	2e81           	movel %d1,%sp@
    665a:	2f00           	movel %d0,%sp@-
    665c:	2f2e ffb0      	movel %fp@(-80),%sp@-
    6660:	2f2e ffac      	movel %fp@(-84),%sp@-
    6664:	4eb9 0000 fa2c 	jsr fa2c <__ledf2>
    666a:	4fef 0010      	lea %sp@(16),%sp
    666e:	4a80           	tstl %d0
    6670:	6e00 00c4      	bgtw 6736 <_dtoa_r+0xa14>
    6674:	2a6e ff98      	moveal %fp@(-104),%a5
    6678:	7c00           	moveq #0,%d6
    667a:	95ca           	subal %a2,%a2
    667c:	262e 0018      	movel %fp@(24),%d3
    6680:	4683           	notl %d3
    6682:	2f06           	movel %d6,%sp@-
    6684:	2f2e 0008      	movel %fp@(8),%sp@-
    6688:	2d7c 0000 7b48 	movel #31560,%fp@(-112)
    668e:	ff90 
    6690:	41f9 0000 7b48 	lea 7b48 <_Bfree>,%a0
    6696:	4e90           	jsr %a0@
    6698:	5283           	addql #1,%d3
    669a:	508f           	addql #8,%sp
    669c:	b4fc 0000      	cmpaw #0,%a2
    66a0:	6700 fc54      	beqw 62f6 <_dtoa_r+0x5d4>
    66a4:	2f0a           	movel %a2,%sp@-
    66a6:	2f2e 0008      	movel %fp@(8),%sp@-
    66aa:	226e ff90      	moveal %fp@(-112),%a1
    66ae:	4e91           	jsr %a1@
    66b0:	508f           	addql #8,%sp
    66b2:	6000 fc42      	braw 62f6 <_dtoa_r+0x5d4>
    66b6:	4a85           	tstl %d5
    66b8:	6700 0a06      	beqw 70c0 <_dtoa_r+0x139e>
    66bc:	4aae ffd4      	tstl %fp@(-44)
    66c0:	6f00 ff46      	blew 6608 <_dtoa_r+0x8e6>
    66c4:	262e ffb4      	movel %fp@(-76),%d3
    66c8:	5383           	subql #1,%d3
    66ca:	2d43 fff4      	movel %d3,%fp@(-12)
    66ce:	42a7           	clrl %sp@-
    66d0:	2f3c 4024 0000 	movel #1076101120,%sp@-
    66d6:	2f2e ffc8      	movel %fp@(-56),%sp@-
    66da:	2f2e ffc4      	movel %fp@(-60),%sp@-
    66de:	4e93           	jsr %a3@
    66e0:	4fef 0010      	lea %sp@(16),%sp
    66e4:	2040           	moveal %d0,%a0
    66e6:	2241           	moveal %d1,%a1
    66e8:	2d48 ffc4      	movel %a0,%fp@(-60)
    66ec:	2d49 ffc8      	movel %a1,%fp@(-56)
    66f0:	486a 0001      	pea %a2@(1)
    66f4:	4eb9 0000 fc0c 	jsr fc0c <__floatsidf>
    66fa:	2eae ffc8      	movel %fp@(-56),%sp@
    66fe:	2f2e ffc4      	movel %fp@(-60),%sp@-
    6702:	2f01           	movel %d1,%sp@-
    6704:	2f00           	movel %d0,%sp@-
    6706:	4e93           	jsr %a3@
    6708:	4fef 000c      	lea %sp@(12),%sp
    670c:	4297           	clrl %sp@
    670e:	2f3c 401c 0000 	movel #1075576832,%sp@-
    6714:	2f01           	movel %d1,%sp@-
    6716:	2f00           	movel %d0,%sp@-
    6718:	4eb9 0000 efc0 	jsr efc0 <__adddf3>
    671e:	4fef 0010      	lea %sp@(16),%sp
    6722:	2401           	movel %d1,%d2
    6724:	2600           	movel %d0,%d3
    6726:	0683 fcc0 0000 	addil #-54525952,%d3
    672c:	2d6e ffd4 ffe8 	movel %fp@(-44),%fp@(-24)
    6732:	6000 fa26      	braw 615a <_dtoa_r+0x438>
    6736:	7c00           	moveq #0,%d6
    6738:	95ca           	subal %a2,%a2
    673a:	2a6e ff98      	moveal %fp@(-104),%a5
    673e:	1afc 0031      	moveb #49,%a5@+
    6742:	262e ffb4      	movel %fp@(-76),%d3
    6746:	5283           	addql #1,%d3
    6748:	2f06           	movel %d6,%sp@-
    674a:	2f2e 0008      	movel %fp@(8),%sp@-
    674e:	2d7c 0000 7b48 	movel #31560,%fp@(-112)
    6754:	ff90 
    6756:	41f9 0000 7b48 	lea 7b48 <_Bfree>,%a0
    675c:	4e90           	jsr %a0@
    675e:	5283           	addql #1,%d3
    6760:	508f           	addql #8,%sp
    6762:	b4fc 0000      	cmpaw #0,%a2
    6766:	6600 ff3c      	bnew 66a4 <_dtoa_r+0x982>
    676a:	6000 fb8a      	braw 62f6 <_dtoa_r+0x5d4>
    676e:	4aae ffb8      	tstl %fp@(-72)
    6772:	6700 0150      	beqw 68c4 <_dtoa_r+0xba2>
    6776:	7601           	moveq #1,%d3
    6778:	b6ae 0014      	cmpl %fp@(20),%d3
    677c:	6c00 090c      	bgew 708a <_dtoa_r+0x1368>
    6780:	2005           	movel %d5,%d0
    6782:	5380           	subql #1,%d0
    6784:	b0ae ffc0      	cmpl %fp@(-64),%d0
    6788:	6e00 0ade      	bgtw 7268 <_dtoa_r+0x1546>
    678c:	2c2e ffc0      	movel %fp@(-64),%d6
    6790:	9c80           	subl %d0,%d6
    6792:	4a85           	tstl %d5
    6794:	6c00 0dbc      	bgew 7552 <_dtoa_r+0x1830>
    6798:	242e ffa4      	movel %fp@(-92),%d2
    679c:	9485           	subl %d5,%d2
    679e:	4878 0001      	pea 1 <ADD>
    67a2:	2f2e 0008      	movel %fp@(8),%sp@-
    67a6:	47f9 0000 7e28 	lea 7e28 <__i2b>,%a3
    67ac:	4e93           	jsr %a3@
    67ae:	2440           	moveal %d0,%a2
    67b0:	508f           	addql #8,%sp
    67b2:	4a82           	tstl %d2
    67b4:	671c           	beqs 67d2 <_dtoa_r+0xab0>
    67b6:	4aae ff90      	tstl %fp@(-112)
    67ba:	6f16           	bles 67d2 <_dtoa_r+0xab0>
    67bc:	2002           	movel %d2,%d0
    67be:	b4ae ff90      	cmpl %fp@(-112),%d2
    67c2:	6f04           	bles 67c8 <_dtoa_r+0xaa6>
    67c4:	202e ff90      	movel %fp@(-112),%d0
    67c8:	91ae ffa4      	subl %d0,%fp@(-92)
    67cc:	9480           	subl %d0,%d2
    67ce:	91ae ff90      	subl %d0,%fp@(-112)
    67d2:	4aae ffc0      	tstl %fp@(-64)
    67d6:	6726           	beqs 67fe <_dtoa_r+0xadc>
    67d8:	4aae ffb8      	tstl %fp@(-72)
    67dc:	6700 0a70      	beqw 724e <_dtoa_r+0x152c>
    67e0:	49f9 0000 80d6 	lea 80d6 <__pow5mult>,%a4
    67e6:	4a86           	tstl %d6
    67e8:	6600 0244      	bnew 6a2e <_dtoa_r+0xd0c>
    67ec:	2f2e ffc0      	movel %fp@(-64),%sp@-
    67f0:	2f07           	movel %d7,%sp@-
    67f2:	2f2e 0008      	movel %fp@(8),%sp@-
    67f6:	4e94           	jsr %a4@
    67f8:	2e00           	movel %d0,%d7
    67fa:	4fef 000c      	lea %sp@(12),%sp
    67fe:	4878 0001      	pea 1 <ADD>
    6802:	2f2e 0008      	movel %fp@(8),%sp@-
    6806:	4e93           	jsr %a3@
    6808:	2c00           	movel %d0,%d6
    680a:	508f           	addql #8,%sp
    680c:	4a84           	tstl %d4
    680e:	6600 0606      	bnew 6e16 <_dtoa_r+0x10f4>
    6812:	7201           	moveq #1,%d1
    6814:	b2ae 0014      	cmpl %fp@(20),%d1
    6818:	6c00 00c2      	bgew 68dc <_dtoa_r+0xbba>
    681c:	202e ff90      	movel %fp@(-112),%d0
    6820:	d081           	addl %d1,%d0
    6822:	721f           	moveq #31,%d1
    6824:	c081           	andl %d1,%d0
    6826:	6700 00f6      	beqw 691e <_dtoa_r+0xbfc>
    682a:	7220           	moveq #32,%d1
    682c:	9280           	subl %d0,%d1
    682e:	7604           	moveq #4,%d3
    6830:	b681           	cmpl %d1,%d3
    6832:	6c00 0810      	bgew 7044 <_dtoa_r+0x1322>
    6836:	721c           	moveq #28,%d1
    6838:	9280           	subl %d0,%d1
    683a:	d3ae ffa4      	addl %d1,%fp@(-92)
    683e:	d481           	addl %d1,%d2
    6840:	d3ae ff90      	addl %d1,%fp@(-112)
    6844:	4aae ffa4      	tstl %fp@(-92)
    6848:	6e00 010a      	bgtw 6954 <_dtoa_r+0xc32>
    684c:	4aae ff90      	tstl %fp@(-112)
    6850:	6e00 00e2      	bgtw 6934 <_dtoa_r+0xc12>
    6854:	4aae ffd0      	tstl %fp@(-48)
    6858:	6600 015e      	bnew 69b8 <_dtoa_r+0xc96>
    685c:	4a85           	tstl %d5
    685e:	6f00 0114      	blew 6974 <_dtoa_r+0xc52>
    6862:	4aae ffb8      	tstl %fp@(-72)
    6866:	6600 0250      	bnew 6ab8 <_dtoa_r+0xd96>
    686a:	262e ffb4      	movel %fp@(-76),%d3
    686e:	5283           	addql #1,%d3
    6870:	2d7c 0000 82e4 	movel #33508,%fp@(-108)
    6876:	ff94 
    6878:	286e ff98      	moveal %fp@(-104),%a4
    687c:	7401           	moveq #1,%d2
    687e:	2d7c 0000 5b80 	movel #23424,%fp@(-96)
    6884:	ffa0 
    6886:	4bf9 0000 7b6c 	lea 7b6c <__multadd>,%a5
    688c:	2d6e 0008 ff88 	movel %fp@(8),%fp@(-120)
    6892:	47f9 0000 5b80 	lea 5b80 <quorem>,%a3
    6898:	2f06           	movel %d6,%sp@-
    689a:	2f07           	movel %d7,%sp@-
    689c:	4e93           	jsr %a3@
    689e:	7230           	moveq #48,%d1
    68a0:	d081           	addl %d1,%d0
    68a2:	18c0           	moveb %d0,%a4@+
    68a4:	508f           	addql #8,%sp
    68a6:	b485           	cmpl %d5,%d2
    68a8:	6c00 04d6      	bgew 6d80 <_dtoa_r+0x105e>
    68ac:	42a7           	clrl %sp@-
    68ae:	4878 000a      	pea a <DUART_IMR>
    68b2:	2f07           	movel %d7,%sp@-
    68b4:	2f2e ff88      	movel %fp@(-120),%sp@-
    68b8:	4e95           	jsr %a5@
    68ba:	2e00           	movel %d0,%d7
    68bc:	5282           	addql #1,%d2
    68be:	4fef 0010      	lea %sp@(16),%sp
    68c2:	60d4           	bras 6898 <_dtoa_r+0xb76>
    68c4:	2c2e ffc0      	movel %fp@(-64),%d6
    68c8:	242e ffa4      	movel %fp@(-92),%d2
    68cc:	42ae ffb8      	clrl %fp@(-72)
    68d0:	95ca           	subal %a2,%a2
    68d2:	47f9 0000 7e28 	lea 7e28 <__i2b>,%a3
    68d8:	6000 fed8      	braw 67b2 <_dtoa_r+0xa90>
    68dc:	4aae ffa8      	tstl %fp@(-88)
    68e0:	662c           	bnes 690e <_dtoa_r+0xbec>
    68e2:	202e ff94      	movel %fp@(-108),%d0
    68e6:	0280 000f ffff 	andil #1048575,%d0
    68ec:	6620           	bnes 690e <_dtoa_r+0xbec>
    68ee:	202e ff94      	movel %fp@(-108),%d0
    68f2:	0280 7ff0 0000 	andil #2146435072,%d0
    68f8:	6700 0c2e      	beqw 7528 <_dtoa_r+0x1806>
    68fc:	52ae ffa4      	addql #1,%fp@(-92)
    6900:	52ae ff90      	addql #1,%fp@(-112)
    6904:	7001           	moveq #1,%d0
    6906:	4a84           	tstl %d4
    6908:	6600 0c24      	bnew 752e <_dtoa_r+0x180c>
    690c:	2800           	movel %d0,%d4
    690e:	7201           	moveq #1,%d1
    6910:	202e ff90      	movel %fp@(-112),%d0
    6914:	d081           	addl %d1,%d0
    6916:	721f           	moveq #31,%d1
    6918:	c081           	andl %d1,%d0
    691a:	6600 ff0e      	bnew 682a <_dtoa_r+0xb08>
    691e:	721c           	moveq #28,%d1
    6920:	d3ae ffa4      	addl %d1,%fp@(-92)
    6924:	d481           	addl %d1,%d2
    6926:	d3ae ff90      	addl %d1,%fp@(-112)
    692a:	4aae ffa4      	tstl %fp@(-92)
    692e:	6f00 ff1c      	blew 684c <_dtoa_r+0xb2a>
    6932:	6020           	bras 6954 <_dtoa_r+0xc32>
    6934:	2f2e ff90      	movel %fp@(-112),%sp@-
    6938:	2f06           	movel %d6,%sp@-
    693a:	2f2e 0008      	movel %fp@(8),%sp@-
    693e:	4eb9 0000 81d2 	jsr 81d2 <__lshift>
    6944:	2c00           	movel %d0,%d6
    6946:	4fef 000c      	lea %sp@(12),%sp
    694a:	4aae ffd0      	tstl %fp@(-48)
    694e:	6700 ff0c      	beqw 685c <_dtoa_r+0xb3a>
    6952:	6064           	bras 69b8 <_dtoa_r+0xc96>
    6954:	2f2e ffa4      	movel %fp@(-92),%sp@-
    6958:	2f07           	movel %d7,%sp@-
    695a:	2f2e 0008      	movel %fp@(8),%sp@-
    695e:	4eb9 0000 81d2 	jsr 81d2 <__lshift>
    6964:	2e00           	movel %d0,%d7
    6966:	4fef 000c      	lea %sp@(12),%sp
    696a:	4aae ff90      	tstl %fp@(-112)
    696e:	6f00 fee4      	blew 6854 <_dtoa_r+0xb32>
    6972:	60c0           	bras 6934 <_dtoa_r+0xc12>
    6974:	7002           	moveq #2,%d0
    6976:	b0ae 0014      	cmpl %fp@(20),%d0
    697a:	6c00 fee6      	bgew 6862 <_dtoa_r+0xb40>
    697e:	4a85           	tstl %d5
    6980:	6628           	bnes 69aa <_dtoa_r+0xc88>
    6982:	42a7           	clrl %sp@-
    6984:	4878 0005      	pea 5 <COMPARE>
    6988:	2f06           	movel %d6,%sp@-
    698a:	2f2e 0008      	movel %fp@(8),%sp@-
    698e:	4eb9 0000 7b6c 	jsr 7b6c <__multadd>
    6994:	2c00           	movel %d0,%d6
    6996:	2f00           	movel %d0,%sp@-
    6998:	2f07           	movel %d7,%sp@-
    699a:	4eb9 0000 82e4 	jsr 82e4 <__mcmp>
    69a0:	4fef 0018      	lea %sp@(24),%sp
    69a4:	4a80           	tstl %d0
    69a6:	6e00 fd92      	bgtw 673a <_dtoa_r+0xa18>
    69aa:	2a6e ff98      	moveal %fp@(-104),%a5
    69ae:	262e 0018      	movel %fp@(24),%d3
    69b2:	4683           	notl %d3
    69b4:	6000 fccc      	braw 6682 <_dtoa_r+0x960>
    69b8:	2f06           	movel %d6,%sp@-
    69ba:	2f07           	movel %d7,%sp@-
    69bc:	2d7c 0000 82e4 	movel #33508,%fp@(-108)
    69c2:	ff94 
    69c4:	41f9 0000 82e4 	lea 82e4 <__mcmp>,%a0
    69ca:	4e90           	jsr %a0@
    69cc:	508f           	addql #8,%sp
    69ce:	4a80           	tstl %d0
    69d0:	6c00 fe8a      	bgew 685c <_dtoa_r+0xb3a>
    69d4:	262e ffb4      	movel %fp@(-76),%d3
    69d8:	5383           	subql #1,%d3
    69da:	42a7           	clrl %sp@-
    69dc:	4878 000a      	pea a <DUART_IMR>
    69e0:	2f07           	movel %d7,%sp@-
    69e2:	2f2e 0008      	movel %fp@(8),%sp@-
    69e6:	47f9 0000 7b6c 	lea 7b6c <__multadd>,%a3
    69ec:	4e93           	jsr %a3@
    69ee:	2e00           	movel %d0,%d7
    69f0:	4fef 0010      	lea %sp@(16),%sp
    69f4:	4aae ffb8      	tstl %fp@(-72)
    69f8:	6600 009a      	bnew 6a94 <_dtoa_r+0xd72>
    69fc:	4aae ffd4      	tstl %fp@(-44)
    6a00:	6f7c           	bles 6a7e <_dtoa_r+0xd5c>
    6a02:	262e ffb4      	movel %fp@(-76),%d3
    6a06:	2a2e ffd4      	movel %fp@(-44),%d5
    6a0a:	286e ff98      	moveal %fp@(-104),%a4
    6a0e:	7401           	moveq #1,%d2
    6a10:	2d7c 0000 5b80 	movel #23424,%fp@(-96)
    6a16:	ffa0 
    6a18:	4bf9 0000 7b6c 	lea 7b6c <__multadd>,%a5
    6a1e:	2d6e 0008 ff88 	movel %fp@(8),%fp@(-120)
    6a24:	47f9 0000 5b80 	lea 5b80 <quorem>,%a3
    6a2a:	6000 fe6c      	braw 6898 <_dtoa_r+0xb76>
    6a2e:	2f06           	movel %d6,%sp@-
    6a30:	2f0a           	movel %a2,%sp@-
    6a32:	2f2e 0008      	movel %fp@(8),%sp@-
    6a36:	4e94           	jsr %a4@
    6a38:	2440           	moveal %d0,%a2
    6a3a:	2f07           	movel %d7,%sp@-
    6a3c:	2f00           	movel %d0,%sp@-
    6a3e:	2f2e 0008      	movel %fp@(8),%sp@-
    6a42:	4eb9 0000 7ecc 	jsr 7ecc <__multiply>
    6a48:	2600           	movel %d0,%d3
    6a4a:	2f07           	movel %d7,%sp@-
    6a4c:	2f2e 0008      	movel %fp@(8),%sp@-
    6a50:	4eb9 0000 7b48 	jsr 7b48 <_Bfree>
    6a56:	9dae ffc0      	subl %d6,%fp@(-64)
    6a5a:	4fef 0020      	lea %sp@(32),%sp
    6a5e:	2e03           	movel %d3,%d7
    6a60:	4aae ffc0      	tstl %fp@(-64)
    6a64:	6700 fd98      	beqw 67fe <_dtoa_r+0xadc>
    6a68:	2f2e ffc0      	movel %fp@(-64),%sp@-
    6a6c:	2f07           	movel %d7,%sp@-
    6a6e:	2f2e 0008      	movel %fp@(8),%sp@-
    6a72:	4e94           	jsr %a4@
    6a74:	2e00           	movel %d0,%d7
    6a76:	4fef 000c      	lea %sp@(12),%sp
    6a7a:	6000 fd82      	braw 67fe <_dtoa_r+0xadc>
    6a7e:	7002           	moveq #2,%d0
    6a80:	b0ae 0014      	cmpl %fp@(20),%d0
    6a84:	6c00 ff7c      	bgew 6a02 <_dtoa_r+0xce0>
    6a88:	2a2e ffd4      	movel %fp@(-44),%d5
    6a8c:	2d43 ffb4      	movel %d3,%fp@(-76)
    6a90:	6000 feec      	braw 697e <_dtoa_r+0xc5c>
    6a94:	42a7           	clrl %sp@-
    6a96:	4878 000a      	pea a <DUART_IMR>
    6a9a:	2f0a           	movel %a2,%sp@-
    6a9c:	2f2e 0008      	movel %fp@(8),%sp@-
    6aa0:	4e93           	jsr %a3@
    6aa2:	2440           	moveal %d0,%a2
    6aa4:	4fef 0010      	lea %sp@(16),%sp
    6aa8:	4aae ffd4      	tstl %fp@(-44)
    6aac:	6f00 0b0c      	blew 75ba <_dtoa_r+0x1898>
    6ab0:	2d43 ffb4      	movel %d3,%fp@(-76)
    6ab4:	2a2e ffd4      	movel %fp@(-44),%d5
    6ab8:	4a82           	tstl %d2
    6aba:	6e00 01ee      	bgtw 6caa <_dtoa_r+0xf88>
    6abe:	4a84           	tstl %d4
    6ac0:	6600 07f2      	bnew 72b4 <_dtoa_r+0x1592>
    6ac4:	280a           	movel %a2,%d4
    6ac6:	242e ff98      	movel %fp@(-104),%d2
    6aca:	2242           	moveal %d2,%a1
    6acc:	43f1 58ff      	lea %a1@(ffffffffffffffff,%d5:l),%a1
    6ad0:	2d49 ffa4      	movel %a1,%fp@(-92)
    6ad4:	2d7c 0000 7b48 	movel #31560,%fp@(-112)
    6ada:	ff90 
    6adc:	2d7c 0000 82e4 	movel #33508,%fp@(-108)
    6ae2:	ff94 
    6ae4:	2d7c 0000 5b80 	movel #23424,%fp@(-96)
    6aea:	ffa0 
    6aec:	7201           	moveq #1,%d1
    6aee:	c2ae ffa8      	andl %fp@(-88),%d1
    6af2:	2d41 ffa8      	movel %d1,%fp@(-88)
    6af6:	4bf9 0000 7b6c 	lea 7b6c <__multadd>,%a5
    6afc:	2d6e 0008 ff88 	movel %fp@(8),%fp@(-120)
    6b02:	2f06           	movel %d6,%sp@-
    6b04:	2f07           	movel %d7,%sp@-
    6b06:	206e ffa0      	moveal %fp@(-96),%a0
    6b0a:	4e90           	jsr %a0@
    6b0c:	2840           	moveal %d0,%a4
    6b0e:	47ec 0030      	lea %a4@(48),%a3
    6b12:	2f0a           	movel %a2,%sp@-
    6b14:	2f07           	movel %d7,%sp@-
    6b16:	226e ff94      	moveal %fp@(-108),%a1
    6b1a:	4e91           	jsr %a1@
    6b1c:	2600           	movel %d0,%d3
    6b1e:	2f04           	movel %d4,%sp@-
    6b20:	2f06           	movel %d6,%sp@-
    6b22:	2f2e ff88      	movel %fp@(-120),%sp@-
    6b26:	4eb9 0000 8332 	jsr 8332 <__mdiff>
    6b2c:	2040           	moveal %d0,%a0
    6b2e:	4fef 001c      	lea %sp@(28),%sp
    6b32:	4aa8 000c      	tstl %a0@(12)
    6b36:	6600 00c6      	bnew 6bfe <_dtoa_r+0xedc>
    6b3a:	2f00           	movel %d0,%sp@-
    6b3c:	2f07           	movel %d7,%sp@-
    6b3e:	2d40 ff80      	movel %d0,%fp@(-128)
    6b42:	226e ff94      	moveal %fp@(-108),%a1
    6b46:	4e91           	jsr %a1@
    6b48:	2a00           	movel %d0,%d5
    6b4a:	206e ff80      	moveal %fp@(-128),%a0
    6b4e:	2f08           	movel %a0,%sp@-
    6b50:	2f2e ff88      	movel %fp@(-120),%sp@-
    6b54:	206e ff90      	moveal %fp@(-112),%a0
    6b58:	4e90           	jsr %a0@
    6b5a:	4fef 0010      	lea %sp@(16),%sp
    6b5e:	4a85           	tstl %d5
    6b60:	6600 01c6      	bnew 6d28 <_dtoa_r+0x1006>
    6b64:	4aae 0014      	tstl %fp@(20)
    6b68:	6608           	bnes 6b72 <_dtoa_r+0xe50>
    6b6a:	4aae ffa8      	tstl %fp@(-88)
    6b6e:	6700 016a      	beqw 6cda <_dtoa_r+0xfb8>
    6b72:	4a83           	tstl %d3
    6b74:	6d00 014c      	bltw 6cc2 <_dtoa_r+0xfa0>
    6b78:	2842           	moveal %d2,%a4
    6b7a:	320b           	movew %a3,%d1
    6b7c:	18c1           	moveb %d1,%a4@+
    6b7e:	b4ae ffa4      	cmpl %fp@(-92),%d2
    6b82:	6700 07d4      	beqw 7358 <_dtoa_r+0x1636>
    6b86:	42a7           	clrl %sp@-
    6b88:	4878 000a      	pea a <DUART_IMR>
    6b8c:	2f07           	movel %d7,%sp@-
    6b8e:	2f2e ff88      	movel %fp@(-120),%sp@-
    6b92:	4e95           	jsr %a5@
    6b94:	2e00           	movel %d0,%d7
    6b96:	4fef 0010      	lea %sp@(16),%sp
    6b9a:	b88a           	cmpl %a2,%d4
    6b9c:	6700 01c6      	beqw 6d64 <_dtoa_r+0x1042>
    6ba0:	42a7           	clrl %sp@-
    6ba2:	4878 000a      	pea a <DUART_IMR>
    6ba6:	2f0a           	movel %a2,%sp@-
    6ba8:	2f2e ff88      	movel %fp@(-120),%sp@-
    6bac:	4e95           	jsr %a5@
    6bae:	2440           	moveal %d0,%a2
    6bb0:	42a7           	clrl %sp@-
    6bb2:	4878 000a      	pea a <DUART_IMR>
    6bb6:	2f04           	movel %d4,%sp@-
    6bb8:	2f2e ff88      	movel %fp@(-120),%sp@-
    6bbc:	4e95           	jsr %a5@
    6bbe:	2800           	movel %d0,%d4
    6bc0:	4fef 0020      	lea %sp@(32),%sp
    6bc4:	240c           	movel %a4,%d2
    6bc6:	2f06           	movel %d6,%sp@-
    6bc8:	2f07           	movel %d7,%sp@-
    6bca:	206e ffa0      	moveal %fp@(-96),%a0
    6bce:	4e90           	jsr %a0@
    6bd0:	2840           	moveal %d0,%a4
    6bd2:	47ec 0030      	lea %a4@(48),%a3
    6bd6:	2f0a           	movel %a2,%sp@-
    6bd8:	2f07           	movel %d7,%sp@-
    6bda:	226e ff94      	moveal %fp@(-108),%a1
    6bde:	4e91           	jsr %a1@
    6be0:	2600           	movel %d0,%d3
    6be2:	2f04           	movel %d4,%sp@-
    6be4:	2f06           	movel %d6,%sp@-
    6be6:	2f2e ff88      	movel %fp@(-120),%sp@-
    6bea:	4eb9 0000 8332 	jsr 8332 <__mdiff>
    6bf0:	2040           	moveal %d0,%a0
    6bf2:	4fef 001c      	lea %sp@(28),%sp
    6bf6:	4aa8 000c      	tstl %a0@(12)
    6bfa:	6700 ff3e      	beqw 6b3a <_dtoa_r+0xe18>
    6bfe:	2d6e ff88 0008 	movel %fp@(-120),%fp@(8)
    6c04:	2f00           	movel %d0,%sp@-
    6c06:	2f2e 0008      	movel %fp@(8),%sp@-
    6c0a:	2a6e ff90      	moveal %fp@(-112),%a5
    6c0e:	4e95           	jsr %a5@
    6c10:	508f           	addql #8,%sp
    6c12:	4a83           	tstl %d3
    6c14:	6d10           	blts 6c26 <_dtoa_r+0xf04>
    6c16:	7001           	moveq #1,%d0
    6c18:	c0ae ff9c      	andl %fp@(-100),%d0
    6c1c:	86ae 0014      	orl %fp@(20),%d3
    6c20:	8083           	orl %d3,%d0
    6c22:	6600 0122      	bnew 6d46 <_dtoa_r+0x1024>
    6c26:	4878 0001      	pea 1 <ADD>
    6c2a:	2f07           	movel %d7,%sp@-
    6c2c:	2f2e 0008      	movel %fp@(8),%sp@-
    6c30:	4eb9 0000 81d2 	jsr 81d2 <__lshift>
    6c36:	2e00           	movel %d0,%d7
    6c38:	2f06           	movel %d6,%sp@-
    6c3a:	2f00           	movel %d0,%sp@-
    6c3c:	206e ff94      	moveal %fp@(-108),%a0
    6c40:	4e90           	jsr %a0@
    6c42:	4fef 0014      	lea %sp@(20),%sp
    6c46:	4a80           	tstl %d0
    6c48:	6f00 00ba      	blew 6d04 <_dtoa_r+0xfe2>
    6c4c:	7239           	moveq #57,%d1
    6c4e:	b28b           	cmpl %a3,%d1
    6c50:	6700 08b8      	beqw 750a <_dtoa_r+0x17e8>
    6c54:	47ec 0031      	lea %a4@(49),%a3
    6c58:	2a42           	moveal %d2,%a5
    6c5a:	360b           	movew %a3,%d3
    6c5c:	1ac3           	moveb %d3,%a5@+
    6c5e:	262e ffb4      	movel %fp@(-76),%d3
    6c62:	5283           	addql #1,%d3
    6c64:	2a0a           	movel %a2,%d5
    6c66:	2444           	moveal %d4,%a2
    6c68:	2f06           	movel %d6,%sp@-
    6c6a:	2f2e 0008      	movel %fp@(8),%sp@-
    6c6e:	226e ff90      	moveal %fp@(-112),%a1
    6c72:	4e91           	jsr %a1@
    6c74:	508f           	addql #8,%sp
    6c76:	b4fc 0000      	cmpaw #0,%a2
    6c7a:	6700 f67a      	beqw 62f6 <_dtoa_r+0x5d4>
    6c7e:	4a85           	tstl %d5
    6c80:	6700 fa22      	beqw 66a4 <_dtoa_r+0x982>
    6c84:	b5c5           	cmpal %d5,%a2
    6c86:	6700 fa1c      	beqw 66a4 <_dtoa_r+0x982>
    6c8a:	2f05           	movel %d5,%sp@-
    6c8c:	2f2e 0008      	movel %fp@(8),%sp@-
    6c90:	206e ff90      	moveal %fp@(-112),%a0
    6c94:	4e90           	jsr %a0@
    6c96:	508f           	addql #8,%sp
    6c98:	2f0a           	movel %a2,%sp@-
    6c9a:	2f2e 0008      	movel %fp@(8),%sp@-
    6c9e:	226e ff90      	moveal %fp@(-112),%a1
    6ca2:	4e91           	jsr %a1@
    6ca4:	508f           	addql #8,%sp
    6ca6:	6000 f64e      	braw 62f6 <_dtoa_r+0x5d4>
    6caa:	2f02           	movel %d2,%sp@-
    6cac:	2f0a           	movel %a2,%sp@-
    6cae:	2f2e 0008      	movel %fp@(8),%sp@-
    6cb2:	4eb9 0000 81d2 	jsr 81d2 <__lshift>
    6cb8:	2440           	moveal %d0,%a2
    6cba:	4fef 000c      	lea %sp@(12),%sp
    6cbe:	6000 fdfe      	braw 6abe <_dtoa_r+0xd9c>
    6cc2:	2d6e ff88 0008 	movel %fp@(-120),%fp@(8)
    6cc8:	2a42           	moveal %d2,%a5
    6cca:	360b           	movew %a3,%d3
    6ccc:	1ac3           	moveb %d3,%a5@+
    6cce:	262e ffb4      	movel %fp@(-76),%d3
    6cd2:	5283           	addql #1,%d3
    6cd4:	2a0a           	movel %a2,%d5
    6cd6:	2444           	moveal %d4,%a2
    6cd8:	608e           	bras 6c68 <_dtoa_r+0xf46>
    6cda:	2d6e ff88 0008 	movel %fp@(-120),%fp@(8)
    6ce0:	7039           	moveq #57,%d0
    6ce2:	b08b           	cmpl %a3,%d0
    6ce4:	6700 0824      	beqw 750a <_dtoa_r+0x17e8>
    6ce8:	4a83           	tstl %d3
    6cea:	6f04           	bles 6cf0 <_dtoa_r+0xfce>
    6cec:	47ec 0031      	lea %a4@(49),%a3
    6cf0:	2a42           	moveal %d2,%a5
    6cf2:	320b           	movew %a3,%d1
    6cf4:	1ac1           	moveb %d1,%a5@+
    6cf6:	262e ffb4      	movel %fp@(-76),%d3
    6cfa:	5283           	addql #1,%d3
    6cfc:	2a0a           	movel %a2,%d5
    6cfe:	2444           	moveal %d4,%a2
    6d00:	6000 ff66      	braw 6c68 <_dtoa_r+0xf46>
    6d04:	4a80           	tstl %d0
    6d06:	6600 ff50      	bnew 6c58 <_dtoa_r+0xf36>
    6d0a:	200b           	movel %a3,%d0
    6d0c:	0800 0000      	btst #0,%d0
    6d10:	6600 ff3a      	bnew 6c4c <_dtoa_r+0xf2a>
    6d14:	2a42           	moveal %d2,%a5
    6d16:	360b           	movew %a3,%d3
    6d18:	1ac3           	moveb %d3,%a5@+
    6d1a:	262e ffb4      	movel %fp@(-76),%d3
    6d1e:	5283           	addql #1,%d3
    6d20:	2a0a           	movel %a2,%d5
    6d22:	2444           	moveal %d4,%a2
    6d24:	6000 ff42      	braw 6c68 <_dtoa_r+0xf46>
    6d28:	4a83           	tstl %d3
    6d2a:	6d00 08da      	bltw 7606 <_dtoa_r+0x18e4>
    6d2e:	86ae 0014      	orl %fp@(20),%d3
    6d32:	86ae ffa8      	orl %fp@(-88),%d3
    6d36:	6700 08ce      	beqw 7606 <_dtoa_r+0x18e4>
    6d3a:	4a85           	tstl %d5
    6d3c:	6f00 fe3a      	blew 6b78 <_dtoa_r+0xe56>
    6d40:	2d6e ff88 0008 	movel %fp@(-120),%fp@(8)
    6d46:	7639           	moveq #57,%d3
    6d48:	b68b           	cmpl %a3,%d3
    6d4a:	6700 07be      	beqw 750a <_dtoa_r+0x17e8>
    6d4e:	2a42           	moveal %d2,%a5
    6d50:	262e ffb4      	movel %fp@(-76),%d3
    6d54:	5283           	addql #1,%d3
    6d56:	300b           	movew %a3,%d0
    6d58:	5200           	addqb #1,%d0
    6d5a:	1ac0           	moveb %d0,%a5@+
    6d5c:	2a0a           	movel %a2,%d5
    6d5e:	2444           	moveal %d4,%a2
    6d60:	6000 ff06      	braw 6c68 <_dtoa_r+0xf46>
    6d64:	42a7           	clrl %sp@-
    6d66:	4878 000a      	pea a <DUART_IMR>
    6d6a:	2f0a           	movel %a2,%sp@-
    6d6c:	2f2e ff88      	movel %fp@(-120),%sp@-
    6d70:	4e95           	jsr %a5@
    6d72:	2440           	moveal %d0,%a2
    6d74:	4fef 0010      	lea %sp@(16),%sp
    6d78:	2800           	movel %d0,%d4
    6d7a:	240c           	movel %a4,%d2
    6d7c:	6000 fe48      	braw 6bc6 <_dtoa_r+0xea4>
    6d80:	2640           	moveal %d0,%a3
    6d82:	2d6e ff88 0008 	movel %fp@(-120),%fp@(8)
    6d88:	4a85           	tstl %d5
    6d8a:	6f00 03e6      	blew 7172 <_dtoa_r+0x1450>
    6d8e:	2005           	movel %d5,%d0
    6d90:	286e ff98      	moveal %fp@(-104),%a4
    6d94:	d9c0           	addal %d0,%a4
    6d96:	7a00           	moveq #0,%d5
    6d98:	2d7c 0000 7b48 	movel #31560,%fp@(-112)
    6d9e:	ff90 
    6da0:	4878 0001      	pea 1 <ADD>
    6da4:	2f07           	movel %d7,%sp@-
    6da6:	2f2e 0008      	movel %fp@(8),%sp@-
    6daa:	4eb9 0000 81d2 	jsr 81d2 <__lshift>
    6db0:	2e00           	movel %d0,%d7
    6db2:	2f06           	movel %d6,%sp@-
    6db4:	2f00           	movel %d0,%sp@-
    6db6:	206e ff94      	moveal %fp@(-108),%a0
    6dba:	4e90           	jsr %a0@
    6dbc:	4fef 0014      	lea %sp@(20),%sp
    6dc0:	4a80           	tstl %d0
    6dc2:	6f2e           	bles 6df2 <_dtoa_r+0x10d0>
    6dc4:	222e ff98      	movel %fp@(-104),%d1
    6dc8:	2d6e 0008 ff88 	movel %fp@(8),%fp@(-120)
    6dce:	2a4c           	moveal %a4,%a5
    6dd0:	1024           	moveb %a4@-,%d0
    6dd2:	0c00 0039      	cmpib #57,%d0
    6dd6:	6600 0284      	bnew 705c <_dtoa_r+0x133a>
    6dda:	b28c           	cmpl %a4,%d1
    6ddc:	66f0           	bnes 6dce <_dtoa_r+0x10ac>
    6dde:	2d6e ff88 0008 	movel %fp@(-120),%fp@(8)
    6de4:	206e ff98      	moveal %fp@(-104),%a0
    6de8:	10bc 0031      	moveb #49,%a0@
    6dec:	5283           	addql #1,%d3
    6dee:	6000 fe78      	braw 6c68 <_dtoa_r+0xf46>
    6df2:	4a80           	tstl %d0
    6df4:	6608           	bnes 6dfe <_dtoa_r+0x10dc>
    6df6:	200b           	movel %a3,%d0
    6df8:	0800 0000      	btst #0,%d0
    6dfc:	66c6           	bnes 6dc4 <_dtoa_r+0x10a2>
    6dfe:	2d6e 0008 ff88 	movel %fp@(8),%fp@(-120)
    6e04:	2a4c           	moveal %a4,%a5
    6e06:	0c24 0030      	cmpib #48,%a4@-
    6e0a:	67f8           	beqs 6e04 <_dtoa_r+0x10e2>
    6e0c:	2d6e ff88 0008 	movel %fp@(-120),%fp@(8)
    6e12:	6000 fe54      	braw 6c68 <_dtoa_r+0xf46>
    6e16:	2f04           	movel %d4,%sp@-
    6e18:	2f00           	movel %d0,%sp@-
    6e1a:	2f2e 0008      	movel %fp@(8),%sp@-
    6e1e:	4eb9 0000 80d6 	jsr 80d6 <__pow5mult>
    6e24:	2c00           	movel %d0,%d6
    6e26:	4fef 000c      	lea %sp@(12),%sp
    6e2a:	7001           	moveq #1,%d0
    6e2c:	b0ae 0014      	cmpl %fp@(20),%d0
    6e30:	6c24           	bges 6e56 <_dtoa_r+0x1134>
    6e32:	7800           	moveq #0,%d4
    6e34:	2046           	moveal %d6,%a0
    6e36:	2028 0010      	movel %a0@(16),%d0
    6e3a:	5880           	addql #4,%d0
    6e3c:	d080           	addl %d0,%d0
    6e3e:	d080           	addl %d0,%d0
    6e40:	2240           	moveal %d0,%a1
    6e42:	2f31 6800      	movel %a1@(0,%d6:l),%sp@-
    6e46:	4eb9 0000 7d4c 	jsr 7d4c <__hi0bits>
    6e4c:	7220           	moveq #32,%d1
    6e4e:	9280           	subl %d0,%d1
    6e50:	588f           	addql #4,%sp
    6e52:	6000 f9c8      	braw 681c <_dtoa_r+0xafa>
    6e56:	4aae ffa8      	tstl %fp@(-88)
    6e5a:	66d6           	bnes 6e32 <_dtoa_r+0x1110>
    6e5c:	202e ff94      	movel %fp@(-108),%d0
    6e60:	0280 000f ffff 	andil #1048575,%d0
    6e66:	6700 fa86      	beqw 68ee <_dtoa_r+0xbcc>
    6e6a:	7800           	moveq #0,%d4
    6e6c:	60c6           	bras 6e34 <_dtoa_r+0x1112>
    6e6e:	7a01           	moveq #1,%d5
    6e70:	7001           	moveq #1,%d0
    6e72:	2d40 0018      	movel %d0,%fp@(24)
    6e76:	206e 0008      	moveal %fp@(8),%a0
    6e7a:	42a8 003a      	clrl %a0@(58)
    6e7e:	2d45 ffd4      	movel %d5,%fp@(-44)
    6e82:	7200           	moveq #0,%d1
    6e84:	6000 f168      	braw 5fee <_dtoa_r+0x2cc>
    6e88:	206e ff98      	moveal %fp@(-104),%a0
    6e8c:	5288           	addql #1,%a0
    6e8e:	2d48 ffe4      	movel %a0,%fp@(-28)
    6e92:	2d7c 0000 f504 	movel #62724,%fp@(-60)
    6e98:	ffc4 
    6e9a:	2f2e ff8c      	movel %fp@(-116),%sp@-
    6e9e:	2f2e ff88      	movel %fp@(-120),%sp@-
    6ea2:	2f2e ffb0      	movel %fp@(-80),%sp@-
    6ea6:	2f2e ffac      	movel %fp@(-84),%sp@-
    6eaa:	43f9 0000 f504 	lea f504 <__divdf3>,%a1
    6eb0:	4e91           	jsr %a1@
    6eb2:	4fef 000c      	lea %sp@(12),%sp
    6eb6:	2e81           	movel %d1,%sp@
    6eb8:	2f00           	movel %d0,%sp@-
    6eba:	4eb9 0000 fe56 	jsr fe56 <__fixdfsi>
    6ec0:	508f           	addql #8,%sp
    6ec2:	2c00           	movel %d0,%d6
    6ec4:	2f00           	movel %d0,%sp@-
    6ec6:	4eb9 0000 fc0c 	jsr fc0c <__floatsidf>
    6ecc:	2eae ff8c      	movel %fp@(-116),%sp@
    6ed0:	2f2e ff88      	movel %fp@(-120),%sp@-
    6ed4:	2f01           	movel %d1,%sp@-
    6ed6:	2f00           	movel %d0,%sp@-
    6ed8:	4e93           	jsr %a3@
    6eda:	4fef 000c      	lea %sp@(12),%sp
    6ede:	2e81           	movel %d1,%sp@
    6ee0:	2f00           	movel %d0,%sp@-
    6ee2:	2f2e ffb0      	movel %fp@(-80),%sp@-
    6ee6:	2f2e ffac      	movel %fp@(-84),%sp@-
    6eea:	4e94           	jsr %a4@
    6eec:	4fef 0010      	lea %sp@(16),%sp
    6ef0:	2040           	moveal %d0,%a0
    6ef2:	2241           	moveal %d1,%a1
    6ef4:	246e ffe4      	moveal %fp@(-28),%a2
    6ef8:	1006           	moveb %d6,%d0
    6efa:	0600 0030      	addib #48,%d0
    6efe:	2a6e ff98      	moveal %fp@(-104),%a5
    6f02:	1a80           	moveb %d0,%a5@
    6f04:	7001           	moveq #1,%d0
    6f06:	b085           	cmpl %d5,%d0
    6f08:	6700 00a0      	beqw 6faa <_dtoa_r+0x1288>
    6f0c:	7801           	moveq #1,%d4
    6f0e:	2d6e 0008 ff90 	movel %fp@(8),%fp@(-112)
    6f14:	4bf9 0000 f504 	lea f504 <__divdf3>,%a5
    6f1a:	42a7           	clrl %sp@-
    6f1c:	2f3c 4024 0000 	movel #1076101120,%sp@-
    6f22:	2f09           	movel %a1,%sp@-
    6f24:	2f08           	movel %a0,%sp@-
    6f26:	4e93           	jsr %a3@
    6f28:	4fef 0010      	lea %sp@(16),%sp
    6f2c:	2400           	movel %d0,%d2
    6f2e:	2601           	movel %d1,%d3
    6f30:	42a7           	clrl %sp@-
    6f32:	42a7           	clrl %sp@-
    6f34:	2f01           	movel %d1,%sp@-
    6f36:	2f02           	movel %d2,%sp@-
    6f38:	4eb9 0000 f99c 	jsr f99c <__eqdf2>
    6f3e:	4fef 0010      	lea %sp@(16),%sp
    6f42:	4a80           	tstl %d0
    6f44:	6700 0354      	beqw 729a <_dtoa_r+0x1578>
    6f48:	5284           	addql #1,%d4
    6f4a:	2f2e ff8c      	movel %fp@(-116),%sp@-
    6f4e:	2f2e ff88      	movel %fp@(-120),%sp@-
    6f52:	2f03           	movel %d3,%sp@-
    6f54:	2f02           	movel %d2,%sp@-
    6f56:	4e95           	jsr %a5@
    6f58:	4fef 000c      	lea %sp@(12),%sp
    6f5c:	2e81           	movel %d1,%sp@
    6f5e:	2f00           	movel %d0,%sp@-
    6f60:	4eb9 0000 fe56 	jsr fe56 <__fixdfsi>
    6f66:	508f           	addql #8,%sp
    6f68:	2c00           	movel %d0,%d6
    6f6a:	2f00           	movel %d0,%sp@-
    6f6c:	4eb9 0000 fc0c 	jsr fc0c <__floatsidf>
    6f72:	2eae ff8c      	movel %fp@(-116),%sp@
    6f76:	2f2e ff88      	movel %fp@(-120),%sp@-
    6f7a:	2f01           	movel %d1,%sp@-
    6f7c:	2f00           	movel %d0,%sp@-
    6f7e:	4e93           	jsr %a3@
    6f80:	4fef 000c      	lea %sp@(12),%sp
    6f84:	2e81           	movel %d1,%sp@
    6f86:	2f00           	movel %d0,%sp@-
    6f88:	2f03           	movel %d3,%sp@-
    6f8a:	2f02           	movel %d2,%sp@-
    6f8c:	4e94           	jsr %a4@
    6f8e:	4fef 0010      	lea %sp@(16),%sp
    6f92:	2040           	moveal %d0,%a0
    6f94:	2241           	moveal %d1,%a1
    6f96:	1206           	moveb %d6,%d1
    6f98:	0601 0030      	addib #48,%d1
    6f9c:	14c1           	moveb %d1,%a2@+
    6f9e:	ba84           	cmpl %d4,%d5
    6fa0:	6600 ff78      	bnew 6f1a <_dtoa_r+0x11f8>
    6fa4:	2d6e ff90 0008 	movel %fp@(-112),%fp@(8)
    6faa:	2f09           	movel %a1,%sp@-
    6fac:	2f08           	movel %a0,%sp@-
    6fae:	2f09           	movel %a1,%sp@-
    6fb0:	2f08           	movel %a0,%sp@-
    6fb2:	4eb9 0000 efc0 	jsr efc0 <__adddf3>
    6fb8:	4fef 0010      	lea %sp@(16),%sp
    6fbc:	2800           	movel %d0,%d4
    6fbe:	2a01           	movel %d1,%d5
    6fc0:	262e ffb4      	movel %fp@(-76),%d3
    6fc4:	5283           	addql #1,%d3
    6fc6:	2403           	movel %d3,%d2
    6fc8:	2f01           	movel %d1,%sp@-
    6fca:	2f04           	movel %d4,%sp@-
    6fcc:	2f2e ff8c      	movel %fp@(-116),%sp@-
    6fd0:	2f2e ff88      	movel %fp@(-120),%sp@-
    6fd4:	4eb9 0000 fa08 	jsr fa08 <__ltdf2>
    6fda:	4fef 0010      	lea %sp@(16),%sp
    6fde:	4a80           	tstl %d0
    6fe0:	6d20           	blts 7002 <_dtoa_r+0x12e0>
    6fe2:	2f05           	movel %d5,%sp@-
    6fe4:	2f04           	movel %d4,%sp@-
    6fe6:	2f2e ff8c      	movel %fp@(-116),%sp@-
    6fea:	2f2e ff88      	movel %fp@(-120),%sp@-
    6fee:	4eb9 0000 f99c 	jsr f99c <__eqdf2>
    6ff4:	4fef 0010      	lea %sp@(16),%sp
    6ff8:	4a80           	tstl %d0
    6ffa:	663a           	bnes 7036 <_dtoa_r+0x1314>
    6ffc:	0806 0000      	btst #0,%d6
    7000:	6734           	beqs 7036 <_dtoa_r+0x1314>
    7002:	222e ff98      	movel %fp@(-104),%d1
    7006:	2d6e 0008 ff88 	movel %fp@(8),%fp@(-120)
    700c:	2a4a           	moveal %a2,%a5
    700e:	1022           	moveb %a2@-,%d0
    7010:	0c00 0039      	cmpib #57,%d0
    7014:	6600 04dc      	bnew 74f2 <_dtoa_r+0x17d0>
    7018:	b5c1           	cmpal %d1,%a2
    701a:	66f0           	bnes 700c <_dtoa_r+0x12ea>
    701c:	2d6e ff88 0008 	movel %fp@(-120),%fp@(8)
    7022:	7031           	moveq #49,%d0
    7024:	5282           	addql #1,%d2
    7026:	1480           	moveb %d0,%a2@
    7028:	2602           	movel %d2,%d3
    702a:	2d7c 0000 7b48 	movel #31560,%fp@(-112)
    7030:	ff90 
    7032:	6000 f2c2      	braw 62f6 <_dtoa_r+0x5d4>
    7036:	2a4a           	moveal %a2,%a5
    7038:	2d7c 0000 7b48 	movel #31560,%fp@(-112)
    703e:	ff90 
    7040:	6000 f2b4      	braw 62f6 <_dtoa_r+0x5d4>
    7044:	5981           	subql #4,%d1
    7046:	6700 f7fc      	beqw 6844 <_dtoa_r+0xb22>
    704a:	723c           	moveq #60,%d1
    704c:	9280           	subl %d0,%d1
    704e:	d3ae ffa4      	addl %d1,%fp@(-92)
    7052:	d481           	addl %d1,%d2
    7054:	d3ae ff90      	addl %d1,%fp@(-112)
    7058:	6000 f8d0      	braw 692a <_dtoa_r+0xc08>
    705c:	2d6e ff88 0008 	movel %fp@(-120),%fp@(8)
    7062:	5200           	addqb #1,%d0
    7064:	1880           	moveb %d0,%a4@
    7066:	6000 fc00      	braw 6c68 <_dtoa_r+0xf46>
    706a:	7401           	moveq #1,%d2
    706c:	42ae ffb8      	clrl %fp@(-72)
    7070:	202e 0018      	movel %fp@(24),%d0
    7074:	d0ae ffb4      	addl %fp@(-76),%d0
    7078:	2d40 ffd4      	movel %d0,%fp@(-44)
    707c:	2a00           	movel %d0,%d5
    707e:	5285           	addql #1,%d5
    7080:	2605           	movel %d5,%d3
    7082:	6e00 ef3a      	bgtw 5fbe <_dtoa_r+0x29c>
    7086:	6000 f51a      	braw 65a2 <_dtoa_r+0x880>
    708a:	4aae ffd8      	tstl %fp@(-40)
    708e:	6700 0302      	beqw 7392 <_dtoa_r+0x1670>
    7092:	0680 0000 0433 	addil #1075,%d0
    7098:	d1ae ff90      	addl %d0,%fp@(-112)
    709c:	2c2e ffc0      	movel %fp@(-64),%d6
    70a0:	242e ffa4      	movel %fp@(-92),%d2
    70a4:	d1ae ffa4      	addl %d0,%fp@(-92)
    70a8:	4878 0001      	pea 1 <ADD>
    70ac:	2f2e 0008      	movel %fp@(8),%sp@-
    70b0:	47f9 0000 7e28 	lea 7e28 <__i2b>,%a3
    70b6:	4e93           	jsr %a3@
    70b8:	2440           	moveal %d0,%a2
    70ba:	508f           	addql #8,%sp
    70bc:	6000 f6f4      	braw 67b2 <_dtoa_r+0xa90>
    70c0:	2f0a           	movel %a2,%sp@-
    70c2:	4eb9 0000 fc0c 	jsr fc0c <__floatsidf>
    70c8:	2eae ffc8      	movel %fp@(-56),%sp@
    70cc:	2f2e ffc4      	movel %fp@(-60),%sp@-
    70d0:	2f01           	movel %d1,%sp@-
    70d2:	2f00           	movel %d0,%sp@-
    70d4:	4e93           	jsr %a3@
    70d6:	4fef 000c      	lea %sp@(12),%sp
    70da:	4297           	clrl %sp@
    70dc:	2f3c 401c 0000 	movel #1075576832,%sp@-
    70e2:	2f01           	movel %d1,%sp@-
    70e4:	2f00           	movel %d0,%sp@-
    70e6:	4eb9 0000 efc0 	jsr efc0 <__adddf3>
    70ec:	4fef 0010      	lea %sp@(16),%sp
    70f0:	2401           	movel %d1,%d2
    70f2:	2600           	movel %d0,%d3
    70f4:	0683 fcc0 0000 	addil #-54525952,%d3
    70fa:	42a7           	clrl %sp@-
    70fc:	2f3c 4014 0000 	movel #1075052544,%sp@-
    7102:	2f2e ffc8      	movel %fp@(-56),%sp@-
    7106:	2f2e ffc4      	movel %fp@(-60),%sp@-
    710a:	4e94           	jsr %a4@
    710c:	4fef 0010      	lea %sp@(16),%sp
    7110:	2040           	moveal %d0,%a0
    7112:	2d43 ffc4      	movel %d3,%fp@(-60)
    7116:	2d42 ffc8      	movel %d2,%fp@(-56)
    711a:	2f2e ffc8      	movel %fp@(-56),%sp@-
    711e:	2f2e ffc4      	movel %fp@(-60),%sp@-
    7122:	2f01           	movel %d1,%sp@-
    7124:	2f08           	movel %a0,%sp@-
    7126:	2d48 ff80      	movel %a0,%fp@(-128)
    712a:	2d41 ff84      	movel %d1,%fp@(-124)
    712e:	4eb9 0000 f9e4 	jsr f9e4 <__gtdf2>
    7134:	4fef 0010      	lea %sp@(16),%sp
    7138:	206e ff80      	moveal %fp@(-128),%a0
    713c:	226e ff84      	moveal %fp@(-124),%a1
    7140:	4a80           	tstl %d0
    7142:	6e00 f5f2      	bgtw 6736 <_dtoa_r+0xa14>
    7146:	2003           	movel %d3,%d0
    7148:	0680 8000 0000 	addil #-2147483648,%d0
    714e:	2f02           	movel %d2,%sp@-
    7150:	2f00           	movel %d0,%sp@-
    7152:	2f09           	movel %a1,%sp@-
    7154:	2f08           	movel %a0,%sp@-
    7156:	4eb9 0000 fa08 	jsr fa08 <__ltdf2>
    715c:	4fef 0010      	lea %sp@(16),%sp
    7160:	4a80           	tstl %d0
    7162:	6c00 f4a4      	bgew 6608 <_dtoa_r+0x8e6>
    7166:	2a6e ff98      	moveal %fp@(-104),%a5
    716a:	7c00           	moveq #0,%d6
    716c:	95ca           	subal %a2,%a2
    716e:	6000 f50c      	braw 667c <_dtoa_r+0x95a>
    7172:	7001           	moveq #1,%d0
    7174:	286e ff98      	moveal %fp@(-104),%a4
    7178:	d9c0           	addal %d0,%a4
    717a:	7a00           	moveq #0,%d5
    717c:	2d7c 0000 7b48 	movel #31560,%fp@(-112)
    7182:	ff90 
    7184:	6000 fc1a      	braw 6da0 <_dtoa_r+0x107e>
    7188:	7601           	moveq #1,%d3
    718a:	9686           	subl %d6,%d3
    718c:	2d43 ffa4      	movel %d3,%fp@(-92)
    7190:	42ae ff90      	clrl %fp@(-112)
    7194:	42ae ffd0      	clrl %fp@(-48)
    7198:	d9ae ff90      	addl %d4,%fp@(-112)
    719c:	2d44 ffb4      	movel %d4,%fp@(-76)
    71a0:	42ae ffc0      	clrl %fp@(-64)
    71a4:	6000 f318      	braw 64be <_dtoa_r+0x79c>
    71a8:	4aae ffb4      	tstl %fp@(-76)
    71ac:	6700 0330      	beqw 74de <_dtoa_r+0x17bc>
    71b0:	242e ffb4      	movel %fp@(-76),%d2
    71b4:	4482           	negl %d2
    71b6:	700f           	moveq #15,%d0
    71b8:	c082           	andl %d2,%d0
    71ba:	e788           	lsll #3,%d0
    71bc:	41f9 0001 0a50 	lea 10a50 <__mprec_tens>,%a0
    71c2:	2f30 0804      	movel %a0@(4,%d0:l),%sp@-
    71c6:	2f30 0800      	movel %a0@(0,%d0:l),%sp@-
    71ca:	2f2e ffb0      	movel %fp@(-80),%sp@-
    71ce:	2f2e ffac      	movel %fp@(-84),%sp@-
    71d2:	4e93           	jsr %a3@
    71d4:	4fef 0010      	lea %sp@(16),%sp
    71d8:	2600           	movel %d0,%d3
    71da:	2c01           	movel %d1,%d6
    71dc:	e882           	asrl #4,%d2
    71de:	6700 0414      	beqw 75f4 <_dtoa_r+0x18d2>
    71e2:	4bf9 0001 0a28 	lea 10a28 <__mprec_bigtens>,%a5
    71e8:	2003           	movel %d3,%d0
    71ea:	2d40 ffc4      	movel %d0,%fp@(-60)
    71ee:	2d41 ffc8      	movel %d1,%fp@(-56)
    71f2:	4200           	clrb %d0
    71f4:	347c 0002      	moveaw #2,%a2
    71f8:	206e ffc4      	moveal %fp@(-60),%a0
    71fc:	226e ffc8      	moveal %fp@(-56),%a1
    7200:	2d6e 0008 ff88 	movel %fp@(8),%fp@(-120)
    7206:	0802 0000      	btst #0,%d2
    720a:	6718           	beqs 7224 <_dtoa_r+0x1502>
    720c:	528a           	addql #1,%a2
    720e:	2f2d 0004      	movel %a5@(4),%sp@-
    7212:	2f15           	movel %a5@,%sp@-
    7214:	2f09           	movel %a1,%sp@-
    7216:	2f08           	movel %a0,%sp@-
    7218:	4e93           	jsr %a3@
    721a:	4fef 0010      	lea %sp@(16),%sp
    721e:	2040           	moveal %d0,%a0
    7220:	2241           	moveal %d1,%a1
    7222:	7001           	moveq #1,%d0
    7224:	e282           	asrl #1,%d2
    7226:	508d           	addql #8,%a5
    7228:	66dc           	bnes 7206 <_dtoa_r+0x14e4>
    722a:	2d48 ffc4      	movel %a0,%fp@(-60)
    722e:	2d49 ffc8      	movel %a1,%fp@(-56)
    7232:	2d6e ff88 0008 	movel %fp@(-120),%fp@(8)
    7238:	4a00           	tstb %d0
    723a:	6600 eeae      	bnew 60ea <_dtoa_r+0x3c8>
    723e:	2003           	movel %d3,%d0
    7240:	2206           	movel %d6,%d1
    7242:	2d40 ffc4      	movel %d0,%fp@(-60)
    7246:	2d41 ffc8      	movel %d1,%fp@(-56)
    724a:	6000 ee9e      	braw 60ea <_dtoa_r+0x3c8>
    724e:	2f2e ffc0      	movel %fp@(-64),%sp@-
    7252:	2f07           	movel %d7,%sp@-
    7254:	2f2e 0008      	movel %fp@(8),%sp@-
    7258:	4eb9 0000 80d6 	jsr 80d6 <__pow5mult>
    725e:	2e00           	movel %d0,%d7
    7260:	4fef 000c      	lea %sp@(12),%sp
    7264:	6000 f598      	braw 67fe <_dtoa_r+0xadc>
    7268:	2200           	movel %d0,%d1
    726a:	92ae ffc0      	subl %fp@(-64),%d1
    726e:	d881           	addl %d1,%d4
    7270:	dbae ff90      	addl %d5,%fp@(-112)
    7274:	242e ffa4      	movel %fp@(-92),%d2
    7278:	dbae ffa4      	addl %d5,%fp@(-92)
    727c:	2d40 ffc0      	movel %d0,%fp@(-64)
    7280:	7c00           	moveq #0,%d6
    7282:	4878 0001      	pea 1 <ADD>
    7286:	2f2e 0008      	movel %fp@(8),%sp@-
    728a:	47f9 0000 7e28 	lea 7e28 <__i2b>,%a3
    7290:	4e93           	jsr %a3@
    7292:	2440           	moveal %d0,%a2
    7294:	508f           	addql #8,%sp
    7296:	6000 f51a      	braw 67b2 <_dtoa_r+0xa90>
    729a:	2d6e ff90 0008 	movel %fp@(-112),%fp@(8)
    72a0:	262e ffb4      	movel %fp@(-76),%d3
    72a4:	5283           	addql #1,%d3
    72a6:	2a4a           	moveal %a2,%a5
    72a8:	2d7c 0000 7b48 	movel #31560,%fp@(-112)
    72ae:	ff90 
    72b0:	6000 f044      	braw 62f6 <_dtoa_r+0x5d4>
    72b4:	2f2a 0004      	movel %a2@(4),%sp@-
    72b8:	2f2e 0008      	movel %fp@(8),%sp@-
    72bc:	206e ffcc      	moveal %fp@(-52),%a0
    72c0:	4e90           	jsr %a0@
    72c2:	2640           	moveal %d0,%a3
    72c4:	508f           	addql #8,%sp
    72c6:	4a80           	tstl %d0
    72c8:	6700 0372      	beqw 763c <_dtoa_r+0x191a>
    72cc:	222a 0010      	movel %a2@(16),%d1
    72d0:	5481           	addql #2,%d1
    72d2:	d281           	addl %d1,%d1
    72d4:	d281           	addl %d1,%d1
    72d6:	2f01           	movel %d1,%sp@-
    72d8:	486a 000c      	pea %a2@(12)
    72dc:	486b 000c      	pea %a3@(12)
    72e0:	4eb9 0000 5b10 	jsr 5b10 <memcpy>
    72e6:	4878 0001      	pea 1 <ADD>
    72ea:	2f0b           	movel %a3,%sp@-
    72ec:	2f2e 0008      	movel %fp@(8),%sp@-
    72f0:	4eb9 0000 81d2 	jsr 81d2 <__lshift>
    72f6:	2800           	movel %d0,%d4
    72f8:	4fef 0018      	lea %sp@(24),%sp
    72fc:	242e ff98      	movel %fp@(-104),%d2
    7300:	2242           	moveal %d2,%a1
    7302:	43f1 58ff      	lea %a1@(ffffffffffffffff,%d5:l),%a1
    7306:	2d49 ffa4      	movel %a1,%fp@(-92)
    730a:	2d7c 0000 7b48 	movel #31560,%fp@(-112)
    7310:	ff90 
    7312:	2d7c 0000 82e4 	movel #33508,%fp@(-108)
    7318:	ff94 
    731a:	2d7c 0000 5b80 	movel #23424,%fp@(-96)
    7320:	ffa0 
    7322:	7201           	moveq #1,%d1
    7324:	c2ae ffa8      	andl %fp@(-88),%d1
    7328:	2d41 ffa8      	movel %d1,%fp@(-88)
    732c:	4bf9 0000 7b6c 	lea 7b6c <__multadd>,%a5
    7332:	2d6e 0008 ff88 	movel %fp@(8),%fp@(-120)
    7338:	6000 f7c8      	braw 6b02 <_dtoa_r+0xde0>
    733c:	2d6e ffac ffdc 	movel %fp@(-84),%fp@(-36)
    7342:	2d6e ffb0 ffe0 	movel %fp@(-80),%fp@(-32)
    7348:	347c 0002      	moveaw #2,%a2
    734c:	2d7c 0000 f504 	movel #62724,%fp@(-60)
    7352:	ffc4 
    7354:	6000 ed3a      	braw 6090 <_dtoa_r+0x36e>
    7358:	2d6e ff88 0008 	movel %fp@(-120),%fp@(8)
    735e:	262e ffb4      	movel %fp@(-76),%d3
    7362:	5283           	addql #1,%d3
    7364:	2a0a           	movel %a2,%d5
    7366:	2444           	moveal %d4,%a2
    7368:	4878 0001      	pea 1 <ADD>
    736c:	2f07           	movel %d7,%sp@-
    736e:	2f2e 0008      	movel %fp@(8),%sp@-
    7372:	4eb9 0000 81d2 	jsr 81d2 <__lshift>
    7378:	2e00           	movel %d0,%d7
    737a:	2f06           	movel %d6,%sp@-
    737c:	2f00           	movel %d0,%sp@-
    737e:	206e ff94      	moveal %fp@(-108),%a0
    7382:	4e90           	jsr %a0@
    7384:	4fef 0014      	lea %sp@(20),%sp
    7388:	4a80           	tstl %d0
    738a:	6e00 fa38      	bgtw 6dc4 <_dtoa_r+0x10a2>
    738e:	6000 fa62      	braw 6df2 <_dtoa_r+0x10d0>
    7392:	7036           	moveq #54,%d0
    7394:	90ae fff8      	subl %fp@(-8),%d0
    7398:	d1ae ff90      	addl %d0,%fp@(-112)
    739c:	2c2e ffc0      	movel %fp@(-64),%d6
    73a0:	242e ffa4      	movel %fp@(-92),%d2
    73a4:	d1ae ffa4      	addl %d0,%fp@(-92)
    73a8:	4878 0001      	pea 1 <ADD>
    73ac:	2f2e 0008      	movel %fp@(8),%sp@-
    73b0:	47f9 0000 7e28 	lea 7e28 <__i2b>,%a3
    73b6:	4e93           	jsr %a3@
    73b8:	2440           	moveal %d0,%a2
    73ba:	508f           	addql #8,%sp
    73bc:	6000 f3f4      	braw 67b2 <_dtoa_r+0xa90>
    73c0:	2f2e fff0      	movel %fp@(-16),%sp@-
    73c4:	2f2e ffec      	movel %fp@(-20),%sp@-
    73c8:	2f2e ffe0      	movel %fp@(-32),%sp@-
    73cc:	2f2e ffdc      	movel %fp@(-36),%sp@-
    73d0:	4e93           	jsr %a3@
    73d2:	4fef 0010      	lea %sp@(16),%sp
    73d6:	2040           	moveal %d0,%a0
    73d8:	2241           	moveal %d1,%a1
    73da:	2d48 ffb8      	movel %a0,%fp@(-72)
    73de:	2d49 ffbc      	movel %a1,%fp@(-68)
    73e2:	206e ff98      	moveal %fp@(-104),%a0
    73e6:	1086           	moveb %d6,%a0@
    73e8:	2448           	moveal %a0,%a2
    73ea:	d5ee ffe8      	addal %fp@(-24),%a2
    73ee:	7001           	moveq #1,%d0
    73f0:	b0ae ffe8      	cmpl %fp@(-24),%d0
    73f4:	6700 01f6      	beqw 75ec <_dtoa_r+0x18ca>
    73f8:	2c04           	movel %d4,%d6
    73fa:	2d6e 0008 ff88 	movel %fp@(8),%fp@(-120)
    7400:	42a7           	clrl %sp@-
    7402:	2f3c 4024 0000 	movel #1076101120,%sp@-
    7408:	2f03           	movel %d3,%sp@-
    740a:	2f02           	movel %d2,%sp@-
    740c:	4e93           	jsr %a3@
    740e:	4fef 0010      	lea %sp@(16),%sp
    7412:	2400           	movel %d0,%d2
    7414:	2601           	movel %d1,%d3
    7416:	2f01           	movel %d1,%sp@-
    7418:	2f02           	movel %d2,%sp@-
    741a:	4eb9 0000 fe56 	jsr fe56 <__fixdfsi>
    7420:	508f           	addql #8,%sp
    7422:	2800           	movel %d0,%d4
    7424:	2f00           	movel %d0,%sp@-
    7426:	4eb9 0000 fc0c 	jsr fc0c <__floatsidf>
    742c:	2e81           	movel %d1,%sp@
    742e:	2f00           	movel %d0,%sp@-
    7430:	2f03           	movel %d3,%sp@-
    7432:	2f02           	movel %d2,%sp@-
    7434:	4e94           	jsr %a4@
    7436:	4fef 0010      	lea %sp@(16),%sp
    743a:	2400           	movel %d0,%d2
    743c:	2601           	movel %d1,%d3
    743e:	0604 0030      	addib #48,%d4
    7442:	1ac4           	moveb %d4,%a5@+
    7444:	bbca           	cmpal %a2,%a5
    7446:	66b8           	bnes 7400 <_dtoa_r+0x16de>
    7448:	2806           	movel %d6,%d4
    744a:	2d6e ff88 0008 	movel %fp@(-120),%fp@(8)
    7450:	42a7           	clrl %sp@-
    7452:	2f3c 3fe0 0000 	movel #1071644672,%sp@-
    7458:	2f2e ffbc      	movel %fp@(-68),%sp@-
    745c:	2f2e ffb8      	movel %fp@(-72),%sp@-
    7460:	4eb9 0000 efc0 	jsr efc0 <__adddf3>
    7466:	4fef 000c      	lea %sp@(12),%sp
    746a:	2e83           	movel %d3,%sp@
    746c:	2f02           	movel %d2,%sp@-
    746e:	2f01           	movel %d1,%sp@-
    7470:	2f00           	movel %d0,%sp@-
    7472:	4eb9 0000 fa08 	jsr fa08 <__ltdf2>
    7478:	4fef 0010      	lea %sp@(16),%sp
    747c:	4a80           	tstl %d0
    747e:	6d00 00f6      	bltw 7576 <_dtoa_r+0x1854>
    7482:	2f2e ffbc      	movel %fp@(-68),%sp@-
    7486:	2f2e ffb8      	movel %fp@(-72),%sp@-
    748a:	42a7           	clrl %sp@-
    748c:	2f3c 3fe0 0000 	movel #1071644672,%sp@-
    7492:	4e94           	jsr %a4@
    7494:	4fef 000c      	lea %sp@(12),%sp
    7498:	2e83           	movel %d3,%sp@
    749a:	2f02           	movel %d2,%sp@-
    749c:	2f01           	movel %d1,%sp@-
    749e:	2f00           	movel %d0,%sp@-
    74a0:	4eb9 0000 f9e4 	jsr f9e4 <__gtdf2>
    74a6:	4fef 0010      	lea %sp@(16),%sp
    74aa:	4a80           	tstl %d0
    74ac:	6e00 0122      	bgtw 75d0 <_dtoa_r+0x18ae>
    74b0:	4aae fffc      	tstl %fp@(-4)
    74b4:	6d00 f40e      	bltw 68c4 <_dtoa_r+0xba2>
    74b8:	720e           	moveq #14,%d1
    74ba:	b2ae ffb4      	cmpl %fp@(-76),%d1
    74be:	6d00 f404      	bltw 68c4 <_dtoa_r+0xba2>
    74c2:	202e ffb4      	movel %fp@(-76),%d0
    74c6:	e788           	lsll #3,%d0
    74c8:	41f9 0001 0a50 	lea 10a50 <__mprec_tens>,%a0
    74ce:	2d70 0800 ff88 	movel %a0@(0,%d0:l),%fp@(-120)
    74d4:	2d70 0804 ff8c 	movel %a0@(4,%d0:l),%fp@(-116)
    74da:	6000 f9b6      	braw 6e92 <_dtoa_r+0x1170>
    74de:	2d6e ffac ffc4 	movel %fp@(-84),%fp@(-60)
    74e4:	2d6e ffb0 ffc8 	movel %fp@(-80),%fp@(-56)
    74ea:	347c 0002      	moveaw #2,%a2
    74ee:	6000 ebfa      	braw 60ea <_dtoa_r+0x3c8>
    74f2:	2d6e ff88 0008 	movel %fp@(-120),%fp@(8)
    74f8:	5200           	addqb #1,%d0
    74fa:	1480           	moveb %d0,%a2@
    74fc:	2602           	movel %d2,%d3
    74fe:	2d7c 0000 7b48 	movel #31560,%fp@(-112)
    7504:	ff90 
    7506:	6000 edee      	braw 62f6 <_dtoa_r+0x5d4>
    750a:	2842           	moveal %d2,%a4
    750c:	18fc 0039      	moveb #57,%a4@+
    7510:	262e ffb4      	movel %fp@(-76),%d3
    7514:	5283           	addql #1,%d3
    7516:	2a0a           	movel %a2,%d5
    7518:	2444           	moveal %d4,%a2
    751a:	222e ff98      	movel %fp@(-104),%d1
    751e:	2d6e 0008 ff88 	movel %fp@(8),%fp@(-120)
    7524:	6000 f8a8      	braw 6dce <_dtoa_r+0x10ac>
    7528:	7000           	moveq #0,%d0
    752a:	6000 f3da      	braw 6906 <_dtoa_r+0xbe4>
    752e:	2800           	movel %d0,%d4
    7530:	2046           	moveal %d6,%a0
    7532:	2028 0010      	movel %a0@(16),%d0
    7536:	5880           	addql #4,%d0
    7538:	d080           	addl %d0,%d0
    753a:	d080           	addl %d0,%d0
    753c:	2240           	moveal %d0,%a1
    753e:	2f31 6800      	movel %a1@(0,%d6:l),%sp@-
    7542:	4eb9 0000 7d4c 	jsr 7d4c <__hi0bits>
    7548:	7220           	moveq #32,%d1
    754a:	9280           	subl %d0,%d1
    754c:	588f           	addql #4,%sp
    754e:	6000 f2cc      	braw 681c <_dtoa_r+0xafa>
    7552:	dbae ff90      	addl %d5,%fp@(-112)
    7556:	242e ffa4      	movel %fp@(-92),%d2
    755a:	dbae ffa4      	addl %d5,%fp@(-92)
    755e:	4878 0001      	pea 1 <ADD>
    7562:	2f2e 0008      	movel %fp@(8),%sp@-
    7566:	47f9 0000 7e28 	lea 7e28 <__i2b>,%a3
    756c:	4e93           	jsr %a3@
    756e:	2440           	moveal %d0,%a2
    7570:	508f           	addql #8,%sp
    7572:	6000 f23e      	braw 67b2 <_dtoa_r+0xa90>
    7576:	242e fff4      	movel %fp@(-12),%d2
    757a:	5282           	addql #1,%d2
    757c:	222e ff98      	movel %fp@(-104),%d1
    7580:	2d6e 0008 ff88 	movel %fp@(8),%fp@(-120)
    7586:	6000 fa84      	braw 700c <_dtoa_r+0x12ea>
    758a:	2e2e ffc4      	movel %fp@(-60),%d7
    758e:	2d6e ff88 0008 	movel %fp@(-120),%fp@(8)
    7594:	244d           	moveal %a5,%a2
    7596:	242e fff4      	movel %fp@(-12),%d2
    759a:	5282           	addql #1,%d2
    759c:	222e ff98      	movel %fp@(-104),%d1
    75a0:	6000 fa6a      	braw 700c <_dtoa_r+0x12ea>
    75a4:	282e ffdc      	movel %fp@(-36),%d4
    75a8:	2e2e ffc4      	movel %fp@(-60),%d7
    75ac:	2a2e ffe4      	movel %fp@(-28),%d5
    75b0:	2d6e ff88 0008 	movel %fp@(-120),%fp@(8)
    75b6:	6000 f050      	braw 6608 <_dtoa_r+0x8e6>
    75ba:	7202           	moveq #2,%d1
    75bc:	b2ae 0014      	cmpl %fp@(20),%d1
    75c0:	6c00 f4ee      	bgew 6ab0 <_dtoa_r+0xd8e>
    75c4:	2a2e ffd4      	movel %fp@(-44),%d5
    75c8:	2d43 ffb4      	movel %d3,%fp@(-76)
    75cc:	6000 f3b0      	braw 697e <_dtoa_r+0xc5c>
    75d0:	2d6e 0008 ff88 	movel %fp@(8),%fp@(-120)
    75d6:	2a4a           	moveal %a2,%a5
    75d8:	0c22 0030      	cmpib #48,%a2@-
    75dc:	6600 ed04      	bnew 62e2 <_dtoa_r+0x5c0>
    75e0:	2a4a           	moveal %a2,%a5
    75e2:	0c22 0030      	cmpib #48,%a2@-
    75e6:	67ee           	beqs 75d6 <_dtoa_r+0x18b4>
    75e8:	6000 ecf8      	braw 62e2 <_dtoa_r+0x5c0>
    75ec:	246e ffe4      	moveal %fp@(-28),%a2
    75f0:	6000 fe5e      	braw 7450 <_dtoa_r+0x172e>
    75f4:	2003           	movel %d3,%d0
    75f6:	2d40 ffc4      	movel %d0,%fp@(-60)
    75fa:	2d41 ffc8      	movel %d1,%fp@(-56)
    75fe:	347c 0002      	moveaw #2,%a2
    7602:	6000 eae6      	braw 60ea <_dtoa_r+0x3c8>
    7606:	2d6e ff88 0008 	movel %fp@(-120),%fp@(8)
    760c:	4a85           	tstl %d5
    760e:	6f00 f648      	blew 6c58 <_dtoa_r+0xf36>
    7612:	4878 0001      	pea 1 <ADD>
    7616:	2f07           	movel %d7,%sp@-
    7618:	2f2e 0008      	movel %fp@(8),%sp@-
    761c:	4eb9 0000 81d2 	jsr 81d2 <__lshift>
    7622:	2e00           	movel %d0,%d7
    7624:	2f06           	movel %d6,%sp@-
    7626:	2f00           	movel %d0,%sp@-
    7628:	206e ff94      	moveal %fp@(-108),%a0
    762c:	4e90           	jsr %a0@
    762e:	4fef 0014      	lea %sp@(20),%sp
    7632:	4a80           	tstl %d0
    7634:	6e00 f616      	bgtw 6c4c <_dtoa_r+0xf2a>
    7638:	6000 f6ca      	braw 6d04 <_dtoa_r+0xfe2>
    763c:	4879 0001 0913 	pea 10913 <_dtors_end+0x97>
    7642:	42a7           	clrl %sp@-
    7644:	4878 02ef      	pea 2ef <DBL_MANT_DIG+0x2ba>
    7648:	4879 0001 0924 	pea 10924 <_dtors_end+0xa8>
    764e:	4eb9 0000 91e4 	jsr 91e4 <__assert_func>
    7654:	4879 0001 0913 	pea 10913 <_dtors_end+0x97>
    765a:	42a7           	clrl %sp@-
    765c:	4878 01af      	pea 1af <DBL_MANT_DIG+0x17a>
    7660:	4879 0001 0924 	pea 10924 <_dtors_end+0xa8>
    7666:	4eb9 0000 91e4 	jsr 91e4 <__assert_func>
    766c:	2d7c 0001 0906 	movel #67846,%fp@(-104)
    7672:	ff98 
    7674:	202e ff98      	movel %fp@(-104),%d0
    7678:	4cee 3cfc ff58 	moveml %fp@(-168),%d2-%d7/%a2-%a5
    767e:	4e5e           	unlk %fp
    7680:	4e75           	rts
    7682:	7401           	moveq #1,%d2
    7684:	42ae ffb8      	clrl %fp@(-72)
    7688:	6000 ef00      	braw 658a <_dtoa_r+0x868>

0000768c <_malloc_trim_r>:
    768c:	48e7 3820      	moveml %d2-%d4/%a2,%sp@-
    7690:	262f 0014      	movel %sp@(20),%d3
    7694:	2f03           	movel %d3,%sp@-
    7696:	4eb9 0000 4e10 	jsr 4e10 <__malloc_lock>
    769c:	2079 0001 2d9c 	moveal 12d9c <__malloc_av_+0x8>,%a0
    76a2:	78fc           	moveq #-4,%d4
    76a4:	c8a8 0004      	andl %a0@(4),%d4
    76a8:	2404           	movel %d4,%d2
    76aa:	0682 0000 0fef 	addil #4079,%d2
    76b0:	94af 001c      	subl %sp@(28),%d2
    76b4:	0242 f000      	andiw #-4096,%d2
    76b8:	0682 ffff f000 	addil #-4096,%d2
    76be:	588f           	addql #4,%sp
    76c0:	0c82 0000 0fff 	cmpil #4095,%d2
    76c6:	6f1a           	bles 76e2 <_malloc_trim_r+0x56>
    76c8:	42a7           	clrl %sp@-
    76ca:	2f03           	movel %d3,%sp@-
    76cc:	45f9 0000 5a9c 	lea 5a9c <_sbrk_r>,%a2
    76d2:	4e92           	jsr %a2@
    76d4:	2239 0001 2d9c 	movel 12d9c <__malloc_av_+0x8>,%d1
    76da:	d284           	addl %d4,%d1
    76dc:	508f           	addql #8,%sp
    76de:	b280           	cmpl %d0,%d1
    76e0:	6712           	beqs 76f4 <_malloc_trim_r+0x68>
    76e2:	2f03           	movel %d3,%sp@-
    76e4:	4eb9 0000 4e12 	jsr 4e12 <__malloc_unlock>
    76ea:	588f           	addql #4,%sp
    76ec:	7000           	moveq #0,%d0
    76ee:	4cdf 041c      	moveml %sp@+,%d2-%d4/%a2
    76f2:	4e75           	rts
    76f4:	2002           	movel %d2,%d0
    76f6:	4480           	negl %d0
    76f8:	2f00           	movel %d0,%sp@-
    76fa:	2f03           	movel %d3,%sp@-
    76fc:	4e92           	jsr %a2@
    76fe:	508f           	addql #8,%sp
    7700:	5280           	addql #1,%d0
    7702:	6728           	beqs 772c <_malloc_trim_r+0xa0>
    7704:	9882           	subl %d2,%d4
    7706:	2079 0001 2d9c 	moveal 12d9c <__malloc_av_+0x8>,%a0
    770c:	7201           	moveq #1,%d1
    770e:	8284           	orl %d4,%d1
    7710:	2141 0004      	movel %d1,%a0@(4)
    7714:	95b9 0001 361c 	subl %d2,1361c <__malloc_current_mallinfo>
    771a:	2f03           	movel %d3,%sp@-
    771c:	4eb9 0000 4e12 	jsr 4e12 <__malloc_unlock>
    7722:	588f           	addql #4,%sp
    7724:	7001           	moveq #1,%d0
    7726:	4cdf 041c      	moveml %sp@+,%d2-%d4/%a2
    772a:	4e75           	rts
    772c:	42a7           	clrl %sp@-
    772e:	2f03           	movel %d3,%sp@-
    7730:	4e92           	jsr %a2@
    7732:	2079 0001 2d9c 	moveal 12d9c <__malloc_av_+0x8>,%a0
    7738:	2200           	movel %d0,%d1
    773a:	9288           	subl %a0,%d1
    773c:	508f           	addql #8,%sp
    773e:	740f           	moveq #15,%d2
    7740:	b481           	cmpl %d1,%d2
    7742:	6c9e           	bges 76e2 <_malloc_trim_r+0x56>
    7744:	90b9 0001 2d8c 	subl 12d8c <__malloc_sbrk_base>,%d0
    774a:	23c0 0001 361c 	movel %d0,1361c <__malloc_current_mallinfo>
    7750:	7001           	moveq #1,%d0
    7752:	8081           	orl %d1,%d0
    7754:	2140 0004      	movel %d0,%a0@(4)
    7758:	2f03           	movel %d3,%sp@-
    775a:	4eb9 0000 4e12 	jsr 4e12 <__malloc_unlock>
    7760:	588f           	addql #4,%sp
    7762:	7000           	moveq #0,%d0
    7764:	6088           	bras 76ee <_malloc_trim_r+0x62>

00007766 <_free_r>:
    7766:	48e7 3030      	moveml %d2-%d3/%a2-%a3,%sp@-
    776a:	242f 0014      	movel %sp@(20),%d2
    776e:	246f 0018      	moveal %sp@(24),%a2
    7772:	b4fc 0000      	cmpaw #0,%a2
    7776:	6700 013a      	beqw 78b2 <_free_r+0x14c>
    777a:	2f02           	movel %d2,%sp@-
    777c:	4eb9 0000 4e10 	jsr 4e10 <__malloc_lock>
    7782:	41ea fff8      	lea %a2@(-8),%a0
    7786:	262a fffc      	movel %a2@(-4),%d3
    778a:	70fe           	moveq #-2,%d0
    778c:	c083           	andl %d3,%d0
    778e:	43f0 0800      	lea %a0@(0,%d0:l),%a1
    7792:	72fc           	moveq #-4,%d1
    7794:	c2a9 0004      	andl %a1@(4),%d1
    7798:	588f           	addql #4,%sp
    779a:	b3f9 0001 2d9c 	cmpal 12d9c <__malloc_av_+0x8>,%a1
    77a0:	6700 0174      	beqw 7916 <_free_r+0x1b0>
    77a4:	2341 0004      	movel %d1,%a1@(4)
    77a8:	47f1 1800      	lea %a1@(0,%d1:l),%a3
    77ac:	0803 0000      	btst #0,%d3
    77b0:	667c           	bnes 782e <_free_r+0xc8>
    77b2:	262a fff8      	movel %a2@(-8),%d3
    77b6:	91c3           	subal %d3,%a0
    77b8:	d083           	addl %d3,%d0
    77ba:	2468 0008      	moveal %a0@(8),%a2
    77be:	7601           	moveq #1,%d3
    77c0:	c6ab 0004      	andl %a3@(4),%d3
    77c4:	b5fc 0001 2d9c 	cmpal #77212,%a2
    77ca:	6700 0118      	beqw 78e4 <_free_r+0x17e>
    77ce:	2668 000c      	moveal %a0@(12),%a3
    77d2:	254b 000c      	movel %a3,%a2@(12)
    77d6:	274a 0008      	movel %a2,%a3@(8)
    77da:	4a83           	tstl %d3
    77dc:	6700 00da      	beqw 78b8 <_free_r+0x152>
    77e0:	7201           	moveq #1,%d1
    77e2:	8280           	orl %d0,%d1
    77e4:	2141 0004      	movel %d1,%a0@(4)
    77e8:	2280           	movel %d0,%a1@
    77ea:	0c80 0000 01ff 	cmpil #511,%d0
    77f0:	6258           	bhis 784a <_free_r+0xe4>
    77f2:	e688           	lsrl #3,%d0
    77f4:	2600           	movel %d0,%d3
    77f6:	e483           	asrl #2,%d3
    77f8:	7201           	moveq #1,%d1
    77fa:	e7a9           	lsll %d3,%d1
    77fc:	83b9 0001 2d98 	orl %d1,12d98 <__malloc_av_+0x4>
    7802:	e788           	lsll #3,%d0
    7804:	2240           	moveal %d0,%a1
    7806:	d3fc 0001 2d9c 	addal #77212,%a1
    780c:	2451           	moveal %a1@,%a2
    780e:	47e9 fff8      	lea %a1@(-8),%a3
    7812:	214b 000c      	movel %a3,%a0@(12)
    7816:	214a 0008      	movel %a2,%a0@(8)
    781a:	2288           	movel %a0,%a1@
    781c:	2548 000c      	movel %a0,%a2@(12)
    7820:	2f42 0014      	movel %d2,%sp@(20)
    7824:	4cdf 0c0c      	moveml %sp@+,%d2-%d3/%a2-%a3
    7828:	4ef9 0000 4e12 	jmp 4e12 <__malloc_unlock>
    782e:	082b 0000 0007 	btst #0,%a3@(7)
    7834:	6700 0082      	beqw 78b8 <_free_r+0x152>
    7838:	7601           	moveq #1,%d3
    783a:	8680           	orl %d0,%d3
    783c:	2543 fffc      	movel %d3,%a2@(-4)
    7840:	2280           	movel %d0,%a1@
    7842:	0c80 0000 01ff 	cmpil #511,%d0
    7848:	63a8           	blss 77f2 <_free_r+0x8c>
    784a:	2200           	movel %d0,%d1
    784c:	7609           	moveq #9,%d3
    784e:	e6a9           	lsrl %d3,%d1
    7850:	7604           	moveq #4,%d3
    7852:	b681           	cmpl %d1,%d3
    7854:	6500 0116      	bcsw 796c <_free_r+0x206>
    7858:	2200           	movel %d0,%d1
    785a:	ec89           	lsrl #6,%d1
    785c:	2241           	moveal %d1,%a1
    785e:	45e9 0038      	lea %a1@(56),%a2
    7862:	43e9 0039      	lea %a1@(57),%a1
    7866:	2209           	movel %a1,%d1
    7868:	e789           	lsll #3,%d1
    786a:	2241           	moveal %d1,%a1
    786c:	d3fc 0001 2d94 	addal #77204,%a1
    7872:	47e9 fff8      	lea %a1@(-8),%a3
    7876:	2251           	moveal %a1@,%a1
    7878:	b3cb           	cmpal %a3,%a1
    787a:	6700 0126      	beqw 79a2 <_free_r+0x23c>
    787e:	72fc           	moveq #-4,%d1
    7880:	c2a9 0004      	andl %a1@(4),%d1
    7884:	b081           	cmpl %d1,%d0
    7886:	6408           	bccs 7890 <_free_r+0x12a>
    7888:	2269 0008      	moveal %a1@(8),%a1
    788c:	b3cb           	cmpal %a3,%a1
    788e:	66ee           	bnes 787e <_free_r+0x118>
    7890:	2669 000c      	moveal %a1@(12),%a3
    7894:	214b 000c      	movel %a3,%a0@(12)
    7898:	2149 0008      	movel %a1,%a0@(8)
    789c:	2748 0008      	movel %a0,%a3@(8)
    78a0:	2348 000c      	movel %a0,%a1@(12)
    78a4:	2f42 0014      	movel %d2,%sp@(20)
    78a8:	4cdf 0c0c      	moveml %sp@+,%d2-%d3/%a2-%a3
    78ac:	4ef9 0000 4e12 	jmp 4e12 <__malloc_unlock>
    78b2:	4cdf 0c0c      	moveml %sp@+,%d2-%d3/%a2-%a3
    78b6:	4e75           	rts
    78b8:	d081           	addl %d1,%d0
    78ba:	2469 0008      	moveal %a1@(8),%a2
    78be:	b5fc 0001 2d9c 	cmpal #77212,%a2
    78c4:	6700 0120      	beqw 79e6 <_free_r+0x280>
    78c8:	2269 000c      	moveal %a1@(12),%a1
    78cc:	2549 000c      	movel %a1,%a2@(12)
    78d0:	234a 0008      	movel %a2,%a1@(8)
    78d4:	7201           	moveq #1,%d1
    78d6:	8280           	orl %d0,%d1
    78d8:	2141 0004      	movel %d1,%a0@(4)
    78dc:	2180 0800      	movel %d0,%a0@(0,%d0:l)
    78e0:	6000 ff08      	braw 77ea <_free_r+0x84>
    78e4:	4a83           	tstl %d3
    78e6:	6600 01b8      	bnew 7aa0 <_free_r+0x33a>
    78ea:	d280           	addl %d0,%d1
    78ec:	2469 0008      	moveal %a1@(8),%a2
    78f0:	2269 000c      	moveal %a1@(12),%a1
    78f4:	2549 000c      	movel %a1,%a2@(12)
    78f8:	234a 0008      	movel %a2,%a1@(8)
    78fc:	7601           	moveq #1,%d3
    78fe:	8681           	orl %d1,%d3
    7900:	2143 0004      	movel %d3,%a0@(4)
    7904:	2181 1800      	movel %d1,%a0@(0,%d1:l)
    7908:	2f42 0014      	movel %d2,%sp@(20)
    790c:	4cdf 0c0c      	moveml %sp@+,%d2-%d3/%a2-%a3
    7910:	4ef9 0000 4e12 	jmp 4e12 <__malloc_unlock>
    7916:	d280           	addl %d0,%d1
    7918:	0803 0000      	btst #0,%d3
    791c:	6618           	bnes 7936 <_free_r+0x1d0>
    791e:	202a fff8      	movel %a2@(-8),%d0
    7922:	91c0           	subal %d0,%a0
    7924:	d280           	addl %d0,%d1
    7926:	2268 000c      	moveal %a0@(12),%a1
    792a:	2468 0008      	moveal %a0@(8),%a2
    792e:	2549 000c      	movel %a1,%a2@(12)
    7932:	234a 0008      	movel %a2,%a1@(8)
    7936:	7001           	moveq #1,%d0
    7938:	8081           	orl %d1,%d0
    793a:	2140 0004      	movel %d0,%a0@(4)
    793e:	23c8 0001 2d9c 	movel %a0,12d9c <__malloc_av_+0x8>
    7944:	b2b9 0001 2d90 	cmpl 12d90 <__malloc_trim_threshold>,%d1
    794a:	6500 fed4      	bcsw 7820 <_free_r+0xba>
    794e:	2f39 0001 364c 	movel 1364c <__malloc_top_pad>,%sp@-
    7954:	2f02           	movel %d2,%sp@-
    7956:	4eb9 0000 768c 	jsr 768c <_malloc_trim_r>
    795c:	508f           	addql #8,%sp
    795e:	2f42 0014      	movel %d2,%sp@(20)
    7962:	4cdf 0c0c      	moveml %sp@+,%d2-%d3/%a2-%a3
    7966:	4ef9 0000 4e12 	jmp 4e12 <__malloc_unlock>
    796c:	7614           	moveq #20,%d3
    796e:	b681           	cmpl %d1,%d3
    7970:	6452           	bccs 79c4 <_free_r+0x25e>
    7972:	7654           	moveq #84,%d3
    7974:	b681           	cmpl %d1,%d3
    7976:	6500 009c      	bcsw 7a14 <_free_r+0x2ae>
    797a:	2200           	movel %d0,%d1
    797c:	760c           	moveq #12,%d3
    797e:	e6a9           	lsrl %d3,%d1
    7980:	2241           	moveal %d1,%a1
    7982:	45e9 006e      	lea %a1@(110),%a2
    7986:	43e9 006f      	lea %a1@(111),%a1
    798a:	2209           	movel %a1,%d1
    798c:	e789           	lsll #3,%d1
    798e:	2241           	moveal %d1,%a1
    7990:	d3fc 0001 2d94 	addal #77204,%a1
    7996:	47e9 fff8      	lea %a1@(-8),%a3
    799a:	2251           	moveal %a1@,%a1
    799c:	b3cb           	cmpal %a3,%a1
    799e:	6600 fede      	bnew 787e <_free_r+0x118>
    79a2:	200a           	movel %a2,%d0
    79a4:	e480           	asrl #2,%d0
    79a6:	7201           	moveq #1,%d1
    79a8:	e1a9           	lsll %d0,%d1
    79aa:	83b9 0001 2d98 	orl %d1,12d98 <__malloc_av_+0x4>
    79b0:	214b 000c      	movel %a3,%a0@(12)
    79b4:	2149 0008      	movel %a1,%a0@(8)
    79b8:	2748 0008      	movel %a0,%a3@(8)
    79bc:	2348 000c      	movel %a0,%a1@(12)
    79c0:	6000 fee2      	braw 78a4 <_free_r+0x13e>
    79c4:	347c 005b      	moveaw #91,%a2
    79c8:	d5c1           	addal %d1,%a2
    79ca:	765c           	moveq #92,%d3
    79cc:	d283           	addl %d3,%d1
    79ce:	e789           	lsll #3,%d1
    79d0:	2241           	moveal %d1,%a1
    79d2:	d3fc 0001 2d94 	addal #77204,%a1
    79d8:	47e9 fff8      	lea %a1@(-8),%a3
    79dc:	2251           	moveal %a1@,%a1
    79de:	b3cb           	cmpal %a3,%a1
    79e0:	6600 fe9c      	bnew 787e <_free_r+0x118>
    79e4:	60bc           	bras 79a2 <_free_r+0x23c>
    79e6:	23c8 0001 2da8 	movel %a0,12da8 <__malloc_av_+0x14>
    79ec:	23c8 0001 2da4 	movel %a0,12da4 <__malloc_av_+0x10>
    79f2:	214a 000c      	movel %a2,%a0@(12)
    79f6:	214a 0008      	movel %a2,%a0@(8)
    79fa:	7601           	moveq #1,%d3
    79fc:	8680           	orl %d0,%d3
    79fe:	2143 0004      	movel %d3,%a0@(4)
    7a02:	2180 0800      	movel %d0,%a0@(0,%d0:l)
    7a06:	2f42 0014      	movel %d2,%sp@(20)
    7a0a:	4cdf 0c0c      	moveml %sp@+,%d2-%d3/%a2-%a3
    7a0e:	4ef9 0000 4e12 	jmp 4e12 <__malloc_unlock>
    7a14:	0c81 0000 0154 	cmpil #340,%d1
    7a1a:	622c           	bhis 7a48 <_free_r+0x2e2>
    7a1c:	2200           	movel %d0,%d1
    7a1e:	760f           	moveq #15,%d3
    7a20:	e6a9           	lsrl %d3,%d1
    7a22:	2241           	moveal %d1,%a1
    7a24:	45e9 0077      	lea %a1@(119),%a2
    7a28:	43e9 0078      	lea %a1@(120),%a1
    7a2c:	2209           	movel %a1,%d1
    7a2e:	e789           	lsll #3,%d1
    7a30:	2241           	moveal %d1,%a1
    7a32:	d3fc 0001 2d94 	addal #77204,%a1
    7a38:	47e9 fff8      	lea %a1@(-8),%a3
    7a3c:	2251           	moveal %a1@,%a1
    7a3e:	b3cb           	cmpal %a3,%a1
    7a40:	6600 fe3c      	bnew 787e <_free_r+0x118>
    7a44:	6000 ff5c      	braw 79a2 <_free_r+0x23c>
    7a48:	0c81 0000 0554 	cmpil #1364,%d1
    7a4e:	622e           	bhis 7a7e <_free_r+0x318>
    7a50:	2200           	movel %d0,%d1
    7a52:	4241           	clrw %d1
    7a54:	4841           	swap %d1
    7a56:	e449           	lsrw #2,%d1
    7a58:	2241           	moveal %d1,%a1
    7a5a:	45e9 007c      	lea %a1@(124),%a2
    7a5e:	43e9 007d      	lea %a1@(125),%a1
    7a62:	2209           	movel %a1,%d1
    7a64:	e789           	lsll #3,%d1
    7a66:	2241           	moveal %d1,%a1
    7a68:	d3fc 0001 2d94 	addal #77204,%a1
    7a6e:	47e9 fff8      	lea %a1@(-8),%a3
    7a72:	2251           	moveal %a1@,%a1
    7a74:	b3cb           	cmpal %a3,%a1
    7a76:	6600 fe06      	bnew 787e <_free_r+0x118>
    7a7a:	6000 ff26      	braw 79a2 <_free_r+0x23c>
    7a7e:	223c 0000 03f8 	movel #1016,%d1
    7a84:	347c 007e      	moveaw #126,%a2
    7a88:	2241           	moveal %d1,%a1
    7a8a:	d3fc 0001 2d94 	addal #77204,%a1
    7a90:	47e9 fff8      	lea %a1@(-8),%a3
    7a94:	2251           	moveal %a1@,%a1
    7a96:	b3cb           	cmpal %a3,%a1
    7a98:	6600 fde4      	bnew 787e <_free_r+0x118>
    7a9c:	6000 ff04      	braw 79a2 <_free_r+0x23c>
    7aa0:	7201           	moveq #1,%d1
    7aa2:	8280           	orl %d0,%d1
    7aa4:	2141 0004      	movel %d1,%a0@(4)
    7aa8:	2280           	movel %d0,%a1@
    7aaa:	2f42 0014      	movel %d2,%sp@(20)
    7aae:	4cdf 0c0c      	moveml %sp@+,%d2-%d3/%a2-%a3
    7ab2:	4ef9 0000 4e12 	jmp 4e12 <__malloc_unlock>

00007ab8 <_Balloc>:
    7ab8:	48e7 3020      	moveml %d2-%d3/%a2,%sp@-
    7abc:	246f 0010      	moveal %sp@(16),%a2
    7ac0:	242f 0014      	movel %sp@(20),%d2
    7ac4:	202a 0042      	movel %a2@(66),%d0
    7ac8:	6724           	beqs 7aee <_Balloc+0x36>
    7aca:	2202           	movel %d2,%d1
    7acc:	d282           	addl %d2,%d1
    7ace:	d281           	addl %d1,%d1
    7ad0:	2240           	moveal %d0,%a1
    7ad2:	d3c1           	addal %d1,%a1
    7ad4:	2051           	moveal %a1@,%a0
    7ad6:	b0fc 0000      	cmpaw #0,%a0
    7ada:	6736           	beqs 7b12 <_Balloc+0x5a>
    7adc:	2290           	movel %a0@,%a1@
    7ade:	42a8 0010      	clrl %a0@(16)
    7ae2:	42a8 000c      	clrl %a0@(12)
    7ae6:	2008           	movel %a0,%d0
    7ae8:	4cdf 040c      	moveml %sp@+,%d2-%d3/%a2
    7aec:	4e75           	rts
    7aee:	4878 0021      	pea 21 <R_STOPCNTCMD+0x3>
    7af2:	4878 0004      	pea 4 <DUART_CRA>
    7af6:	2f0a           	movel %a2,%sp@-
    7af8:	4eb9 0000 9264 	jsr 9264 <_calloc_r>
    7afe:	2540 0042      	movel %d0,%a2@(66)
    7b02:	4fef 000c      	lea %sp@(12),%sp
    7b06:	66c2           	bnes 7aca <_Balloc+0x12>
    7b08:	91c8           	subal %a0,%a0
    7b0a:	2008           	movel %a0,%d0
    7b0c:	4cdf 040c      	moveml %sp@+,%d2-%d3/%a2
    7b10:	4e75           	rts
    7b12:	7601           	moveq #1,%d3
    7b14:	e5ab           	lsll %d2,%d3
    7b16:	2003           	movel %d3,%d0
    7b18:	5a80           	addql #5,%d0
    7b1a:	d080           	addl %d0,%d0
    7b1c:	d080           	addl %d0,%d0
    7b1e:	2f00           	movel %d0,%sp@-
    7b20:	4878 0001      	pea 1 <ADD>
    7b24:	2f0a           	movel %a2,%sp@-
    7b26:	4eb9 0000 9264 	jsr 9264 <_calloc_r>
    7b2c:	2040           	moveal %d0,%a0
    7b2e:	4fef 000c      	lea %sp@(12),%sp
    7b32:	4a80           	tstl %d0
    7b34:	67d2           	beqs 7b08 <_Balloc+0x50>
    7b36:	2142 0004      	movel %d2,%a0@(4)
    7b3a:	2143 0008      	movel %d3,%a0@(8)
    7b3e:	42a8 0010      	clrl %a0@(16)
    7b42:	42a8 000c      	clrl %a0@(12)
    7b46:	609e           	bras 7ae6 <_Balloc+0x2e>

00007b48 <_Bfree>:
    7b48:	2f0a           	movel %a2,%sp@-
    7b4a:	226f 000c      	moveal %sp@(12),%a1
    7b4e:	b2fc 0000      	cmpaw #0,%a1
    7b52:	6714           	beqs 7b68 <_Bfree+0x20>
    7b54:	2069 0004      	moveal %a1@(4),%a0
    7b58:	d1c8           	addal %a0,%a0
    7b5a:	d1c8           	addal %a0,%a0
    7b5c:	246f 0008      	moveal %sp@(8),%a2
    7b60:	d1ea 0042      	addal %a2@(66),%a0
    7b64:	2290           	movel %a0@,%a1@
    7b66:	2089           	movel %a1,%a0@
    7b68:	245f           	moveal %sp@+,%a2
    7b6a:	4e75           	rts

00007b6c <__multadd>:
    7b6c:	48e7 3f38      	moveml %d2-%d7/%a2-%a4,%sp@-
    7b70:	266f 002c      	moveal %sp@(44),%a3
    7b74:	2a2f 0030      	movel %sp@(48),%d5
    7b78:	2e2f 0034      	movel %sp@(52),%d7
    7b7c:	2c2b 0010      	movel %a3@(16),%d6
    7b80:	49eb 0014      	lea %a3@(20),%a4
    7b84:	7800           	moveq #0,%d4
    7b86:	45f9 0000 ee50 	lea ee50 <__mulsi3>,%a2
    7b8c:	2614           	movel %a4@,%d3
    7b8e:	2f05           	movel %d5,%sp@-
    7b90:	3f03           	movew %d3,%sp@-
    7b92:	4267           	clrw %sp@-
    7b94:	4e92           	jsr %a2@
    7b96:	508f           	addql #8,%sp
    7b98:	2400           	movel %d0,%d2
    7b9a:	d487           	addl %d7,%d2
    7b9c:	4243           	clrw %d3
    7b9e:	4843           	swap %d3
    7ba0:	2f05           	movel %d5,%sp@-
    7ba2:	2f03           	movel %d3,%sp@-
    7ba4:	4e92           	jsr %a2@
    7ba6:	508f           	addql #8,%sp
    7ba8:	2202           	movel %d2,%d1
    7baa:	4241           	clrw %d1
    7bac:	4841           	swap %d1
    7bae:	d081           	addl %d1,%d0
    7bb0:	2e00           	movel %d0,%d7
    7bb2:	4247           	clrw %d7
    7bb4:	4847           	swap %d7
    7bb6:	4840           	swap %d0
    7bb8:	4240           	clrw %d0
    7bba:	0282 0000 ffff 	andil #65535,%d2
    7bc0:	d082           	addl %d2,%d0
    7bc2:	28c0           	movel %d0,%a4@+
    7bc4:	5284           	addql #1,%d4
    7bc6:	b886           	cmpl %d6,%d4
    7bc8:	6dc2           	blts 7b8c <__multadd+0x20>
    7bca:	4a87           	tstl %d7
    7bcc:	6718           	beqs 7be6 <__multadd+0x7a>
    7bce:	bcab 0008      	cmpl %a3@(8),%d6
    7bd2:	6c1a           	bges 7bee <__multadd+0x82>
    7bd4:	2006           	movel %d6,%d0
    7bd6:	5a80           	addql #5,%d0
    7bd8:	d080           	addl %d0,%d0
    7bda:	d080           	addl %d0,%d0
    7bdc:	2787 0800      	movel %d7,%a3@(0,%d0:l)
    7be0:	5286           	addql #1,%d6
    7be2:	2746 0010      	movel %d6,%a3@(16)
    7be6:	200b           	movel %a3,%d0
    7be8:	4cdf 1cfc      	moveml %sp@+,%d2-%d7/%a2-%a4
    7bec:	4e75           	rts
    7bee:	202b 0004      	movel %a3@(4),%d0
    7bf2:	5280           	addql #1,%d0
    7bf4:	2f00           	movel %d0,%sp@-
    7bf6:	2f2f 002c      	movel %sp@(44),%sp@-
    7bfa:	4eb9 0000 7ab8 	jsr 7ab8 <_Balloc>
    7c00:	2440           	moveal %d0,%a2
    7c02:	508f           	addql #8,%sp
    7c04:	4a80           	tstl %d0
    7c06:	6748           	beqs 7c50 <__multadd+0xe4>
    7c08:	222b 0010      	movel %a3@(16),%d1
    7c0c:	5481           	addql #2,%d1
    7c0e:	d281           	addl %d1,%d1
    7c10:	d281           	addl %d1,%d1
    7c12:	2f01           	movel %d1,%sp@-
    7c14:	486b 000c      	pea %a3@(12)
    7c18:	486a 000c      	pea %a2@(12)
    7c1c:	4eb9 0000 5b10 	jsr 5b10 <memcpy>
    7c22:	206b 0004      	moveal %a3@(4),%a0
    7c26:	d1c8           	addal %a0,%a0
    7c28:	d1c8           	addal %a0,%a0
    7c2a:	226f 0034      	moveal %sp@(52),%a1
    7c2e:	d1e9 0042      	addal %a1@(66),%a0
    7c32:	2690           	movel %a0@,%a3@
    7c34:	208b           	movel %a3,%a0@
    7c36:	4fef 000c      	lea %sp@(12),%sp
    7c3a:	264a           	moveal %a2,%a3
    7c3c:	2006           	movel %d6,%d0
    7c3e:	5a80           	addql #5,%d0
    7c40:	d080           	addl %d0,%d0
    7c42:	d080           	addl %d0,%d0
    7c44:	2787 0800      	movel %d7,%a3@(0,%d0:l)
    7c48:	5286           	addql #1,%d6
    7c4a:	2746 0010      	movel %d6,%a3@(16)
    7c4e:	6096           	bras 7be6 <__multadd+0x7a>
    7c50:	4879 0001 0913 	pea 10913 <_dtors_end+0x97>
    7c56:	42a7           	clrl %sp@-
    7c58:	4878 00ba      	pea ba <DBL_MANT_DIG+0x85>
    7c5c:	4879 0001 094c 	pea 1094c <_dtors_end+0xd0>
    7c62:	4eb9 0000 91e4 	jsr 91e4 <__assert_func>

00007c68 <__s2b>:
    7c68:	48e7 303e      	moveml %d2-%d3/%a2-%fp,%sp@-
    7c6c:	242f 0020      	movel %sp@(32),%d2
    7c70:	246f 0024      	moveal %sp@(36),%a2
    7c74:	262f 0028      	movel %sp@(40),%d3
    7c78:	286f 002c      	moveal %sp@(44),%a4
    7c7c:	4878 0009      	pea 9 <DIVIDE_BY_ZERO+0x1>
    7c80:	486c 0008      	pea %a4@(8)
    7c84:	4eb9 0000 eed0 	jsr eed0 <__divsi3>
    7c8a:	508f           	addql #8,%sp
    7c8c:	7209           	moveq #9,%d1
    7c8e:	b28c           	cmpl %a4,%d1
    7c90:	6c00 009c      	bgew 7d2e <__s2b+0xc6>
    7c94:	7201           	moveq #1,%d1
    7c96:	91c8           	subal %a0,%a0
    7c98:	d281           	addl %d1,%d1
    7c9a:	5288           	addql #1,%a0
    7c9c:	b280           	cmpl %d0,%d1
    7c9e:	6df8           	blts 7c98 <__s2b+0x30>
    7ca0:	2f08           	movel %a0,%sp@-
    7ca2:	2f02           	movel %d2,%sp@-
    7ca4:	4eb9 0000 7ab8 	jsr 7ab8 <_Balloc>
    7caa:	508f           	addql #8,%sp
    7cac:	4a80           	tstl %d0
    7cae:	6700 0084      	beqw 7d34 <__s2b+0xcc>
    7cb2:	2040           	moveal %d0,%a0
    7cb4:	216f 0030 0014 	movel %sp@(48),%a0@(20)
    7cba:	7201           	moveq #1,%d1
    7cbc:	2141 0010      	movel %d1,%a0@(16)
    7cc0:	7209           	moveq #9,%d1
    7cc2:	b283           	cmpl %d3,%d1
    7cc4:	6c60           	bges 7d26 <__s2b+0xbe>
    7cc6:	4dea 0009      	lea %a2@(9),%fp
    7cca:	d5c3           	addal %d3,%a2
    7ccc:	2a4e           	moveal %fp,%a5
    7cce:	47f9 0000 7b6c 	lea 7b6c <__multadd>,%a3
    7cd4:	121d           	moveb %a5@+,%d1
    7cd6:	4881           	extw %d1
    7cd8:	3041           	moveaw %d1,%a0
    7cda:	4868 ffd0      	pea %a0@(-48)
    7cde:	4878 000a      	pea a <DUART_IMR>
    7ce2:	2f00           	movel %d0,%sp@-
    7ce4:	2f02           	movel %d2,%sp@-
    7ce6:	4e93           	jsr %a3@
    7ce8:	4fef 0010      	lea %sp@(16),%sp
    7cec:	b5cd           	cmpal %a5,%a2
    7cee:	66e4           	bnes 7cd4 <__s2b+0x6c>
    7cf0:	45f6 38f8      	lea %fp@(fffffffffffffff8,%d3:l),%a2
    7cf4:	b68c           	cmpl %a4,%d3
    7cf6:	6c28           	bges 7d20 <__s2b+0xb8>
    7cf8:	99c3           	subal %d3,%a4
    7cfa:	260a           	movel %a2,%d3
    7cfc:	d68c           	addl %a4,%d3
    7cfe:	47f9 0000 7b6c 	lea 7b6c <__multadd>,%a3
    7d04:	121a           	moveb %a2@+,%d1
    7d06:	4881           	extw %d1
    7d08:	3041           	moveaw %d1,%a0
    7d0a:	4868 ffd0      	pea %a0@(-48)
    7d0e:	4878 000a      	pea a <DUART_IMR>
    7d12:	2f00           	movel %d0,%sp@-
    7d14:	2f02           	movel %d2,%sp@-
    7d16:	4e93           	jsr %a3@
    7d18:	4fef 0010      	lea %sp@(16),%sp
    7d1c:	b68a           	cmpl %a2,%d3
    7d1e:	66e4           	bnes 7d04 <__s2b+0x9c>
    7d20:	4cdf 7c0c      	moveml %sp@+,%d2-%d3/%a2-%fp
    7d24:	4e75           	rts
    7d26:	45ea 000a      	lea %a2@(10),%a2
    7d2a:	7609           	moveq #9,%d3
    7d2c:	60c6           	bras 7cf4 <__s2b+0x8c>
    7d2e:	91c8           	subal %a0,%a0
    7d30:	6000 ff6e      	braw 7ca0 <__s2b+0x38>
    7d34:	4879 0001 0913 	pea 10913 <_dtors_end+0x97>
    7d3a:	42a7           	clrl %sp@-
    7d3c:	4878 00d3      	pea d3 <DBL_MANT_DIG+0x9e>
    7d40:	4879 0001 094c 	pea 1094c <_dtors_end+0xd0>
    7d46:	4eb9 0000 91e4 	jsr 91e4 <__assert_func>

00007d4c <__hi0bits>:
    7d4c:	2f02           	movel %d2,%sp@-
    7d4e:	222f 0008      	movel %sp@(8),%d1
    7d52:	0c81 0000 ffff 	cmpil #65535,%d1
    7d58:	6248           	bhis 7da2 <__hi0bits+0x56>
    7d5a:	4841           	swap %d1
    7d5c:	4241           	clrw %d1
    7d5e:	7010           	moveq #16,%d0
    7d60:	0c81 00ff ffff 	cmpil #16777215,%d1
    7d66:	6204           	bhis 7d6c <__hi0bits+0x20>
    7d68:	5080           	addql #8,%d0
    7d6a:	e189           	lsll #8,%d1
    7d6c:	0c81 0fff ffff 	cmpil #268435455,%d1
    7d72:	6204           	bhis 7d78 <__hi0bits+0x2c>
    7d74:	5880           	addql #4,%d0
    7d76:	e989           	lsll #4,%d1
    7d78:	0c81 3fff ffff 	cmpil #1073741823,%d1
    7d7e:	630a           	blss 7d8a <__hi0bits+0x3e>
    7d80:	4a81           	tstl %d1
    7d82:	6d02           	blts 7d86 <__hi0bits+0x3a>
    7d84:	5280           	addql #1,%d0
    7d86:	241f           	movel %sp@+,%d2
    7d88:	4e75           	rts
    7d8a:	d281           	addl %d1,%d1
    7d8c:	2401           	movel %d1,%d2
    7d8e:	d481           	addl %d1,%d2
    7d90:	0801 001e      	btst #30,%d1
    7d94:	6610           	bnes 7da6 <__hi0bits+0x5a>
    7d96:	0802 001e      	btst #30,%d2
    7d9a:	6610           	bnes 7dac <__hi0bits+0x60>
    7d9c:	7020           	moveq #32,%d0
    7d9e:	241f           	movel %sp@+,%d2
    7da0:	4e75           	rts
    7da2:	7000           	moveq #0,%d0
    7da4:	60ba           	bras 7d60 <__hi0bits+0x14>
    7da6:	5480           	addql #2,%d0
    7da8:	241f           	movel %sp@+,%d2
    7daa:	4e75           	rts
    7dac:	5680           	addql #3,%d0
    7dae:	241f           	movel %sp@+,%d2
    7db0:	4e75           	rts

00007db2 <__lo0bits>:
    7db2:	2f02           	movel %d2,%sp@-
    7db4:	206f 0008      	moveal %sp@(8),%a0
    7db8:	2210           	movel %a0@,%d1
    7dba:	7007           	moveq #7,%d0
    7dbc:	c081           	andl %d1,%d0
    7dbe:	6716           	beqs 7dd6 <__lo0bits+0x24>
    7dc0:	0801 0000      	btst #0,%d1
    7dc4:	664c           	bnes 7e12 <__lo0bits+0x60>
    7dc6:	0801 0001      	btst #1,%d1
    7dca:	6752           	beqs 7e1e <__lo0bits+0x6c>
    7dcc:	e289           	lsrl #1,%d1
    7dce:	2081           	movel %d1,%a0@
    7dd0:	7001           	moveq #1,%d0
    7dd2:	241f           	movel %sp@+,%d2
    7dd4:	4e75           	rts
    7dd6:	4a41           	tstw %d1
    7dd8:	6634           	bnes 7e0e <__lo0bits+0x5c>
    7dda:	4241           	clrw %d1
    7ddc:	4841           	swap %d1
    7dde:	7010           	moveq #16,%d0
    7de0:	4a01           	tstb %d1
    7de2:	6604           	bnes 7de8 <__lo0bits+0x36>
    7de4:	5080           	addql #8,%d0
    7de6:	e089           	lsrl #8,%d1
    7de8:	740f           	moveq #15,%d2
    7dea:	c481           	andl %d1,%d2
    7dec:	6604           	bnes 7df2 <__lo0bits+0x40>
    7dee:	5880           	addql #4,%d0
    7df0:	e889           	lsrl #4,%d1
    7df2:	7403           	moveq #3,%d2
    7df4:	c481           	andl %d1,%d2
    7df6:	6604           	bnes 7dfc <__lo0bits+0x4a>
    7df8:	5480           	addql #2,%d0
    7dfa:	e489           	lsrl #2,%d1
    7dfc:	0801 0000      	btst #0,%d1
    7e00:	6606           	bnes 7e08 <__lo0bits+0x56>
    7e02:	5280           	addql #1,%d0
    7e04:	e289           	lsrl #1,%d1
    7e06:	6710           	beqs 7e18 <__lo0bits+0x66>
    7e08:	2081           	movel %d1,%a0@
    7e0a:	241f           	movel %sp@+,%d2
    7e0c:	4e75           	rts
    7e0e:	7000           	moveq #0,%d0
    7e10:	60ce           	bras 7de0 <__lo0bits+0x2e>
    7e12:	7000           	moveq #0,%d0
    7e14:	241f           	movel %sp@+,%d2
    7e16:	4e75           	rts
    7e18:	7020           	moveq #32,%d0
    7e1a:	241f           	movel %sp@+,%d2
    7e1c:	4e75           	rts
    7e1e:	e489           	lsrl #2,%d1
    7e20:	2081           	movel %d1,%a0@
    7e22:	7002           	moveq #2,%d0
    7e24:	241f           	movel %sp@+,%d2
    7e26:	4e75           	rts

00007e28 <__i2b>:
    7e28:	2f0a           	movel %a2,%sp@-
    7e2a:	246f 0008      	moveal %sp@(8),%a2
    7e2e:	226a 0042      	moveal %a2@(66),%a1
    7e32:	b2fc 0000      	cmpaw #0,%a1
    7e36:	6724           	beqs 7e5c <__i2b+0x34>
    7e38:	2069 0004      	moveal %a1@(4),%a0
    7e3c:	b0fc 0000      	cmpaw #0,%a0
    7e40:	674e           	beqs 7e90 <__i2b+0x68>
    7e42:	2350 0004      	movel %a0@,%a1@(4)
    7e46:	42a8 000c      	clrl %a0@(12)
    7e4a:	216f 000c 0014 	movel %sp@(12),%a0@(20)
    7e50:	7001           	moveq #1,%d0
    7e52:	2140 0010      	movel %d0,%a0@(16)
    7e56:	2008           	movel %a0,%d0
    7e58:	245f           	moveal %sp@+,%a2
    7e5a:	4e75           	rts
    7e5c:	4878 0021      	pea 21 <R_STOPCNTCMD+0x3>
    7e60:	4878 0004      	pea 4 <DUART_CRA>
    7e64:	2f0a           	movel %a2,%sp@-
    7e66:	4eb9 0000 9264 	jsr 9264 <_calloc_r>
    7e6c:	2240           	moveal %d0,%a1
    7e6e:	2540 0042      	movel %d0,%a2@(66)
    7e72:	4fef 000c      	lea %sp@(12),%sp
    7e76:	66c0           	bnes 7e38 <__i2b+0x10>
    7e78:	4879 0001 0913 	pea 10913 <_dtors_end+0x97>
    7e7e:	42a7           	clrl %sp@-
    7e80:	4878 0145      	pea 145 <DBL_MANT_DIG+0x110>
    7e84:	4879 0001 094c 	pea 1094c <_dtors_end+0xd0>
    7e8a:	4eb9 0000 91e4 	jsr 91e4 <__assert_func>
    7e90:	4878 001c      	pea 1c <R_STARTCNTCMD>
    7e94:	4878 0001      	pea 1 <ADD>
    7e98:	2f0a           	movel %a2,%sp@-
    7e9a:	4eb9 0000 9264 	jsr 9264 <_calloc_r>
    7ea0:	2040           	moveal %d0,%a0
    7ea2:	4fef 000c      	lea %sp@(12),%sp
    7ea6:	4a80           	tstl %d0
    7ea8:	67ce           	beqs 7e78 <__i2b+0x50>
    7eaa:	7001           	moveq #1,%d0
    7eac:	2140 0004      	movel %d0,%a0@(4)
    7eb0:	7002           	moveq #2,%d0
    7eb2:	2140 0008      	movel %d0,%a0@(8)
    7eb6:	42a8 000c      	clrl %a0@(12)
    7eba:	216f 000c 0014 	movel %sp@(12),%a0@(20)
    7ec0:	7001           	moveq #1,%d0
    7ec2:	2140 0010      	movel %d0,%a0@(16)
    7ec6:	2008           	movel %a0,%d0
    7ec8:	245f           	moveal %sp@+,%a2
    7eca:	4e75           	rts

00007ecc <__multiply>:
    7ecc:	4fef ffe8      	lea %sp@(-24),%sp
    7ed0:	48e7 3f3e      	moveml %d2-%d7/%a2-%fp,%sp@-
    7ed4:	2a6f 004c      	moveal %sp@(76),%a5
    7ed8:	246f 0050      	moveal %sp@(80),%a2
    7edc:	242d 0010      	movel %a5@(16),%d2
    7ee0:	262a 0010      	movel %a2@(16),%d3
    7ee4:	b682           	cmpl %d2,%d3
    7ee6:	6e0c           	bgts 7ef4 <__multiply+0x28>
    7ee8:	2003           	movel %d3,%d0
    7eea:	2602           	movel %d2,%d3
    7eec:	2400           	movel %d0,%d2
    7eee:	200a           	movel %a2,%d0
    7ef0:	244d           	moveal %a5,%a2
    7ef2:	2a40           	moveal %d0,%a5
    7ef4:	202a 0004      	movel %a2@(4),%d0
    7ef8:	2203           	movel %d3,%d1
    7efa:	d282           	addl %d2,%d1
    7efc:	2f41 0030      	movel %d1,%sp@(48)
    7f00:	b2aa 0008      	cmpl %a2@(8),%d1
    7f04:	6f02           	bles 7f08 <__multiply+0x3c>
    7f06:	5280           	addql #1,%d0
    7f08:	2f00           	movel %d0,%sp@-
    7f0a:	2f2f 004c      	movel %sp@(76),%sp@-
    7f0e:	4eb9 0000 7ab8 	jsr 7ab8 <_Balloc>
    7f14:	2f40 0044      	movel %d0,%sp@(68)
    7f18:	508f           	addql #8,%sp
    7f1a:	6700 01a2      	beqw 80be <__multiply+0x1f2>
    7f1e:	206f 003c      	moveal %sp@(60),%a0
    7f22:	4de8 0014      	lea %a0@(20),%fp
    7f26:	202f 0030      	movel %sp@(48),%d0
    7f2a:	d080           	addl %d0,%d0
    7f2c:	d080           	addl %d0,%d0
    7f2e:	d08e           	addl %fp,%d0
    7f30:	2f40 0040      	movel %d0,%sp@(64)
    7f34:	204e           	moveal %fp,%a0
    7f36:	b08e           	cmpl %fp,%d0
    7f38:	630a           	blss 7f44 <__multiply+0x78>
    7f3a:	202f 0040      	movel %sp@(64),%d0
    7f3e:	4298           	clrl %a0@+
    7f40:	b1c0           	cmpal %d0,%a0
    7f42:	65fa           	bcss 7f3e <__multiply+0x72>
    7f44:	41ea 0014      	lea %a2@(20),%a0
    7f48:	2f48 0034      	movel %a0,%sp@(52)
    7f4c:	d683           	addl %d3,%d3
    7f4e:	d683           	addl %d3,%d3
    7f50:	2a08           	movel %a0,%d5
    7f52:	da83           	addl %d3,%d5
    7f54:	4bed 0014      	lea %a5@(20),%a5
    7f58:	d482           	addl %d2,%d2
    7f5a:	d482           	addl %d2,%d2
    7f5c:	d48d           	addl %a5,%d2
    7f5e:	2f42 002c      	movel %d2,%sp@(44)
    7f62:	b48d           	cmpl %a5,%d2
    7f64:	6334           	blss 7f9a <__multiply+0xce>
    7f66:	41ea 0015      	lea %a2@(21),%a0
    7f6a:	b1c5           	cmpal %d5,%a0
    7f6c:	635c           	blss 7fca <__multiply+0xfe>
    7f6e:	7204           	moveq #4,%d1
    7f70:	2f41 0038      	movel %d1,%sp@(56)
    7f74:	47f9 0000 ee50 	lea ee50 <__mulsi3>,%a3
    7f7a:	241d           	movel %a5@+,%d2
    7f7c:	2602           	movel %d2,%d3
    7f7e:	0283 0000 ffff 	andil #65535,%d3
    7f84:	4a42           	tstw %d2
    7f86:	6600 00ca      	bnew 8052 <__multiply+0x186>
    7f8a:	4242           	clrw %d2
    7f8c:	4842           	swap %d2
    7f8e:	4a82           	tstl %d2
    7f90:	6650           	bnes 7fe2 <__multiply+0x116>
    7f92:	588e           	addql #4,%fp
    7f94:	bbef 002c      	cmpal %sp@(44),%a5
    7f98:	65e0           	bcss 7f7a <__multiply+0xae>
    7f9a:	4aaf 0030      	tstl %sp@(48)
    7f9e:	6f14           	bles 7fb4 <__multiply+0xe8>
    7fa0:	206f 0040      	moveal %sp@(64),%a0
    7fa4:	202f 0030      	movel %sp@(48),%d0
    7fa8:	4aa0           	tstl %a0@-
    7faa:	6604           	bnes 7fb0 <__multiply+0xe4>
    7fac:	5380           	subql #1,%d0
    7fae:	66f8           	bnes 7fa8 <__multiply+0xdc>
    7fb0:	2f40 0030      	movel %d0,%sp@(48)
    7fb4:	206f 003c      	moveal %sp@(60),%a0
    7fb8:	216f 0030 0010 	movel %sp@(48),%a0@(16)
    7fbe:	2008           	movel %a0,%d0
    7fc0:	4cdf 7cfc      	moveml %sp@+,%d2-%d7/%a2-%fp
    7fc4:	4fef 0018      	lea %sp@(24),%sp
    7fc8:	4e75           	rts
    7fca:	70eb           	moveq #-21,%d0
    7fcc:	908a           	subl %a2,%d0
    7fce:	d085           	addl %d5,%d0
    7fd0:	72fc           	moveq #-4,%d1
    7fd2:	c081           	andl %d1,%d0
    7fd4:	5880           	addql #4,%d0
    7fd6:	2f40 0038      	movel %d0,%sp@(56)
    7fda:	47f9 0000 ee50 	lea ee50 <__mulsi3>,%a3
    7fe0:	6098           	bras 7f7a <__multiply+0xae>
    7fe2:	2e16           	movel %fp@,%d7
    7fe4:	246f 0034      	moveal %sp@(52),%a2
    7fe8:	2807           	movel %d7,%d4
    7fea:	284e           	moveal %fp,%a4
    7fec:	7600           	moveq #0,%d3
    7fee:	2c03           	movel %d3,%d6
    7ff0:	2012           	movel %a2@,%d0
    7ff2:	2f02           	movel %d2,%sp@-
    7ff4:	3f00           	movew %d0,%sp@-
    7ff6:	4267           	clrw %sp@-
    7ff8:	4e93           	jsr %a3@
    7ffa:	508f           	addql #8,%sp
    7ffc:	dc80           	addl %d0,%d6
    7ffe:	2604           	movel %d4,%d3
    8000:	4243           	clrw %d3
    8002:	4843           	swap %d3
    8004:	d686           	addl %d6,%d3
    8006:	2003           	movel %d3,%d0
    8008:	4840           	swap %d0
    800a:	4240           	clrw %d0
    800c:	8047           	orw %d7,%d0
    800e:	28c0           	movel %d0,%a4@+
    8010:	2814           	movel %a4@,%d4
    8012:	201a           	movel %a2@+,%d0
    8014:	4240           	clrw %d0
    8016:	4840           	swap %d0
    8018:	2f02           	movel %d2,%sp@-
    801a:	2f00           	movel %d0,%sp@-
    801c:	4e93           	jsr %a3@
    801e:	508f           	addql #8,%sp
    8020:	2204           	movel %d4,%d1
    8022:	0281 0000 ffff 	andil #65535,%d1
    8028:	d280           	addl %d0,%d1
    802a:	4243           	clrw %d3
    802c:	4843           	swap %d3
    802e:	2e01           	movel %d1,%d7
    8030:	de83           	addl %d3,%d7
    8032:	2c07           	movel %d7,%d6
    8034:	4246           	clrw %d6
    8036:	4846           	swap %d6
    8038:	b5c5           	cmpal %d5,%a2
    803a:	65b4           	bcss 7ff0 <__multiply+0x124>
    803c:	222f 0038      	movel %sp@(56),%d1
    8040:	2d87 1800      	movel %d7,%fp@(0,%d1:l)
    8044:	588e           	addql #4,%fp
    8046:	bbef 002c      	cmpal %sp@(44),%a5
    804a:	6500 ff2e      	bcsw 7f7a <__multiply+0xae>
    804e:	6000 ff4a      	braw 7f9a <__multiply+0xce>
    8052:	2e2f 0034      	movel %sp@(52),%d7
    8056:	244e           	moveal %fp,%a2
    8058:	7800           	moveq #0,%d4
    805a:	2847           	moveal %d7,%a4
    805c:	2e1c           	movel %a4@+,%d7
    805e:	2412           	movel %a2@,%d2
    8060:	2f03           	movel %d3,%sp@-
    8062:	3f07           	movew %d7,%sp@-
    8064:	4267           	clrw %sp@-
    8066:	4e93           	jsr %a3@
    8068:	508f           	addql #8,%sp
    806a:	2202           	movel %d2,%d1
    806c:	0281 0000 ffff 	andil #65535,%d1
    8072:	d280           	addl %d0,%d1
    8074:	2c01           	movel %d1,%d6
    8076:	dc84           	addl %d4,%d6
    8078:	4247           	clrw %d7
    807a:	4847           	swap %d7
    807c:	2f03           	movel %d3,%sp@-
    807e:	2f07           	movel %d7,%sp@-
    8080:	4e93           	jsr %a3@
    8082:	508f           	addql #8,%sp
    8084:	4242           	clrw %d2
    8086:	4842           	swap %d2
    8088:	d480           	addl %d0,%d2
    808a:	2006           	movel %d6,%d0
    808c:	4240           	clrw %d0
    808e:	4840           	swap %d0
    8090:	d082           	addl %d2,%d0
    8092:	2800           	movel %d0,%d4
    8094:	4244           	clrw %d4
    8096:	4844           	swap %d4
    8098:	4840           	swap %d0
    809a:	4240           	clrw %d0
    809c:	8046           	orw %d6,%d0
    809e:	24c0           	movel %d0,%a2@+
    80a0:	b9c5           	cmpal %d5,%a4
    80a2:	65b8           	bcss 805c <__multiply+0x190>
    80a4:	206f 0038      	moveal %sp@(56),%a0
    80a8:	2d84 8800      	movel %d4,%fp@(0,%a0:l)
    80ac:	242d fffc      	movel %a5@(-4),%d2
    80b0:	4242           	clrw %d2
    80b2:	4842           	swap %d2
    80b4:	4a82           	tstl %d2
    80b6:	6700 feda      	beqw 7f92 <__multiply+0xc6>
    80ba:	6000 ff26      	braw 7fe2 <__multiply+0x116>
    80be:	4879 0001 0913 	pea 10913 <_dtors_end+0x97>
    80c4:	42a7           	clrl %sp@-
    80c6:	4878 0162      	pea 162 <DBL_MANT_DIG+0x12d>
    80ca:	4879 0001 094c 	pea 1094c <_dtors_end+0xd0>
    80d0:	4eb9 0000 91e4 	jsr 91e4 <__assert_func>

000080d6 <__pow5mult>:
    80d6:	48e7 203c      	moveml %d2/%a2-%a5,%sp@-
    80da:	286f 0018      	moveal %sp@(24),%a4
    80de:	266f 001c      	moveal %sp@(28),%a3
    80e2:	242f 0020      	movel %sp@(32),%d2
    80e6:	7003           	moveq #3,%d0
    80e8:	c082           	andl %d2,%d0
    80ea:	6676           	bnes 8162 <__pow5mult+0x8c>
    80ec:	e482           	asrl #2,%d2
    80ee:	6754           	beqs 8144 <__pow5mult+0x6e>
    80f0:	246c 003e      	moveal %a4@(62),%a2
    80f4:	b4fc 0000      	cmpaw #0,%a2
    80f8:	6700 008e      	beqw 8188 <__pow5mult+0xb2>
    80fc:	4bf9 0000 7ecc 	lea 7ecc <__multiply>,%a5
    8102:	0802 0000      	btst #0,%d2
    8106:	6614           	bnes 811c <__pow5mult+0x46>
    8108:	e282           	asrl #1,%d2
    810a:	6738           	beqs 8144 <__pow5mult+0x6e>
    810c:	2052           	moveal %a2@,%a0
    810e:	b0fc 0000      	cmpaw #0,%a0
    8112:	6738           	beqs 814c <__pow5mult+0x76>
    8114:	2448           	moveal %a0,%a2
    8116:	0802 0000      	btst #0,%d2
    811a:	67ec           	beqs 8108 <__pow5mult+0x32>
    811c:	2f0a           	movel %a2,%sp@-
    811e:	2f0b           	movel %a3,%sp@-
    8120:	2f0c           	movel %a4,%sp@-
    8122:	4e95           	jsr %a5@
    8124:	4fef 000c      	lea %sp@(12),%sp
    8128:	b6fc 0000      	cmpaw #0,%a3
    812c:	6710           	beqs 813e <__pow5mult+0x68>
    812e:	206b 0004      	moveal %a3@(4),%a0
    8132:	d1c8           	addal %a0,%a0
    8134:	d1c8           	addal %a0,%a0
    8136:	d1ec 0042      	addal %a4@(66),%a0
    813a:	2690           	movel %a0@,%a3@
    813c:	208b           	movel %a3,%a0@
    813e:	2640           	moveal %d0,%a3
    8140:	e282           	asrl #1,%d2
    8142:	66c8           	bnes 810c <__pow5mult+0x36>
    8144:	200b           	movel %a3,%d0
    8146:	4cdf 3c04      	moveml %sp@+,%d2/%a2-%a5
    814a:	4e75           	rts
    814c:	2f0a           	movel %a2,%sp@-
    814e:	2f0a           	movel %a2,%sp@-
    8150:	2f0c           	movel %a4,%sp@-
    8152:	4e95           	jsr %a5@
    8154:	2040           	moveal %d0,%a0
    8156:	2480           	movel %d0,%a2@
    8158:	4290           	clrl %a0@
    815a:	4fef 000c      	lea %sp@(12),%sp
    815e:	2448           	moveal %a0,%a2
    8160:	60b4           	bras 8116 <__pow5mult+0x40>
    8162:	42a7           	clrl %sp@-
    8164:	5380           	subql #1,%d0
    8166:	d080           	addl %d0,%d0
    8168:	d080           	addl %d0,%d0
    816a:	41f9 0001 09f4 	lea 109f4 <p05.0>,%a0
    8170:	2f30 0800      	movel %a0@(0,%d0:l),%sp@-
    8174:	2f0b           	movel %a3,%sp@-
    8176:	2f0c           	movel %a4,%sp@-
    8178:	4eb9 0000 7b6c 	jsr 7b6c <__multadd>
    817e:	2640           	moveal %d0,%a3
    8180:	4fef 0010      	lea %sp@(16),%sp
    8184:	6000 ff66      	braw 80ec <__pow5mult+0x16>
    8188:	4878 0001      	pea 1 <ADD>
    818c:	2f0c           	movel %a4,%sp@-
    818e:	4eb9 0000 7ab8 	jsr 7ab8 <_Balloc>
    8194:	2440           	moveal %d0,%a2
    8196:	508f           	addql #8,%sp
    8198:	4a80           	tstl %d0
    819a:	671e           	beqs 81ba <__pow5mult+0xe4>
    819c:	257c 0000 0271 	movel #625,%a2@(20)
    81a2:	0014 
    81a4:	7001           	moveq #1,%d0
    81a6:	2540 0010      	movel %d0,%a2@(16)
    81aa:	294a 003e      	movel %a2,%a4@(62)
    81ae:	4292           	clrl %a2@
    81b0:	4bf9 0000 7ecc 	lea 7ecc <__multiply>,%a5
    81b6:	6000 ff4a      	braw 8102 <__pow5mult+0x2c>
    81ba:	4879 0001 0913 	pea 10913 <_dtors_end+0x97>
    81c0:	42a7           	clrl %sp@-
    81c2:	4878 0145      	pea 145 <DBL_MANT_DIG+0x110>
    81c6:	4879 0001 094c 	pea 1094c <_dtors_end+0xd0>
    81cc:	4eb9 0000 91e4 	jsr 91e4 <__assert_func>

000081d2 <__lshift>:
    81d2:	48e7 3f38      	moveml %d2-%d7/%a2-%a4,%sp@-
    81d6:	246f 0028      	moveal %sp@(40),%a2
    81da:	266f 002c      	moveal %sp@(44),%a3
    81de:	2c2f 0030      	movel %sp@(48),%d6
    81e2:	2a06           	movel %d6,%d5
    81e4:	ea85           	asrl #5,%d5
    81e6:	222b 0004      	movel %a3@(4),%d1
    81ea:	2605           	movel %d5,%d3
    81ec:	d6ab 0010      	addl %a3@(16),%d3
    81f0:	2803           	movel %d3,%d4
    81f2:	5284           	addql #1,%d4
    81f4:	202b 0008      	movel %a3@(8),%d0
    81f8:	b084           	cmpl %d4,%d0
    81fa:	6c08           	bges 8204 <__lshift+0x32>
    81fc:	5281           	addql #1,%d1
    81fe:	d080           	addl %d0,%d0
    8200:	b084           	cmpl %d4,%d0
    8202:	6df8           	blts 81fc <__lshift+0x2a>
    8204:	2f01           	movel %d1,%sp@-
    8206:	2f0a           	movel %a2,%sp@-
    8208:	4eb9 0000 7ab8 	jsr 7ab8 <_Balloc>
    820e:	508f           	addql #8,%sp
    8210:	4a80           	tstl %d0
    8212:	6700 00b8      	beqw 82cc <__lshift+0xfa>
    8216:	327c 0014      	moveaw #20,%a1
    821a:	d3c0           	addal %d0,%a1
    821c:	4a85           	tstl %d5
    821e:	6f16           	bles 8236 <__lshift+0x64>
    8220:	5a85           	addql #5,%d5
    8222:	da85           	addl %d5,%d5
    8224:	da85           	addl %d5,%d5
    8226:	2200           	movel %d0,%d1
    8228:	d285           	addl %d5,%d1
    822a:	2049           	moveal %a1,%a0
    822c:	4298           	clrl %a0@+
    822e:	b288           	cmpl %a0,%d1
    8230:	66fa           	bnes 822c <__lshift+0x5a>
    8232:	43f1 58ec      	lea %a1@(ffffffffffffffec,%d5:l),%a1
    8236:	41eb 0014      	lea %a3@(20),%a0
    823a:	222b 0010      	movel %a3@(16),%d1
    823e:	d281           	addl %d1,%d1
    8240:	d281           	addl %d1,%d1
    8242:	2a08           	movel %a0,%d5
    8244:	da81           	addl %d1,%d5
    8246:	721f           	moveq #31,%d1
    8248:	cc81           	andl %d1,%d6
    824a:	6750           	beqs 829c <__lshift+0xca>
    824c:	7e20           	moveq #32,%d7
    824e:	9e86           	subl %d6,%d7
    8250:	2849           	moveal %a1,%a4
    8252:	7200           	moveq #0,%d1
    8254:	2410           	movel %a0@,%d2
    8256:	edaa           	lsll %d6,%d2
    8258:	8481           	orl %d1,%d2
    825a:	28c2           	movel %d2,%a4@+
    825c:	2218           	movel %a0@+,%d1
    825e:	eea9           	lsrl %d7,%d1
    8260:	b1c5           	cmpal %d5,%a0
    8262:	65f0           	bcss 8254 <__lshift+0x82>
    8264:	41eb 0015      	lea %a3@(21),%a0
    8268:	b1c5           	cmpal %d5,%a0
    826a:	6254           	bhis 82c0 <__lshift+0xee>
    826c:	74eb           	moveq #-21,%d2
    826e:	948b           	subl %a3,%d2
    8270:	d485           	addl %d5,%d2
    8272:	7afc           	moveq #-4,%d5
    8274:	c485           	andl %d5,%d2
    8276:	2042           	moveal %d2,%a0
    8278:	5888           	addql #4,%a0
    827a:	2381 8800      	movel %d1,%a1@(0,%a0:l)
    827e:	6722           	beqs 82a2 <__lshift+0xd0>
    8280:	2040           	moveal %d0,%a0
    8282:	2144 0010      	movel %d4,%a0@(16)
    8286:	206b 0004      	moveal %a3@(4),%a0
    828a:	d1c8           	addal %a0,%a0
    828c:	d1c8           	addal %a0,%a0
    828e:	d1ea 0042      	addal %a2@(66),%a0
    8292:	2690           	movel %a0@,%a3@
    8294:	208b           	movel %a3,%a0@
    8296:	4cdf 1cfc      	moveml %sp@+,%d2-%d7/%a2-%a4
    829a:	4e75           	rts
    829c:	22d8           	movel %a0@+,%a1@+
    829e:	b1c5           	cmpal %d5,%a0
    82a0:	65fa           	bcss 829c <__lshift+0xca>
    82a2:	2803           	movel %d3,%d4
    82a4:	2040           	moveal %d0,%a0
    82a6:	2144 0010      	movel %d4,%a0@(16)
    82aa:	206b 0004      	moveal %a3@(4),%a0
    82ae:	d1c8           	addal %a0,%a0
    82b0:	d1c8           	addal %a0,%a0
    82b2:	d1ea 0042      	addal %a2@(66),%a0
    82b6:	2690           	movel %a0@,%a3@
    82b8:	208b           	movel %a3,%a0@
    82ba:	4cdf 1cfc      	moveml %sp@+,%d2-%d7/%a2-%a4
    82be:	4e75           	rts
    82c0:	307c 0004      	moveaw #4,%a0
    82c4:	2381 8800      	movel %d1,%a1@(0,%a0:l)
    82c8:	66b6           	bnes 8280 <__lshift+0xae>
    82ca:	60d6           	bras 82a2 <__lshift+0xd0>
    82cc:	4879 0001 0913 	pea 10913 <_dtors_end+0x97>
    82d2:	42a7           	clrl %sp@-
    82d4:	4878 01de      	pea 1de <DBL_MANT_DIG+0x1a9>
    82d8:	4879 0001 094c 	pea 1094c <_dtors_end+0xd0>
    82de:	4eb9 0000 91e4 	jsr 91e4 <__assert_func>

000082e4 <__mcmp>:
    82e4:	2f0a           	movel %a2,%sp@-
    82e6:	2f02           	movel %d2,%sp@-
    82e8:	246f 000c      	moveal %sp@(12),%a2
    82ec:	226f 0010      	moveal %sp@(16),%a1
    82f0:	2229 0010      	movel %a1@(16),%d1
    82f4:	202a 0010      	movel %a2@(16),%d0
    82f8:	9081           	subl %d1,%d0
    82fa:	661c           	bnes 8318 <__mcmp+0x34>
    82fc:	45ea 0014      	lea %a2@(20),%a2
    8300:	d281           	addl %d1,%d1
    8302:	d281           	addl %d1,%d1
    8304:	41f2 1800      	lea %a2@(0,%d1:l),%a0
    8308:	43f1 1814      	lea %a1@(14,%d1:l),%a1
    830c:	2420           	movel %a0@-,%d2
    830e:	2221           	movel %a1@-,%d1
    8310:	b282           	cmpl %d2,%d1
    8312:	660a           	bnes 831e <__mcmp+0x3a>
    8314:	b1ca           	cmpal %a2,%a0
    8316:	62f4           	bhis 830c <__mcmp+0x28>
    8318:	241f           	movel %sp@+,%d2
    831a:	245f           	moveal %sp@+,%a2
    831c:	4e75           	rts
    831e:	b282           	cmpl %d2,%d1
    8320:	6308           	blss 832a <__mcmp+0x46>
    8322:	70ff           	moveq #-1,%d0
    8324:	241f           	movel %sp@+,%d2
    8326:	245f           	moveal %sp@+,%a2
    8328:	4e75           	rts
    832a:	7001           	moveq #1,%d0
    832c:	241f           	movel %sp@+,%d2
    832e:	245f           	moveal %sp@+,%a2
    8330:	4e75           	rts

00008332 <__mdiff>:
    8332:	48e7 3f3e      	moveml %d2-%d7/%a2-%fp,%sp@-
    8336:	2c6f 0034      	moveal %sp@(52),%fp
    833a:	2a6f 0038      	moveal %sp@(56),%a5
    833e:	202d 0010      	movel %a5@(16),%d0
    8342:	222e 0010      	movel %fp@(16),%d1
    8346:	9280           	subl %d0,%d1
    8348:	6646           	bnes 8390 <__mdiff+0x5e>
    834a:	45ee 0014      	lea %fp@(20),%a2
    834e:	d080           	addl %d0,%d0
    8350:	d080           	addl %d0,%d0
    8352:	41f2 0800      	lea %a2@(0,%d0:l),%a0
    8356:	43f5 0814      	lea %a5@(14,%d0:l),%a1
    835a:	2220           	movel %a0@-,%d1
    835c:	2021           	movel %a1@-,%d0
    835e:	b081           	cmpl %d1,%d0
    8360:	6600 0148      	bnew 84aa <__mdiff+0x178>
    8364:	b1ca           	cmpal %a2,%a0
    8366:	62f2           	bhis 835a <__mdiff+0x28>
    8368:	42a7           	clrl %sp@-
    836a:	2f2f 0034      	movel %sp@(52),%sp@-
    836e:	4eb9 0000 7ab8 	jsr 7ab8 <_Balloc>
    8374:	2640           	moveal %d0,%a3
    8376:	508f           	addql #8,%sp
    8378:	4a80           	tstl %d0
    837a:	6700 0156      	beqw 84d2 <__mdiff+0x1a0>
    837e:	7001           	moveq #1,%d0
    8380:	2740 0010      	movel %d0,%a3@(16)
    8384:	42ab 0014      	clrl %a3@(20)
    8388:	200b           	movel %a3,%d0
    838a:	4cdf 7cfc      	moveml %sp@+,%d2-%d7/%a2-%fp
    838e:	4e75           	rts
    8390:	4a81           	tstl %d1
    8392:	6d00 011c      	bltw 84b0 <__mdiff+0x17e>
    8396:	200d           	movel %a5,%d0
    8398:	2a4e           	moveal %fp,%a5
    839a:	2c40           	moveal %d0,%fp
    839c:	7400           	moveq #0,%d2
    839e:	2f2d 0004      	movel %a5@(4),%sp@-
    83a2:	2f2f 0034      	movel %sp@(52),%sp@-
    83a6:	4eb9 0000 7ab8 	jsr 7ab8 <_Balloc>
    83ac:	2640           	moveal %d0,%a3
    83ae:	508f           	addql #8,%sp
    83b0:	4a80           	tstl %d0
    83b2:	6700 0136      	beqw 84ea <__mdiff+0x1b8>
    83b6:	2742 000c      	movel %d2,%a3@(12)
    83ba:	282d 0010      	movel %a5@(16),%d4
    83be:	4bed 0014      	lea %a5@(20),%a5
    83c2:	2004           	movel %d4,%d0
    83c4:	d084           	addl %d4,%d0
    83c6:	d080           	addl %d0,%d0
    83c8:	41f5 0800      	lea %a5@(0,%d0:l),%a0
    83cc:	43ee 0014      	lea %fp@(20),%a1
    83d0:	202e 0010      	movel %fp@(16),%d0
    83d4:	d080           	addl %d0,%d0
    83d6:	d080           	addl %d0,%d0
    83d8:	d089           	addl %a1,%d0
    83da:	7a14           	moveq #20,%d5
    83dc:	da8b           	addl %a3,%d5
    83de:	284d           	moveal %a5,%a4
    83e0:	2445           	moveal %d5,%a2
    83e2:	7400           	moveq #0,%d2
    83e4:	221c           	movel %a4@+,%d1
    83e6:	2c19           	movel %a1@+,%d6
    83e8:	2601           	movel %d1,%d3
    83ea:	0283 0000 ffff 	andil #65535,%d3
    83f0:	2e06           	movel %d6,%d7
    83f2:	0287 0000 ffff 	andil #65535,%d7
    83f8:	9687           	subl %d7,%d3
    83fa:	d682           	addl %d2,%d3
    83fc:	4241           	clrw %d1
    83fe:	4841           	swap %d1
    8400:	4246           	clrw %d6
    8402:	4846           	swap %d6
    8404:	2401           	movel %d1,%d2
    8406:	9486           	subl %d6,%d2
    8408:	2203           	movel %d3,%d1
    840a:	4841           	swap %d1
    840c:	48c1           	extl %d1
    840e:	d282           	addl %d2,%d1
    8410:	2401           	movel %d1,%d2
    8412:	4842           	swap %d2
    8414:	48c2           	extl %d2
    8416:	4841           	swap %d1
    8418:	4241           	clrw %d1
    841a:	8243           	orw %d3,%d1
    841c:	24c1           	movel %d1,%a2@+
    841e:	b3c0           	cmpal %d0,%a1
    8420:	65c2           	bcss 83e4 <__mdiff+0xb2>
    8422:	43ee 0015      	lea %fp@(21),%a1
    8426:	b3c0           	cmpal %d0,%a1
    8428:	53c3           	sls %d3
    842a:	1c03           	moveb %d3,%d6
    842c:	4406           	negb %d6
    842e:	327c ffeb      	moveaw #-21,%a1
    8432:	93ce           	subal %fp,%a1
    8434:	2e09           	movel %a1,%d7
    8436:	de80           	addl %d0,%d7
    8438:	e48f           	lsrl #2,%d7
    843a:	4a03           	tstb %d3
    843c:	6662           	bnes 84a0 <__mdiff+0x16e>
    843e:	7004           	moveq #4,%d0
    8440:	dbc0           	addal %d0,%a5
    8442:	2605           	movel %d5,%d3
    8444:	d680           	addl %d0,%d3
    8446:	bbc8           	cmpal %a0,%a5
    8448:	646c           	bccs 84b6 <__mdiff+0x184>
    844a:	2443           	moveal %d3,%a2
    844c:	224d           	moveal %a5,%a1
    844e:	2019           	movel %a1@+,%d0
    8450:	2a02           	movel %d2,%d5
    8452:	2200           	movel %d0,%d1
    8454:	0281 0000 ffff 	andil #65535,%d1
    845a:	d282           	addl %d2,%d1
    845c:	4841           	swap %d1
    845e:	48c1           	extl %d1
    8460:	2400           	movel %d0,%d2
    8462:	4242           	clrw %d2
    8464:	4842           	swap %d2
    8466:	d282           	addl %d2,%d1
    8468:	2401           	movel %d1,%d2
    846a:	4842           	swap %d2
    846c:	48c2           	extl %d2
    846e:	d085           	addl %d5,%d0
    8470:	4841           	swap %d1
    8472:	4241           	clrw %d1
    8474:	8240           	orw %d0,%d1
    8476:	24c1           	movel %d1,%a2@+
    8478:	b3c8           	cmpal %a0,%a1
    847a:	65d2           	bcss 844e <__mdiff+0x11c>
    847c:	5388           	subql #1,%a0
    847e:	2008           	movel %a0,%d0
    8480:	908d           	subl %a5,%d0
    8482:	74fc           	moveq #-4,%d2
    8484:	c480           	andl %d0,%d2
    8486:	2042           	moveal %d2,%a0
    8488:	d1c3           	addal %d3,%a0
    848a:	4a81           	tstl %d1
    848c:	6606           	bnes 8494 <__mdiff+0x162>
    848e:	5384           	subql #1,%d4
    8490:	4aa0           	tstl %a0@-
    8492:	67fa           	beqs 848e <__mdiff+0x15c>
    8494:	2744 0010      	movel %d4,%a3@(16)
    8498:	200b           	movel %a3,%d0
    849a:	4cdf 7cfc      	moveml %sp@+,%d2-%d7/%a2-%fp
    849e:	4e75           	rts
    84a0:	2007           	movel %d7,%d0
    84a2:	5280           	addql #1,%d0
    84a4:	d080           	addl %d0,%d0
    84a6:	d080           	addl %d0,%d0
    84a8:	6096           	bras 8440 <__mdiff+0x10e>
    84aa:	b081           	cmpl %d1,%d0
    84ac:	6300 fee8      	blsw 8396 <__mdiff+0x64>
    84b0:	7401           	moveq #1,%d2
    84b2:	6000 feea      	braw 839e <__mdiff+0x6c>
    84b6:	4a06           	tstb %d6
    84b8:	660c           	bnes 84c6 <__mdiff+0x194>
    84ba:	7000           	moveq #0,%d0
    84bc:	2045           	moveal %d5,%a0
    84be:	d1c0           	addal %d0,%a0
    84c0:	4a81           	tstl %d1
    84c2:	67ca           	beqs 848e <__mdiff+0x15c>
    84c4:	60ce           	bras 8494 <__mdiff+0x162>
    84c6:	2007           	movel %d7,%d0
    84c8:	d087           	addl %d7,%d0
    84ca:	d080           	addl %d0,%d0
    84cc:	2045           	moveal %d5,%a0
    84ce:	d1c0           	addal %d0,%a0
    84d0:	60ee           	bras 84c0 <__mdiff+0x18e>
    84d2:	4879 0001 0913 	pea 10913 <_dtors_end+0x97>
    84d8:	42a7           	clrl %sp@-
    84da:	4878 0237      	pea 237 <DBL_MANT_DIG+0x202>
    84de:	4879 0001 094c 	pea 1094c <_dtors_end+0xd0>
    84e4:	4eb9 0000 91e4 	jsr 91e4 <__assert_func>
    84ea:	4879 0001 0913 	pea 10913 <_dtors_end+0x97>
    84f0:	42a7           	clrl %sp@-
    84f2:	4878 0245      	pea 245 <DBL_MANT_DIG+0x210>
    84f6:	4879 0001 094c 	pea 1094c <_dtors_end+0xd0>
    84fc:	4eb9 0000 91e4 	jsr 91e4 <__assert_func>

00008502 <__ulp>:
    8502:	202f 0004      	movel %sp@(4),%d0
    8506:	0280 7ff0 0000 	andil #2146435072,%d0
    850c:	0680 fcc0 0000 	addil #-54525952,%d0
    8512:	4a80           	tstl %d0
    8514:	6f04           	bles 851a <__ulp+0x18>
    8516:	7200           	moveq #0,%d1
    8518:	4e75           	rts
    851a:	4480           	negl %d0
    851c:	2200           	movel %d0,%d1
    851e:	4841           	swap %d1
    8520:	e841           	asrw #4,%d1
    8522:	48c1           	extl %d1
    8524:	7013           	moveq #19,%d0
    8526:	b081           	cmpl %d1,%d0
    8528:	6d0a           	blts 8534 <__ulp+0x32>
    852a:	7008           	moveq #8,%d0
    852c:	4840           	swap %d0
    852e:	e2a0           	asrl %d1,%d0
    8530:	7200           	moveq #0,%d1
    8532:	4e75           	rts
    8534:	307c ffec      	moveaw #-20,%a0
    8538:	d1c1           	addal %d1,%a0
    853a:	701e           	moveq #30,%d0
    853c:	b088           	cmpl %a0,%d0
    853e:	6d0e           	blts 854e <__ulp+0x4c>
    8540:	223c 8000 0000 	movel #-2147483648,%d1
    8546:	2008           	movel %a0,%d0
    8548:	e0a9           	lsrl %d0,%d1
    854a:	7000           	moveq #0,%d0
    854c:	4e75           	rts
    854e:	7201           	moveq #1,%d1
    8550:	7000           	moveq #0,%d0
    8552:	60f8           	bras 854c <__ulp+0x4a>

00008554 <__b2d>:
    8554:	48e7 3830      	moveml %d2-%d4/%a2-%a3,%sp@-
    8558:	206f 0018      	moveal %sp@(24),%a0
    855c:	47e8 0014      	lea %a0@(20),%a3
    8560:	2028 0010      	movel %a0@(16),%d0
    8564:	d080           	addl %d0,%d0
    8566:	d080           	addl %d0,%d0
    8568:	45f3 0800      	lea %a3@(0,%d0:l),%a2
    856c:	260a           	movel %a2,%d3
    856e:	5983           	subql #4,%d3
    8570:	242a fffc      	movel %a2@(-4),%d2
    8574:	2f02           	movel %d2,%sp@-
    8576:	4eb9 0000 7d4c 	jsr 7d4c <__hi0bits>
    857c:	588f           	addql #4,%sp
    857e:	206f 001c      	moveal %sp@(28),%a0
    8582:	7220           	moveq #32,%d1
    8584:	9280           	subl %d0,%d1
    8586:	2081           	movel %d1,%a0@
    8588:	780a           	moveq #10,%d4
    858a:	b880           	cmpl %d0,%d4
    858c:	6c7e           	bges 860c <__b2d+0xb8>
    858e:	307c fff5      	moveaw #-11,%a0
    8592:	d1c0           	addal %d0,%a0
    8594:	b68b           	cmpl %a3,%d3
    8596:	633e           	blss 85d6 <__b2d+0x82>
    8598:	202a fff8      	movel %a2@(-8),%d0
    859c:	b0fc 0000      	cmpaw #0,%a0
    85a0:	6756           	beqs 85f8 <__b2d+0xa4>
    85a2:	7620           	moveq #32,%d3
    85a4:	9688           	subl %a0,%d3
    85a6:	2202           	movel %d2,%d1
    85a8:	2808           	movel %a0,%d4
    85aa:	e9a9           	lsll %d4,%d1
    85ac:	2400           	movel %d0,%d2
    85ae:	e6aa           	lsrl %d3,%d2
    85b0:	8282           	orl %d2,%d1
    85b2:	0081 3ff0 0000 	oril #1072693248,%d1
    85b8:	e9a8           	lsll %d4,%d0
    85ba:	41ea fff8      	lea %a2@(-8),%a0
    85be:	b1cb           	cmpal %a3,%a0
    85c0:	6308           	blss 85ca <__b2d+0x76>
    85c2:	242a fff4      	movel %a2@(-12),%d2
    85c6:	e6aa           	lsrl %d3,%d2
    85c8:	8082           	orl %d2,%d0
    85ca:	2040           	moveal %d0,%a0
    85cc:	2001           	movel %d1,%d0
    85ce:	2208           	movel %a0,%d1
    85d0:	4cdf 0c1c      	moveml %sp@+,%d2-%d4/%a2-%a3
    85d4:	4e75           	rts
    85d6:	720b           	moveq #11,%d1
    85d8:	b280           	cmpl %d0,%d1
    85da:	671a           	beqs 85f6 <__b2d+0xa2>
    85dc:	2202           	movel %d2,%d1
    85de:	2008           	movel %a0,%d0
    85e0:	e1a9           	lsll %d0,%d1
    85e2:	0081 3ff0 0000 	oril #1072693248,%d1
    85e8:	7000           	moveq #0,%d0
    85ea:	2040           	moveal %d0,%a0
    85ec:	2001           	movel %d1,%d0
    85ee:	2208           	movel %a0,%d1
    85f0:	4cdf 0c1c      	moveml %sp@+,%d2-%d4/%a2-%a3
    85f4:	4e75           	rts
    85f6:	7000           	moveq #0,%d0
    85f8:	2202           	movel %d2,%d1
    85fa:	0081 3ff0 0000 	oril #1072693248,%d1
    8600:	2040           	moveal %d0,%a0
    8602:	2001           	movel %d1,%d0
    8604:	2208           	movel %a0,%d1
    8606:	4cdf 0c1c      	moveml %sp@+,%d2-%d4/%a2-%a3
    860a:	4e75           	rts
    860c:	780b           	moveq #11,%d4
    860e:	9880           	subl %d0,%d4
    8610:	2202           	movel %d2,%d1
    8612:	e8a9           	lsrl %d4,%d1
    8614:	0081 3ff0 0000 	oril #1072693248,%d1
    861a:	b68b           	cmpl %a3,%d3
    861c:	631c           	blss 863a <__b2d+0xe6>
    861e:	262a fff8      	movel %a2@(-8),%d3
    8622:	e8ab           	lsrl %d4,%d3
    8624:	7815           	moveq #21,%d4
    8626:	d084           	addl %d4,%d0
    8628:	e1aa           	lsll %d0,%d2
    862a:	2002           	movel %d2,%d0
    862c:	8083           	orl %d3,%d0
    862e:	2040           	moveal %d0,%a0
    8630:	2001           	movel %d1,%d0
    8632:	2208           	movel %a0,%d1
    8634:	4cdf 0c1c      	moveml %sp@+,%d2-%d4/%a2-%a3
    8638:	4e75           	rts
    863a:	7600           	moveq #0,%d3
    863c:	7815           	moveq #21,%d4
    863e:	d084           	addl %d4,%d0
    8640:	e1aa           	lsll %d0,%d2
    8642:	2002           	movel %d2,%d0
    8644:	8083           	orl %d3,%d0
    8646:	60e6           	bras 862e <__b2d+0xda>

00008648 <__d2b>:
    8648:	4e56 fff8      	linkw %fp,#-8
    864c:	48e7 3820      	moveml %d2-%d4/%a2,%sp@-
    8650:	242e 000c      	movel %fp@(12),%d2
    8654:	262e 0010      	movel %fp@(16),%d3
    8658:	4878 0001      	pea 1 <ADD>
    865c:	2f2e 0008      	movel %fp@(8),%sp@-
    8660:	4eb9 0000 7ab8 	jsr 7ab8 <_Balloc>
    8666:	2440           	moveal %d0,%a2
    8668:	508f           	addql #8,%sp
    866a:	4a80           	tstl %d0
    866c:	6700 00e4      	beqw 8752 <__d2b+0x10a>
    8670:	2002           	movel %d2,%d0
    8672:	0280 000f ffff 	andil #1048575,%d0
    8678:	4242           	clrw %d2
    867a:	4842           	swap %d2
    867c:	e84a           	lsrw #4,%d2
    867e:	0282 0000 07ff 	andil #2047,%d2
    8684:	6704           	beqs 868a <__d2b+0x42>
    8686:	08c0 0014      	bset #20,%d0
    868a:	2d40 fffc      	movel %d0,%fp@(-4)
    868e:	4a83           	tstl %d3
    8690:	6764           	beqs 86f6 <__d2b+0xae>
    8692:	2d43 fff8      	movel %d3,%fp@(-8)
    8696:	486e fff8      	pea %fp@(-8)
    869a:	4eb9 0000 7db2 	jsr 7db2 <__lo0bits>
    86a0:	222e fffc      	movel %fp@(-4),%d1
    86a4:	588f           	addql #4,%sp
    86a6:	4a80           	tstl %d0
    86a8:	6700 009e      	beqw 8748 <__d2b+0x100>
    86ac:	7820           	moveq #32,%d4
    86ae:	9880           	subl %d0,%d4
    86b0:	2601           	movel %d1,%d3
    86b2:	e9ab           	lsll %d4,%d3
    86b4:	86ae fff8      	orl %fp@(-8),%d3
    86b8:	2543 0014      	movel %d3,%a2@(20)
    86bc:	e0a9           	lsrl %d0,%d1
    86be:	2d41 fffc      	movel %d1,%fp@(-4)
    86c2:	2541 0018      	movel %d1,%a2@(24)
    86c6:	6744           	beqs 870c <__d2b+0xc4>
    86c8:	7602           	moveq #2,%d3
    86ca:	2543 0010      	movel %d3,%a2@(16)
    86ce:	4a82           	tstl %d2
    86d0:	6744           	beqs 8716 <__d2b+0xce>
    86d2:	0682 ffff fbcd 	addil #-1075,%d2
    86d8:	d480           	addl %d0,%d2
    86da:	206e 0014      	moveal %fp@(20),%a0
    86de:	2082           	movel %d2,%a0@
    86e0:	7635           	moveq #53,%d3
    86e2:	9680           	subl %d0,%d3
    86e4:	206e 0018      	moveal %fp@(24),%a0
    86e8:	2083           	movel %d3,%a0@
    86ea:	200a           	movel %a2,%d0
    86ec:	4cee 041c ffe8 	moveml %fp@(-24),%d2-%d4/%a2
    86f2:	4e5e           	unlk %fp
    86f4:	4e75           	rts
    86f6:	486e fffc      	pea %fp@(-4)
    86fa:	4eb9 0000 7db2 	jsr 7db2 <__lo0bits>
    8700:	256e fffc 0014 	movel %fp@(-4),%a2@(20)
    8706:	7220           	moveq #32,%d1
    8708:	d081           	addl %d1,%d0
    870a:	588f           	addql #4,%sp
    870c:	7601           	moveq #1,%d3
    870e:	2543 0010      	movel %d3,%a2@(16)
    8712:	4a82           	tstl %d2
    8714:	66bc           	bnes 86d2 <__d2b+0x8a>
    8716:	0680 ffff fbce 	addil #-1074,%d0
    871c:	206e 0014      	moveal %fp@(20),%a0
    8720:	2080           	movel %d0,%a0@
    8722:	2003           	movel %d3,%d0
    8724:	e588           	lsll #2,%d0
    8726:	2f32 0810      	movel %a2@(10,%d0:l),%sp@-
    872a:	4eb9 0000 7d4c 	jsr 7d4c <__hi0bits>
    8730:	588f           	addql #4,%sp
    8732:	eb8b           	lsll #5,%d3
    8734:	9680           	subl %d0,%d3
    8736:	206e 0018      	moveal %fp@(24),%a0
    873a:	2083           	movel %d3,%a0@
    873c:	200a           	movel %a2,%d0
    873e:	4cee 041c ffe8 	moveml %fp@(-24),%d2-%d4/%a2
    8744:	4e5e           	unlk %fp
    8746:	4e75           	rts
    8748:	256e fff8 0014 	movel %fp@(-8),%a2@(20)
    874e:	6000 ff72      	braw 86c2 <__d2b+0x7a>
    8752:	4879 0001 0913 	pea 10913 <_dtors_end+0x97>
    8758:	42a7           	clrl %sp@-
    875a:	4878 030f      	pea 30f <DBL_MANT_DIG+0x2da>
    875e:	4879 0001 094c 	pea 1094c <_dtors_end+0xd0>
    8764:	4eb9 0000 91e4 	jsr 91e4 <__assert_func>

0000876a <__ratio>:
    876a:	4e56 fff8      	linkw %fp,#-8
    876e:	48e7 3038      	moveml %d2-%d3/%a2-%a4,%sp@-
    8772:	266e 0008      	moveal %fp@(8),%a3
    8776:	246e 000c      	moveal %fp@(12),%a2
    877a:	486e fff8      	pea %fp@(-8)
    877e:	2f0b           	movel %a3,%sp@-
    8780:	49f9 0000 8554 	lea 8554 <__b2d>,%a4
    8786:	4e94           	jsr %a4@
    8788:	2400           	movel %d0,%d2
    878a:	2601           	movel %d1,%d3
    878c:	486e fffc      	pea %fp@(-4)
    8790:	2f0a           	movel %a2,%sp@-
    8792:	4e94           	jsr %a4@
    8794:	2040           	moveal %d0,%a0
    8796:	2241           	moveal %d1,%a1
    8798:	202b 0010      	movel %a3@(16),%d0
    879c:	90aa 0010      	subl %a2@(16),%d0
    87a0:	eb88           	lsll #5,%d0
    87a2:	222e fff8      	movel %fp@(-8),%d1
    87a6:	92ae fffc      	subl %fp@(-4),%d1
    87aa:	d081           	addl %d1,%d0
    87ac:	4fef 0010      	lea %sp@(16),%sp
    87b0:	4a80           	tstl %d0
    87b2:	6f28           	bles 87dc <__ratio+0x72>
    87b4:	e948           	lslw #4,%d0
    87b6:	4840           	swap %d0
    87b8:	4240           	clrw %d0
    87ba:	2440           	moveal %d0,%a2
    87bc:	d5c2           	addal %d2,%a2
    87be:	240a           	movel %a2,%d2
    87c0:	2f09           	movel %a1,%sp@-
    87c2:	2f08           	movel %a0,%sp@-
    87c4:	2f03           	movel %d3,%sp@-
    87c6:	2f02           	movel %d2,%sp@-
    87c8:	4eb9 0000 f504 	jsr f504 <__divdf3>
    87ce:	4fef 0010      	lea %sp@(16),%sp
    87d2:	4cee 1c0c ffe4 	moveml %fp@(-28),%d2-%d3/%a2-%a4
    87d8:	4e5e           	unlk %fp
    87da:	4e75           	rts
    87dc:	e948           	lslw #4,%d0
    87de:	4840           	swap %d0
    87e0:	4240           	clrw %d0
    87e2:	2448           	moveal %a0,%a2
    87e4:	95c0           	subal %d0,%a2
    87e6:	204a           	moveal %a2,%a0
    87e8:	2f09           	movel %a1,%sp@-
    87ea:	2f08           	movel %a0,%sp@-
    87ec:	2f03           	movel %d3,%sp@-
    87ee:	2f02           	movel %d2,%sp@-
    87f0:	4eb9 0000 f504 	jsr f504 <__divdf3>
    87f6:	4fef 0010      	lea %sp@(16),%sp
    87fa:	4cee 1c0c ffe4 	moveml %fp@(-28),%d2-%d3/%a2-%a4
    8800:	4e5e           	unlk %fp
    8802:	4e75           	rts

00008804 <_mprec_log10>:
    8804:	2f0a           	movel %a2,%sp@-
    8806:	2f02           	movel %d2,%sp@-
    8808:	242f 000c      	movel %sp@(12),%d2
    880c:	7017           	moveq #23,%d0
    880e:	b082           	cmpl %d2,%d0
    8810:	6c32           	bges 8844 <_mprec_log10+0x40>
    8812:	207c 3ff0 0000 	moveal #1072693248,%a0
    8818:	93c9           	subal %a1,%a1
    881a:	45f9 0000 f356 	lea f356 <__muldf3>,%a2
    8820:	42a7           	clrl %sp@-
    8822:	2f3c 4024 0000 	movel #1076101120,%sp@-
    8828:	2f09           	movel %a1,%sp@-
    882a:	2f08           	movel %a0,%sp@-
    882c:	4e92           	jsr %a2@
    882e:	4fef 0010      	lea %sp@(16),%sp
    8832:	2040           	moveal %d0,%a0
    8834:	2241           	moveal %d1,%a1
    8836:	5382           	subql #1,%d2
    8838:	66e6           	bnes 8820 <_mprec_log10+0x1c>
    883a:	2008           	movel %a0,%d0
    883c:	2209           	movel %a1,%d1
    883e:	241f           	movel %sp@+,%d2
    8840:	245f           	moveal %sp@+,%a2
    8842:	4e75           	rts
    8844:	e78a           	lsll #3,%d2
    8846:	41f9 0001 0a50 	lea 10a50 <__mprec_tens>,%a0
    884c:	2270 2804      	moveal %a0@(4,%d2:l),%a1
    8850:	2070 2800      	moveal %a0@(0,%d2:l),%a0
    8854:	2008           	movel %a0,%d0
    8856:	2209           	movel %a1,%d1
    8858:	241f           	movel %sp@+,%d2
    885a:	245f           	moveal %sp@+,%a2
    885c:	4e75           	rts

0000885e <__copybits>:
    885e:	48e7 2030      	moveml %d2/%a2-%a3,%sp@-
    8862:	206f 0010      	moveal %sp@(16),%a0
    8866:	266f 0018      	moveal %sp@(24),%a3
    886a:	202f 0014      	movel %sp@(20),%d0
    886e:	5380           	subql #1,%d0
    8870:	ea80           	asrl #5,%d0
    8872:	5280           	addql #1,%d0
    8874:	d080           	addl %d0,%d0
    8876:	d080           	addl %d0,%d0
    8878:	2208           	movel %a0,%d1
    887a:	d280           	addl %d0,%d1
    887c:	43eb 0014      	lea %a3@(20),%a1
    8880:	202b 0010      	movel %a3@(16),%d0
    8884:	d080           	addl %d0,%d0
    8886:	d080           	addl %d0,%d0
    8888:	d089           	addl %a1,%d0
    888a:	b089           	cmpl %a1,%d0
    888c:	6318           	blss 88a6 <__copybits+0x48>
    888e:	2448           	moveal %a0,%a2
    8890:	24d9           	movel %a1@+,%a2@+
    8892:	b3c0           	cmpal %d0,%a1
    8894:	65fa           	bcss 8890 <__copybits+0x32>
    8896:	327c ffeb      	moveaw #-21,%a1
    889a:	93cb           	subal %a3,%a1
    889c:	d089           	addl %a1,%d0
    889e:	74fc           	moveq #-4,%d2
    88a0:	c082           	andl %d2,%d0
    88a2:	41f0 0804      	lea %a0@(4,%d0:l),%a0
    88a6:	b1c1           	cmpal %d1,%a0
    88a8:	6406           	bccs 88b0 <__copybits+0x52>
    88aa:	4298           	clrl %a0@+
    88ac:	b1c1           	cmpal %d1,%a0
    88ae:	65fa           	bcss 88aa <__copybits+0x4c>
    88b0:	4cdf 0c04      	moveml %sp@+,%d2/%a2-%a3
    88b4:	4e75           	rts

000088b6 <__any_on>:
    88b6:	2f02           	movel %d2,%sp@-
    88b8:	206f 0008      	moveal %sp@(8),%a0
    88bc:	242f 000c      	movel %sp@(12),%d2
    88c0:	43e8 0014      	lea %a0@(20),%a1
    88c4:	2028 0010      	movel %a0@(16),%d0
    88c8:	2202           	movel %d2,%d1
    88ca:	ea81           	asrl #5,%d1
    88cc:	b280           	cmpl %d0,%d1
    88ce:	6f16           	bles 88e6 <__any_on+0x30>
    88d0:	d080           	addl %d0,%d0
    88d2:	d080           	addl %d0,%d0
    88d4:	41f1 0800      	lea %a1@(0,%d0:l),%a0
    88d8:	b3c8           	cmpal %a0,%a1
    88da:	642e           	bccs 890a <__any_on+0x54>
    88dc:	4aa0           	tstl %a0@-
    88de:	67f8           	beqs 88d8 <__any_on+0x22>
    88e0:	7001           	moveq #1,%d0
    88e2:	241f           	movel %sp@+,%d2
    88e4:	4e75           	rts
    88e6:	2041           	moveal %d1,%a0
    88e8:	d1c1           	addal %d1,%a0
    88ea:	d1c8           	addal %a0,%a0
    88ec:	41f1 8800      	lea %a1@(0,%a0:l),%a0
    88f0:	b280           	cmpl %d0,%d1
    88f2:	6ce4           	bges 88d8 <__any_on+0x22>
    88f4:	701f           	moveq #31,%d0
    88f6:	c480           	andl %d0,%d2
    88f8:	67de           	beqs 88d8 <__any_on+0x22>
    88fa:	2210           	movel %a0@,%d1
    88fc:	2001           	movel %d1,%d0
    88fe:	e4a8           	lsrl %d2,%d0
    8900:	e5a8           	lsll %d2,%d0
    8902:	b081           	cmpl %d1,%d0
    8904:	67d2           	beqs 88d8 <__any_on+0x22>
    8906:	7001           	moveq #1,%d0
    8908:	60d8           	bras 88e2 <__any_on+0x2c>
    890a:	7000           	moveq #0,%d0
    890c:	241f           	movel %sp@+,%d2
    890e:	4e75           	rts

00008910 <__smakebuf_r>:
    8910:	4e56 ffb8      	linkw %fp,#-72
    8914:	48e7 3820      	moveml %d2-%d4/%a2,%sp@-
    8918:	246e 000c      	moveal %fp@(12),%a2
    891c:	302a 000c      	movew %a2@(12),%d0
    8920:	0800 0001      	btst #1,%d0
    8924:	671a           	beqs 8940 <__smakebuf_r+0x30>
    8926:	41ea 0043      	lea %a2@(67),%a0
    892a:	2488           	movel %a0,%a2@
    892c:	2548 0010      	movel %a0,%a2@(16)
    8930:	7001           	moveq #1,%d0
    8932:	2540 0014      	movel %d0,%a2@(20)
    8936:	4cee 041c ffa8 	moveml %fp@(-88),%d2-%d4/%a2
    893c:	4e5e           	unlk %fp
    893e:	4e75           	rts
    8940:	322a 000e      	movew %a2@(14),%d1
    8944:	6b7e           	bmis 89c4 <__smakebuf_r+0xb4>
    8946:	486e ffb8      	pea %fp@(-72)
    894a:	3041           	moveaw %d1,%a0
    894c:	2f08           	movel %a0,%sp@-
    894e:	2f2e 0008      	movel %fp@(8),%sp@-
    8952:	4eb9 0000 9188 	jsr 9188 <_fstat_r>
    8958:	4fef 000c      	lea %sp@(12),%sp
    895c:	4a80           	tstl %d0
    895e:	6d60           	blts 89c0 <__smakebuf_r+0xb0>
    8960:	242e ffbc      	movel %fp@(-68),%d2
    8964:	0282 0000 f000 	andil #61440,%d2
    896a:	0c82 0000 2000 	cmpil #8192,%d2
    8970:	57c2           	seq %d2
    8972:	4882           	extw %d2
    8974:	48c2           	extl %d2
    8976:	4482           	negl %d2
    8978:	263c 0000 0400 	movel #1024,%d3
    897e:	283c 0000 0800 	movel #2048,%d4
    8984:	2f03           	movel %d3,%sp@-
    8986:	2f2e 0008      	movel %fp@(8),%sp@-
    898a:	4eb9 0000 2804 	jsr 2804 <_malloc_r>
    8990:	508f           	addql #8,%sp
    8992:	4a80           	tstl %d0
    8994:	674a           	beqs 89e0 <__smakebuf_r+0xd0>
    8996:	322a 000c      	movew %a2@(12),%d1
    899a:	0041 0080      	oriw #128,%d1
    899e:	3541 000c      	movew %d1,%a2@(12)
    89a2:	2480           	movel %d0,%a2@
    89a4:	2540 0010      	movel %d0,%a2@(16)
    89a8:	2543 0014      	movel %d3,%a2@(20)
    89ac:	4a82           	tstl %d2
    89ae:	6668           	bnes 8a18 <__smakebuf_r+0x108>
    89b0:	8244           	orw %d4,%d1
    89b2:	3541 000c      	movew %d1,%a2@(12)
    89b6:	4cee 041c ffa8 	moveml %fp@(-88),%d2-%d4/%a2
    89bc:	4e5e           	unlk %fp
    89be:	4e75           	rts
    89c0:	302a 000c      	movew %a2@(12),%d0
    89c4:	7400           	moveq #0,%d2
    89c6:	4a00           	tstb %d0
    89c8:	6a42           	bpls 8a0c <__smakebuf_r+0xfc>
    89ca:	7640           	moveq #64,%d3
    89cc:	7800           	moveq #0,%d4
    89ce:	2f03           	movel %d3,%sp@-
    89d0:	2f2e 0008      	movel %fp@(8),%sp@-
    89d4:	4eb9 0000 2804 	jsr 2804 <_malloc_r>
    89da:	508f           	addql #8,%sp
    89dc:	4a80           	tstl %d0
    89de:	66b6           	bnes 8996 <__smakebuf_r+0x86>
    89e0:	302a 000c      	movew %a2@(12),%d0
    89e4:	0800 0009      	btst #9,%d0
    89e8:	6600 ff4c      	bnew 8936 <__smakebuf_r+0x26>
    89ec:	0240 fffc      	andiw #-4,%d0
    89f0:	0040 0002      	oriw #2,%d0
    89f4:	3540 000c      	movew %d0,%a2@(12)
    89f8:	41ea 0043      	lea %a2@(67),%a0
    89fc:	2488           	movel %a0,%a2@
    89fe:	2548 0010      	movel %a0,%a2@(16)
    8a02:	7001           	moveq #1,%d0
    8a04:	2540 0014      	movel %d0,%a2@(20)
    8a08:	6000 ff2c      	braw 8936 <__smakebuf_r+0x26>
    8a0c:	263c 0000 0400 	movel #1024,%d3
    8a12:	7800           	moveq #0,%d4
    8a14:	6000 ff6e      	braw 8984 <__smakebuf_r+0x74>
    8a18:	306a 000e      	moveaw %a2@(14),%a0
    8a1c:	2f08           	movel %a0,%sp@-
    8a1e:	2f2e 0008      	movel %fp@(8),%sp@-
    8a22:	4eb9 0000 91b8 	jsr 91b8 <_isatty_r>
    8a28:	508f           	addql #8,%sp
    8a2a:	322a 000c      	movew %a2@(12),%d1
    8a2e:	4a80           	tstl %d0
    8a30:	6700 ff7e      	beqw 89b0 <__smakebuf_r+0xa0>
    8a34:	0241 fffc      	andiw #-4,%d1
    8a38:	0041 0001      	oriw #1,%d1
    8a3c:	8244           	orw %d4,%d1
    8a3e:	3541 000c      	movew %d1,%a2@(12)
    8a42:	6000 ff72      	braw 89b6 <__smakebuf_r+0xa6>

00008a46 <__swhatbuf_r>:
    8a46:	4e56 ffb8      	linkw %fp,#-72
    8a4a:	2f0a           	movel %a2,%sp@-
    8a4c:	246e 000c      	moveal %fp@(12),%a2
    8a50:	302a 000e      	movew %a2@(14),%d0
    8a54:	6b50           	bmis 8aa6 <__swhatbuf_r+0x60>
    8a56:	486e ffb8      	pea %fp@(-72)
    8a5a:	3040           	moveaw %d0,%a0
    8a5c:	2f08           	movel %a0,%sp@-
    8a5e:	2f2e 0008      	movel %fp@(8),%sp@-
    8a62:	4eb9 0000 9188 	jsr 9188 <_fstat_r>
    8a68:	4fef 000c      	lea %sp@(12),%sp
    8a6c:	4a80           	tstl %d0
    8a6e:	6d36           	blts 8aa6 <__swhatbuf_r+0x60>
    8a70:	222e ffbc      	movel %fp@(-68),%d1
    8a74:	0281 0000 f000 	andil #61440,%d1
    8a7a:	0c81 0000 2000 	cmpil #8192,%d1
    8a80:	57c1           	seq %d1
    8a82:	4881           	extw %d1
    8a84:	48c1           	extl %d1
    8a86:	4481           	negl %d1
    8a88:	327c 0400      	moveaw #1024,%a1
    8a8c:	203c 0000 0800 	movel #2048,%d0
    8a92:	206e 0014      	moveal %fp@(20),%a0
    8a96:	2081           	movel %d1,%a0@
    8a98:	206e 0010      	moveal %fp@(16),%a0
    8a9c:	2089           	movel %a1,%a0@
    8a9e:	246e ffb4      	moveal %fp@(-76),%a2
    8aa2:	4e5e           	unlk %fp
    8aa4:	4e75           	rts
    8aa6:	7200           	moveq #0,%d1
    8aa8:	4a2a 000d      	tstb %a2@(13)
    8aac:	6a1a           	bpls 8ac8 <__swhatbuf_r+0x82>
    8aae:	327c 0040      	moveaw #64,%a1
    8ab2:	7000           	moveq #0,%d0
    8ab4:	206e 0014      	moveal %fp@(20),%a0
    8ab8:	2081           	movel %d1,%a0@
    8aba:	206e 0010      	moveal %fp@(16),%a0
    8abe:	2089           	movel %a1,%a0@
    8ac0:	246e ffb4      	moveal %fp@(-76),%a2
    8ac4:	4e5e           	unlk %fp
    8ac6:	4e75           	rts
    8ac8:	327c 0400      	moveaw #1024,%a1
    8acc:	7000           	moveq #0,%d0
    8ace:	206e 0014      	moveal %fp@(20),%a0
    8ad2:	2081           	movel %d1,%a0@
    8ad4:	206e 0010      	moveal %fp@(16),%a0
    8ad8:	2089           	movel %a1,%a0@
    8ada:	246e ffb4      	moveal %fp@(-76),%a2
    8ade:	4e5e           	unlk %fp
    8ae0:	4e75           	rts
	...

00008ae4 <_realloc_r>:
    8ae4:	598f           	subql #4,%sp
    8ae6:	48e7 383e      	moveml %d2-%d4/%a2-%fp,%sp@-
    8aea:	286f 0028      	moveal %sp@(40),%a4
    8aee:	246f 002c      	moveal %sp@(44),%a2
    8af2:	2a6f 0030      	moveal %sp@(48),%a5
    8af6:	b4fc 0000      	cmpaw #0,%a2
    8afa:	6700 0190      	beqw 8c8c <_realloc_r+0x1a8>
    8afe:	2f0c           	movel %a4,%sp@-
    8b00:	4eb9 0000 4e10 	jsr 4e10 <__malloc_lock>
    8b06:	47ea fff8      	lea %a2@(-8),%a3
    8b0a:	282a fffc      	movel %a2@(-4),%d4
    8b0e:	74fc           	moveq #-4,%d2
    8b10:	c484           	andl %d4,%d2
    8b12:	41ed 000b      	lea %a5@(11),%a0
    8b16:	588f           	addql #4,%sp
    8b18:	7016           	moveq #22,%d0
    8b1a:	b088           	cmpl %a0,%d0
    8b1c:	6400 00ee      	bccw 8c0c <_realloc_r+0x128>
    8b20:	2608           	movel %a0,%d3
    8b22:	72f8           	moveq #-8,%d1
    8b24:	c681           	andl %d1,%d3
    8b26:	b0fc 0000      	cmpaw #0,%a0
    8b2a:	6d00 00e8      	bltw 8c14 <_realloc_r+0x130>
    8b2e:	b68d           	cmpl %a5,%d3
    8b30:	6500 00e2      	bcsw 8c14 <_realloc_r+0x130>
    8b34:	b682           	cmpl %d2,%d3
    8b36:	6f00 00fe      	blew 8c36 <_realloc_r+0x152>
    8b3a:	41f3 2800      	lea %a3@(0,%d2:l),%a0
    8b3e:	2028 0004      	movel %a0@(4),%d0
    8b42:	b1f9 0001 2d9c 	cmpal 12d9c <__malloc_av_+0x8>,%a0
    8b48:	6700 0186      	beqw 8cd0 <_realloc_r+0x1ec>
    8b4c:	72fe           	moveq #-2,%d1
    8b4e:	c280           	andl %d0,%d1
    8b50:	0830 0000 1807 	btst #0,%a0@(7,%d1:l)
    8b56:	6600 0114      	bnew 8c6c <_realloc_r+0x188>
    8b5a:	72fc           	moveq #-4,%d1
    8b5c:	c081           	andl %d1,%d0
    8b5e:	2202           	movel %d2,%d1
    8b60:	d280           	addl %d0,%d1
    8b62:	b283           	cmpl %d3,%d1
    8b64:	6c00 00be      	bgew 8c24 <_realloc_r+0x140>
    8b68:	0804 0000      	btst #0,%d4
    8b6c:	6620           	bnes 8b8e <_realloc_r+0xaa>
    8b6e:	2c4b           	moveal %a3,%fp
    8b70:	9dea fff8      	subal %a2@(-8),%fp
    8b74:	72fc           	moveq #-4,%d1
    8b76:	c2ae 0004      	andl %fp@(4),%d1
    8b7a:	d081           	addl %d1,%d0
    8b7c:	2800           	movel %d0,%d4
    8b7e:	d882           	addl %d2,%d4
    8b80:	b883           	cmpl %d3,%d4
    8b82:	6c00 026c      	bgew 8df0 <_realloc_r+0x30c>
    8b86:	d282           	addl %d2,%d1
    8b88:	b283           	cmpl %d3,%d1
    8b8a:	6c00 01f8      	bgew 8d84 <_realloc_r+0x2a0>
    8b8e:	2f0d           	movel %a5,%sp@-
    8b90:	2f0c           	movel %a4,%sp@-
    8b92:	4eb9 0000 2804 	jsr 2804 <_malloc_r>
    8b98:	2a40           	moveal %d0,%a5
    8b9a:	508f           	addql #8,%sp
    8b9c:	4a80           	tstl %d0
    8b9e:	6700 03e0      	beqw 8f80 <_realloc_r+0x49c>
    8ba2:	70fe           	moveq #-2,%d0
    8ba4:	c0aa fffc      	andl %a2@(-4),%d0
    8ba8:	d08b           	addl %a3,%d0
    8baa:	220d           	movel %a5,%d1
    8bac:	5181           	subql #8,%d1
    8bae:	b280           	cmpl %d0,%d1
    8bb0:	6700 02a4      	beqw 8e56 <_realloc_r+0x372>
    8bb4:	5982           	subql #4,%d2
    8bb6:	7224           	moveq #36,%d1
    8bb8:	b282           	cmpl %d2,%d1
    8bba:	6500 02a6      	bcsw 8e62 <_realloc_r+0x37e>
    8bbe:	7813           	moveq #19,%d4
    8bc0:	b882           	cmpl %d2,%d4
    8bc2:	6400 0216      	bccw 8dda <_realloc_r+0x2f6>
    8bc6:	2a92           	movel %a2@,%a5@
    8bc8:	2b6a 0004 0004 	movel %a2@(4),%a5@(4)
    8bce:	701b           	moveq #27,%d0
    8bd0:	b082           	cmpl %d2,%d0
    8bd2:	6500 02b8      	bcsw 8e8c <_realloc_r+0x3a8>
    8bd6:	43ea 0008      	lea %a2@(8),%a1
    8bda:	41ed 0008      	lea %a5@(8),%a0
    8bde:	2091           	movel %a1@,%a0@
    8be0:	2169 0004 0004 	movel %a1@(4),%a0@(4)
    8be6:	2169 0008 0008 	movel %a1@(8),%a0@(8)
    8bec:	2f0a           	movel %a2,%sp@-
    8bee:	2f0c           	movel %a4,%sp@-
    8bf0:	4eb9 0000 7766 	jsr 7766 <_free_r>
    8bf6:	2f0c           	movel %a4,%sp@-
    8bf8:	4eb9 0000 4e12 	jsr 4e12 <__malloc_unlock>
    8bfe:	4fef 000c      	lea %sp@(12),%sp
    8c02:	200d           	movel %a5,%d0
    8c04:	4cdf 7c1c      	moveml %sp@+,%d2-%d4/%a2-%fp
    8c08:	588f           	addql #4,%sp
    8c0a:	4e75           	rts
    8c0c:	7610           	moveq #16,%d3
    8c0e:	b68d           	cmpl %a5,%d3
    8c10:	6400 ff22      	bccw 8b34 <_realloc_r+0x50>
    8c14:	780c           	moveq #12,%d4
    8c16:	2884           	movel %d4,%a4@
    8c18:	9bcd           	subal %a5,%a5
    8c1a:	200d           	movel %a5,%d0
    8c1c:	4cdf 7c1c      	moveml %sp@+,%d2-%d4/%a2-%fp
    8c20:	588f           	addql #4,%sp
    8c22:	4e75           	rts
    8c24:	2268 000c      	moveal %a0@(12),%a1
    8c28:	2068 0008      	moveal %a0@(8),%a0
    8c2c:	2149 000c      	movel %a1,%a0@(12)
    8c30:	2348 0008      	movel %a0,%a1@(8)
    8c34:	2401           	movel %d1,%d2
    8c36:	2002           	movel %d2,%d0
    8c38:	9083           	subl %d3,%d0
    8c3a:	7201           	moveq #1,%d1
    8c3c:	c2ab 0004      	andl %a3@(4),%d1
    8c40:	41f3 2800      	lea %a3@(0,%d2:l),%a0
    8c44:	780f           	moveq #15,%d4
    8c46:	b880           	cmpl %d0,%d4
    8c48:	6556           	bcss 8ca0 <_realloc_r+0x1bc>
    8c4a:	8282           	orl %d2,%d1
    8c4c:	2741 0004      	movel %d1,%a3@(4)
    8c50:	7001           	moveq #1,%d0
    8c52:	81a8 0004      	orl %d0,%a0@(4)
    8c56:	2f0c           	movel %a4,%sp@-
    8c58:	4eb9 0000 4e12 	jsr 4e12 <__malloc_unlock>
    8c5e:	588f           	addql #4,%sp
    8c60:	2a4a           	moveal %a2,%a5
    8c62:	200d           	movel %a5,%d0
    8c64:	4cdf 7c1c      	moveml %sp@+,%d2-%d4/%a2-%fp
    8c68:	588f           	addql #4,%sp
    8c6a:	4e75           	rts
    8c6c:	0804 0000      	btst #0,%d4
    8c70:	6600 ff1c      	bnew 8b8e <_realloc_r+0xaa>
    8c74:	2c4b           	moveal %a3,%fp
    8c76:	9dea fff8      	subal %a2@(-8),%fp
    8c7a:	72fc           	moveq #-4,%d1
    8c7c:	c2ae 0004      	andl %fp@(4),%d1
    8c80:	d282           	addl %d2,%d1
    8c82:	b283           	cmpl %d3,%d1
    8c84:	6d00 ff08      	bltw 8b8e <_realloc_r+0xaa>
    8c88:	6000 00fa      	braw 8d84 <_realloc_r+0x2a0>
    8c8c:	2f4d 002c      	movel %a5,%sp@(44)
    8c90:	2f4c 0028      	movel %a4,%sp@(40)
    8c94:	4cdf 7c1c      	moveml %sp@+,%d2-%d4/%a2-%fp
    8c98:	588f           	addql #4,%sp
    8c9a:	4ef9 0000 2804 	jmp 2804 <_malloc_r>
    8ca0:	8283           	orl %d3,%d1
    8ca2:	2741 0004      	movel %d1,%a3@(4)
    8ca6:	7201           	moveq #1,%d1
    8ca8:	8280           	orl %d0,%d1
    8caa:	2781 3804      	movel %d1,%a3@(4,%d3:l)
    8cae:	7801           	moveq #1,%d4
    8cb0:	89a8 0004      	orl %d4,%a0@(4)
    8cb4:	4873 3808      	pea %a3@(8,%d3:l)
    8cb8:	2f0c           	movel %a4,%sp@-
    8cba:	4eb9 0000 7766 	jsr 7766 <_free_r>
    8cc0:	508f           	addql #8,%sp
    8cc2:	2f0c           	movel %a4,%sp@-
    8cc4:	4eb9 0000 4e12 	jsr 4e12 <__malloc_unlock>
    8cca:	588f           	addql #4,%sp
    8ccc:	2a4a           	moveal %a2,%a5
    8cce:	6092           	bras 8c62 <_realloc_r+0x17e>
    8cd0:	72fc           	moveq #-4,%d1
    8cd2:	c081           	andl %d1,%d0
    8cd4:	2200           	movel %d0,%d1
    8cd6:	d282           	addl %d2,%d1
    8cd8:	307c 0010      	moveaw #16,%a0
    8cdc:	d1c3           	addal %d3,%a0
    8cde:	b1c1           	cmpal %d1,%a0
    8ce0:	6f00 020e      	blew 8ef0 <_realloc_r+0x40c>
    8ce4:	0804 0000      	btst #0,%d4
    8ce8:	6600 fea4      	bnew 8b8e <_realloc_r+0xaa>
    8cec:	2c4b           	moveal %a3,%fp
    8cee:	9dea fff8      	subal %a2@(-8),%fp
    8cf2:	72fc           	moveq #-4,%d1
    8cf4:	c2ae 0004      	andl %fp@(4),%d1
    8cf8:	d081           	addl %d1,%d0
    8cfa:	2800           	movel %d0,%d4
    8cfc:	d882           	addl %d2,%d4
    8cfe:	b888           	cmpl %a0,%d4
    8d00:	6d00 fe84      	bltw 8b86 <_realloc_r+0xa2>
    8d04:	206e 000c      	moveal %fp@(12),%a0
    8d08:	226e 0008      	moveal %fp@(8),%a1
    8d0c:	2348 000c      	movel %a0,%a1@(12)
    8d10:	2149 0008      	movel %a1,%a0@(8)
    8d14:	4bee 0008      	lea %fp@(8),%a5
    8d18:	5982           	subql #4,%d2
    8d1a:	7024           	moveq #36,%d0
    8d1c:	b082           	cmpl %d2,%d0
    8d1e:	6500 02d8      	bcsw 8ff8 <_realloc_r+0x514>
    8d22:	7213           	moveq #19,%d1
    8d24:	b282           	cmpl %d2,%d1
    8d26:	6400 02bc      	bccw 8fe4 <_realloc_r+0x500>
    8d2a:	2d52 0008      	movel %a2@,%fp@(8)
    8d2e:	2d6a 0004 000c 	movel %a2@(4),%fp@(12)
    8d34:	701b           	moveq #27,%d0
    8d36:	b082           	cmpl %d2,%d0
    8d38:	6500 0322      	bcsw 905c <_realloc_r+0x578>
    8d3c:	508a           	addql #8,%a2
    8d3e:	41ee 0010      	lea %fp@(16),%a0
    8d42:	2092           	movel %a2@,%a0@
    8d44:	216a 0004 0004 	movel %a2@(4),%a0@(4)
    8d4a:	216a 0008 0008 	movel %a2@(8),%a0@(8)
    8d50:	41f6 3800      	lea %fp@(0,%d3:l),%a0
    8d54:	23c8 0001 2d9c 	movel %a0,12d9c <__malloc_av_+0x8>
    8d5a:	9883           	subl %d3,%d4
    8d5c:	7001           	moveq #1,%d0
    8d5e:	8084           	orl %d4,%d0
    8d60:	2140 0004      	movel %d0,%a0@(4)
    8d64:	7001           	moveq #1,%d0
    8d66:	c0ae 0004      	andl %fp@(4),%d0
    8d6a:	8083           	orl %d3,%d0
    8d6c:	2d40 0004      	movel %d0,%fp@(4)
    8d70:	2f0c           	movel %a4,%sp@-
    8d72:	4eb9 0000 4e12 	jsr 4e12 <__malloc_unlock>
    8d78:	588f           	addql #4,%sp
    8d7a:	200d           	movel %a5,%d0
    8d7c:	4cdf 7c1c      	moveml %sp@+,%d2-%d4/%a2-%fp
    8d80:	588f           	addql #4,%sp
    8d82:	4e75           	rts
    8d84:	206e 000c      	moveal %fp@(12),%a0
    8d88:	226e 0008      	moveal %fp@(8),%a1
    8d8c:	2348 000c      	movel %a0,%a1@(12)
    8d90:	2149 0008      	movel %a1,%a0@(8)
    8d94:	280e           	movel %fp,%d4
    8d96:	5084           	addql #8,%d4
    8d98:	5982           	subql #4,%d2
    8d9a:	7024           	moveq #36,%d0
    8d9c:	b082           	cmpl %d2,%d0
    8d9e:	6500 012e      	bcsw 8ece <_realloc_r+0x3ea>
    8da2:	7013           	moveq #19,%d0
    8da4:	b082           	cmpl %d2,%d0
    8da6:	6400 0112      	bccw 8eba <_realloc_r+0x3d6>
    8daa:	2d52 0008      	movel %a2@,%fp@(8)
    8dae:	2d6a 0004 000c 	movel %a2@(4),%fp@(12)
    8db4:	701b           	moveq #27,%d0
    8db6:	b082           	cmpl %d2,%d0
    8db8:	6500 0198      	bcsw 8f52 <_realloc_r+0x46e>
    8dbc:	508a           	addql #8,%a2
    8dbe:	41ee 0010      	lea %fp@(16),%a0
    8dc2:	2092           	movel %a2@,%a0@
    8dc4:	216a 0004 0004 	movel %a2@(4),%a0@(4)
    8dca:	216a 0008 0008 	movel %a2@(8),%a0@(8)
    8dd0:	2444           	moveal %d4,%a2
    8dd2:	2401           	movel %d1,%d2
    8dd4:	264e           	moveal %fp,%a3
    8dd6:	6000 fe5e      	braw 8c36 <_realloc_r+0x152>
    8dda:	204d           	moveal %a5,%a0
    8ddc:	224a           	moveal %a2,%a1
    8dde:	2091           	movel %a1@,%a0@
    8de0:	2169 0004 0004 	movel %a1@(4),%a0@(4)
    8de6:	2169 0008 0008 	movel %a1@(8),%a0@(8)
    8dec:	6000 fdfe      	braw 8bec <_realloc_r+0x108>
    8df0:	2268 000c      	moveal %a0@(12),%a1
    8df4:	2068 0008      	moveal %a0@(8),%a0
    8df8:	2149 000c      	movel %a1,%a0@(12)
    8dfc:	2348 0008      	movel %a0,%a1@(8)
    8e00:	206e 000c      	moveal %fp@(12),%a0
    8e04:	226e 0008      	moveal %fp@(8),%a1
    8e08:	2348 000c      	movel %a0,%a1@(12)
    8e0c:	2149 0008      	movel %a1,%a0@(8)
    8e10:	47ee 0008      	lea %fp@(8),%a3
    8e14:	5982           	subql #4,%d2
    8e16:	7224           	moveq #36,%d1
    8e18:	b282           	cmpl %d2,%d1
    8e1a:	6500 011c      	bcsw 8f38 <_realloc_r+0x454>
    8e1e:	7013           	moveq #19,%d0
    8e20:	b082           	cmpl %d2,%d0
    8e22:	6400 0100      	bccw 8f24 <_realloc_r+0x440>
    8e26:	2d52 0008      	movel %a2@,%fp@(8)
    8e2a:	2d6a 0004 000c 	movel %a2@(4),%fp@(12)
    8e30:	721b           	moveq #27,%d1
    8e32:	b282           	cmpl %d2,%d1
    8e34:	6500 0180      	bcsw 8fb6 <_realloc_r+0x4d2>
    8e38:	508a           	addql #8,%a2
    8e3a:	41ee 0010      	lea %fp@(16),%a0
    8e3e:	2092           	movel %a2@,%a0@
    8e40:	216a 0004 0004 	movel %a2@(4),%a0@(4)
    8e46:	216a 0008 0008 	movel %a2@(8),%a0@(8)
    8e4c:	244b           	moveal %a3,%a2
    8e4e:	2404           	movel %d4,%d2
    8e50:	264e           	moveal %fp,%a3
    8e52:	6000 fde2      	braw 8c36 <_realloc_r+0x152>
    8e56:	70fc           	moveq #-4,%d0
    8e58:	c0ad fffc      	andl %a5@(-4),%d0
    8e5c:	d480           	addl %d0,%d2
    8e5e:	6000 fdd6      	braw 8c36 <_realloc_r+0x152>
    8e62:	2f02           	movel %d2,%sp@-
    8e64:	2f0a           	movel %a2,%sp@-
    8e66:	2f0d           	movel %a5,%sp@-
    8e68:	4eb9 0000 583c 	jsr 583c <memmove>
    8e6e:	4fef 000c      	lea %sp@(12),%sp
    8e72:	2f0a           	movel %a2,%sp@-
    8e74:	2f0c           	movel %a4,%sp@-
    8e76:	4eb9 0000 7766 	jsr 7766 <_free_r>
    8e7c:	2f0c           	movel %a4,%sp@-
    8e7e:	4eb9 0000 4e12 	jsr 4e12 <__malloc_unlock>
    8e84:	4fef 000c      	lea %sp@(12),%sp
    8e88:	6000 fd78      	braw 8c02 <_realloc_r+0x11e>
    8e8c:	2b6a 0008 0008 	movel %a2@(8),%a5@(8)
    8e92:	2b6a 000c 000c 	movel %a2@(12),%a5@(12)
    8e98:	7224           	moveq #36,%d1
    8e9a:	b282           	cmpl %d2,%d1
    8e9c:	6700 00f2      	beqw 8f90 <_realloc_r+0x4ac>
    8ea0:	43ea 0010      	lea %a2@(16),%a1
    8ea4:	41ed 0010      	lea %a5@(16),%a0
    8ea8:	2091           	movel %a1@,%a0@
    8eaa:	2169 0004 0004 	movel %a1@(4),%a0@(4)
    8eb0:	2169 0008 0008 	movel %a1@(8),%a0@(8)
    8eb6:	6000 fd34      	braw 8bec <_realloc_r+0x108>
    8eba:	2044           	moveal %d4,%a0
    8ebc:	2092           	movel %a2@,%a0@
    8ebe:	216a 0004 0004 	movel %a2@(4),%a0@(4)
    8ec4:	216a 0008 0008 	movel %a2@(8),%a0@(8)
    8eca:	6000 ff04      	braw 8dd0 <_realloc_r+0x2ec>
    8ece:	2f02           	movel %d2,%sp@-
    8ed0:	2f0a           	movel %a2,%sp@-
    8ed2:	2f04           	movel %d4,%sp@-
    8ed4:	2f41 002c      	movel %d1,%sp@(44)
    8ed8:	4eb9 0000 583c 	jsr 583c <memmove>
    8ede:	4fef 000c      	lea %sp@(12),%sp
    8ee2:	222f 0020      	movel %sp@(32),%d1
    8ee6:	2444           	moveal %d4,%a2
    8ee8:	2401           	movel %d1,%d2
    8eea:	264e           	moveal %fp,%a3
    8eec:	6000 fd48      	braw 8c36 <_realloc_r+0x152>
    8ef0:	d7c3           	addal %d3,%a3
    8ef2:	23cb 0001 2d9c 	movel %a3,12d9c <__malloc_av_+0x8>
    8ef8:	9283           	subl %d3,%d1
    8efa:	7801           	moveq #1,%d4
    8efc:	8881           	orl %d1,%d4
    8efe:	2744 0004      	movel %d4,%a3@(4)
    8f02:	7001           	moveq #1,%d0
    8f04:	c0aa fffc      	andl %a2@(-4),%d0
    8f08:	8083           	orl %d3,%d0
    8f0a:	2540 fffc      	movel %d0,%a2@(-4)
    8f0e:	2f0c           	movel %a4,%sp@-
    8f10:	4eb9 0000 4e12 	jsr 4e12 <__malloc_unlock>
    8f16:	588f           	addql #4,%sp
    8f18:	2a4a           	moveal %a2,%a5
    8f1a:	200d           	movel %a5,%d0
    8f1c:	4cdf 7c1c      	moveml %sp@+,%d2-%d4/%a2-%fp
    8f20:	588f           	addql #4,%sp
    8f22:	4e75           	rts
    8f24:	204b           	moveal %a3,%a0
    8f26:	2092           	movel %a2@,%a0@
    8f28:	216a 0004 0004 	movel %a2@(4),%a0@(4)
    8f2e:	216a 0008 0008 	movel %a2@(8),%a0@(8)
    8f34:	6000 ff16      	braw 8e4c <_realloc_r+0x368>
    8f38:	2f02           	movel %d2,%sp@-
    8f3a:	2f0a           	movel %a2,%sp@-
    8f3c:	2f0b           	movel %a3,%sp@-
    8f3e:	4eb9 0000 583c 	jsr 583c <memmove>
    8f44:	4fef 000c      	lea %sp@(12),%sp
    8f48:	244b           	moveal %a3,%a2
    8f4a:	2404           	movel %d4,%d2
    8f4c:	264e           	moveal %fp,%a3
    8f4e:	6000 fce6      	braw 8c36 <_realloc_r+0x152>
    8f52:	2d6a 0008 0010 	movel %a2@(8),%fp@(16)
    8f58:	2d6a 000c 0014 	movel %a2@(12),%fp@(20)
    8f5e:	7024           	moveq #36,%d0
    8f60:	b082           	cmpl %d2,%d0
    8f62:	6700 00d2      	beqw 9036 <_realloc_r+0x552>
    8f66:	45ea 0010      	lea %a2@(16),%a2
    8f6a:	41ee 0018      	lea %fp@(24),%a0
    8f6e:	2092           	movel %a2@,%a0@
    8f70:	216a 0004 0004 	movel %a2@(4),%a0@(4)
    8f76:	216a 0008 0008 	movel %a2@(8),%a0@(8)
    8f7c:	6000 fe52      	braw 8dd0 <_realloc_r+0x2ec>
    8f80:	2f0c           	movel %a4,%sp@-
    8f82:	4eb9 0000 4e12 	jsr 4e12 <__malloc_unlock>
    8f88:	588f           	addql #4,%sp
    8f8a:	9bcd           	subal %a5,%a5
    8f8c:	6000 fc8c      	braw 8c1a <_realloc_r+0x136>
    8f90:	2b6a 0010 0010 	movel %a2@(16),%a5@(16)
    8f96:	43ea 0018      	lea %a2@(24),%a1
    8f9a:	41ed 0018      	lea %a5@(24),%a0
    8f9e:	2b6a 0014 0014 	movel %a2@(20),%a5@(20)
    8fa4:	2091           	movel %a1@,%a0@
    8fa6:	2169 0004 0004 	movel %a1@(4),%a0@(4)
    8fac:	2169 0008 0008 	movel %a1@(8),%a0@(8)
    8fb2:	6000 fc38      	braw 8bec <_realloc_r+0x108>
    8fb6:	2d6a 0008 0010 	movel %a2@(8),%fp@(16)
    8fbc:	2d6a 000c 0014 	movel %a2@(12),%fp@(20)
    8fc2:	7024           	moveq #36,%d0
    8fc4:	b082           	cmpl %d2,%d0
    8fc6:	6700 00c0      	beqw 9088 <_realloc_r+0x5a4>
    8fca:	45ea 0010      	lea %a2@(16),%a2
    8fce:	41ee 0018      	lea %fp@(24),%a0
    8fd2:	2092           	movel %a2@,%a0@
    8fd4:	216a 0004 0004 	movel %a2@(4),%a0@(4)
    8fda:	216a 0008 0008 	movel %a2@(8),%a0@(8)
    8fe0:	6000 fe6a      	braw 8e4c <_realloc_r+0x368>
    8fe4:	204d           	moveal %a5,%a0
    8fe6:	2092           	movel %a2@,%a0@
    8fe8:	216a 0004 0004 	movel %a2@(4),%a0@(4)
    8fee:	216a 0008 0008 	movel %a2@(8),%a0@(8)
    8ff4:	6000 fd5a      	braw 8d50 <_realloc_r+0x26c>
    8ff8:	2f02           	movel %d2,%sp@-
    8ffa:	2f0a           	movel %a2,%sp@-
    8ffc:	2f0d           	movel %a5,%sp@-
    8ffe:	4eb9 0000 583c 	jsr 583c <memmove>
    9004:	4fef 000c      	lea %sp@(12),%sp
    9008:	41f6 3800      	lea %fp@(0,%d3:l),%a0
    900c:	23c8 0001 2d9c 	movel %a0,12d9c <__malloc_av_+0x8>
    9012:	9883           	subl %d3,%d4
    9014:	7001           	moveq #1,%d0
    9016:	8084           	orl %d4,%d0
    9018:	2140 0004      	movel %d0,%a0@(4)
    901c:	7001           	moveq #1,%d0
    901e:	c0ae 0004      	andl %fp@(4),%d0
    9022:	8083           	orl %d3,%d0
    9024:	2d40 0004      	movel %d0,%fp@(4)
    9028:	2f0c           	movel %a4,%sp@-
    902a:	4eb9 0000 4e12 	jsr 4e12 <__malloc_unlock>
    9030:	588f           	addql #4,%sp
    9032:	6000 fd46      	braw 8d7a <_realloc_r+0x296>
    9036:	2d6a 0010 0018 	movel %a2@(16),%fp@(24)
    903c:	41ee 0020      	lea %fp@(32),%a0
    9040:	2d6a 0014 001c 	movel %a2@(20),%fp@(28)
    9046:	45ea 0018      	lea %a2@(24),%a2
    904a:	2092           	movel %a2@,%a0@
    904c:	216a 0004 0004 	movel %a2@(4),%a0@(4)
    9052:	216a 0008 0008 	movel %a2@(8),%a0@(8)
    9058:	6000 fd76      	braw 8dd0 <_realloc_r+0x2ec>
    905c:	2d6a 0008 0010 	movel %a2@(8),%fp@(16)
    9062:	2d6a 000c 0014 	movel %a2@(12),%fp@(20)
    9068:	7224           	moveq #36,%d1
    906a:	b282           	cmpl %d2,%d1
    906c:	6740           	beqs 90ae <_realloc_r+0x5ca>
    906e:	45ea 0010      	lea %a2@(16),%a2
    9072:	41ee 0018      	lea %fp@(24),%a0
    9076:	2092           	movel %a2@,%a0@
    9078:	216a 0004 0004 	movel %a2@(4),%a0@(4)
    907e:	216a 0008 0008 	movel %a2@(8),%a0@(8)
    9084:	6000 fcca      	braw 8d50 <_realloc_r+0x26c>
    9088:	2d6a 0010 0018 	movel %a2@(16),%fp@(24)
    908e:	41ee 0020      	lea %fp@(32),%a0
    9092:	2d6a 0014 001c 	movel %a2@(20),%fp@(28)
    9098:	45ea 0018      	lea %a2@(24),%a2
    909c:	2092           	movel %a2@,%a0@
    909e:	216a 0004 0004 	movel %a2@(4),%a0@(4)
    90a4:	216a 0008 0008 	movel %a2@(8),%a0@(8)
    90aa:	6000 fda0      	braw 8e4c <_realloc_r+0x368>
    90ae:	2d6a 0010 0018 	movel %a2@(16),%fp@(24)
    90b4:	41ee 0020      	lea %fp@(32),%a0
    90b8:	2d6a 0014 001c 	movel %a2@(20),%fp@(28)
    90be:	45ea 0018      	lea %a2@(24),%a2
    90c2:	2092           	movel %a2@,%a0@
    90c4:	216a 0004 0004 	movel %a2@(4),%a0@(4)
    90ca:	216a 0008 0008 	movel %a2@(8),%a0@(8)
    90d0:	6000 fc7e      	braw 8d50 <_realloc_r+0x26c>

000090d4 <_setlocale_r>:
    90d4:	2f0a           	movel %a2,%sp@-
    90d6:	2f02           	movel %d2,%sp@-
    90d8:	242f 0014      	movel %sp@(20),%d2
    90dc:	6716           	beqs 90f4 <_setlocale_r+0x20>
    90de:	4879 0001 0977 	pea 10977 <_dtors_end+0xfb>
    90e4:	2f02           	movel %d2,%sp@-
    90e6:	45f9 0000 a2fc 	lea a2fc <strcmp>,%a2
    90ec:	4e92           	jsr %a2@
    90ee:	508f           	addql #8,%sp
    90f0:	4a80           	tstl %d0
    90f2:	660c           	bnes 9100 <_setlocale_r+0x2c>
    90f4:	203c 0001 0975 	movel #67957,%d0
    90fa:	241f           	movel %sp@+,%d2
    90fc:	245f           	moveal %sp@+,%a2
    90fe:	4e75           	rts
    9100:	4879 0001 0975 	pea 10975 <_dtors_end+0xf9>
    9106:	2f02           	movel %d2,%sp@-
    9108:	4e92           	jsr %a2@
    910a:	508f           	addql #8,%sp
    910c:	4a80           	tstl %d0
    910e:	67e4           	beqs 90f4 <_setlocale_r+0x20>
    9110:	4879 0001 09ba 	pea 109ba <_dtors_end+0x13e>
    9116:	2f02           	movel %d2,%sp@-
    9118:	4e92           	jsr %a2@
    911a:	508f           	addql #8,%sp
    911c:	4a80           	tstl %d0
    911e:	67d4           	beqs 90f4 <_setlocale_r+0x20>
    9120:	7000           	moveq #0,%d0
    9122:	241f           	movel %sp@+,%d2
    9124:	245f           	moveal %sp@+,%a2
    9126:	4e75           	rts

00009128 <__locale_mb_cur_max>:
    9128:	1039 0001 32c2 	moveb 132c2 <__global_locale+0x126>,%d0
    912e:	4880           	extw %d0
    9130:	48c0           	extl %d0
    9132:	4e75           	rts

00009134 <setlocale>:
    9134:	2f0a           	movel %a2,%sp@-
    9136:	2f02           	movel %d2,%sp@-
    9138:	242f 0010      	movel %sp@(16),%d2
    913c:	6716           	beqs 9154 <setlocale+0x20>
    913e:	4879 0001 0977 	pea 10977 <_dtors_end+0xfb>
    9144:	2f02           	movel %d2,%sp@-
    9146:	45f9 0000 a2fc 	lea a2fc <strcmp>,%a2
    914c:	4e92           	jsr %a2@
    914e:	508f           	addql #8,%sp
    9150:	4a80           	tstl %d0
    9152:	660c           	bnes 9160 <setlocale+0x2c>
    9154:	203c 0001 0975 	movel #67957,%d0
    915a:	241f           	movel %sp@+,%d2
    915c:	245f           	moveal %sp@+,%a2
    915e:	4e75           	rts
    9160:	4879 0001 0975 	pea 10975 <_dtors_end+0xf9>
    9166:	2f02           	movel %d2,%sp@-
    9168:	4e92           	jsr %a2@
    916a:	508f           	addql #8,%sp
    916c:	4a80           	tstl %d0
    916e:	67e4           	beqs 9154 <setlocale+0x20>
    9170:	4879 0001 09ba 	pea 109ba <_dtors_end+0x13e>
    9176:	2f02           	movel %d2,%sp@-
    9178:	4e92           	jsr %a2@
    917a:	508f           	addql #8,%sp
    917c:	4a80           	tstl %d0
    917e:	67d4           	beqs 9154 <setlocale+0x20>
    9180:	7000           	moveq #0,%d0
    9182:	241f           	movel %sp@+,%d2
    9184:	245f           	moveal %sp@+,%a2
    9186:	4e75           	rts

00009188 <_fstat_r>:
    9188:	42b9 0001 3650 	clrl 13650 <errno>
    918e:	2f2f 000c      	movel %sp@(12),%sp@-
    9192:	2f2f 000c      	movel %sp@(12),%sp@-
    9196:	4eb9 0000 a7d2 	jsr a7d2 <_fstat>
    919c:	508f           	addql #8,%sp
    919e:	72ff           	moveq #-1,%d1
    91a0:	b280           	cmpl %d0,%d1
    91a2:	6702           	beqs 91a6 <_fstat_r+0x1e>
    91a4:	4e75           	rts
    91a6:	2239 0001 3650 	movel 13650 <errno>,%d1
    91ac:	67f6           	beqs 91a4 <_fstat_r+0x1c>
    91ae:	206f 0004      	moveal %sp@(4),%a0
    91b2:	2081           	movel %d1,%a0@
    91b4:	4e75           	rts
	...

000091b8 <_isatty_r>:
    91b8:	42b9 0001 3650 	clrl 13650 <errno>
    91be:	2f2f 0008      	movel %sp@(8),%sp@-
    91c2:	4eb9 0000 a86e 	jsr a86e <_isatty>
    91c8:	588f           	addql #4,%sp
    91ca:	72ff           	moveq #-1,%d1
    91cc:	b280           	cmpl %d0,%d1
    91ce:	6702           	beqs 91d2 <_isatty_r+0x1a>
    91d0:	4e75           	rts
    91d2:	2239 0001 3650 	movel 13650 <errno>,%d1
    91d8:	67f6           	beqs 91d0 <_isatty_r+0x18>
    91da:	206f 0004      	moveal %sp@(4),%a0
    91de:	2081           	movel %d1,%a0@
    91e0:	4e75           	rts
	...

000091e4 <__assert_func>:
    91e4:	202f 000c      	movel %sp@(12),%d0
    91e8:	6732           	beqs 921c <__assert_func+0x38>
    91ea:	223c 0001 097f 	movel #67967,%d1
    91f0:	2f00           	movel %d0,%sp@-
    91f2:	2f01           	movel %d1,%sp@-
    91f4:	2f2f 0010      	movel %sp@(16),%sp@-
    91f8:	2f2f 0010      	movel %sp@(16),%sp@-
    91fc:	2f2f 0020      	movel %sp@(32),%sp@-
    9200:	4879 0001 098c 	pea 1098c <_dtors_end+0x110>
    9206:	2079 0001 2c70 	moveal 12c70 <_impure_ptr>,%a0
    920c:	2f28 000c      	movel %a0@(12),%sp@-
    9210:	4eb9 0000 93c2 	jsr 93c2 <fiprintf>
    9216:	4eb9 0000 a37c 	jsr a37c <abort>
    921c:	203c 0001 09ba 	movel #68026,%d0
    9222:	2200           	movel %d0,%d1
    9224:	2f00           	movel %d0,%sp@-
    9226:	2f01           	movel %d1,%sp@-
    9228:	2f2f 0010      	movel %sp@(16),%sp@-
    922c:	2f2f 0010      	movel %sp@(16),%sp@-
    9230:	2f2f 0020      	movel %sp@(32),%sp@-
    9234:	4879 0001 098c 	pea 1098c <_dtors_end+0x110>
    923a:	2079 0001 2c70 	moveal 12c70 <_impure_ptr>,%a0
    9240:	2f28 000c      	movel %a0@(12),%sp@-
    9244:	4eb9 0000 93c2 	jsr 93c2 <fiprintf>
    924a:	4eb9 0000 a37c 	jsr a37c <abort>

00009250 <__assert>:
    9250:	2f2f 000c      	movel %sp@(12),%sp@-
    9254:	42a7           	clrl %sp@-
    9256:	2f2f 0010      	movel %sp@(16),%sp@-
    925a:	2f2f 0010      	movel %sp@(16),%sp@-
    925e:	4eb9 0000 91e4 	jsr 91e4 <__assert_func>

00009264 <_calloc_r>:
    9264:	48e7 3820      	moveml %d2-%d4/%a2,%sp@-
    9268:	202f 0018      	movel %sp@(24),%d0
    926c:	222f 001c      	movel %sp@(28),%d1
    9270:	2400           	movel %d0,%d2
    9272:	4242           	clrw %d2
    9274:	4842           	swap %d2
    9276:	2601           	movel %d1,%d3
    9278:	4243           	clrw %d3
    927a:	4843           	swap %d3
    927c:	4a42           	tstw %d2
    927e:	6600 009c      	bnew 931c <_calloc_r+0xb8>
    9282:	4a43           	tstw %d3
    9284:	6600 00de      	bnew 9364 <_calloc_r+0x100>
    9288:	c0c1           	muluw %d1,%d0
    928a:	2f00           	movel %d0,%sp@-
    928c:	2f2f 0018      	movel %sp@(24),%sp@-
    9290:	4eb9 0000 2804 	jsr 2804 <_malloc_r>
    9296:	2440           	moveal %d0,%a2
    9298:	508f           	addql #8,%sp
    929a:	4a80           	tstl %d0
    929c:	6700 00bc      	beqw 935a <_calloc_r+0xf6>
    92a0:	70fc           	moveq #-4,%d0
    92a2:	c0aa fffc      	andl %a2@(-4),%d0
    92a6:	5980           	subql #4,%d0
    92a8:	7224           	moveq #36,%d1
    92aa:	b280           	cmpl %d0,%d1
    92ac:	6538           	bcss 92e6 <_calloc_r+0x82>
    92ae:	7213           	moveq #19,%d1
    92b0:	b280           	cmpl %d0,%d1
    92b2:	644a           	bccs 92fe <_calloc_r+0x9a>
    92b4:	4292           	clrl %a2@
    92b6:	42aa 0004      	clrl %a2@(4)
    92ba:	721b           	moveq #27,%d1
    92bc:	b280           	cmpl %d0,%d1
    92be:	644c           	bccs 930c <_calloc_r+0xa8>
    92c0:	42aa 0008      	clrl %a2@(8)
    92c4:	42aa 000c      	clrl %a2@(12)
    92c8:	7224           	moveq #36,%d1
    92ca:	b280           	cmpl %d0,%d1
    92cc:	6700 00b6      	beqw 9384 <_calloc_r+0x120>
    92d0:	41ea 0010      	lea %a2@(16),%a0
    92d4:	4290           	clrl %a0@
    92d6:	42a8 0004      	clrl %a0@(4)
    92da:	42a8 0008      	clrl %a0@(8)
    92de:	200a           	movel %a2,%d0
    92e0:	4cdf 041c      	moveml %sp@+,%d2-%d4/%a2
    92e4:	4e75           	rts
    92e6:	2f00           	movel %d0,%sp@-
    92e8:	42a7           	clrl %sp@-
    92ea:	2f0a           	movel %a2,%sp@-
    92ec:	4eb9 0000 263c 	jsr 263c <memset>
    92f2:	4fef 000c      	lea %sp@(12),%sp
    92f6:	200a           	movel %a2,%d0
    92f8:	4cdf 041c      	moveml %sp@+,%d2-%d4/%a2
    92fc:	4e75           	rts
    92fe:	204a           	moveal %a2,%a0
    9300:	4290           	clrl %a0@
    9302:	42a8 0004      	clrl %a0@(4)
    9306:	42a8 0008      	clrl %a0@(8)
    930a:	60d2           	bras 92de <_calloc_r+0x7a>
    930c:	41ea 0008      	lea %a2@(8),%a0
    9310:	4290           	clrl %a0@
    9312:	42a8 0004      	clrl %a0@(4)
    9316:	42a8 0008      	clrl %a0@(8)
    931a:	60c2           	bras 92de <_calloc_r+0x7a>
    931c:	4a43           	tstw %d3
    931e:	6648           	bnes 9368 <_calloc_r+0x104>
    9320:	3602           	movew %d2,%d3
    9322:	3401           	movew %d1,%d2
    9324:	3800           	movew %d0,%d4
    9326:	c8c1           	muluw %d1,%d4
    9328:	c4c3           	muluw %d3,%d2
    932a:	2604           	movel %d4,%d3
    932c:	4243           	clrw %d3
    932e:	4843           	swap %d3
    9330:	d483           	addl %d3,%d2
    9332:	2602           	movel %d2,%d3
    9334:	4843           	swap %d3
    9336:	48c3           	extl %d3
    9338:	4a43           	tstw %d3
    933a:	6632           	bnes 936e <_calloc_r+0x10a>
    933c:	4842           	swap %d2
    933e:	4242           	clrw %d2
    9340:	2002           	movel %d2,%d0
    9342:	8044           	orw %d4,%d0
    9344:	2f00           	movel %d0,%sp@-
    9346:	2f2f 0018      	movel %sp@(24),%sp@-
    934a:	4eb9 0000 2804 	jsr 2804 <_malloc_r>
    9350:	2440           	moveal %d0,%a2
    9352:	508f           	addql #8,%sp
    9354:	4a80           	tstl %d0
    9356:	6600 ff48      	bnew 92a0 <_calloc_r+0x3c>
    935a:	95ca           	subal %a2,%a2
    935c:	200a           	movel %a2,%d0
    935e:	4cdf 041c      	moveml %sp@+,%d2-%d4/%a2
    9362:	4e75           	rts
    9364:	3400           	movew %d0,%d2
    9366:	60bc           	bras 9324 <_calloc_r+0xc0>
    9368:	2f01           	movel %d1,%sp@-
    936a:	2f00           	movel %d0,%sp@-
    936c:	508f           	addql #8,%sp
    936e:	2f01           	movel %d1,%sp@-
    9370:	2f00           	movel %d0,%sp@-
    9372:	508f           	addql #8,%sp
    9374:	4eb9 0000 a374 	jsr a374 <__errno>
    937a:	720c           	moveq #12,%d1
    937c:	2040           	moveal %d0,%a0
    937e:	2081           	movel %d1,%a0@
    9380:	95ca           	subal %a2,%a2
    9382:	60d8           	bras 935c <_calloc_r+0xf8>
    9384:	42aa 0010      	clrl %a2@(16)
    9388:	41ea 0018      	lea %a2@(24),%a0
    938c:	42aa 0014      	clrl %a2@(20)
    9390:	4290           	clrl %a0@
    9392:	42a8 0004      	clrl %a0@(4)
    9396:	42a8 0008      	clrl %a0@(8)
    939a:	6000 ff42      	braw 92de <_calloc_r+0x7a>
	...

000093a0 <_fiprintf_r>:
    93a0:	4e56 0000      	linkw %fp,#0
    93a4:	486e 0014      	pea %fp@(20)
    93a8:	2f2e 0010      	movel %fp@(16),%sp@-
    93ac:	2f2e 000c      	movel %fp@(12),%sp@-
    93b0:	2f2e 0008      	movel %fp@(8),%sp@-
    93b4:	4eb9 0000 9434 	jsr 9434 <_vfiprintf_r>
    93ba:	4fef 0010      	lea %sp@(16),%sp
    93be:	4e5e           	unlk %fp
    93c0:	4e75           	rts

000093c2 <fiprintf>:
    93c2:	4e56 0000      	linkw %fp,#0
    93c6:	486e 0010      	pea %fp@(16)
    93ca:	2f2e 000c      	movel %fp@(12),%sp@-
    93ce:	2f2e 0008      	movel %fp@(8),%sp@-
    93d2:	2f39 0001 2c70 	movel 12c70 <_impure_ptr>,%sp@-
    93d8:	4eb9 0000 9434 	jsr 9434 <_vfiprintf_r>
    93de:	4fef 0010      	lea %sp@(16),%sp
    93e2:	4e5e           	unlk %fp
    93e4:	4e75           	rts
	...

000093e8 <_mbtowc_r>:
    93e8:	2279 0001 3280 	moveal 13280 <__global_locale+0xe4>,%a1
    93ee:	4ed1           	jmp %a1@

000093f0 <__ascii_mbtowc>:
    93f0:	598f           	subql #4,%sp
    93f2:	226f 000c      	moveal %sp@(12),%a1
    93f6:	206f 0010      	moveal %sp@(16),%a0
    93fa:	b2fc 0000      	cmpaw #0,%a1
    93fe:	6720           	beqs 9420 <__ascii_mbtowc+0x30>
    9400:	b0fc 0000      	cmpaw #0,%a0
    9404:	6722           	beqs 9428 <__ascii_mbtowc+0x38>
    9406:	4aaf 0014      	tstl %sp@(20)
    940a:	6722           	beqs 942e <__ascii_mbtowc+0x3e>
    940c:	7000           	moveq #0,%d0
    940e:	1010           	moveb %a0@,%d0
    9410:	2280           	movel %d0,%a1@
    9412:	4a10           	tstb %a0@
    9414:	56c0           	sne %d0
    9416:	4880           	extw %d0
    9418:	48c0           	extl %d0
    941a:	4480           	negl %d0
    941c:	588f           	addql #4,%sp
    941e:	4e75           	rts
    9420:	224f           	moveal %sp,%a1
    9422:	b0fc 0000      	cmpaw #0,%a0
    9426:	66de           	bnes 9406 <__ascii_mbtowc+0x16>
    9428:	7000           	moveq #0,%d0
    942a:	588f           	addql #4,%sp
    942c:	4e75           	rts
    942e:	70fe           	moveq #-2,%d0
    9430:	588f           	addql #4,%sp
    9432:	4e75           	rts

00009434 <_vfiprintf_r>:
    9434:	4e56 ff6c      	linkw %fp,#-148
    9438:	48e7 3f3c      	moveml %d2-%d7/%a2-%a5,%sp@-
    943c:	2d6e 0008 ff78 	movel %fp@(8),%fp@(-136)
    9442:	2d6e 000c ff70 	movel %fp@(12),%fp@(-144)
    9448:	286e 0010      	moveal %fp@(16),%a4
    944c:	2d6e 0014 ff7c 	movel %fp@(20),%fp@(-132)
    9452:	4aae ff78      	tstl %fp@(-136)
    9456:	670c           	beqs 9464 <_vfiprintf_r+0x30>
    9458:	206e ff78      	moveal %fp@(-136),%a0
    945c:	4aa8 0032      	tstl %a0@(50)
    9460:	6700 0c24      	beqw a086 <_vfiprintf_r+0xc52>
    9464:	226e ff70      	moveal %fp@(-144),%a1
    9468:	2029 0064      	movel %a1@(100),%d0
    946c:	3229 000c      	movew %a1@(12),%d1
    9470:	0801 000d      	btst #13,%d1
    9474:	6610           	bnes 9486 <_vfiprintf_r+0x52>
    9476:	0041 2000      	oriw #8192,%d1
    947a:	3341 000c      	movew %d1,%a1@(12)
    947e:	0240 dfff      	andiw #-8193,%d0
    9482:	2340 0064      	movel %d0,%a1@(100)
    9486:	0800 000d      	btst #13,%d0
    948a:	6600 0d40      	bnew a1cc <_vfiprintf_r+0xd98>
    948e:	206e ff70      	moveal %fp@(-144),%a0
    9492:	3028 000c      	movew %a0@(12),%d0
    9496:	0800 0003      	btst #3,%d0
    949a:	6700 01a2      	beqw 963e <_vfiprintf_r+0x20a>
    949e:	4aa8 0010      	tstl %a0@(16)
    94a2:	6700 019a      	beqw 963e <_vfiprintf_r+0x20a>
    94a6:	0240 001a      	andiw #26,%d0
    94aa:	0c40 000a      	cmpiw #10,%d0
    94ae:	6700 032a      	beqw 97da <_vfiprintf_r+0x3a6>
    94b2:	43ee ffc0      	lea %fp@(-64),%a1
    94b6:	2d49 ff8c      	movel %a1,%fp@(-116)
    94ba:	42ae ff94      	clrl %fp@(-108)
    94be:	42ae ff90      	clrl %fp@(-112)
    94c2:	2e09           	movel %a1,%d7
    94c4:	2449           	moveal %a1,%a2
    94c6:	42ae ff80      	clrl %fp@(-128)
    94ca:	42ae ff74      	clrl %fp@(-140)
    94ce:	1014           	moveb %a4@,%d0
    94d0:	6700 01f6      	beqw 96c8 <_vfiprintf_r+0x294>
    94d4:	264c           	moveal %a4,%a3
    94d6:	0c00 0025      	cmpib #37,%d0
    94da:	6700 019e      	beqw 967a <_vfiprintf_r+0x246>
    94de:	528b           	addql #1,%a3
    94e0:	1013           	moveb %a3@,%d0
    94e2:	66f2           	bnes 94d6 <_vfiprintf_r+0xa2>
    94e4:	2a4b           	moveal %a3,%a5
    94e6:	9bcc           	subal %a4,%a5
    94e8:	b9cb           	cmpal %a3,%a4
    94ea:	6700 01dc      	beqw 96c8 <_vfiprintf_r+0x294>
    94ee:	248c           	movel %a4,%a2@
    94f0:	254d 0004      	movel %a5,%a2@(4)
    94f4:	200d           	movel %a5,%d0
    94f6:	d1ae ff94      	addl %d0,%fp@(-108)
    94fa:	202e ff90      	movel %fp@(-112),%d0
    94fe:	5280           	addql #1,%d0
    9500:	2d40 ff90      	movel %d0,%fp@(-112)
    9504:	7207           	moveq #7,%d1
    9506:	b280           	cmpl %d0,%d1
    9508:	6d00 0198      	bltw 96a2 <_vfiprintf_r+0x26e>
    950c:	508a           	addql #8,%a2
    950e:	200d           	movel %a5,%d0
    9510:	d1ae ff74      	addl %d0,%fp@(-140)
    9514:	1013           	moveb %a3@,%d0
    9516:	6700 01b0      	beqw 96c8 <_vfiprintf_r+0x294>
    951a:	528b           	addql #1,%a3
    951c:	422e ff89      	clrb %fp@(-119)
    9520:	3a7c ffff      	moveaw #-1,%a5
    9524:	7400           	moveq #0,%d2
    9526:	7600           	moveq #0,%d3
    9528:	284b           	moveal %a3,%a4
    952a:	101c           	moveb %a4@+,%d0
    952c:	4880           	extw %d0
    952e:	3040           	moveaw %d0,%a0
    9530:	43e8 ffe0      	lea %a0@(-32),%a1
    9534:	7258           	moveq #88,%d1
    9536:	b289           	cmpl %a1,%d1
    9538:	6500 01b2      	bcsw 96ec <_vfiprintf_r+0x2b8>
    953c:	2009           	movel %a1,%d0
    953e:	d080           	addl %d0,%d0
    9540:	303b 0806      	movew %pc@(9548 <_vfiprintf_r+0x114>,%d0:l),%d0
    9544:	4efb 0002      	jmp %pc@(9548 <_vfiprintf_r+0x114>,%d0:w)
    9548:	074a 01a4      	movepl %a2@(420),%d3
    954c:	01a4           	bclr %d0,%a4@-
    954e:	073c 01a4      	btst %d3,#-92
    9552:	01a4           	bclr %d0,%a4@-
    9554:	01a4           	bclr %d0,%a4@-
    9556:	01a4           	bclr %d0,%a4@-
    9558:	01a4           	bclr %d0,%a4@-
    955a:	01a4           	bclr %d0,%a4@-
    955c:	058c 070e      	movepw %d2,%a4@(1806)
    9560:	01a4           	bclr %d0,%a4@-
    9562:	059c           	bclr %d2,%a4@+
    9564:	05aa 01a4      	bclr %d2,%a2@(420)
    9568:	07c6           	bset %d3,%d6
    956a:	00b2 00b2 00b2 	oril #11665586,%a2@(ffffffffffffffb2,%d0:w)
    9570:	00b2 
    9572:	00b2 00b2 00b2 	oril #11665586,%a2@(ffffffffffffffb2,%d0:w)
    9578:	00b2 
    957a:	00b2 01a4 01a4 	oril #27525540,@(1a4)@(0,%d0:w)
    9580:	01a4 01a4 
    9584:	01a4           	bclr %d0,%a4@-
    9586:	01a4           	bclr %d0,%a4@-
    9588:	01a4           	bclr %d0,%a4@-
    958a:	01a4           	bclr %d0,%a4@-
    958c:	01a4           	bclr %d0,%a4@-
    958e:	01a4           	bclr %d0,%a4@-
    9590:	0762           	bchg %d3,%a2@-
    9592:	01a4           	bclr %d0,%a4@-
    9594:	01a4           	bclr %d0,%a4@-
    9596:	01a4           	bclr %d0,%a4@-
    9598:	01a4           	bclr %d0,%a4@-
    959a:	01a4           	bclr %d0,%a4@-
    959c:	01a4           	bclr %d0,%a4@-
    959e:	01a4           	bclr %d0,%a4@-
    95a0:	01a4           	bclr %d0,%a4@-
    95a2:	01a4           	bclr %d0,%a4@-
    95a4:	01a4           	bclr %d0,%a4@-
    95a6:	0672 01a4 01a4 	addiw #420,@(1a4)@(0,%d0:w)
    95ac:	01a4 
    95ae:	01a4           	bclr %d0,%a4@-
    95b0:	01a4           	bclr %d0,%a4@-
    95b2:	061e 01a4      	addib #-92,%fp@+
    95b6:	01a4           	bclr %d0,%a4@-
    95b8:	09ea 01a4      	bset %d4,%a2@(420)
    95bc:	01a4           	bclr %d0,%a4@-
    95be:	01a4           	bclr %d0,%a4@-
    95c0:	01a4           	bclr %d0,%a4@-
    95c2:	01a4           	bclr %d0,%a4@-
    95c4:	01a4           	bclr %d0,%a4@-
    95c6:	01a4           	bclr %d0,%a4@-
    95c8:	01a4           	bclr %d0,%a4@-
    95ca:	01a4           	bclr %d0,%a4@-
    95cc:	01a4           	bclr %d0,%a4@-
    95ce:	05f4 0522 01a4 	bset %d2,%a4@(1a4,%d0:w:4)@(1a4)
    95d4:	01a4 
    95d6:	01a4           	bclr %d0,%a4@-
    95d8:	0806 0522      	btst #34,%d6
    95dc:	01a4           	bclr %d0,%a4@-
    95de:	01a4           	bclr %d0,%a4@-
    95e0:	0124           	btst %d0,%a4@-
    95e2:	01a4           	bclr %d0,%a4@-
    95e4:	07d6           	bset %d3,%fp@
    95e6:	06de           	.short 0x06de
    95e8:	08f2 0124 01a4 	bset #36,@(89e)@(0,%d0:w)
    95ee:	089e 
    95f0:	01a4           	bclr %d0,%a4@-
    95f2:	0814 01a4      	btst #-92,%a4@
    95f6:	01a4           	bclr %d0,%a4@-
    95f8:	0b68 7400      	bchg %d5,%a0@(29696)
    95fc:	43e8 ffd0      	lea %a0@(-48),%a1
    9600:	2002           	movel %d2,%d0
    9602:	d082           	addl %d2,%d0
    9604:	d080           	addl %d0,%d0
    9606:	d480           	addl %d0,%d2
    9608:	d482           	addl %d2,%d2
    960a:	d489           	addl %a1,%d2
    960c:	101c           	moveb %a4@+,%d0
    960e:	4880           	extw %d0
    9610:	3040           	moveaw %d0,%a0
    9612:	43e8 ffd0      	lea %a0@(-48),%a1
    9616:	7209           	moveq #9,%d1
    9618:	b289           	cmpl %a1,%d1
    961a:	6500 ff14      	bcsw 9530 <_vfiprintf_r+0xfc>
    961e:	2002           	movel %d2,%d0
    9620:	d082           	addl %d2,%d0
    9622:	d080           	addl %d0,%d0
    9624:	d480           	addl %d0,%d2
    9626:	d482           	addl %d2,%d2
    9628:	d489           	addl %a1,%d2
    962a:	101c           	moveb %a4@+,%d0
    962c:	4880           	extw %d0
    962e:	3040           	moveaw %d0,%a0
    9630:	43e8 ffd0      	lea %a0@(-48),%a1
    9634:	7209           	moveq #9,%d1
    9636:	b289           	cmpl %a1,%d1
    9638:	64c6           	bccs 9600 <_vfiprintf_r+0x1cc>
    963a:	6000 fef4      	braw 9530 <_vfiprintf_r+0xfc>
    963e:	2f2e ff70      	movel %fp@(-144),%sp@-
    9642:	2f2e ff78      	movel %fp@(-136),%sp@-
    9646:	4eb9 0000 5678 	jsr 5678 <__swsetup_r>
    964c:	508f           	addql #8,%sp
    964e:	4a80           	tstl %d0
    9650:	6600 0b7a      	bnew a1cc <_vfiprintf_r+0xd98>
    9654:	226e ff70      	moveal %fp@(-144),%a1
    9658:	3029 000c      	movew %a1@(12),%d0
    965c:	0240 001a      	andiw #26,%d0
    9660:	0c40 000a      	cmpiw #10,%d0
    9664:	6600 fe4c      	bnew 94b2 <_vfiprintf_r+0x7e>
    9668:	6000 0170      	braw 97da <_vfiprintf_r+0x3a6>
    966c:	7210           	moveq #16,%d1
    966e:	8681           	orl %d1,%d3
    9670:	101c           	moveb %a4@+,%d0
    9672:	4880           	extw %d0
    9674:	3040           	moveaw %d0,%a0
    9676:	6000 feb8      	braw 9530 <_vfiprintf_r+0xfc>
    967a:	2a4b           	moveal %a3,%a5
    967c:	9bcc           	subal %a4,%a5
    967e:	b9cb           	cmpal %a3,%a4
    9680:	6700 fe92      	beqw 9514 <_vfiprintf_r+0xe0>
    9684:	248c           	movel %a4,%a2@
    9686:	254d 0004      	movel %a5,%a2@(4)
    968a:	200d           	movel %a5,%d0
    968c:	d1ae ff94      	addl %d0,%fp@(-108)
    9690:	202e ff90      	movel %fp@(-112),%d0
    9694:	5280           	addql #1,%d0
    9696:	2d40 ff90      	movel %d0,%fp@(-112)
    969a:	7207           	moveq #7,%d1
    969c:	b280           	cmpl %d0,%d1
    969e:	6c00 fe6c      	bgew 950c <_vfiprintf_r+0xd8>
    96a2:	486e ff8c      	pea %fp@(-116)
    96a6:	2f2e ff70      	movel %fp@(-144),%sp@-
    96aa:	2f2e ff78      	movel %fp@(-136),%sp@-
    96ae:	4eb9 0000 4e14 	jsr 4e14 <__sprint_r>
    96b4:	4fef 000c      	lea %sp@(12),%sp
    96b8:	4a80           	tstl %d0
    96ba:	6614           	bnes 96d0 <_vfiprintf_r+0x29c>
    96bc:	2447           	moveal %d7,%a2
    96be:	200d           	movel %a5,%d0
    96c0:	d1ae ff74      	addl %d0,%fp@(-140)
    96c4:	6000 fe4e      	braw 9514 <_vfiprintf_r+0xe0>
    96c8:	4aae ff94      	tstl %fp@(-108)
    96cc:	6600 0ada      	bnew a1a8 <_vfiprintf_r+0xd74>
    96d0:	206e ff70      	moveal %fp@(-144),%a0
    96d4:	0828 0006 000d 	btst #6,%a0@(13)
    96da:	6600 0af0      	bnew a1cc <_vfiprintf_r+0xd98>
    96de:	202e ff74      	movel %fp@(-140),%d0
    96e2:	4cee 3cfc ff44 	moveml %fp@(-188),%d2-%d7/%a2-%a5
    96e8:	4e5e           	unlk %fp
    96ea:	4e75           	rts
    96ec:	b0fc 0000      	cmpaw #0,%a0
    96f0:	67d6           	beqs 96c8 <_vfiprintf_r+0x294>
    96f2:	3008           	movew %a0,%d0
    96f4:	1d40 ff98      	moveb %d0,%fp@(-104)
    96f8:	422e ff89      	clrb %fp@(-119)
    96fc:	7801           	moveq #1,%d4
    96fe:	7c01           	moveq #1,%d6
    9700:	41ee ff98      	lea %fp@(-104),%a0
    9704:	2d48 ff6c      	movel %a0,%fp@(-148)
    9708:	9bcd           	subal %a5,%a5
    970a:	97cb           	subal %a3,%a3
    970c:	7a7b           	moveq #123,%d5
    970e:	4605           	notb %d5
    9710:	ca83           	andl %d3,%d5
    9712:	206e ff94      	moveal %fp@(-108),%a0
    9716:	202e ff90      	movel %fp@(-112),%d0
    971a:	4a85           	tstl %d5
    971c:	660c           	bnes 972a <_vfiprintf_r+0x2f6>
    971e:	2242           	moveal %d2,%a1
    9720:	93c4           	subal %d4,%a1
    9722:	b2fc 0000      	cmpaw #0,%a1
    9726:	6e00 0232      	bgtw 995a <_vfiprintf_r+0x526>
    972a:	4a2e ff89      	tstb %fp@(-119)
    972e:	6722           	beqs 9752 <_vfiprintf_r+0x31e>
    9730:	5280           	addql #1,%d0
    9732:	43ee ff89      	lea %fp@(-119),%a1
    9736:	2489           	movel %a1,%a2@
    9738:	7201           	moveq #1,%d1
    973a:	2541 0004      	movel %d1,%a2@(4)
    973e:	5288           	addql #1,%a0
    9740:	2d48 ff94      	movel %a0,%fp@(-108)
    9744:	2d40 ff90      	movel %d0,%fp@(-112)
    9748:	7207           	moveq #7,%d1
    974a:	b280           	cmpl %d0,%d1
    974c:	6d00 0860      	bltw 9fae <_vfiprintf_r+0xb7a>
    9750:	508a           	addql #8,%a2
    9752:	b6fc 0000      	cmpaw #0,%a3
    9756:	6722           	beqs 977a <_vfiprintf_r+0x346>
    9758:	5280           	addql #1,%d0
    975a:	43ee ff8a      	lea %fp@(-118),%a1
    975e:	2489           	movel %a1,%a2@
    9760:	7202           	moveq #2,%d1
    9762:	2541 0004      	movel %d1,%a2@(4)
    9766:	5488           	addql #2,%a0
    9768:	2d48 ff94      	movel %a0,%fp@(-108)
    976c:	2d40 ff90      	movel %d0,%fp@(-112)
    9770:	7207           	moveq #7,%d1
    9772:	b280           	cmpl %d0,%d1
    9774:	6d00 0862      	bltw 9fd8 <_vfiprintf_r+0xba4>
    9778:	508a           	addql #8,%a2
    977a:	0c85 0000 0080 	cmpil #128,%d5
    9780:	6700 0086      	beqw 9808 <_vfiprintf_r+0x3d4>
    9784:	9bc6           	subal %d6,%a5
    9786:	bafc 0000      	cmpaw #0,%a5
    978a:	6e00 010a      	bgtw 9896 <_vfiprintf_r+0x462>
    978e:	24ae ff6c      	movel %fp@(-148),%a2@
    9792:	2546 0004      	movel %d6,%a2@(4)
    9796:	d1c6           	addal %d6,%a0
    9798:	2d48 ff94      	movel %a0,%fp@(-108)
    979c:	5280           	addql #1,%d0
    979e:	2d40 ff90      	movel %d0,%fp@(-112)
    97a2:	7207           	moveq #7,%d1
    97a4:	b280           	cmpl %d0,%d1
    97a6:	6d00 0166      	bltw 990e <_vfiprintf_r+0x4da>
    97aa:	508a           	addql #8,%a2
    97ac:	0803 0002      	btst #2,%d3
    97b0:	670c           	beqs 97be <_vfiprintf_r+0x38a>
    97b2:	2242           	moveal %d2,%a1
    97b4:	93c4           	subal %d4,%a1
    97b6:	2d49 ff84      	movel %a1,%fp@(-124)
    97ba:	6e00 021a      	bgtw 99d6 <_vfiprintf_r+0x5a2>
    97be:	b882           	cmpl %d2,%d4
    97c0:	6f02           	bles 97c4 <_vfiprintf_r+0x390>
    97c2:	2404           	movel %d4,%d2
    97c4:	d5ae ff74      	addl %d2,%fp@(-140)
    97c8:	b0fc 0000      	cmpaw #0,%a0
    97cc:	6600 0166      	bnew 9934 <_vfiprintf_r+0x500>
    97d0:	42ae ff90      	clrl %fp@(-112)
    97d4:	2447           	moveal %d7,%a2
    97d6:	6000 fcf6      	braw 94ce <_vfiprintf_r+0x9a>
    97da:	206e ff70      	moveal %fp@(-144),%a0
    97de:	4a68 000e      	tstw %a0@(14)
    97e2:	6d00 fcce      	bltw 94b2 <_vfiprintf_r+0x7e>
    97e6:	2d6e ff7c 0014 	movel %fp@(-132),%fp@(20)
    97ec:	2d4c 0010      	movel %a4,%fp@(16)
    97f0:	2d48 000c      	movel %a0,%fp@(12)
    97f4:	2d6e ff78 0008 	movel %fp@(-136),%fp@(8)
    97fa:	4cee 3cfc ff44 	moveml %fp@(-188),%d2-%d7/%a2-%a5
    9800:	4e5e           	unlk %fp
    9802:	4ef9 0000 a220 	jmp a220 <__sbprintf>
    9808:	2642           	moveal %d2,%a3
    980a:	97c4           	subal %d4,%a3
    980c:	b6fc 0000      	cmpaw #0,%a3
    9810:	6f00 ff72      	blew 9784 <_vfiprintf_r+0x350>
    9814:	7210           	moveq #16,%d1
    9816:	b28b           	cmpl %a3,%d1
    9818:	6c52           	bges 986c <_vfiprintf_r+0x438>
    981a:	7a8c           	moveq #-116,%d5
    981c:	da8e           	addl %fp,%d5
    981e:	224a           	moveal %a2,%a1
    9820:	244b           	moveal %a3,%a2
    9822:	2206           	movel %d6,%d1
    9824:	2c03           	movel %d3,%d6
    9826:	2644           	moveal %d4,%a3
    9828:	2802           	movel %d2,%d4
    982a:	242e ff78      	movel %fp@(-136),%d2
    982e:	2601           	movel %d1,%d3
    9830:	22bc 0001 0c19 	movel #68633,%a1@
    9836:	7210           	moveq #16,%d1
    9838:	2341 0004      	movel %d1,%a1@(4)
    983c:	41e8 0010      	lea %a0@(16),%a0
    9840:	2d48 ff94      	movel %a0,%fp@(-108)
    9844:	5280           	addql #1,%d0
    9846:	2d40 ff90      	movel %d0,%fp@(-112)
    984a:	7207           	moveq #7,%d1
    984c:	b280           	cmpl %d0,%d1
    984e:	6d00 06b0      	bltw 9f00 <_vfiprintf_r+0xacc>
    9852:	5089           	addql #8,%a1
    9854:	45ea fff0      	lea %a2@(-16),%a2
    9858:	7210           	moveq #16,%d1
    985a:	b28a           	cmpl %a2,%d1
    985c:	6dd2           	blts 9830 <_vfiprintf_r+0x3fc>
    985e:	2404           	movel %d4,%d2
    9860:	2203           	movel %d3,%d1
    9862:	2606           	movel %d6,%d3
    9864:	280b           	movel %a3,%d4
    9866:	264a           	moveal %a2,%a3
    9868:	2449           	moveal %a1,%a2
    986a:	2c01           	movel %d1,%d6
    986c:	24bc 0001 0c19 	movel #68633,%a2@
    9872:	254b 0004      	movel %a3,%a2@(4)
    9876:	d1cb           	addal %a3,%a0
    9878:	2d48 ff94      	movel %a0,%fp@(-108)
    987c:	5280           	addql #1,%d0
    987e:	2d40 ff90      	movel %d0,%fp@(-112)
    9882:	7207           	moveq #7,%d1
    9884:	b280           	cmpl %d0,%d1
    9886:	6d00 088c      	bltw a114 <_vfiprintf_r+0xce0>
    988a:	508a           	addql #8,%a2
    988c:	9bc6           	subal %d6,%a5
    988e:	bafc 0000      	cmpaw #0,%a5
    9892:	6f00 fefa      	blew 978e <_vfiprintf_r+0x35a>
    9896:	7210           	moveq #16,%d1
    9898:	b28d           	cmpl %a5,%d1
    989a:	6c36           	bges 98d2 <_vfiprintf_r+0x49e>
    989c:	2a2e ff78      	movel %fp@(-136),%d5
    98a0:	266e ff70      	moveal %fp@(-144),%a3
    98a4:	24bc 0001 0c19 	movel #68633,%a2@
    98aa:	7210           	moveq #16,%d1
    98ac:	2541 0004      	movel %d1,%a2@(4)
    98b0:	41e8 0010      	lea %a0@(16),%a0
    98b4:	2d48 ff94      	movel %a0,%fp@(-108)
    98b8:	5280           	addql #1,%d0
    98ba:	2d40 ff90      	movel %d0,%fp@(-112)
    98be:	7207           	moveq #7,%d1
    98c0:	b280           	cmpl %d0,%d1
    98c2:	6d00 05a6      	bltw 9e6a <_vfiprintf_r+0xa36>
    98c6:	508a           	addql #8,%a2
    98c8:	4bed fff0      	lea %a5@(-16),%a5
    98cc:	7210           	moveq #16,%d1
    98ce:	b28d           	cmpl %a5,%d1
    98d0:	6dd2           	blts 98a4 <_vfiprintf_r+0x470>
    98d2:	24bc 0001 0c19 	movel #68633,%a2@
    98d8:	254d 0004      	movel %a5,%a2@(4)
    98dc:	d1cd           	addal %a5,%a0
    98de:	2d48 ff94      	movel %a0,%fp@(-108)
    98e2:	5280           	addql #1,%d0
    98e4:	2d40 ff90      	movel %d0,%fp@(-112)
    98e8:	7207           	moveq #7,%d1
    98ea:	b280           	cmpl %d0,%d1
    98ec:	6d00 0744      	bltw a032 <_vfiprintf_r+0xbfe>
    98f0:	508a           	addql #8,%a2
    98f2:	24ae ff6c      	movel %fp@(-148),%a2@
    98f6:	2546 0004      	movel %d6,%a2@(4)
    98fa:	d1c6           	addal %d6,%a0
    98fc:	2d48 ff94      	movel %a0,%fp@(-108)
    9900:	5280           	addql #1,%d0
    9902:	2d40 ff90      	movel %d0,%fp@(-112)
    9906:	7207           	moveq #7,%d1
    9908:	b280           	cmpl %d0,%d1
    990a:	6c00 fe9e      	bgew 97aa <_vfiprintf_r+0x376>
    990e:	486e ff8c      	pea %fp@(-116)
    9912:	2f2e ff70      	movel %fp@(-144),%sp@-
    9916:	2f2e ff78      	movel %fp@(-136),%sp@-
    991a:	4eb9 0000 4e14 	jsr 4e14 <__sprint_r>
    9920:	4fef 000c      	lea %sp@(12),%sp
    9924:	4a80           	tstl %d0
    9926:	6600 fda8      	bnew 96d0 <_vfiprintf_r+0x29c>
    992a:	206e ff94      	moveal %fp@(-108),%a0
    992e:	2447           	moveal %d7,%a2
    9930:	6000 fe7a      	braw 97ac <_vfiprintf_r+0x378>
    9934:	486e ff8c      	pea %fp@(-116)
    9938:	2f2e ff70      	movel %fp@(-144),%sp@-
    993c:	2f2e ff78      	movel %fp@(-136),%sp@-
    9940:	4eb9 0000 4e14 	jsr 4e14 <__sprint_r>
    9946:	4fef 000c      	lea %sp@(12),%sp
    994a:	4a80           	tstl %d0
    994c:	6600 fd82      	bnew 96d0 <_vfiprintf_r+0x29c>
    9950:	42ae ff90      	clrl %fp@(-112)
    9954:	2447           	moveal %d7,%a2
    9956:	6000 fb76      	braw 94ce <_vfiprintf_r+0x9a>
    995a:	7210           	moveq #16,%d1
    995c:	b289           	cmpl %a1,%d1
    995e:	6c52           	bges 99b2 <_vfiprintf_r+0x57e>
    9960:	2d44 ff84      	movel %d4,%fp@(-124)
    9964:	2803           	movel %d3,%d4
    9966:	2602           	movel %d2,%d3
    9968:	2208           	movel %a0,%d1
    996a:	204a           	moveal %a2,%a0
    996c:	2449           	moveal %a1,%a2
    996e:	242e ff78      	movel %fp@(-136),%d2
    9972:	2241           	moveal %d1,%a1
    9974:	20bc 0001 0c29 	movel #68649,%a0@
    997a:	7210           	moveq #16,%d1
    997c:	2141 0004      	movel %d1,%a0@(4)
    9980:	43e9 0010      	lea %a1@(16),%a1
    9984:	2d49 ff94      	movel %a1,%fp@(-108)
    9988:	5280           	addql #1,%d0
    998a:	2d40 ff90      	movel %d0,%fp@(-112)
    998e:	7207           	moveq #7,%d1
    9990:	b280           	cmpl %d0,%d1
    9992:	6d00 0508      	bltw 9e9c <_vfiprintf_r+0xa68>
    9996:	5088           	addql #8,%a0
    9998:	45ea fff0      	lea %a2@(-16),%a2
    999c:	7210           	moveq #16,%d1
    999e:	b28a           	cmpl %a2,%d1
    99a0:	6dd2           	blts 9974 <_vfiprintf_r+0x540>
    99a2:	2403           	movel %d3,%d2
    99a4:	2604           	movel %d4,%d3
    99a6:	282e ff84      	movel %fp@(-124),%d4
    99aa:	2209           	movel %a1,%d1
    99ac:	224a           	moveal %a2,%a1
    99ae:	2448           	moveal %a0,%a2
    99b0:	2041           	moveal %d1,%a0
    99b2:	24bc 0001 0c29 	movel #68649,%a2@
    99b8:	2549 0004      	movel %a1,%a2@(4)
    99bc:	d1c9           	addal %a1,%a0
    99be:	2d48 ff94      	movel %a0,%fp@(-108)
    99c2:	5280           	addql #1,%d0
    99c4:	2d40 ff90      	movel %d0,%fp@(-112)
    99c8:	7207           	moveq #7,%d1
    99ca:	b280           	cmpl %d0,%d1
    99cc:	6d00 06ee      	bltw a0bc <_vfiprintf_r+0xc88>
    99d0:	508a           	addql #8,%a2
    99d2:	6000 fd56      	braw 972a <_vfiprintf_r+0x2f6>
    99d6:	202e ff90      	movel %fp@(-112),%d0
    99da:	7210           	moveq #16,%d1
    99dc:	b289           	cmpl %a1,%d1
    99de:	6c44           	bges 9a24 <_vfiprintf_r+0x5f0>
    99e0:	4bee ff8c      	lea %fp@(-116),%a5
    99e4:	47f9 0000 4e14 	lea 4e14 <__sprint_r>,%a3
    99ea:	262e ff78      	movel %fp@(-136),%d3
    99ee:	2a2e ff70      	movel %fp@(-144),%d5
    99f2:	24bc 0001 0c29 	movel #68649,%a2@
    99f8:	7210           	moveq #16,%d1
    99fa:	2541 0004      	movel %d1,%a2@(4)
    99fe:	41e8 0010      	lea %a0@(16),%a0
    9a02:	2d48 ff94      	movel %a0,%fp@(-108)
    9a06:	5280           	addql #1,%d0
    9a08:	2d40 ff90      	movel %d0,%fp@(-112)
    9a0c:	7207           	moveq #7,%d1
    9a0e:	b280           	cmpl %d0,%d1
    9a10:	6d00 04be      	bltw 9ed0 <_vfiprintf_r+0xa9c>
    9a14:	508a           	addql #8,%a2
    9a16:	72f0           	moveq #-16,%d1
    9a18:	d3ae ff84      	addl %d1,%fp@(-124)
    9a1c:	7210           	moveq #16,%d1
    9a1e:	b2ae ff84      	cmpl %fp@(-124),%d1
    9a22:	6dce           	blts 99f2 <_vfiprintf_r+0x5be>
    9a24:	24bc 0001 0c29 	movel #68649,%a2@
    9a2a:	256e ff84 0004 	movel %fp@(-124),%a2@(4)
    9a30:	d1ee ff84      	addal %fp@(-124),%a0
    9a34:	2d48 ff94      	movel %a0,%fp@(-108)
    9a38:	5280           	addql #1,%d0
    9a3a:	2d40 ff90      	movel %d0,%fp@(-112)
    9a3e:	7207           	moveq #7,%d1
    9a40:	b280           	cmpl %d0,%d1
    9a42:	6c00 fd7a      	bgew 97be <_vfiprintf_r+0x38a>
    9a46:	486e ff8c      	pea %fp@(-116)
    9a4a:	2f2e ff70      	movel %fp@(-144),%sp@-
    9a4e:	2f2e ff78      	movel %fp@(-136),%sp@-
    9a52:	4eb9 0000 4e14 	jsr 4e14 <__sprint_r>
    9a58:	4fef 000c      	lea %sp@(12),%sp
    9a5c:	4a80           	tstl %d0
    9a5e:	6600 fc70      	bnew 96d0 <_vfiprintf_r+0x29c>
    9a62:	206e ff94      	moveal %fp@(-108),%a0
    9a66:	6000 fd56      	braw 97be <_vfiprintf_r+0x38a>
    9a6a:	206e ff7c      	moveal %fp@(-132),%a0
    9a6e:	2018           	movel %a0@+,%d0
    9a70:	0803 0004      	btst #4,%d3
    9a74:	6600 0716      	bnew a18c <_vfiprintf_r+0xd58>
    9a78:	0803 0006      	btst #6,%d3
    9a7c:	6700 05f4      	beqw a072 <_vfiprintf_r+0xc3e>
    9a80:	48c0           	extl %d0
    9a82:	2800           	movel %d0,%d4
    9a84:	2d48 ff7c      	movel %a0,%fp@(-132)
    9a88:	4a80           	tstl %d0
    9a8a:	6d00 0234      	bltw 9cc0 <_vfiprintf_r+0x88c>
    9a8e:	1a2e ff89      	moveb %fp@(-119),%d5
    9a92:	bafc 0000      	cmpaw #0,%a5
    9a96:	6d00 0240      	bltw 9cd8 <_vfiprintf_r+0x8a4>
    9a9a:	7280           	moveq #-128,%d1
    9a9c:	4601           	notb %d1
    9a9e:	c681           	andl %d1,%d3
    9aa0:	4a80           	tstl %d0
    9aa2:	6600 0234      	bnew 9cd8 <_vfiprintf_r+0x8a4>
    9aa6:	bafc 0000      	cmpaw #0,%a5
    9aaa:	6600 0740      	bnew a1ec <_vfiprintf_r+0xdb8>
    9aae:	7800           	moveq #0,%d4
    9ab0:	7c00           	moveq #0,%d6
    9ab2:	2d47 ff6c      	movel %d7,%fp@(-148)
    9ab6:	4a05           	tstb %d5
    9ab8:	6702           	beqs 9abc <_vfiprintf_r+0x688>
    9aba:	5284           	addql #1,%d4
    9abc:	7002           	moveq #2,%d0
    9abe:	c083           	andl %d3,%d0
    9ac0:	2640           	moveal %d0,%a3
    9ac2:	0803 0001      	btst #1,%d3
    9ac6:	6700 fc44      	beqw 970c <_vfiprintf_r+0x2d8>
    9aca:	5484           	addql #2,%d4
    9acc:	367c 0002      	moveaw #2,%a3
    9ad0:	6000 fc3a      	braw 970c <_vfiprintf_r+0x2d8>
    9ad4:	206e ff7c      	moveal %fp@(-132),%a0
    9ad8:	2418           	movel %a0@+,%d2
    9ada:	6a00 019a      	bplw 9c76 <_vfiprintf_r+0x842>
    9ade:	4482           	negl %d2
    9ae0:	2d48 ff7c      	movel %a0,%fp@(-132)
    9ae4:	7204           	moveq #4,%d1
    9ae6:	8681           	orl %d1,%d3
    9ae8:	101c           	moveb %a4@+,%d0
    9aea:	4880           	extw %d0
    9aec:	3040           	moveaw %d0,%a0
    9aee:	6000 fa40      	braw 9530 <_vfiprintf_r+0xfc>
    9af2:	101c           	moveb %a4@+,%d0
    9af4:	4880           	extw %d0
    9af6:	3040           	moveaw %d0,%a0
    9af8:	0c40 002a      	cmpiw #42,%d0
    9afc:	6700 0168      	beqw 9c66 <_vfiprintf_r+0x832>
    9b00:	43e8 ffd0      	lea %a0@(-48),%a1
    9b04:	9bcd           	subal %a5,%a5
    9b06:	7009           	moveq #9,%d0
    9b08:	b089           	cmpl %a1,%d0
    9b0a:	6500 fa24      	bcsw 9530 <_vfiprintf_r+0xfc>
    9b0e:	200d           	movel %a5,%d0
    9b10:	d08d           	addl %a5,%d0
    9b12:	d080           	addl %d0,%d0
    9b14:	d08d           	addl %a5,%d0
    9b16:	d080           	addl %d0,%d0
    9b18:	4bf1 0800      	lea %a1@(0,%d0:l),%a5
    9b1c:	101c           	moveb %a4@+,%d0
    9b1e:	4880           	extw %d0
    9b20:	3040           	moveaw %d0,%a0
    9b22:	43e8 ffd0      	lea %a0@(-48),%a1
    9b26:	7209           	moveq #9,%d1
    9b28:	b289           	cmpl %a1,%d1
    9b2a:	64e2           	bccs 9b0e <_vfiprintf_r+0x6da>
    9b2c:	bafc 0000      	cmpaw #0,%a5
    9b30:	6c00 f9fe      	bgew 9530 <_vfiprintf_r+0xfc>
    9b34:	3a7c ffff      	moveaw #-1,%a5
    9b38:	6000 f9f6      	braw 9530 <_vfiprintf_r+0xfc>
    9b3c:	206e ff7c      	moveal %fp@(-132),%a0
    9b40:	2248           	moveal %a0,%a1
    9b42:	5888           	addql #4,%a0
    9b44:	1d69 0003 ff98 	moveb %a1@(3),%fp@(-104)
    9b4a:	422e ff89      	clrb %fp@(-119)
    9b4e:	2d48 ff7c      	movel %a0,%fp@(-132)
    9b52:	7801           	moveq #1,%d4
    9b54:	7c01           	moveq #1,%d6
    9b56:	41ee ff98      	lea %fp@(-104),%a0
    9b5a:	2d48 ff6c      	movel %a0,%fp@(-148)
    9b5e:	9bcd           	subal %a5,%a5
    9b60:	97cb           	subal %a3,%a3
    9b62:	6000 fba8      	braw 970c <_vfiprintf_r+0x2d8>
    9b66:	7010           	moveq #16,%d0
    9b68:	8083           	orl %d3,%d0
    9b6a:	206e ff7c      	moveal %fp@(-132),%a0
    9b6e:	2818           	movel %a0@+,%d4
    9b70:	2d48 ff7c      	movel %a0,%fp@(-132)
    9b74:	422e ff89      	clrb %fp@(-119)
    9b78:	bafc 0000      	cmpaw #0,%a5
    9b7c:	6d00 0208      	bltw 9d86 <_vfiprintf_r+0x952>
    9b80:	7201           	moveq #1,%d1
    9b82:	7680           	moveq #-128,%d3
    9b84:	4603           	notb %d3
    9b86:	c680           	andl %d0,%d3
    9b88:	4a84           	tstl %d4
    9b8a:	6652           	bnes 9bde <_vfiprintf_r+0x7aa>
    9b8c:	bafc 0000      	cmpaw #0,%a5
    9b90:	6600 0554      	bnew a0e6 <_vfiprintf_r+0xcb2>
    9b94:	4a81           	tstl %d1
    9b96:	6600 04c4      	bnew a05c <_vfiprintf_r+0xc28>
    9b9a:	7c01           	moveq #1,%d6
    9b9c:	cc80           	andl %d0,%d6
    9b9e:	0800 0000      	btst #0,%d0
    9ba2:	6700 04c4      	beqw a068 <_vfiprintf_r+0xc34>
    9ba6:	1d7c 0030 ffbf 	moveb #48,%fp@(-65)
    9bac:	2806           	movel %d6,%d4
    9bae:	41ee ffbf      	lea %fp@(-65),%a0
    9bb2:	2d48 ff6c      	movel %a0,%fp@(-148)
    9bb6:	6000 ff04      	braw 9abc <_vfiprintf_r+0x688>
    9bba:	7010           	moveq #16,%d0
    9bbc:	8083           	orl %d3,%d0
    9bbe:	206e ff7c      	moveal %fp@(-132),%a0
    9bc2:	2818           	movel %a0@+,%d4
    9bc4:	2d48 ff7c      	movel %a0,%fp@(-132)
    9bc8:	422e ff89      	clrb %fp@(-119)
    9bcc:	bafc 0000      	cmpaw #0,%a5
    9bd0:	6d7c           	blts 9c4e <_vfiprintf_r+0x81a>
    9bd2:	7200           	moveq #0,%d1
    9bd4:	7680           	moveq #-128,%d3
    9bd6:	4603           	notb %d3
    9bd8:	c680           	andl %d0,%d3
    9bda:	4a84           	tstl %d4
    9bdc:	67ae           	beqs 9b8c <_vfiprintf_r+0x758>
    9bde:	7001           	moveq #1,%d0
    9be0:	b081           	cmpl %d1,%d0
    9be2:	6700 0618      	beqw a1fc <_vfiprintf_r+0xdc8>
    9be6:	5581           	subql #2,%d1
    9be8:	6700 0396      	beqw 9f80 <_vfiprintf_r+0xb4c>
    9bec:	2d47 ff6c      	movel %d7,%fp@(-148)
    9bf0:	222e ff6c      	movel %fp@(-148),%d1
    9bf4:	1004           	moveb %d4,%d0
    9bf6:	0200 0007      	andib #7,%d0
    9bfa:	0600 0030      	addib #48,%d0
    9bfe:	53ae ff6c      	subql #1,%fp@(-148)
    9c02:	206e ff6c      	moveal %fp@(-148),%a0
    9c06:	1080           	moveb %d0,%a0@
    9c08:	e68c           	lsrl #3,%d4
    9c0a:	66e4           	bnes 9bf0 <_vfiprintf_r+0x7bc>
    9c0c:	0803 0000      	btst #0,%d3
    9c10:	6600 03fa      	bnew a00c <_vfiprintf_r+0xbd8>
    9c14:	2c07           	movel %d7,%d6
    9c16:	9c88           	subl %a0,%d6
    9c18:	280d           	movel %a5,%d4
    9c1a:	bc8d           	cmpl %a5,%d6
    9c1c:	6f00 fe9e      	blew 9abc <_vfiprintf_r+0x688>
    9c20:	2806           	movel %d6,%d4
    9c22:	6000 fe98      	braw 9abc <_vfiprintf_r+0x688>
    9c26:	206e ff7c      	moveal %fp@(-132),%a0
    9c2a:	2818           	movel %a0@+,%d4
    9c2c:	0803 0004      	btst #4,%d3
    9c30:	660c           	bnes 9c3e <_vfiprintf_r+0x80a>
    9c32:	0803 0006      	btst #6,%d3
    9c36:	6706           	beqs 9c3e <_vfiprintf_r+0x80a>
    9c38:	0284 0000 ffff 	andil #65535,%d4
    9c3e:	2d48 ff7c      	movel %a0,%fp@(-132)
    9c42:	2003           	movel %d3,%d0
    9c44:	422e ff89      	clrb %fp@(-119)
    9c48:	bafc 0000      	cmpaw #0,%a5
    9c4c:	6c84           	bges 9bd2 <_vfiprintf_r+0x79e>
    9c4e:	2600           	movel %d0,%d3
    9c50:	2d47 ff6c      	movel %d7,%fp@(-148)
    9c54:	609a           	bras 9bf0 <_vfiprintf_r+0x7bc>
    9c56:	1d7c 002b ff89 	moveb #43,%fp@(-119)
    9c5c:	101c           	moveb %a4@+,%d0
    9c5e:	4880           	extw %d0
    9c60:	3040           	moveaw %d0,%a0
    9c62:	6000 f8cc      	braw 9530 <_vfiprintf_r+0xfc>
    9c66:	206e ff7c      	moveal %fp@(-132),%a0
    9c6a:	2a58           	moveal %a0@+,%a5
    9c6c:	bafc 0000      	cmpaw #0,%a5
    9c70:	6c04           	bges 9c76 <_vfiprintf_r+0x842>
    9c72:	3a7c ffff      	moveaw #-1,%a5
    9c76:	2d48 ff7c      	movel %a0,%fp@(-132)
    9c7a:	101c           	moveb %a4@+,%d0
    9c7c:	4880           	extw %d0
    9c7e:	3040           	moveaw %d0,%a0
    9c80:	6000 f8ae      	braw 9530 <_vfiprintf_r+0xfc>
    9c84:	7001           	moveq #1,%d0
    9c86:	8680           	orl %d0,%d3
    9c88:	101c           	moveb %a4@+,%d0
    9c8a:	4880           	extw %d0
    9c8c:	3040           	moveaw %d0,%a0
    9c8e:	6000 f8a0      	braw 9530 <_vfiprintf_r+0xfc>
    9c92:	4a2e ff89      	tstb %fp@(-119)
    9c96:	6600 f892      	bnew 952a <_vfiprintf_r+0xf6>
    9c9a:	1d7c 0020 ff89 	moveb #32,%fp@(-119)
    9ca0:	101c           	moveb %a4@+,%d0
    9ca2:	4880           	extw %d0
    9ca4:	3040           	moveaw %d0,%a0
    9ca6:	6000 f888      	braw 9530 <_vfiprintf_r+0xfc>
    9caa:	7010           	moveq #16,%d0
    9cac:	8680           	orl %d0,%d3
    9cae:	206e ff7c      	moveal %fp@(-132),%a0
    9cb2:	2018           	movel %a0@+,%d0
    9cb4:	2d48 ff7c      	movel %a0,%fp@(-132)
    9cb8:	2800           	movel %d0,%d4
    9cba:	4a80           	tstl %d0
    9cbc:	6c00 fdd0      	bgew 9a8e <_vfiprintf_r+0x65a>
    9cc0:	2800           	movel %d0,%d4
    9cc2:	4484           	negl %d4
    9cc4:	1d7c 002d ff89 	moveb #45,%fp@(-119)
    9cca:	bafc 0000      	cmpaw #0,%a5
    9cce:	6d06           	blts 9cd6 <_vfiprintf_r+0x8a2>
    9cd0:	7280           	moveq #-128,%d1
    9cd2:	4601           	notb %d1
    9cd4:	c681           	andl %d1,%d3
    9cd6:	7a2d           	moveq #45,%d5
    9cd8:	7009           	moveq #9,%d0
    9cda:	b084           	cmpl %d4,%d0
    9cdc:	6500 00b4      	bcsw 9d92 <_vfiprintf_r+0x95e>
    9ce0:	0604 0030      	addib #48,%d4
    9ce4:	1d44 ffbf      	moveb %d4,%fp@(-65)
    9ce8:	280d           	movel %a5,%d4
    9cea:	6f14           	bles 9d00 <_vfiprintf_r+0x8cc>
    9cec:	7c01           	moveq #1,%d6
    9cee:	41ee ffbf      	lea %fp@(-65),%a0
    9cf2:	2d48 ff6c      	movel %a0,%fp@(-148)
    9cf6:	4a05           	tstb %d5
    9cf8:	6600 fdc0      	bnew 9aba <_vfiprintf_r+0x686>
    9cfc:	6000 fdbe      	braw 9abc <_vfiprintf_r+0x688>
    9d00:	7801           	moveq #1,%d4
    9d02:	7c01           	moveq #1,%d6
    9d04:	41ee ffbf      	lea %fp@(-65),%a0
    9d08:	2d48 ff6c      	movel %a0,%fp@(-148)
    9d0c:	60e8           	bras 9cf6 <_vfiprintf_r+0x8c2>
    9d0e:	707f           	moveq #127,%d0
    9d10:	4600           	notb %d0
    9d12:	8680           	orl %d0,%d3
    9d14:	101c           	moveb %a4@+,%d0
    9d16:	4880           	extw %d0
    9d18:	3040           	moveaw %d0,%a0
    9d1a:	6000 f814      	braw 9530 <_vfiprintf_r+0xfc>
    9d1e:	0803 0004      	btst #4,%d3
    9d22:	6618           	bnes 9d3c <_vfiprintf_r+0x908>
    9d24:	0803 0006      	btst #6,%d3
    9d28:	6712           	beqs 9d3c <_vfiprintf_r+0x908>
    9d2a:	226e ff7c      	moveal %fp@(-132),%a1
    9d2e:	2051           	moveal %a1@,%a0
    9d30:	30ae ff76      	movew %fp@(-138),%a0@
    9d34:	58ae ff7c      	addql #4,%fp@(-132)
    9d38:	6000 f794      	braw 94ce <_vfiprintf_r+0x9a>
    9d3c:	226e ff7c      	moveal %fp@(-132),%a1
    9d40:	2051           	moveal %a1@,%a0
    9d42:	20ae ff74      	movel %fp@(-140),%a0@
    9d46:	58ae ff7c      	addql #4,%fp@(-132)
    9d4a:	6000 f782      	braw 94ce <_vfiprintf_r+0x9a>
    9d4e:	7040           	moveq #64,%d0
    9d50:	8680           	orl %d0,%d3
    9d52:	101c           	moveb %a4@+,%d0
    9d54:	4880           	extw %d0
    9d56:	3040           	moveaw %d0,%a0
    9d58:	6000 f7d6      	braw 9530 <_vfiprintf_r+0xfc>
    9d5c:	206e ff7c      	moveal %fp@(-132),%a0
    9d60:	2818           	movel %a0@+,%d4
    9d62:	0803 0004      	btst #4,%d3
    9d66:	660c           	bnes 9d74 <_vfiprintf_r+0x940>
    9d68:	0803 0006      	btst #6,%d3
    9d6c:	6706           	beqs 9d74 <_vfiprintf_r+0x940>
    9d6e:	0284 0000 ffff 	andil #65535,%d4
    9d74:	2d48 ff7c      	movel %a0,%fp@(-132)
    9d78:	2003           	movel %d3,%d0
    9d7a:	422e ff89      	clrb %fp@(-119)
    9d7e:	bafc 0000      	cmpaw #0,%a5
    9d82:	6c00 fdfc      	bgew 9b80 <_vfiprintf_r+0x74c>
    9d86:	2600           	movel %d0,%d3
    9d88:	4205           	clrb %d5
    9d8a:	7009           	moveq #9,%d0
    9d8c:	b084           	cmpl %d4,%d0
    9d8e:	6400 ff50      	bccw 9ce0 <_vfiprintf_r+0x8ac>
    9d92:	2d47 ff6c      	movel %d7,%fp@(-148)
    9d96:	47f9 0000 ee74 	lea ee74 <__udivsi3>,%a3
    9d9c:	4878 000a      	pea a <DUART_IMR>
    9da0:	2f04           	movel %d4,%sp@-
    9da2:	4eb9 0000 ef00 	jsr ef00 <__umodsi3>
    9da8:	508f           	addql #8,%sp
    9daa:	0600 0030      	addib #48,%d0
    9dae:	53ae ff6c      	subql #1,%fp@(-148)
    9db2:	226e ff6c      	moveal %fp@(-148),%a1
    9db6:	1280           	moveb %d0,%a1@
    9db8:	2c04           	movel %d4,%d6
    9dba:	4878 000a      	pea a <DUART_IMR>
    9dbe:	2f04           	movel %d4,%sp@-
    9dc0:	4e93           	jsr %a3@
    9dc2:	508f           	addql #8,%sp
    9dc4:	2800           	movel %d0,%d4
    9dc6:	7009           	moveq #9,%d0
    9dc8:	b086           	cmpl %d6,%d0
    9dca:	65d0           	bcss 9d9c <_vfiprintf_r+0x968>
    9dcc:	2c07           	movel %d7,%d6
    9dce:	9cae ff6c      	subl %fp@(-148),%d6
    9dd2:	280d           	movel %a5,%d4
    9dd4:	bc8d           	cmpl %a5,%d6
    9dd6:	6f00 fcde      	blew 9ab6 <_vfiprintf_r+0x682>
    9dda:	2806           	movel %d6,%d4
    9ddc:	4a05           	tstb %d5
    9dde:	6600 fcda      	bnew 9aba <_vfiprintf_r+0x686>
    9de2:	6000 fcd8      	braw 9abc <_vfiprintf_r+0x688>
    9de6:	266e ff7c      	moveal %fp@(-132),%a3
    9dea:	2d5b ff6c      	movel %a3@+,%fp@(-148)
    9dee:	422e ff89      	clrb %fp@(-119)
    9df2:	4aae ff6c      	tstl %fp@(-148)
    9df6:	6700 0350      	beqw a148 <_vfiprintf_r+0xd14>
    9dfa:	bafc 0000      	cmpaw #0,%a5
    9dfe:	6d00 029a      	bltw a09a <_vfiprintf_r+0xc66>
    9e02:	2f0d           	movel %a5,%sp@-
    9e04:	42a7           	clrl %sp@-
    9e06:	2f2e ff6c      	movel %fp@(-148),%sp@-
    9e0a:	4eb9 0000 57a0 	jsr 57a0 <memchr>
    9e10:	4fef 000c      	lea %sp@(12),%sp
    9e14:	4a80           	tstl %d0
    9e16:	6700 03c8      	beqw a1e0 <_vfiprintf_r+0xdac>
    9e1a:	2c00           	movel %d0,%d6
    9e1c:	9cae ff6c      	subl %fp@(-148),%d6
    9e20:	2806           	movel %d6,%d4
    9e22:	6b00 0270      	bmiw a094 <_vfiprintf_r+0xc60>
    9e26:	4a2e ff89      	tstb %fp@(-119)
    9e2a:	6700 033a      	beqw a166 <_vfiprintf_r+0xd32>
    9e2e:	2d4b ff7c      	movel %a3,%fp@(-132)
    9e32:	9bcd           	subal %a5,%a5
    9e34:	5284           	addql #1,%d4
    9e36:	6000 fc84      	braw 9abc <_vfiprintf_r+0x688>
    9e3a:	226e ff7c      	moveal %fp@(-132),%a1
    9e3e:	2819           	movel %a1@+,%d4
    9e40:	7002           	moveq #2,%d0
    9e42:	8680           	orl %d0,%d3
    9e44:	3d7c 3078 ff8a 	movew #12408,%fp@(-118)
    9e4a:	2d7c 0001 08ec 	movel #67820,%fp@(-128)
    9e50:	ff80 
    9e52:	422e ff89      	clrb %fp@(-119)
    9e56:	2d49 ff7c      	movel %a1,%fp@(-132)
    9e5a:	bafc 0000      	cmpaw #0,%a5
    9e5e:	6d00 0120      	bltw 9f80 <_vfiprintf_r+0xb4c>
    9e62:	2003           	movel %d3,%d0
    9e64:	7202           	moveq #2,%d1
    9e66:	6000 fd1a      	braw 9b82 <_vfiprintf_r+0x74e>
    9e6a:	486e ff8c      	pea %fp@(-116)
    9e6e:	2f0b           	movel %a3,%sp@-
    9e70:	2f05           	movel %d5,%sp@-
    9e72:	4eb9 0000 4e14 	jsr 4e14 <__sprint_r>
    9e78:	4fef 000c      	lea %sp@(12),%sp
    9e7c:	4a80           	tstl %d0
    9e7e:	6600 f850      	bnew 96d0 <_vfiprintf_r+0x29c>
    9e82:	206e ff94      	moveal %fp@(-108),%a0
    9e86:	202e ff90      	movel %fp@(-112),%d0
    9e8a:	2447           	moveal %d7,%a2
    9e8c:	4bed fff0      	lea %a5@(-16),%a5
    9e90:	7210           	moveq #16,%d1
    9e92:	b28d           	cmpl %a5,%d1
    9e94:	6d00 fa0e      	bltw 98a4 <_vfiprintf_r+0x470>
    9e98:	6000 fa38      	braw 98d2 <_vfiprintf_r+0x49e>
    9e9c:	486e ff8c      	pea %fp@(-116)
    9ea0:	2f2e ff70      	movel %fp@(-144),%sp@-
    9ea4:	2f02           	movel %d2,%sp@-
    9ea6:	4eb9 0000 4e14 	jsr 4e14 <__sprint_r>
    9eac:	4fef 000c      	lea %sp@(12),%sp
    9eb0:	4a80           	tstl %d0
    9eb2:	6600 f81c      	bnew 96d0 <_vfiprintf_r+0x29c>
    9eb6:	226e ff94      	moveal %fp@(-108),%a1
    9eba:	202e ff90      	movel %fp@(-112),%d0
    9ebe:	2047           	moveal %d7,%a0
    9ec0:	45ea fff0      	lea %a2@(-16),%a2
    9ec4:	7210           	moveq #16,%d1
    9ec6:	b28a           	cmpl %a2,%d1
    9ec8:	6d00 faaa      	bltw 9974 <_vfiprintf_r+0x540>
    9ecc:	6000 fad4      	braw 99a2 <_vfiprintf_r+0x56e>
    9ed0:	2f0d           	movel %a5,%sp@-
    9ed2:	2f05           	movel %d5,%sp@-
    9ed4:	2f03           	movel %d3,%sp@-
    9ed6:	4e93           	jsr %a3@
    9ed8:	4fef 000c      	lea %sp@(12),%sp
    9edc:	4a80           	tstl %d0
    9ede:	6600 f7f0      	bnew 96d0 <_vfiprintf_r+0x29c>
    9ee2:	206e ff94      	moveal %fp@(-108),%a0
    9ee6:	202e ff90      	movel %fp@(-112),%d0
    9eea:	2447           	moveal %d7,%a2
    9eec:	72f0           	moveq #-16,%d1
    9eee:	d3ae ff84      	addl %d1,%fp@(-124)
    9ef2:	7210           	moveq #16,%d1
    9ef4:	b2ae ff84      	cmpl %fp@(-124),%d1
    9ef8:	6d00 faf8      	bltw 99f2 <_vfiprintf_r+0x5be>
    9efc:	6000 fb26      	braw 9a24 <_vfiprintf_r+0x5f0>
    9f00:	2f05           	movel %d5,%sp@-
    9f02:	2f2e ff70      	movel %fp@(-144),%sp@-
    9f06:	2f02           	movel %d2,%sp@-
    9f08:	4eb9 0000 4e14 	jsr 4e14 <__sprint_r>
    9f0e:	4fef 000c      	lea %sp@(12),%sp
    9f12:	4a80           	tstl %d0
    9f14:	6600 f7ba      	bnew 96d0 <_vfiprintf_r+0x29c>
    9f18:	206e ff94      	moveal %fp@(-108),%a0
    9f1c:	202e ff90      	movel %fp@(-112),%d0
    9f20:	2247           	moveal %d7,%a1
    9f22:	45ea fff0      	lea %a2@(-16),%a2
    9f26:	7210           	moveq #16,%d1
    9f28:	b28a           	cmpl %a2,%d1
    9f2a:	6d00 f904      	bltw 9830 <_vfiprintf_r+0x3fc>
    9f2e:	6000 f92e      	braw 985e <_vfiprintf_r+0x42a>
    9f32:	2d7c 0001 08db 	movel #67803,%fp@(-128)
    9f38:	ff80 
    9f3a:	226e ff7c      	moveal %fp@(-132),%a1
    9f3e:	2819           	movel %a1@+,%d4
    9f40:	0803 0004      	btst #4,%d3
    9f44:	660c           	bnes 9f52 <_vfiprintf_r+0xb1e>
    9f46:	0803 0006      	btst #6,%d3
    9f4a:	6706           	beqs 9f52 <_vfiprintf_r+0xb1e>
    9f4c:	0284 0000 ffff 	andil #65535,%d4
    9f52:	0803 0000      	btst #0,%d3
    9f56:	6700 fefa      	beqw 9e52 <_vfiprintf_r+0xa1e>
    9f5a:	4a84           	tstl %d4
    9f5c:	6700 fef4      	beqw 9e52 <_vfiprintf_r+0xa1e>
    9f60:	1d7c 0030 ff8a 	moveb #48,%fp@(-118)
    9f66:	3008           	movew %a0,%d0
    9f68:	1d40 ff8b      	moveb %d0,%fp@(-117)
    9f6c:	422e ff89      	clrb %fp@(-119)
    9f70:	bafc 0000      	cmpaw #0,%a5
    9f74:	6c00 01fc      	bgew a172 <_vfiprintf_r+0xd3e>
    9f78:	7002           	moveq #2,%d0
    9f7a:	8680           	orl %d0,%d3
    9f7c:	2d49 ff7c      	movel %a1,%fp@(-132)
    9f80:	2d47 ff6c      	movel %d7,%fp@(-148)
    9f84:	206e ff80      	moveal %fp@(-128),%a0
    9f88:	700f           	moveq #15,%d0
    9f8a:	c084           	andl %d4,%d0
    9f8c:	53ae ff6c      	subql #1,%fp@(-148)
    9f90:	226e ff6c      	moveal %fp@(-148),%a1
    9f94:	12b0 0800      	moveb %a0@(0,%d0:l),%a1@
    9f98:	e88c           	lsrl #4,%d4
    9f9a:	66ec           	bnes 9f88 <_vfiprintf_r+0xb54>
    9f9c:	2c07           	movel %d7,%d6
    9f9e:	9c89           	subl %a1,%d6
    9fa0:	280d           	movel %a5,%d4
    9fa2:	bc8d           	cmpl %a5,%d6
    9fa4:	6f00 fb16      	blew 9abc <_vfiprintf_r+0x688>
    9fa8:	2806           	movel %d6,%d4
    9faa:	6000 fb10      	braw 9abc <_vfiprintf_r+0x688>
    9fae:	486e ff8c      	pea %fp@(-116)
    9fb2:	2f2e ff70      	movel %fp@(-144),%sp@-
    9fb6:	2f2e ff78      	movel %fp@(-136),%sp@-
    9fba:	4eb9 0000 4e14 	jsr 4e14 <__sprint_r>
    9fc0:	4fef 000c      	lea %sp@(12),%sp
    9fc4:	4a80           	tstl %d0
    9fc6:	6600 f708      	bnew 96d0 <_vfiprintf_r+0x29c>
    9fca:	206e ff94      	moveal %fp@(-108),%a0
    9fce:	202e ff90      	movel %fp@(-112),%d0
    9fd2:	2447           	moveal %d7,%a2
    9fd4:	6000 f77c      	braw 9752 <_vfiprintf_r+0x31e>
    9fd8:	486e ff8c      	pea %fp@(-116)
    9fdc:	2f2e ff70      	movel %fp@(-144),%sp@-
    9fe0:	2f2e ff78      	movel %fp@(-136),%sp@-
    9fe4:	4eb9 0000 4e14 	jsr 4e14 <__sprint_r>
    9fea:	4fef 000c      	lea %sp@(12),%sp
    9fee:	4a80           	tstl %d0
    9ff0:	6600 f6de      	bnew 96d0 <_vfiprintf_r+0x29c>
    9ff4:	206e ff94      	moveal %fp@(-108),%a0
    9ff8:	202e ff90      	movel %fp@(-112),%d0
    9ffc:	2447           	moveal %d7,%a2
    9ffe:	0c85 0000 0080 	cmpil #128,%d5
    a004:	6600 f77e      	bnew 9784 <_vfiprintf_r+0x350>
    a008:	6000 f7fe      	braw 9808 <_vfiprintf_r+0x3d4>
    a00c:	0c00 0030      	cmpib #48,%d0
    a010:	6700 00ee      	beqw a100 <_vfiprintf_r+0xccc>
    a014:	5581           	subql #2,%d1
    a016:	226e ff6c      	moveal %fp@(-148),%a1
    a01a:	137c 0030 ffff 	moveb #48,%a1@(-1)
    a020:	2c07           	movel %d7,%d6
    a022:	9c81           	subl %d1,%d6
    a024:	280d           	movel %a5,%d4
    a026:	bc8d           	cmpl %a5,%d6
    a028:	6e52           	bgts a07c <_vfiprintf_r+0xc48>
    a02a:	2d41 ff6c      	movel %d1,%fp@(-148)
    a02e:	6000 fa8c      	braw 9abc <_vfiprintf_r+0x688>
    a032:	486e ff8c      	pea %fp@(-116)
    a036:	2f2e ff70      	movel %fp@(-144),%sp@-
    a03a:	2f2e ff78      	movel %fp@(-136),%sp@-
    a03e:	4eb9 0000 4e14 	jsr 4e14 <__sprint_r>
    a044:	4fef 000c      	lea %sp@(12),%sp
    a048:	4a80           	tstl %d0
    a04a:	6600 f684      	bnew 96d0 <_vfiprintf_r+0x29c>
    a04e:	206e ff94      	moveal %fp@(-108),%a0
    a052:	202e ff90      	movel %fp@(-112),%d0
    a056:	2447           	moveal %d7,%a2
    a058:	6000 f734      	braw 978e <_vfiprintf_r+0x35a>
    a05c:	7800           	moveq #0,%d4
    a05e:	7c00           	moveq #0,%d6
    a060:	2d47 ff6c      	movel %d7,%fp@(-148)
    a064:	6000 fa56      	braw 9abc <_vfiprintf_r+0x688>
    a068:	7800           	moveq #0,%d4
    a06a:	2d47 ff6c      	movel %d7,%fp@(-148)
    a06e:	6000 fa4c      	braw 9abc <_vfiprintf_r+0x688>
    a072:	2800           	movel %d0,%d4
    a074:	2d48 ff7c      	movel %a0,%fp@(-132)
    a078:	6000 fa0e      	braw 9a88 <_vfiprintf_r+0x654>
    a07c:	2806           	movel %d6,%d4
    a07e:	2d41 ff6c      	movel %d1,%fp@(-148)
    a082:	6000 fa38      	braw 9abc <_vfiprintf_r+0x688>
    a086:	2f08           	movel %a0,%sp@-
    a088:	4eb9 0000 2588 	jsr 2588 <__sinit>
    a08e:	588f           	addql #4,%sp
    a090:	6000 f3d2      	braw 9464 <_vfiprintf_r+0x30>
    a094:	7800           	moveq #0,%d4
    a096:	6000 fd8e      	braw 9e26 <_vfiprintf_r+0x9f2>
    a09a:	2f2e ff6c      	movel %fp@(-148),%sp@-
    a09e:	4eb9 0000 5afc 	jsr 5afc <strlen>
    a0a4:	2c00           	movel %d0,%d6
    a0a6:	588f           	addql #4,%sp
    a0a8:	2806           	movel %d6,%d4
    a0aa:	6a00 fd7a      	bplw 9e26 <_vfiprintf_r+0x9f2>
    a0ae:	60e4           	bras a094 <_vfiprintf_r+0xc60>
    a0b0:	2d7c 0001 08ec 	movel #67820,%fp@(-128)
    a0b6:	ff80 
    a0b8:	6000 fe80      	braw 9f3a <_vfiprintf_r+0xb06>
    a0bc:	486e ff8c      	pea %fp@(-116)
    a0c0:	2f2e ff70      	movel %fp@(-144),%sp@-
    a0c4:	2f2e ff78      	movel %fp@(-136),%sp@-
    a0c8:	4eb9 0000 4e14 	jsr 4e14 <__sprint_r>
    a0ce:	4fef 000c      	lea %sp@(12),%sp
    a0d2:	4a80           	tstl %d0
    a0d4:	6600 f5fa      	bnew 96d0 <_vfiprintf_r+0x29c>
    a0d8:	206e ff94      	moveal %fp@(-108),%a0
    a0dc:	202e ff90      	movel %fp@(-112),%d0
    a0e0:	2447           	moveal %d7,%a2
    a0e2:	6000 f646      	braw 972a <_vfiprintf_r+0x2f6>
    a0e6:	7001           	moveq #1,%d0
    a0e8:	b081           	cmpl %d1,%d0
    a0ea:	6600 fafa      	bnew 9be6 <_vfiprintf_r+0x7b2>
    a0ee:	4205           	clrb %d5
    a0f0:	7830           	moveq #48,%d4
    a0f2:	1d44 ffbf      	moveb %d4,%fp@(-65)
    a0f6:	280d           	movel %a5,%d4
    a0f8:	6e00 fbf2      	bgtw 9cec <_vfiprintf_r+0x8b8>
    a0fc:	6000 fc02      	braw 9d00 <_vfiprintf_r+0x8cc>
    a100:	2c07           	movel %d7,%d6
    a102:	9cae ff6c      	subl %fp@(-148),%d6
    a106:	280d           	movel %a5,%d4
    a108:	bc8d           	cmpl %a5,%d6
    a10a:	6f00 f9b0      	blew 9abc <_vfiprintf_r+0x688>
    a10e:	2806           	movel %d6,%d4
    a110:	6000 f9aa      	braw 9abc <_vfiprintf_r+0x688>
    a114:	486e ff8c      	pea %fp@(-116)
    a118:	2f2e ff70      	movel %fp@(-144),%sp@-
    a11c:	2f2e ff78      	movel %fp@(-136),%sp@-
    a120:	4eb9 0000 4e14 	jsr 4e14 <__sprint_r>
    a126:	4fef 000c      	lea %sp@(12),%sp
    a12a:	4a80           	tstl %d0
    a12c:	6600 f5a2      	bnew 96d0 <_vfiprintf_r+0x29c>
    a130:	206e ff94      	moveal %fp@(-108),%a0
    a134:	202e ff90      	movel %fp@(-112),%d0
    a138:	2447           	moveal %d7,%a2
    a13a:	9bc6           	subal %d6,%a5
    a13c:	bafc 0000      	cmpaw #0,%a5
    a140:	6f00 f64c      	blew 978e <_vfiprintf_r+0x35a>
    a144:	6000 f750      	braw 9896 <_vfiprintf_r+0x462>
    a148:	2c0d           	movel %a5,%d6
    a14a:	7206           	moveq #6,%d1
    a14c:	b28d           	cmpl %a5,%d1
    a14e:	6546           	bcss a196 <_vfiprintf_r+0xd62>
    a150:	2806           	movel %d6,%d4
    a152:	2d4b ff7c      	movel %a3,%fp@(-132)
    a156:	2d7c 0001 08fd 	movel #67837,%fp@(-148)
    a15c:	ff6c 
    a15e:	9bcd           	subal %a5,%a5
    a160:	97cb           	subal %a3,%a3
    a162:	6000 f5a8      	braw 970c <_vfiprintf_r+0x2d8>
    a166:	2d4b ff7c      	movel %a3,%fp@(-132)
    a16a:	9bcd           	subal %a5,%a5
    a16c:	97cb           	subal %a3,%a3
    a16e:	6000 f59c      	braw 970c <_vfiprintf_r+0x2d8>
    a172:	7080           	moveq #-128,%d0
    a174:	4600           	notb %d0
    a176:	c680           	andl %d0,%d3
    a178:	7202           	moveq #2,%d1
    a17a:	8681           	orl %d1,%d3
    a17c:	2d49 ff7c      	movel %a1,%fp@(-132)
    a180:	2d47 ff6c      	movel %d7,%fp@(-148)
    a184:	206e ff80      	moveal %fp@(-128),%a0
    a188:	6000 fdfe      	braw 9f88 <_vfiprintf_r+0xb54>
    a18c:	2d48 ff7c      	movel %a0,%fp@(-132)
    a190:	2800           	movel %d0,%d4
    a192:	6000 fb26      	braw 9cba <_vfiprintf_r+0x886>
    a196:	7c06           	moveq #6,%d6
    a198:	2806           	movel %d6,%d4
    a19a:	2d4b ff7c      	movel %a3,%fp@(-132)
    a19e:	2d7c 0001 08fd 	movel #67837,%fp@(-148)
    a1a4:	ff6c 
    a1a6:	60b6           	bras a15e <_vfiprintf_r+0xd2a>
    a1a8:	486e ff8c      	pea %fp@(-116)
    a1ac:	2f2e ff70      	movel %fp@(-144),%sp@-
    a1b0:	2f2e ff78      	movel %fp@(-136),%sp@-
    a1b4:	4eb9 0000 4e14 	jsr 4e14 <__sprint_r>
    a1ba:	4fef 000c      	lea %sp@(12),%sp
    a1be:	206e ff70      	moveal %fp@(-144),%a0
    a1c2:	0828 0006 000d 	btst #6,%a0@(13)
    a1c8:	6700 f514      	beqw 96de <_vfiprintf_r+0x2aa>
    a1cc:	72ff           	moveq #-1,%d1
    a1ce:	2d41 ff74      	movel %d1,%fp@(-140)
    a1d2:	202e ff74      	movel %fp@(-140),%d0
    a1d6:	4cee 3cfc ff44 	moveml %fp@(-188),%d2-%d7/%a2-%a5
    a1dc:	4e5e           	unlk %fp
    a1de:	4e75           	rts
    a1e0:	2c0d           	movel %a5,%d6
    a1e2:	2806           	movel %d6,%d4
    a1e4:	6a00 fc40      	bplw 9e26 <_vfiprintf_r+0x9f2>
    a1e8:	6000 feaa      	braw a094 <_vfiprintf_r+0xc60>
    a1ec:	7830           	moveq #48,%d4
    a1ee:	1d44 ffbf      	moveb %d4,%fp@(-65)
    a1f2:	280d           	movel %a5,%d4
    a1f4:	6e00 faf6      	bgtw 9cec <_vfiprintf_r+0x8b8>
    a1f8:	6000 fb06      	braw 9d00 <_vfiprintf_r+0x8cc>
    a1fc:	4205           	clrb %d5
    a1fe:	6000 fad8      	braw 9cd8 <_vfiprintf_r+0x8a4>

0000a202 <vfiprintf>:
    a202:	2f2f 000c      	movel %sp@(12),%sp@-
    a206:	2f2f 000c      	movel %sp@(12),%sp@-
    a20a:	2f2f 000c      	movel %sp@(12),%sp@-
    a20e:	2f39 0001 2c70 	movel 12c70 <_impure_ptr>,%sp@-
    a214:	4eb9 0000 9434 	jsr 9434 <_vfiprintf_r>
    a21a:	4fef 0010      	lea %sp@(16),%sp
    a21e:	4e75           	rts

0000a220 <__sbprintf>:
    a220:	4fef fb98      	lea %sp@(-1128),%sp
    a224:	48e7 3820      	moveml %d2-%d4/%a2,%sp@-
    a228:	262f 047c      	movel %sp@(1148),%d3
    a22c:	246f 0480      	moveal %sp@(1152),%a2
    a230:	302a 000c      	movew %a2@(12),%d0
    a234:	0240 fffd      	andiw #-3,%d0
    a238:	3f40 001c      	movew %d0,%sp@(28)
    a23c:	2f6a 0064 0074 	movel %a2@(100),%sp@(116)
    a242:	3f6a 000e 001e 	movew %a2@(14),%sp@(30)
    a248:	2f6a 001c 002c 	movel %a2@(28),%sp@(44)
    a24e:	2f6a 0024 0034 	movel %a2@(36),%sp@(52)
    a254:	7078           	moveq #120,%d0
    a256:	d08f           	addl %sp,%d0
    a258:	2f40 0010      	movel %d0,%sp@(16)
    a25c:	7078           	moveq #120,%d0
    a25e:	d08f           	addl %sp,%d0
    a260:	2f40 0020      	movel %d0,%sp@(32)
    a264:	2f7c 0000 0400 	movel #1024,%sp@(24)
    a26a:	0018 
    a26c:	2f7c 0000 0400 	movel #1024,%sp@(36)
    a272:	0024 
    a274:	42af 0028      	clrl %sp@(40)
    a278:	2f2f 0488      	movel %sp@(1160),%sp@-
    a27c:	2f2f 0488      	movel %sp@(1160),%sp@-
    a280:	7818           	moveq #24,%d4
    a282:	d88f           	addl %sp,%d4
    a284:	2f04           	movel %d4,%sp@-
    a286:	2f03           	movel %d3,%sp@-
    a288:	4eb9 0000 9434 	jsr 9434 <_vfiprintf_r>
    a28e:	2400           	movel %d0,%d2
    a290:	4fef 0010      	lea %sp@(16),%sp
    a294:	6a1a           	bpls a2b0 <__sbprintf+0x90>
    a296:	082f 0006 001d 	btst #6,%sp@(29)
    a29c:	6706           	beqs a2a4 <__sbprintf+0x84>
    a29e:	006a 0040 000c 	oriw #64,%a2@(12)
    a2a4:	2002           	movel %d2,%d0
    a2a6:	4cdf 041c      	moveml %sp@+,%d2-%d4/%a2
    a2aa:	4fef 0468      	lea %sp@(1128),%sp
    a2ae:	4e75           	rts
    a2b0:	2f04           	movel %d4,%sp@-
    a2b2:	2f03           	movel %d3,%sp@-
    a2b4:	4eb9 0000 50f2 	jsr 50f2 <_fflush_r>
    a2ba:	508f           	addql #8,%sp
    a2bc:	4a80           	tstl %d0
    a2be:	67d6           	beqs a296 <__sbprintf+0x76>
    a2c0:	74ff           	moveq #-1,%d2
    a2c2:	60d2           	bras a296 <__sbprintf+0x76>

0000a2c4 <_wctomb_r>:
    a2c4:	2279 0001 327c 	moveal 1327c <__global_locale+0xe0>,%a1
    a2ca:	4ed1           	jmp %a1@

0000a2cc <__ascii_wctomb>:
    a2cc:	206f 0008      	moveal %sp@(8),%a0
    a2d0:	202f 000c      	movel %sp@(12),%d0
    a2d4:	b0fc 0000      	cmpaw #0,%a0
    a2d8:	671c           	beqs a2f6 <__ascii_wctomb+0x2a>
    a2da:	0c80 0000 00ff 	cmpil #255,%d0
    a2e0:	6206           	bhis a2e8 <__ascii_wctomb+0x1c>
    a2e2:	1080           	moveb %d0,%a0@
    a2e4:	7001           	moveq #1,%d0
    a2e6:	4e75           	rts
    a2e8:	206f 0004      	moveal %sp@(4),%a0
    a2ec:	20bc 0000 008a 	movel #138,%a0@
    a2f2:	70ff           	moveq #-1,%d0
    a2f4:	4e75           	rts
    a2f6:	7000           	moveq #0,%d0
    a2f8:	4e75           	rts
	...

0000a2fc <strcmp>:
    a2fc:	2f0a           	movel %a2,%sp@-
    a2fe:	206f 0008      	moveal %sp@(8),%a0
    a302:	226f 000c      	moveal %sp@(12),%a1
    a306:	2008           	movel %a0,%d0
    a308:	2209           	movel %a1,%d1
    a30a:	8081           	orl %d1,%d0
    a30c:	7203           	moveq #3,%d1
    a30e:	c081           	andl %d1,%d0
    a310:	6624           	bnes a336 <strcmp+0x3a>
    a312:	2010           	movel %a0@,%d0
    a314:	b091           	cmpl %a1@,%d0
    a316:	661e           	bnes a336 <strcmp+0x3a>
    a318:	2200           	movel %d0,%d1
    a31a:	0681 fefe feff 	addil #-16843009,%d1
    a320:	4680           	notl %d0
    a322:	c081           	andl %d1,%d0
    a324:	0280 8080 8080 	andil #-2139062144,%d0
    a32a:	6638           	bnes a364 <strcmp+0x68>
    a32c:	5888           	addql #4,%a0
    a32e:	5889           	addql #4,%a1
    a330:	2010           	movel %a0@,%d0
    a332:	b091           	cmpl %a1@,%d0
    a334:	67e2           	beqs a318 <strcmp+0x1c>
    a336:	1010           	moveb %a0@,%d0
    a338:	6730           	beqs a36a <strcmp+0x6e>
    a33a:	2449           	moveal %a1,%a2
    a33c:	224a           	moveal %a2,%a1
    a33e:	b01a           	cmpb %a2@+,%d0
    a340:	6614           	bnes a356 <strcmp+0x5a>
    a342:	5288           	addql #1,%a0
    a344:	1010           	moveb %a0@,%d0
    a346:	66f4           	bnes a33c <strcmp+0x40>
    a348:	224a           	moveal %a2,%a1
    a34a:	7000           	moveq #0,%d0
    a34c:	7200           	moveq #0,%d1
    a34e:	1211           	moveb %a1@,%d1
    a350:	9081           	subl %d1,%d0
    a352:	245f           	moveal %sp@+,%a2
    a354:	4e75           	rts
    a356:	0280 0000 00ff 	andil #255,%d0
    a35c:	7200           	moveq #0,%d1
    a35e:	1211           	moveb %a1@,%d1
    a360:	9081           	subl %d1,%d0
    a362:	60ee           	bras a352 <strcmp+0x56>
    a364:	7000           	moveq #0,%d0
    a366:	245f           	moveal %sp@+,%a2
    a368:	4e75           	rts
    a36a:	7000           	moveq #0,%d0
    a36c:	7200           	moveq #0,%d1
    a36e:	1211           	moveb %a1@,%d1
    a370:	9081           	subl %d1,%d0
    a372:	60de           	bras a352 <strcmp+0x56>

0000a374 <__errno>:
    a374:	2039 0001 2c70 	movel 12c70 <_impure_ptr>,%d0
    a37a:	4e75           	rts

0000a37c <abort>:
    a37c:	4878 0006      	pea 6 <DUART_RBA>
    a380:	4eb9 0000 a544 	jsr a544 <raise>
    a386:	4878 0001      	pea 1 <ADD>
    a38a:	4eb9 0000 a734 	jsr a734 <_exit>

0000a390 <_init_signal_r>:
    a390:	2f0a           	movel %a2,%sp@-
    a392:	246f 0008      	moveal %sp@(8),%a2
    a396:	4aaa 0112      	tstl %a2@(274)
    a39a:	6706           	beqs a3a2 <_init_signal_r+0x12>
    a39c:	7000           	moveq #0,%d0
    a39e:	245f           	moveal %sp@+,%a2
    a3a0:	4e75           	rts
    a3a2:	4878 0080      	pea 80 <DBL_MANT_DIG+0x4b>
    a3a6:	2f0a           	movel %a2,%sp@-
    a3a8:	4eb9 0000 2804 	jsr 2804 <_malloc_r>
    a3ae:	2040           	moveal %d0,%a0
    a3b0:	2540 0112      	movel %d0,%a2@(274)
    a3b4:	508f           	addql #8,%sp
    a3b6:	6714           	beqs a3cc <_init_signal_r+0x3c>
    a3b8:	0680 0000 0080 	addil #128,%d0
    a3be:	4298           	clrl %a0@+
    a3c0:	b088           	cmpl %a0,%d0
    a3c2:	67d8           	beqs a39c <_init_signal_r+0xc>
    a3c4:	4298           	clrl %a0@+
    a3c6:	b088           	cmpl %a0,%d0
    a3c8:	66f4           	bnes a3be <_init_signal_r+0x2e>
    a3ca:	60d0           	bras a39c <_init_signal_r+0xc>
    a3cc:	70ff           	moveq #-1,%d0
    a3ce:	245f           	moveal %sp@+,%a2
    a3d0:	4e75           	rts

0000a3d2 <_signal_r>:
    a3d2:	2f0a           	movel %a2,%sp@-
    a3d4:	2f02           	movel %d2,%sp@-
    a3d6:	246f 000c      	moveal %sp@(12),%a2
    a3da:	242f 0010      	movel %sp@(16),%d2
    a3de:	701f           	moveq #31,%d0
    a3e0:	b082           	cmpl %d2,%d0
    a3e2:	651a           	bcss a3fe <_signal_r+0x2c>
    a3e4:	202a 0112      	movel %a2@(274),%d0
    a3e8:	6720           	beqs a40a <_signal_r+0x38>
    a3ea:	d482           	addl %d2,%d2
    a3ec:	d482           	addl %d2,%d2
    a3ee:	2040           	moveal %d0,%a0
    a3f0:	d1c2           	addal %d2,%a0
    a3f2:	2010           	movel %a0@,%d0
    a3f4:	20af 0014      	movel %sp@(20),%a0@
    a3f8:	241f           	movel %sp@+,%d2
    a3fa:	245f           	moveal %sp@+,%a2
    a3fc:	4e75           	rts
    a3fe:	7016           	moveq #22,%d0
    a400:	2480           	movel %d0,%a2@
    a402:	70ff           	moveq #-1,%d0
    a404:	241f           	movel %sp@+,%d2
    a406:	245f           	moveal %sp@+,%a2
    a408:	4e75           	rts
    a40a:	4878 0080      	pea 80 <DBL_MANT_DIG+0x4b>
    a40e:	2f0a           	movel %a2,%sp@-
    a410:	4eb9 0000 2804 	jsr 2804 <_malloc_r>
    a416:	2540 0112      	movel %d0,%a2@(274)
    a41a:	508f           	addql #8,%sp
    a41c:	67e4           	beqs a402 <_signal_r+0x30>
    a41e:	2040           	moveal %d0,%a0
    a420:	2200           	movel %d0,%d1
    a422:	0681 0000 0080 	addil #128,%d1
    a428:	4298           	clrl %a0@+
    a42a:	b288           	cmpl %a0,%d1
    a42c:	67bc           	beqs a3ea <_signal_r+0x18>
    a42e:	4298           	clrl %a0@+
    a430:	b288           	cmpl %a0,%d1
    a432:	66f4           	bnes a428 <_signal_r+0x56>
    a434:	60b4           	bras a3ea <_signal_r+0x18>

0000a436 <_raise_r>:
    a436:	2f0a           	movel %a2,%sp@-
    a438:	2f02           	movel %d2,%sp@-
    a43a:	246f 000c      	moveal %sp@(12),%a2
    a43e:	242f 0010      	movel %sp@(16),%d2
    a442:	701f           	moveq #31,%d0
    a444:	b082           	cmpl %d2,%d0
    a446:	655e           	bcss a4a6 <_raise_r+0x70>
    a448:	202a 0112      	movel %a2@(274),%d0
    a44c:	672e           	beqs a47c <_raise_r+0x46>
    a44e:	2202           	movel %d2,%d1
    a450:	d282           	addl %d2,%d1
    a452:	d281           	addl %d1,%d1
    a454:	2040           	moveal %d0,%a0
    a456:	d1c1           	addal %d1,%a0
    a458:	2250           	moveal %a0@,%a1
    a45a:	b2fc 0000      	cmpaw #0,%a1
    a45e:	671c           	beqs a47c <_raise_r+0x46>
    a460:	7001           	moveq #1,%d0
    a462:	b089           	cmpl %a1,%d0
    a464:	670e           	beqs a474 <_raise_r+0x3e>
    a466:	70ff           	moveq #-1,%d0
    a468:	b089           	cmpl %a1,%d0
    a46a:	672e           	beqs a49a <_raise_r+0x64>
    a46c:	4290           	clrl %a0@
    a46e:	2f02           	movel %d2,%sp@-
    a470:	4e91           	jsr %a1@
    a472:	588f           	addql #4,%sp
    a474:	7000           	moveq #0,%d0
    a476:	241f           	movel %sp@+,%d2
    a478:	245f           	moveal %sp@+,%a2
    a47a:	4e75           	rts
    a47c:	2f0a           	movel %a2,%sp@-
    a47e:	4eb9 0000 a72e 	jsr a72e <_getpid_r>
    a484:	2f02           	movel %d2,%sp@-
    a486:	2f00           	movel %d0,%sp@-
    a488:	2f0a           	movel %a2,%sp@-
    a48a:	4eb9 0000 a700 	jsr a700 <_kill_r>
    a490:	4fef 0010      	lea %sp@(16),%sp
    a494:	241f           	movel %sp@+,%d2
    a496:	245f           	moveal %sp@+,%a2
    a498:	4e75           	rts
    a49a:	7016           	moveq #22,%d0
    a49c:	2480           	movel %d0,%a2@
    a49e:	7001           	moveq #1,%d0
    a4a0:	241f           	movel %sp@+,%d2
    a4a2:	245f           	moveal %sp@+,%a2
    a4a4:	4e75           	rts
    a4a6:	7016           	moveq #22,%d0
    a4a8:	2480           	movel %d0,%a2@
    a4aa:	70ff           	moveq #-1,%d0
    a4ac:	241f           	movel %sp@+,%d2
    a4ae:	245f           	moveal %sp@+,%a2
    a4b0:	4e75           	rts

0000a4b2 <__sigtramp_r>:
    a4b2:	2f0a           	movel %a2,%sp@-
    a4b4:	2f02           	movel %d2,%sp@-
    a4b6:	246f 000c      	moveal %sp@(12),%a2
    a4ba:	242f 0010      	movel %sp@(16),%d2
    a4be:	701f           	moveq #31,%d0
    a4c0:	b082           	cmpl %d2,%d0
    a4c2:	6578           	bcss a53c <__sigtramp_r+0x8a>
    a4c4:	202a 0112      	movel %a2@(274),%d0
    a4c8:	6746           	beqs a510 <__sigtramp_r+0x5e>
    a4ca:	2202           	movel %d2,%d1
    a4cc:	d282           	addl %d2,%d1
    a4ce:	d281           	addl %d1,%d1
    a4d0:	2040           	moveal %d0,%a0
    a4d2:	d1c1           	addal %d1,%a0
    a4d4:	2250           	moveal %a0@,%a1
    a4d6:	b2fc 0000      	cmpaw #0,%a1
    a4da:	671c           	beqs a4f8 <__sigtramp_r+0x46>
    a4dc:	70ff           	moveq #-1,%d0
    a4de:	b089           	cmpl %a1,%d0
    a4e0:	6726           	beqs a508 <__sigtramp_r+0x56>
    a4e2:	7001           	moveq #1,%d0
    a4e4:	b089           	cmpl %a1,%d0
    a4e6:	6718           	beqs a500 <__sigtramp_r+0x4e>
    a4e8:	4290           	clrl %a0@
    a4ea:	2f02           	movel %d2,%sp@-
    a4ec:	4e91           	jsr %a1@
    a4ee:	588f           	addql #4,%sp
    a4f0:	7000           	moveq #0,%d0
    a4f2:	241f           	movel %sp@+,%d2
    a4f4:	245f           	moveal %sp@+,%a2
    a4f6:	4e75           	rts
    a4f8:	7001           	moveq #1,%d0
    a4fa:	241f           	movel %sp@+,%d2
    a4fc:	245f           	moveal %sp@+,%a2
    a4fe:	4e75           	rts
    a500:	7003           	moveq #3,%d0
    a502:	241f           	movel %sp@+,%d2
    a504:	245f           	moveal %sp@+,%a2
    a506:	4e75           	rts
    a508:	7002           	moveq #2,%d0
    a50a:	241f           	movel %sp@+,%d2
    a50c:	245f           	moveal %sp@+,%a2
    a50e:	4e75           	rts
    a510:	4878 0080      	pea 80 <DBL_MANT_DIG+0x4b>
    a514:	2f0a           	movel %a2,%sp@-
    a516:	4eb9 0000 2804 	jsr 2804 <_malloc_r>
    a51c:	2540 0112      	movel %d0,%a2@(274)
    a520:	508f           	addql #8,%sp
    a522:	6718           	beqs a53c <__sigtramp_r+0x8a>
    a524:	2040           	moveal %d0,%a0
    a526:	2200           	movel %d0,%d1
    a528:	0681 0000 0080 	addil #128,%d1
    a52e:	4298           	clrl %a0@+
    a530:	b288           	cmpl %a0,%d1
    a532:	6796           	beqs a4ca <__sigtramp_r+0x18>
    a534:	4298           	clrl %a0@+
    a536:	b288           	cmpl %a0,%d1
    a538:	66f4           	bnes a52e <__sigtramp_r+0x7c>
    a53a:	608e           	bras a4ca <__sigtramp_r+0x18>
    a53c:	70ff           	moveq #-1,%d0
    a53e:	241f           	movel %sp@+,%d2
    a540:	245f           	moveal %sp@+,%a2
    a542:	4e75           	rts

0000a544 <raise>:
    a544:	2f0a           	movel %a2,%sp@-
    a546:	2f02           	movel %d2,%sp@-
    a548:	242f 000c      	movel %sp@(12),%d2
    a54c:	2479 0001 2c70 	moveal 12c70 <_impure_ptr>,%a2
    a552:	701f           	moveq #31,%d0
    a554:	b082           	cmpl %d2,%d0
    a556:	655e           	bcss a5b6 <raise+0x72>
    a558:	202a 0112      	movel %a2@(274),%d0
    a55c:	672e           	beqs a58c <raise+0x48>
    a55e:	2202           	movel %d2,%d1
    a560:	d282           	addl %d2,%d1
    a562:	d281           	addl %d1,%d1
    a564:	2040           	moveal %d0,%a0
    a566:	d1c1           	addal %d1,%a0
    a568:	2250           	moveal %a0@,%a1
    a56a:	b2fc 0000      	cmpaw #0,%a1
    a56e:	671c           	beqs a58c <raise+0x48>
    a570:	7001           	moveq #1,%d0
    a572:	b089           	cmpl %a1,%d0
    a574:	670e           	beqs a584 <raise+0x40>
    a576:	70ff           	moveq #-1,%d0
    a578:	b089           	cmpl %a1,%d0
    a57a:	672e           	beqs a5aa <raise+0x66>
    a57c:	4290           	clrl %a0@
    a57e:	2f02           	movel %d2,%sp@-
    a580:	4e91           	jsr %a1@
    a582:	588f           	addql #4,%sp
    a584:	7000           	moveq #0,%d0
    a586:	241f           	movel %sp@+,%d2
    a588:	245f           	moveal %sp@+,%a2
    a58a:	4e75           	rts
    a58c:	2f0a           	movel %a2,%sp@-
    a58e:	4eb9 0000 a72e 	jsr a72e <_getpid_r>
    a594:	2f02           	movel %d2,%sp@-
    a596:	2f00           	movel %d0,%sp@-
    a598:	2f0a           	movel %a2,%sp@-
    a59a:	4eb9 0000 a700 	jsr a700 <_kill_r>
    a5a0:	4fef 0010      	lea %sp@(16),%sp
    a5a4:	241f           	movel %sp@+,%d2
    a5a6:	245f           	moveal %sp@+,%a2
    a5a8:	4e75           	rts
    a5aa:	7016           	moveq #22,%d0
    a5ac:	2480           	movel %d0,%a2@
    a5ae:	7001           	moveq #1,%d0
    a5b0:	241f           	movel %sp@+,%d2
    a5b2:	245f           	moveal %sp@+,%a2
    a5b4:	4e75           	rts
    a5b6:	7016           	moveq #22,%d0
    a5b8:	2480           	movel %d0,%a2@
    a5ba:	70ff           	moveq #-1,%d0
    a5bc:	241f           	movel %sp@+,%d2
    a5be:	245f           	moveal %sp@+,%a2
    a5c0:	4e75           	rts

0000a5c2 <signal>:
    a5c2:	2f0a           	movel %a2,%sp@-
    a5c4:	2f02           	movel %d2,%sp@-
    a5c6:	242f 000c      	movel %sp@(12),%d2
    a5ca:	2479 0001 2c70 	moveal 12c70 <_impure_ptr>,%a2
    a5d0:	701f           	moveq #31,%d0
    a5d2:	b082           	cmpl %d2,%d0
    a5d4:	651a           	bcss a5f0 <signal+0x2e>
    a5d6:	202a 0112      	movel %a2@(274),%d0
    a5da:	6720           	beqs a5fc <signal+0x3a>
    a5dc:	d482           	addl %d2,%d2
    a5de:	d482           	addl %d2,%d2
    a5e0:	2040           	moveal %d0,%a0
    a5e2:	d1c2           	addal %d2,%a0
    a5e4:	2010           	movel %a0@,%d0
    a5e6:	20af 0010      	movel %sp@(16),%a0@
    a5ea:	241f           	movel %sp@+,%d2
    a5ec:	245f           	moveal %sp@+,%a2
    a5ee:	4e75           	rts
    a5f0:	7016           	moveq #22,%d0
    a5f2:	2480           	movel %d0,%a2@
    a5f4:	70ff           	moveq #-1,%d0
    a5f6:	241f           	movel %sp@+,%d2
    a5f8:	245f           	moveal %sp@+,%a2
    a5fa:	4e75           	rts
    a5fc:	4878 0080      	pea 80 <DBL_MANT_DIG+0x4b>
    a600:	2f0a           	movel %a2,%sp@-
    a602:	4eb9 0000 2804 	jsr 2804 <_malloc_r>
    a608:	2540 0112      	movel %d0,%a2@(274)
    a60c:	508f           	addql #8,%sp
    a60e:	67e4           	beqs a5f4 <signal+0x32>
    a610:	2040           	moveal %d0,%a0
    a612:	2200           	movel %d0,%d1
    a614:	0681 0000 0080 	addil #128,%d1
    a61a:	4298           	clrl %a0@+
    a61c:	b1c1           	cmpal %d1,%a0
    a61e:	67bc           	beqs a5dc <signal+0x1a>
    a620:	4298           	clrl %a0@+
    a622:	b1c1           	cmpal %d1,%a0
    a624:	66f4           	bnes a61a <signal+0x58>
    a626:	60b4           	bras a5dc <signal+0x1a>

0000a628 <_init_signal>:
    a628:	2f0a           	movel %a2,%sp@-
    a62a:	2479 0001 2c70 	moveal 12c70 <_impure_ptr>,%a2
    a630:	4aaa 0112      	tstl %a2@(274)
    a634:	6706           	beqs a63c <_init_signal+0x14>
    a636:	7000           	moveq #0,%d0
    a638:	245f           	moveal %sp@+,%a2
    a63a:	4e75           	rts
    a63c:	4878 0080      	pea 80 <DBL_MANT_DIG+0x4b>
    a640:	2f0a           	movel %a2,%sp@-
    a642:	4eb9 0000 2804 	jsr 2804 <_malloc_r>
    a648:	2040           	moveal %d0,%a0
    a64a:	2540 0112      	movel %d0,%a2@(274)
    a64e:	508f           	addql #8,%sp
    a650:	6714           	beqs a666 <_init_signal+0x3e>
    a652:	0680 0000 0080 	addil #128,%d0
    a658:	4298           	clrl %a0@+
    a65a:	b088           	cmpl %a0,%d0
    a65c:	67d8           	beqs a636 <_init_signal+0xe>
    a65e:	4298           	clrl %a0@+
    a660:	b088           	cmpl %a0,%d0
    a662:	66f4           	bnes a658 <_init_signal+0x30>
    a664:	60d0           	bras a636 <_init_signal+0xe>
    a666:	70ff           	moveq #-1,%d0
    a668:	245f           	moveal %sp@+,%a2
    a66a:	4e75           	rts

0000a66c <__sigtramp>:
    a66c:	2f0a           	movel %a2,%sp@-
    a66e:	2f02           	movel %d2,%sp@-
    a670:	242f 000c      	movel %sp@(12),%d2
    a674:	2479 0001 2c70 	moveal 12c70 <_impure_ptr>,%a2
    a67a:	701f           	moveq #31,%d0
    a67c:	b082           	cmpl %d2,%d0
    a67e:	6578           	bcss a6f8 <__sigtramp+0x8c>
    a680:	202a 0112      	movel %a2@(274),%d0
    a684:	6746           	beqs a6cc <__sigtramp+0x60>
    a686:	2202           	movel %d2,%d1
    a688:	d282           	addl %d2,%d1
    a68a:	d281           	addl %d1,%d1
    a68c:	2040           	moveal %d0,%a0
    a68e:	d1c1           	addal %d1,%a0
    a690:	2250           	moveal %a0@,%a1
    a692:	b2fc 0000      	cmpaw #0,%a1
    a696:	671c           	beqs a6b4 <__sigtramp+0x48>
    a698:	70ff           	moveq #-1,%d0
    a69a:	b089           	cmpl %a1,%d0
    a69c:	6726           	beqs a6c4 <__sigtramp+0x58>
    a69e:	7001           	moveq #1,%d0
    a6a0:	b089           	cmpl %a1,%d0
    a6a2:	6718           	beqs a6bc <__sigtramp+0x50>
    a6a4:	4290           	clrl %a0@
    a6a6:	2f02           	movel %d2,%sp@-
    a6a8:	4e91           	jsr %a1@
    a6aa:	588f           	addql #4,%sp
    a6ac:	7000           	moveq #0,%d0
    a6ae:	241f           	movel %sp@+,%d2
    a6b0:	245f           	moveal %sp@+,%a2
    a6b2:	4e75           	rts
    a6b4:	7001           	moveq #1,%d0
    a6b6:	241f           	movel %sp@+,%d2
    a6b8:	245f           	moveal %sp@+,%a2
    a6ba:	4e75           	rts
    a6bc:	7003           	moveq #3,%d0
    a6be:	241f           	movel %sp@+,%d2
    a6c0:	245f           	moveal %sp@+,%a2
    a6c2:	4e75           	rts
    a6c4:	7002           	moveq #2,%d0
    a6c6:	241f           	movel %sp@+,%d2
    a6c8:	245f           	moveal %sp@+,%a2
    a6ca:	4e75           	rts
    a6cc:	4878 0080      	pea 80 <DBL_MANT_DIG+0x4b>
    a6d0:	2f0a           	movel %a2,%sp@-
    a6d2:	4eb9 0000 2804 	jsr 2804 <_malloc_r>
    a6d8:	2540 0112      	movel %d0,%a2@(274)
    a6dc:	508f           	addql #8,%sp
    a6de:	6718           	beqs a6f8 <__sigtramp+0x8c>
    a6e0:	2040           	moveal %d0,%a0
    a6e2:	2200           	movel %d0,%d1
    a6e4:	0681 0000 0080 	addil #128,%d1
    a6ea:	4298           	clrl %a0@+
    a6ec:	b1c1           	cmpal %d1,%a0
    a6ee:	6796           	beqs a686 <__sigtramp+0x1a>
    a6f0:	4298           	clrl %a0@+
    a6f2:	b1c1           	cmpal %d1,%a0
    a6f4:	66f4           	bnes a6ea <__sigtramp+0x7e>
    a6f6:	608e           	bras a686 <__sigtramp+0x1a>
    a6f8:	70ff           	moveq #-1,%d0
    a6fa:	241f           	movel %sp@+,%d2
    a6fc:	245f           	moveal %sp@+,%a2
    a6fe:	4e75           	rts

0000a700 <_kill_r>:
    a700:	42b9 0001 3650 	clrl 13650 <errno>
    a706:	2f2f 000c      	movel %sp@(12),%sp@-
    a70a:	2f2f 000c      	movel %sp@(12),%sp@-
    a70e:	4eb9 0000 a87e 	jsr a87e <_kill>
    a714:	508f           	addql #8,%sp
    a716:	72ff           	moveq #-1,%d1
    a718:	b280           	cmpl %d0,%d1
    a71a:	6702           	beqs a71e <_kill_r+0x1e>
    a71c:	4e75           	rts
    a71e:	2239 0001 3650 	movel 13650 <errno>,%d1
    a724:	67f6           	beqs a71c <_kill_r+0x1c>
    a726:	206f 0004      	moveal %sp@(4),%a0
    a72a:	2081           	movel %d1,%a0@
    a72c:	4e75           	rts

0000a72e <_getpid_r>:
    a72e:	4ef9 0000 a86a 	jmp a86a <_getpid>

0000a734 <_exit>:
    a734:	2079 0000 0490 	moveal 490 <EFP_PROG_EXIT>,%a0
    a73a:	4ed0           	jmp %a0@

0000a73c <_close>:
    a73c:	2f0a           	movel %a2,%sp@-
    a73e:	2f02           	movel %d2,%sp@-
    a740:	246f 000c      	moveal %sp@(12),%a2
    a744:	701f           	moveq #31,%d0
    a746:	b08a           	cmpl %a2,%d0
    a748:	6c64           	bges a7ae <_close+0x72>
    a74a:	45ea ffe0      	lea %a2@(-32),%a2
    a74e:	4eb9 0000 b0dc 	jsr b0dc <SD_FAT_get_sd_card>
    a754:	4a80           	tstl %d0
    a756:	673c           	beqs a794 <_close+0x58>
    a758:	7401           	moveq #1,%d2
    a75a:	200a           	movel %a2,%d0
    a75c:	e1aa           	lsll %d0,%d2
    a75e:	57c0           	seq %d0
    a760:	4880           	extw %d0
    a762:	48c0           	extl %d0
    a764:	4480           	negl %d0
    a766:	c0b9 0001 36e2 	andl 136e2 <files_bmp>,%d0
    a76c:	6640           	bnes a7ae <_close+0x72>
    a76e:	d5ca           	addal %a2,%a2
    a770:	d5ca           	addal %a2,%a2
    a772:	41f9 0001 3662 	lea 13662 <files>,%a0
    a778:	2f32 8800      	movel %a2@(0,%a0:l),%sp@-
    a77c:	4eb9 0000 c078 	jsr c078 <fl_fclose>
    a782:	4682           	notl %d2
    a784:	c5b9 0001 36e2 	andl %d2,136e2 <files_bmp>
    a78a:	588f           	addql #4,%sp
    a78c:	7000           	moveq #0,%d0
    a78e:	241f           	movel %sp@+,%d2
    a790:	245f           	moveal %sp@+,%a2
    a792:	4e75           	rts
    a794:	4eb9 0000 b060 	jsr b060 <SD_FAT_initialize>
    a79a:	4a00           	tstb %d0
    a79c:	66ba           	bnes a758 <_close+0x1c>
    a79e:	7006           	moveq #6,%d0
    a7a0:	23c0 0001 3650 	movel %d0,13650 <errno>
    a7a6:	70ff           	moveq #-1,%d0
    a7a8:	241f           	movel %sp@+,%d2
    a7aa:	245f           	moveal %sp@+,%a2
    a7ac:	4e75           	rts
    a7ae:	7009           	moveq #9,%d0
    a7b0:	23c0 0001 3650 	movel %d0,13650 <errno>
    a7b6:	70ff           	moveq #-1,%d0
    a7b8:	60ee           	bras a7a8 <_close+0x6c>

0000a7ba <_execve>:
    a7ba:	700c           	moveq #12,%d0
    a7bc:	23c0 0001 3650 	movel %d0,13650 <errno>
    a7c2:	70ff           	moveq #-1,%d0
    a7c4:	4e75           	rts

0000a7c6 <_fork>:
    a7c6:	700b           	moveq #11,%d0
    a7c8:	23c0 0001 3650 	movel %d0,13650 <errno>
    a7ce:	70ff           	moveq #-1,%d0
    a7d0:	4e75           	rts

0000a7d2 <_fstat>:
    a7d2:	2f0a           	movel %a2,%sp@-
    a7d4:	206f 0008      	moveal %sp@(8),%a0
    a7d8:	226f 000c      	moveal %sp@(12),%a1
    a7dc:	7002           	moveq #2,%d0
    a7de:	b088           	cmpl %a0,%d0
    a7e0:	650e           	bcss a7f0 <_fstat+0x1e>
    a7e2:	237c 0000 2000 	movel #8192,%a1@(4)
    a7e8:	0004 
    a7ea:	7000           	moveq #0,%d0
    a7ec:	245f           	moveal %sp@+,%a2
    a7ee:	4e75           	rts
    a7f0:	721f           	moveq #31,%d1
    a7f2:	b288           	cmpl %a0,%d1
    a7f4:	6c66           	bges a85c <_fstat+0x8a>
    a7f6:	41e8 ffe0      	lea %a0@(-32),%a0
    a7fa:	7001           	moveq #1,%d0
    a7fc:	2208           	movel %a0,%d1
    a7fe:	e3a8           	lsll %d1,%d0
    a800:	57c0           	seq %d0
    a802:	4880           	extw %d0
    a804:	48c0           	extl %d0
    a806:	4480           	negl %d0
    a808:	c0b9 0001 36e2 	andl 136e2 <files_bmp>,%d0
    a80e:	664c           	bnes a85c <_fstat+0x8a>
    a810:	d1c8           	addal %a0,%a0
    a812:	d1c8           	addal %a0,%a0
    a814:	45f9 0001 3662 	lea 13662 <files>,%a2
    a81a:	2070 a800      	moveal %a0@(0,%a2:l),%a0
    a81e:	4269 000a      	clrw %a1@(10)
    a822:	4269 000c      	clrw %a1@(12)
    a826:	32bc 0080      	movew #128,%a1@
    a82a:	3368 0006 0002 	movew %a0@(6),%a1@(2)
    a830:	237c 0000 8000 	movel #32768,%a1@(4)
    a836:	0004 
    a838:	4269 0008      	clrw %a1@(8)
    a83c:	4269 000e      	clrw %a1@(14)
    a840:	2028 000c      	movel %a0@(12),%d0
    a844:	2340 0010      	movel %d0,%a1@(16)
    a848:	237c 0000 0200 	movel #512,%a1@(56)
    a84e:	0038 
    a850:	7209           	moveq #9,%d1
    a852:	e2a8           	lsrl %d1,%d0
    a854:	2340 003c      	movel %d0,%a1@(60)
    a858:	7000           	moveq #0,%d0
    a85a:	6090           	bras a7ec <_fstat+0x1a>
    a85c:	7009           	moveq #9,%d0
    a85e:	23c0 0001 3650 	movel %d0,13650 <errno>
    a864:	70ff           	moveq #-1,%d0
    a866:	245f           	moveal %sp@+,%a2
    a868:	4e75           	rts

0000a86a <_getpid>:
    a86a:	7001           	moveq #1,%d0
    a86c:	4e75           	rts

0000a86e <_isatty>:
    a86e:	7202           	moveq #2,%d1
    a870:	b2af 0004      	cmpl %sp@(4),%d1
    a874:	54c0           	scc %d0
    a876:	4880           	extw %d0
    a878:	48c0           	extl %d0
    a87a:	4480           	negl %d0
    a87c:	4e75           	rts

0000a87e <_kill>:
    a87e:	7016           	moveq #22,%d0
    a880:	23c0 0001 3650 	movel %d0,13650 <errno>
    a886:	70ff           	moveq #-1,%d0
    a888:	4e75           	rts

0000a88a <_link>:
    a88a:	701f           	moveq #31,%d0
    a88c:	23c0 0001 3650 	movel %d0,13650 <errno>
    a892:	70ff           	moveq #-1,%d0
    a894:	4e75           	rts

0000a896 <_lseek>:
    a896:	2f02           	movel %d2,%sp@-
    a898:	206f 0008      	moveal %sp@(8),%a0
    a89c:	222f 000c      	movel %sp@(12),%d1
    a8a0:	226f 0010      	moveal %sp@(16),%a1
    a8a4:	7002           	moveq #2,%d0
    a8a6:	b088           	cmpl %a0,%d0
    a8a8:	6506           	bcss a8b0 <_lseek+0x1a>
    a8aa:	7000           	moveq #0,%d0
    a8ac:	241f           	movel %sp@+,%d2
    a8ae:	4e75           	rts
    a8b0:	741f           	moveq #31,%d2
    a8b2:	b488           	cmpl %a0,%d2
    a8b4:	6c3a           	bges a8f0 <_lseek+0x5a>
    a8b6:	41e8 ffe0      	lea %a0@(-32),%a0
    a8ba:	7001           	moveq #1,%d0
    a8bc:	2408           	movel %a0,%d2
    a8be:	e5a8           	lsll %d2,%d0
    a8c0:	57c0           	seq %d0
    a8c2:	4880           	extw %d0
    a8c4:	48c0           	extl %d0
    a8c6:	4480           	negl %d0
    a8c8:	c0b9 0001 36e2 	andl 136e2 <files_bmp>,%d0
    a8ce:	6620           	bnes a8f0 <_lseek+0x5a>
    a8d0:	2f49 0010      	movel %a1,%sp@(16)
    a8d4:	2f41 000c      	movel %d1,%sp@(12)
    a8d8:	d1c8           	addal %a0,%a0
    a8da:	d1c8           	addal %a0,%a0
    a8dc:	43f9 0001 3662 	lea 13662 <files>,%a1
    a8e2:	2f70 9800 0008 	movel %a0@(0,%a1:l),%sp@(8)
    a8e8:	241f           	movel %sp@+,%d2
    a8ea:	4ef9 0000 c386 	jmp c386 <fl_fseek>
    a8f0:	7009           	moveq #9,%d0
    a8f2:	23c0 0001 3650 	movel %d0,13650 <errno>
    a8f8:	70ff           	moveq #-1,%d0
    a8fa:	241f           	movel %sp@+,%d2
    a8fc:	4e75           	rts

0000a8fe <_sd_open>:
    a8fe:	2f03           	movel %d3,%sp@-
    a900:	2f02           	movel %d2,%sp@-
    a902:	4eb9 0000 b0dc 	jsr b0dc <SD_FAT_get_sd_card>
    a908:	4a80           	tstl %d0
    a90a:	6762           	beqs a96e <_sd_open+0x70>
    a90c:	2239 0001 36e2 	movel 136e2 <files_bmp>,%d1
    a912:	70ff           	moveq #-1,%d0
    a914:	b081           	cmpl %d1,%d0
    a916:	6770           	beqs a988 <_sd_open+0x8a>
    a918:	7400           	moveq #0,%d2
    a91a:	0801 0000      	btst #0,%d1
    a91e:	6712           	beqs a932 <_sd_open+0x34>
    a920:	7601           	moveq #1,%d3
    a922:	5282           	addql #1,%d2
    a924:	7020           	moveq #32,%d0
    a926:	b082           	cmpl %d2,%d0
    a928:	675e           	beqs a988 <_sd_open+0x8a>
    a92a:	2003           	movel %d3,%d0
    a92c:	e5a8           	lsll %d2,%d0
    a92e:	c081           	andl %d1,%d0
    a930:	66f0           	bnes a922 <_sd_open+0x24>
    a932:	2f2f 0010      	movel %sp@(16),%sp@-
    a936:	202f 0010      	movel %sp@(16),%d0
    a93a:	5680           	addql #3,%d0
    a93c:	2f00           	movel %d0,%sp@-
    a93e:	4eb9 0000 bbc2 	jsr bbc2 <fl_fopen>
    a944:	508f           	addql #8,%sp
    a946:	4a80           	tstl %d0
    a948:	6736           	beqs a980 <_sd_open+0x82>
    a94a:	7201           	moveq #1,%d1
    a94c:	e5a9           	lsll %d2,%d1
    a94e:	83b9 0001 36e2 	orl %d1,136e2 <files_bmp>
    a954:	2202           	movel %d2,%d1
    a956:	d282           	addl %d2,%d1
    a958:	d281           	addl %d1,%d1
    a95a:	41f9 0001 3662 	lea 13662 <files>,%a0
    a960:	2180 1800      	movel %d0,%a0@(0,%d1:l)
    a964:	7020           	moveq #32,%d0
    a966:	d082           	addl %d2,%d0
    a968:	241f           	movel %sp@+,%d2
    a96a:	261f           	movel %sp@+,%d3
    a96c:	4e75           	rts
    a96e:	4eb9 0000 b060 	jsr b060 <SD_FAT_initialize>
    a974:	4a00           	tstb %d0
    a976:	6694           	bnes a90c <_sd_open+0xe>
    a978:	7006           	moveq #6,%d0
    a97a:	23c0 0001 3650 	movel %d0,13650 <errno>
    a980:	70ff           	moveq #-1,%d0
    a982:	241f           	movel %sp@+,%d2
    a984:	261f           	movel %sp@+,%d3
    a986:	4e75           	rts
    a988:	7018           	moveq #24,%d0
    a98a:	23c0 0001 3650 	movel %d0,13650 <errno>
    a990:	70ff           	moveq #-1,%d0
    a992:	60ee           	bras a982 <_sd_open+0x84>

0000a994 <_open>:
    a994:	48e7 3020      	moveml %d2-%d3/%a2,%sp@-
    a998:	262f 0010      	movel %sp@(16),%d3
    a99c:	4878 0004      	pea 4 <DUART_CRA>
    a9a0:	2f03           	movel %d3,%sp@-
    a9a2:	4879 0001 09bb 	pea 109bb <_dtors_end+0x13f>
    a9a8:	45f9 0000 eda8 	lea eda8 <strncmp>,%a2
    a9ae:	4e92           	jsr %a2@
    a9b0:	4fef 000c      	lea %sp@(12),%sp
    a9b4:	2400           	movel %d0,%d2
    a9b6:	6664           	bnes aa1c <_open+0x88>
    a9b8:	4878 0005      	pea 5 <COMPARE>
    a9bc:	2f03           	movel %d3,%sp@-
    a9be:	4879 0001 09c0 	pea 109c0 <_dtors_end+0x144>
    a9c4:	4e92           	jsr %a2@
    a9c6:	4fef 000c      	lea %sp@(12),%sp
    a9ca:	4a80           	tstl %d0
    a9cc:	6636           	bnes aa04 <_open+0x70>
    a9ce:	4878 0006      	pea 6 <DUART_RBA>
    a9d2:	2f03           	movel %d3,%sp@-
    a9d4:	4879 0001 09c6 	pea 109c6 <_dtors_end+0x14a>
    a9da:	4e92           	jsr %a2@
    a9dc:	4fef 000c      	lea %sp@(12),%sp
    a9e0:	4a80           	tstl %d0
    a9e2:	6650           	bnes aa34 <_open+0xa0>
    a9e4:	4878 0006      	pea 6 <DUART_RBA>
    a9e8:	2f03           	movel %d3,%sp@-
    a9ea:	4879 0001 09cd 	pea 109cd <_dtors_end+0x151>
    a9f0:	4e92           	jsr %a2@
    a9f2:	4fef 000c      	lea %sp@(12),%sp
    a9f6:	7402           	moveq #2,%d2
    a9f8:	4a80           	tstl %d0
    a9fa:	6742           	beqs aa3e <_open+0xaa>
    a9fc:	2002           	movel %d2,%d0
    a9fe:	4cdf 040c      	moveml %sp@+,%d2-%d3/%a2
    aa02:	4e75           	rts
    aa04:	202f 0014      	movel %sp@(20),%d0
    aa08:	0280 0000 4000 	andil #16384,%d0
    aa0e:	23c0 0001 36e6 	movel %d0,136e6 <stdin_nonblock>
    aa14:	2002           	movel %d2,%d0
    aa16:	4cdf 040c      	moveml %sp@+,%d2-%d3/%a2
    aa1a:	4e75           	rts
    aa1c:	2f2f 0014      	movel %sp@(20),%sp@-
    aa20:	2f03           	movel %d3,%sp@-
    aa22:	4eb9 0000 a8fe 	jsr a8fe <_sd_open>
    aa28:	2400           	movel %d0,%d2
    aa2a:	508f           	addql #8,%sp
    aa2c:	2002           	movel %d2,%d0
    aa2e:	4cdf 040c      	moveml %sp@+,%d2-%d3/%a2
    aa32:	4e75           	rts
    aa34:	7401           	moveq #1,%d2
    aa36:	2002           	movel %d2,%d0
    aa38:	4cdf 040c      	moveml %sp@+,%d2-%d3/%a2
    aa3c:	4e75           	rts
    aa3e:	23c2 0001 3650 	movel %d2,13650 <errno>
    aa44:	74ff           	moveq #-1,%d2
    aa46:	2002           	movel %d2,%d0
    aa48:	4cdf 040c      	moveml %sp@+,%d2-%d3/%a2
    aa4c:	4e75           	rts

0000aa4e <_read>:
    aa4e:	48e7 203c      	moveml %d2/%a2-%a5,%sp@-
    aa52:	246f 0018      	moveal %sp@(24),%a2
    aa56:	266f 001c      	moveal %sp@(28),%a3
    aa5a:	242f 0020      	movel %sp@(32),%d2
    aa5e:	b4fc 0000      	cmpaw #0,%a2
    aa62:	674a           	beqs aaae <_read+0x60>
    aa64:	701f           	moveq #31,%d0
    aa66:	b08a           	cmpl %a2,%d0
    aa68:	6c00 00f0      	bgew ab5a <_read+0x10c>
    aa6c:	45ea ffe0      	lea %a2@(-32),%a2
    aa70:	7001           	moveq #1,%d0
    aa72:	220a           	movel %a2,%d1
    aa74:	e3a8           	lsll %d1,%d0
    aa76:	57c0           	seq %d0
    aa78:	4880           	extw %d0
    aa7a:	48c0           	extl %d0
    aa7c:	4480           	negl %d0
    aa7e:	c0b9 0001 36e2 	andl 136e2 <files_bmp>,%d0
    aa84:	6600 00d4      	bnew ab5a <_read+0x10c>
    aa88:	d5ca           	addal %a2,%a2
    aa8a:	d5ca           	addal %a2,%a2
    aa8c:	41f9 0001 3662 	lea 13662 <files>,%a0
    aa92:	2f32 8800      	movel %a2@(0,%a0:l),%sp@-
    aa96:	2f02           	movel %d2,%sp@-
    aa98:	4878 0001      	pea 1 <ADD>
    aa9c:	2f0b           	movel %a3,%sp@-
    aa9e:	4eb9 0000 c14e 	jsr c14e <fl_fread>
    aaa4:	4fef 0010      	lea %sp@(16),%sp
    aaa8:	4cdf 3c04      	moveml %sp@+,%d2/%a2-%a5
    aaac:	4e75           	rts
    aaae:	4a82           	tstl %d2
    aab0:	6f00 00b8      	blew ab6a <_read+0x11c>
    aab4:	4bf9 0000 affa 	lea affa <mcCheckInput>,%a5
    aaba:	49f9 0000 aff0 	lea aff0 <mcInputchar>,%a4
    aac0:	4ab9 0001 36e6 	tstl 136e6 <stdin_nonblock>
    aac6:	6706           	beqs aace <_read+0x80>
    aac8:	4e95           	jsr %a5@
    aaca:	4a00           	tstb %d0
    aacc:	671a           	beqs aae8 <_read+0x9a>
    aace:	4e94           	jsr %a4@
    aad0:	0c00 000d      	cmpib #13,%d0
    aad4:	674c           	beqs ab22 <_read+0xd4>
    aad6:	6e18           	bgts aaf0 <_read+0xa2>
    aad8:	0c00 0008      	cmpib #8,%d0
    aadc:	6736           	beqs ab14 <_read+0xc6>
    aade:	0c00 000a      	cmpib #10,%d0
    aae2:	6612           	bnes aaf6 <_read+0xa8>
    aae4:	b5c2           	cmpal %d2,%a2
    aae6:	6dd8           	blts aac0 <_read+0x72>
    aae8:	200a           	movel %a2,%d0
    aaea:	4cdf 3c04      	moveml %sp@+,%d2/%a2-%a5
    aaee:	4e75           	rts
    aaf0:	0c00 007f      	cmpib #127,%d0
    aaf4:	671e           	beqs ab14 <_read+0xc6>
    aaf6:	1780 a800      	moveb %d0,%a3@(0,%a2:l)
    aafa:	41f9 0001 3660 	lea 13660 <sendbuf>,%a0
    ab00:	1080           	moveb %d0,%a0@
    ab02:	2f08           	movel %a0,%sp@-
    ab04:	4eb9 0000 ae9c 	jsr ae9c <mcPrint>
    ab0a:	528a           	addql #1,%a2
    ab0c:	588f           	addql #4,%sp
    ab0e:	b5c2           	cmpal %d2,%a2
    ab10:	6dae           	blts aac0 <_read+0x72>
    ab12:	60d4           	bras aae8 <_read+0x9a>
    ab14:	b4fc 0000      	cmpaw #0,%a2
    ab18:	6e26           	bgts ab40 <_read+0xf2>
    ab1a:	528a           	addql #1,%a2
    ab1c:	b5c2           	cmpal %d2,%a2
    ab1e:	6da0           	blts aac0 <_read+0x72>
    ab20:	60c6           	bras aae8 <_read+0x9a>
    ab22:	17bc 000a a800 	moveb #10,%a3@(0,%a2:l)
    ab28:	4879 0001 09ba 	pea 109ba <_dtors_end+0x13e>
    ab2e:	4eb9 0000 aeae 	jsr aeae <mcPrintln>
    ab34:	200a           	movel %a2,%d0
    ab36:	5280           	addql #1,%d0
    ab38:	588f           	addql #4,%sp
    ab3a:	4cdf 3c04      	moveml %sp@+,%d2/%a2-%a5
    ab3e:	4e75           	rts
    ab40:	4233 a8ff      	clrb %a3@(ffffffffffffffff,%a2:l)
    ab44:	4879 0001 3304 	pea 13304 <backspace>
    ab4a:	4eb9 0000 ae9c 	jsr ae9c <mcPrint>
    ab50:	588f           	addql #4,%sp
    ab52:	b5c2           	cmpal %d2,%a2
    ab54:	6d00 ff6a      	bltw aac0 <_read+0x72>
    ab58:	608e           	bras aae8 <_read+0x9a>
    ab5a:	7209           	moveq #9,%d1
    ab5c:	23c1 0001 3650 	movel %d1,13650 <errno>
    ab62:	70ff           	moveq #-1,%d0
    ab64:	4cdf 3c04      	moveml %sp@+,%d2/%a2-%a5
    ab68:	4e75           	rts
    ab6a:	7000           	moveq #0,%d0
    ab6c:	4cdf 3c04      	moveml %sp@+,%d2/%a2-%a5
    ab70:	4e75           	rts

0000ab72 <_sbrk>:
    ab72:	2039 0001 36ea 	movel 136ea <heap>,%d0
    ab78:	672e           	beqs aba8 <_sbrk+0x36>
    ab7a:	23c0 0001 365c 	movel %d0,1365c <prev.1>
    ab80:	d0af 0004      	addl %sp@(4),%d0
    ab84:	23c0 0001 3658 	movel %d0,13658 <new.0>
    ab8a:	4eb9 0000 b008 	jsr b008 <mcGetStackPointer>
    ab90:	2239 0001 3658 	movel 13658 <new.0>,%d1
    ab96:	b081           	cmpl %d1,%d0
    ab98:	633e           	blss abd8 <_sbrk+0x66>
    ab9a:	23c1 0001 36ea 	movel %d1,136ea <heap>
    aba0:	2039 0001 365c 	movel 1365c <prev.1>,%d0
    aba6:	4e75           	rts
    aba8:	23fc 0002 9228 	movel #168488,136ea <heap>
    abae:	0001 36ea 
    abb2:	203c 0002 9228 	movel #168488,%d0
    abb8:	23c0 0001 365c 	movel %d0,1365c <prev.1>
    abbe:	d0af 0004      	addl %sp@(4),%d0
    abc2:	23c0 0001 3658 	movel %d0,13658 <new.0>
    abc8:	4eb9 0000 b008 	jsr b008 <mcGetStackPointer>
    abce:	2239 0001 3658 	movel 13658 <new.0>,%d1
    abd4:	b081           	cmpl %d1,%d0
    abd6:	62c2           	bhis ab9a <_sbrk+0x28>
    abd8:	700c           	moveq #12,%d0
    abda:	23c0 0001 3650 	movel %d0,13650 <errno>
    abe0:	70ff           	moveq #-1,%d0
    abe2:	4e75           	rts

0000abe4 <_sd_stat>:
    abe4:	48e7 3020      	moveml %d2-%d3/%a2,%sp@-
    abe8:	246f 0014      	moveal %sp@(20),%a2
    abec:	42a7           	clrl %sp@-
    abee:	2f2f 0014      	movel %sp@(20),%sp@-
    abf2:	4eb9 0000 a8fe 	jsr a8fe <_sd_open>
    abf8:	2400           	movel %d0,%d2
    abfa:	508f           	addql #8,%sp
    abfc:	70ff           	moveq #-1,%d0
    abfe:	b082           	cmpl %d2,%d0
    ac00:	6700 00cc      	beqw acce <_sd_stat+0xea>
    ac04:	721f           	moveq #31,%d1
    ac06:	b282           	cmpl %d2,%d1
    ac08:	6c00 00e0      	bgew acea <_sd_stat+0x106>
    ac0c:	72e0           	moveq #-32,%d1
    ac0e:	d282           	addl %d2,%d1
    ac10:	7001           	moveq #1,%d0
    ac12:	e3a8           	lsll %d1,%d0
    ac14:	57c0           	seq %d0
    ac16:	4880           	extw %d0
    ac18:	48c0           	extl %d0
    ac1a:	4480           	negl %d0
    ac1c:	c0b9 0001 36e2 	andl 136e2 <files_bmp>,%d0
    ac22:	6600 00c6      	bnew acea <_sd_stat+0x106>
    ac26:	d281           	addl %d1,%d1
    ac28:	d281           	addl %d1,%d1
    ac2a:	41f9 0001 3662 	lea 13662 <files>,%a0
    ac30:	2070 1800      	moveal %a0@(0,%d1:l),%a0
    ac34:	426a 000a      	clrw %a2@(10)
    ac38:	426a 000c      	clrw %a2@(12)
    ac3c:	34bc 0080      	movew #128,%a2@
    ac40:	3568 0006 0002 	movew %a0@(6),%a2@(2)
    ac46:	257c 0000 8000 	movel #32768,%a2@(4)
    ac4c:	0004 
    ac4e:	426a 0008      	clrw %a2@(8)
    ac52:	426a 000e      	clrw %a2@(14)
    ac56:	2028 000c      	movel %a0@(12),%d0
    ac5a:	2540 0010      	movel %d0,%a2@(16)
    ac5e:	257c 0000 0200 	movel #512,%a2@(56)
    ac64:	0038 
    ac66:	7209           	moveq #9,%d1
    ac68:	e2a8           	lsrl %d1,%d0
    ac6a:	2540 003c      	movel %d0,%a2@(60)
    ac6e:	95ca           	subal %a2,%a2
    ac70:	4eb9 0000 b0dc 	jsr b0dc <SD_FAT_get_sd_card>
    ac76:	4a80           	tstl %d0
    ac78:	673a           	beqs acb4 <_sd_stat+0xd0>
    ac7a:	7601           	moveq #1,%d3
    ac7c:	e5ab           	lsll %d2,%d3
    ac7e:	57c0           	seq %d0
    ac80:	4880           	extw %d0
    ac82:	48c0           	extl %d0
    ac84:	4480           	negl %d0
    ac86:	c0b9 0001 36e2 	andl 136e2 <files_bmp>,%d0
    ac8c:	664c           	bnes acda <_sd_stat+0xf6>
    ac8e:	d482           	addl %d2,%d2
    ac90:	d482           	addl %d2,%d2
    ac92:	41f9 0001 3662 	lea 13662 <files>,%a0
    ac98:	2f30 2800      	movel %a0@(0,%d2:l),%sp@-
    ac9c:	4eb9 0000 c078 	jsr c078 <fl_fclose>
    aca2:	4683           	notl %d3
    aca4:	c7b9 0001 36e2 	andl %d3,136e2 <files_bmp>
    acaa:	588f           	addql #4,%sp
    acac:	200a           	movel %a2,%d0
    acae:	4cdf 040c      	moveml %sp@+,%d2-%d3/%a2
    acb2:	4e75           	rts
    acb4:	4eb9 0000 b060 	jsr b060 <SD_FAT_initialize>
    acba:	4a00           	tstb %d0
    acbc:	66bc           	bnes ac7a <_sd_stat+0x96>
    acbe:	7006           	moveq #6,%d0
    acc0:	23c0 0001 3650 	movel %d0,13650 <errno>
    acc6:	200a           	movel %a2,%d0
    acc8:	4cdf 040c      	moveml %sp@+,%d2-%d3/%a2
    accc:	4e75           	rts
    acce:	347c ffff      	moveaw #-1,%a2
    acd2:	200a           	movel %a2,%d0
    acd4:	4cdf 040c      	moveml %sp@+,%d2-%d3/%a2
    acd8:	4e75           	rts
    acda:	7209           	moveq #9,%d1
    acdc:	23c1 0001 3650 	movel %d1,13650 <errno>
    ace2:	200a           	movel %a2,%d0
    ace4:	4cdf 040c      	moveml %sp@+,%d2-%d3/%a2
    ace8:	4e75           	rts
    acea:	7009           	moveq #9,%d0
    acec:	23c0 0001 3650 	movel %d0,13650 <errno>
    acf2:	347c ffff      	moveaw #-1,%a2
    acf6:	4eb9 0000 b0dc 	jsr b0dc <SD_FAT_get_sd_card>
    acfc:	4a80           	tstl %d0
    acfe:	6600 ff7a      	bnew ac7a <_sd_stat+0x96>
    ad02:	60b0           	bras acb4 <_sd_stat+0xd0>

0000ad04 <_stat>:
    ad04:	48e7 2030      	moveml %d2/%a2-%a3,%sp@-
    ad08:	242f 0010      	movel %sp@(16),%d2
    ad0c:	266f 0014      	moveal %sp@(20),%a3
    ad10:	4878 0004      	pea 4 <DUART_CRA>
    ad14:	2f02           	movel %d2,%sp@-
    ad16:	4879 0001 09bb 	pea 109bb <_dtors_end+0x13f>
    ad1c:	45f9 0000 eda8 	lea eda8 <strncmp>,%a2
    ad22:	4e92           	jsr %a2@
    ad24:	4fef 000c      	lea %sp@(12),%sp
    ad28:	4a80           	tstl %d0
    ad2a:	6662           	bnes ad8e <_stat+0x8a>
    ad2c:	4878 0005      	pea 5 <COMPARE>
    ad30:	4879 0001 09c0 	pea 109c0 <_dtors_end+0x144>
    ad36:	2f02           	movel %d2,%sp@-
    ad38:	4e92           	jsr %a2@
    ad3a:	4fef 000c      	lea %sp@(12),%sp
    ad3e:	4a80           	tstl %d0
    ad40:	6710           	beqs ad52 <_stat+0x4e>
    ad42:	4253           	clrw %a3@
    ad44:	277c 0000 2000 	movel #8192,%a3@(4)
    ad4a:	0004 
    ad4c:	4cdf 0c04      	moveml %sp@+,%d2/%a2-%a3
    ad50:	4e75           	rts
    ad52:	4878 0006      	pea 6 <DUART_RBA>
    ad56:	4879 0001 09c6 	pea 109c6 <_dtors_end+0x14a>
    ad5c:	2f02           	movel %d2,%sp@-
    ad5e:	4e92           	jsr %a2@
    ad60:	4fef 000c      	lea %sp@(12),%sp
    ad64:	4a80           	tstl %d0
    ad66:	66da           	bnes ad42 <_stat+0x3e>
    ad68:	4878 0006      	pea 6 <DUART_RBA>
    ad6c:	4879 0001 09cd 	pea 109cd <_dtors_end+0x151>
    ad72:	2f02           	movel %d2,%sp@-
    ad74:	4e92           	jsr %a2@
    ad76:	4fef 000c      	lea %sp@(12),%sp
    ad7a:	4a80           	tstl %d0
    ad7c:	66c4           	bnes ad42 <_stat+0x3e>
    ad7e:	7009           	moveq #9,%d0
    ad80:	23c0 0001 3650 	movel %d0,13650 <errno>
    ad86:	70ff           	moveq #-1,%d0
    ad88:	4cdf 0c04      	moveml %sp@+,%d2/%a2-%a3
    ad8c:	4e75           	rts
    ad8e:	2f4b 0014      	movel %a3,%sp@(20)
    ad92:	2f42 0010      	movel %d2,%sp@(16)
    ad96:	4cdf 0c04      	moveml %sp@+,%d2/%a2-%a3
    ad9a:	4ef9 0000 abe4 	jmp abe4 <_sd_stat>

0000ada0 <_times>:
    ada0:	206f 0004      	moveal %sp@(4),%a0
    ada4:	2039 0000 040c 	movel 40c <_TIMER_100HZ>,%d0
    adaa:	2080           	movel %d0,%a0@
    adac:	42a8 0004      	clrl %a0@(4)
    adb0:	42a8 000c      	clrl %a0@(12)
    adb4:	42a8 0008      	clrl %a0@(8)
    adb8:	4e75           	rts

0000adba <_unlink>:
    adba:	7002           	moveq #2,%d0
    adbc:	23c0 0001 3650 	movel %d0,13650 <errno>
    adc2:	70ff           	moveq #-1,%d0
    adc4:	4e75           	rts

0000adc6 <_wait>:
    adc6:	700a           	moveq #10,%d0
    adc8:	23c0 0001 3650 	movel %d0,13650 <errno>
    adce:	70ff           	moveq #-1,%d0
    add0:	4e75           	rts

0000add2 <_write>:
    add2:	48e7 3030      	moveml %d2-%d3/%a2-%a3,%sp@-
    add6:	206f 0014      	moveal %sp@(20),%a0
    adda:	242f 001c      	movel %sp@(28),%d2
    adde:	2008           	movel %a0,%d0
    ade0:	5380           	subql #1,%d0
    ade2:	7201           	moveq #1,%d1
    ade4:	b280           	cmpl %d0,%d1
    ade6:	644a           	bccs ae32 <_write+0x60>
    ade8:	701f           	moveq #31,%d0
    adea:	b088           	cmpl %a0,%d0
    adec:	6c00 0090      	bgew ae7e <_write+0xac>
    adf0:	41e8 ffe0      	lea %a0@(-32),%a0
    adf4:	7201           	moveq #1,%d1
    adf6:	2008           	movel %a0,%d0
    adf8:	e1a9           	lsll %d0,%d1
    adfa:	57c1           	seq %d1
    adfc:	4881           	extw %d1
    adfe:	48c1           	extl %d1
    ae00:	4481           	negl %d1
    ae02:	c2b9 0001 36e2 	andl 136e2 <files_bmp>,%d1
    ae08:	6674           	bnes ae7e <_write+0xac>
    ae0a:	d1c8           	addal %a0,%a0
    ae0c:	d1c8           	addal %a0,%a0
    ae0e:	43f9 0001 3662 	lea 13662 <files>,%a1
    ae14:	2f30 9800      	movel %a0@(0,%a1:l),%sp@-
    ae18:	2f02           	movel %d2,%sp@-
    ae1a:	4878 0001      	pea 1 <ADD>
    ae1e:	2f2f 0024      	movel %sp@(36),%sp@-
    ae22:	4eb9 0000 c552 	jsr c552 <fl_fwrite>
    ae28:	4fef 0010      	lea %sp@(16),%sp
    ae2c:	4cdf 0c0c      	moveml %sp@+,%d2-%d3/%a2-%a3
    ae30:	4e75           	rts
    ae32:	4a82           	tstl %d2
    ae34:	6f24           	bles ae5a <_write+0x88>
    ae36:	246f 0018      	moveal %sp@(24),%a2
    ae3a:	260a           	movel %a2,%d3
    ae3c:	d682           	addl %d2,%d3
    ae3e:	47f9 0000 aec0 	lea aec0 <mcPrintchar>,%a3
    ae44:	121a           	moveb %a2@+,%d1
    ae46:	0c01 000a      	cmpib #10,%d1
    ae4a:	6716           	beqs ae62 <_write+0x90>
    ae4c:	4881           	extw %d1
    ae4e:	3041           	moveaw %d1,%a0
    ae50:	2f08           	movel %a0,%sp@-
    ae52:	4e93           	jsr %a3@
    ae54:	588f           	addql #4,%sp
    ae56:	b68a           	cmpl %a2,%d3
    ae58:	66ea           	bnes ae44 <_write+0x72>
    ae5a:	2002           	movel %d2,%d0
    ae5c:	4cdf 0c0c      	moveml %sp@+,%d2-%d3/%a2-%a3
    ae60:	4e75           	rts
    ae62:	4878 000d      	pea d <DUART_CTUR+0x1>
    ae66:	4e93           	jsr %a3@
    ae68:	122a ffff      	moveb %a2@(-1),%d1
    ae6c:	588f           	addql #4,%sp
    ae6e:	4881           	extw %d1
    ae70:	3041           	moveaw %d1,%a0
    ae72:	2f08           	movel %a0,%sp@-
    ae74:	4e93           	jsr %a3@
    ae76:	588f           	addql #4,%sp
    ae78:	b68a           	cmpl %a2,%d3
    ae7a:	66c8           	bnes ae44 <_write+0x72>
    ae7c:	60dc           	bras ae5a <_write+0x88>
    ae7e:	7209           	moveq #9,%d1
    ae80:	23c1 0001 3650 	movel %d1,13650 <errno>
    ae86:	70ff           	moveq #-1,%d0
    ae88:	4cdf 0c0c      	moveml %sp@+,%d2-%d3/%a2-%a3
    ae8c:	4e75           	rts

0000ae8e <_gettimeofday>:
    ae8e:	7058           	moveq #88,%d0
    ae90:	23c0 0001 3650 	movel %d0,13650 <errno>
    ae96:	70ff           	moveq #-1,%d0
    ae98:	4e75           	rts

0000ae9a <breakpoint>:
    ae9a:	4e75           	rts

0000ae9c <mcPrint>:
    ae9c:	48e7 c080      	moveml %d0-%d1/%a0,%sp@-
    aea0:	206f 0010      	moveal %sp@(16),%a0
    aea4:	7200           	moveq #0,%d1
    aea6:	4e4e           	trap #14
    aea8:	4cdf 0103      	moveml %sp@+,%d0-%d1/%a0
    aeac:	4e75           	rts

0000aeae <mcPrintln>:
    aeae:	48e7 c080      	moveml %d0-%d1/%a0,%sp@-
    aeb2:	206f 0010      	moveal %sp@(16),%a0
    aeb6:	7201           	moveq #1,%d1
    aeb8:	4e4e           	trap #14
    aeba:	4cdf 0103      	moveml %sp@+,%d0-%d1/%a0
    aebe:	4e75           	rts

0000aec0 <mcPrintchar>:
    aec0:	202f 0004      	movel %sp@(4),%d0
    aec4:	7204           	moveq #4,%d1
    aec6:	4e4e           	trap #14
    aec8:	4e75           	rts

0000aeca <mcSetcursor>:
    aeca:	2f01           	movel %d1,%sp@-
    aecc:	202f 0008      	movel %sp@(8),%d0
    aed0:	7205           	moveq #5,%d1
    aed2:	4e4e           	trap #14
    aed4:	221f           	movel %sp@+,%d1
    aed6:	4e75           	rts

0000aed8 <mcSendchar>:
    aed8:	48e7 c000      	moveml %d0-%d1,%sp@-
    aedc:	202f 000c      	movel %sp@(12),%d0
    aee0:	7202           	moveq #2,%d1
    aee2:	4e4e           	trap #14
    aee4:	4cdf 0003      	moveml %sp@+,%d0-%d1
    aee8:	4e75           	rts

0000aeea <mcReadchar>:
    aeea:	2f01           	movel %d1,%sp@-
    aeec:	7203           	moveq #3,%d1
    aeee:	4e4e           	trap #14
    aef0:	221f           	movel %sp@+,%d1
    aef2:	4e75           	rts

0000aef4 <mcCheckchar>:
    aef4:	2f01           	movel %d1,%sp@-
    aef6:	7206           	moveq #6,%d1
    aef8:	4e4e           	trap #14
    aefa:	4880           	extw %d0
    aefc:	48c0           	extl %d0
    aefe:	221f           	movel %sp@+,%d1
    af00:	4e75           	rts

0000af02 <mcBusywait>:
    af02:	202f 0004      	movel %sp@(4),%d0
    af06:	5380           	subql #1,%d0
    af08:	4a80           	tstl %d0
    af0a:	66fa           	bnes af06 <mcBusywait+0x4>
    af0c:	4e75           	rts

0000af0e <mcDelaymsec10>:
    af0e:	202f 0004      	movel %sp@(4),%d0
    af12:	d0b8 040c      	addl 40c <_TIMER_100HZ>,%d0
    af16:	b0b8 040c      	cmpl 40c <_TIMER_100HZ>,%d0
    af1a:	64fa           	bccs af16 <mcDelaymsec10+0x8>
    af1c:	4e75           	rts

0000af1e <mcDisableInterrupts>:
    af1e:	40c0           	movew %sr,%d0
    af20:	007c 0700      	oriw #1792,%sr
    af24:	e048           	lsrw #8,%d0
    af26:	0200 0007      	andib #7,%d0
    af2a:	4e75           	rts

0000af2c <mcEnableInterrupts>:
    af2c:	48e7 c000      	moveml %d0-%d1,%sp@-
    af30:	202f 000c      	movel %sp@(12),%d0
    af34:	e148           	lslw #8,%d0
    af36:	0240 0700      	andiw #1792,%d0
    af3a:	40c1           	movew %sr,%d1
    af3c:	0241 f8ff      	andiw #-1793,%d1
    af40:	8240           	orw %d0,%d1
    af42:	46c1           	movew %d1,%sr
    af44:	4cdf 0003      	moveml %sp@+,%d0-%d1
    af48:	4e75           	rts

0000af4a <mcHalt>:
    af4a:	4e72 2700      	stop #9984
    af4e:	60fa           	bras af4a <mcHalt>

0000af50 <mcCheckDeviceSupport>:
    af50:	2f01           	movel %d1,%sp@-
    af52:	7207           	moveq #7,%d1
    af54:	7000           	moveq #0,%d0
    af56:	4e4e           	trap #14
    af58:	b0bc 1234 fedc 	cmpl #305463004,%d0
    af5e:	6702           	beqs af62 <mcCheckDeviceSupport+0x12>
    af60:	7000           	moveq #0,%d0
    af62:	221f           	movel %sp@+,%d1
    af64:	4e75           	rts

0000af66 <mcGetDeviceCount>:
    af66:	2f01           	movel %d1,%sp@-
    af68:	7208           	moveq #8,%d1
    af6a:	4e4e           	trap #14
    af6c:	221f           	movel %sp@+,%d1
    af6e:	4e75           	rts

0000af70 <mcGetDevice>:
    af70:	2f01           	movel %d1,%sp@-
    af72:	202f 0008      	movel %sp@(8),%d0
    af76:	206f 000c      	moveal %sp@(12),%a0
    af7a:	7209           	moveq #9,%d1
    af7c:	4e4e           	trap #14
    af7e:	221f           	movel %sp@+,%d1
    af80:	4e75           	rts

0000af82 <mcAddDevice>:
    af82:	2f01           	movel %d1,%sp@-
    af84:	206f 0008      	moveal %sp@(8),%a0
    af88:	720a           	moveq #10,%d1
    af8a:	4e4e           	trap #14
    af8c:	221f           	movel %sp@+,%d1
    af8e:	4e75           	rts

0000af90 <mcCheckDevice>:
    af90:	2f01           	movel %d1,%sp@-
    af92:	206f 0008      	moveal %sp@(8),%a0
    af96:	720d           	moveq #13,%d1
    af98:	4e4e           	trap #14
    af9a:	221f           	movel %sp@+,%d1
    af9c:	4e75           	rts

0000af9e <mcReadDevice>:
    af9e:	2f01           	movel %d1,%sp@-
    afa0:	206f 0008      	moveal %sp@(8),%a0
    afa4:	720b           	moveq #11,%d1
    afa6:	4e4e           	trap #14
    afa8:	221f           	movel %sp@+,%d1
    afaa:	4e75           	rts

0000afac <mcSendDevice>:
    afac:	2f01           	movel %d1,%sp@-
    afae:	202f 0008      	movel %sp@(8),%d0
    afb2:	206f 000c      	moveal %sp@(12),%a0
    afb6:	720c           	moveq #12,%d1
    afb8:	4e4e           	trap #14
    afba:	221f           	movel %sp@+,%d1
    afbc:	4e75           	rts

0000afbe <mcDeviceCtrl>:
    afbe:	2f01           	movel %d1,%sp@-
    afc0:	2f02           	movel %d2,%sp@-
    afc2:	202f 000c      	movel %sp@(12),%d0
    afc6:	242f 0010      	movel %sp@(16),%d2
    afca:	206f 0014      	moveal %sp@(20),%a0
    afce:	7210           	moveq #16,%d1
    afd0:	4e4e           	trap #14
    afd2:	241f           	movel %sp@+,%d2
    afd4:	221f           	movel %sp@+,%d1
    afd6:	4e75           	rts

0000afd8 <mcGetVecBase>:
    afd8:	2038 041c      	movel 41c <SDB_CPUINFO>,%d0
    afdc:	c0bc e000 0000 	andl #-536870912,%d0
    afe2:	4a80           	tstl %d0
    afe4:	6706           	beqs afec <mcGetVecBase+0x14>
    afe6:	4e7a           	.short 0x4e7a
    afe8:	0801 4e75      	btst #117,%d1
    afec:	7000           	moveq #0,%d0
    afee:	4e75           	rts

0000aff0 <mcInputchar>:
    aff0:	2f01           	movel %d1,%sp@-
    aff2:	7211           	moveq #17,%d1
    aff4:	4e4e           	trap #14
    aff6:	221f           	movel %sp@+,%d1
    aff8:	4e75           	rts

0000affa <mcCheckInput>:
    affa:	2f01           	movel %d1,%sp@-
    affc:	7212           	moveq #18,%d1
    affe:	4e4e           	trap #14
    b000:	4880           	extw %d0
    b002:	48c0           	extl %d0
    b004:	221f           	movel %sp@+,%d1
    b006:	4e75           	rts

0000b008 <mcGetStackPointer>:
    b008:	200f           	movel %sp,%d0
    b00a:	5880           	addql #4,%d0
    b00c:	4e75           	rts
	...

0000b010 <__sd_fat_shutdown>:
    b010:	4a39 0001 36f4 	tstb 136f4 <initialized>
    b016:	6602           	bnes b01a <__sd_fat_shutdown+0xa>
    b018:	4e75           	rts
    b01a:	4ef9 0000 bb86 	jmp bb86 <fl_shutdown>

0000b020 <FAT_media_write>:
    b020:	2f2f 000c      	movel %sp@(12),%sp@-
    b024:	2f2f 0008      	movel %sp@(8),%sp@-
    b028:	2f2f 0010      	movel %sp@(16),%sp@-
    b02c:	42a7           	clrl %sp@-
    b02e:	4879 0001 36f6 	pea 136f6 <part>
    b034:	4eb9 0000 b2ac 	jsr b2ac <Part_write>
    b03a:	4fef 0014      	lea %sp@(20),%sp
    b03e:	4e75           	rts

0000b040 <FAT_media_read>:
    b040:	2f2f 000c      	movel %sp@(12),%sp@-
    b044:	2f2f 0008      	movel %sp@(8),%sp@-
    b048:	2f2f 0010      	movel %sp@(16),%sp@-
    b04c:	42a7           	clrl %sp@-
    b04e:	4879 0001 36f6 	pea 136f6 <part>
    b054:	4eb9 0000 b1ec 	jsr b1ec <Part_read>
    b05a:	4fef 0014      	lea %sp@(20),%sp
    b05e:	4e75           	rts

0000b060 <SD_FAT_initialize>:
    b060:	2f02           	movel %d2,%sp@-
    b062:	4879 0001 3726 	pea 13726 <sdcard>
    b068:	4eb9 0000 b104 	jsr b104 <SD_initialize>
    b06e:	588f           	addql #4,%sp
    b070:	4a80           	tstl %d0
    b072:	6708           	beqs b07c <SD_FAT_initialize+0x1c>
    b074:	4202           	clrb %d2
    b076:	1002           	moveb %d2,%d0
    b078:	241f           	movel %sp@+,%d2
    b07a:	4e75           	rts
    b07c:	4879 0001 3726 	pea 13726 <sdcard>
    b082:	4879 0001 36f6 	pea 136f6 <part>
    b088:	4eb9 0000 b164 	jsr b164 <Part_init_SD>
    b08e:	508f           	addql #8,%sp
    b090:	4a80           	tstl %d0
    b092:	66e0           	bnes b074 <SD_FAT_initialize+0x14>
    b094:	42a7           	clrl %sp@-
    b096:	4879 0001 36f6 	pea 136f6 <part>
    b09c:	4eb9 0000 b36c 	jsr b36c <Part_valid>
    b0a2:	1400           	moveb %d0,%d2
    b0a4:	508f           	addql #8,%sp
    b0a6:	67cc           	beqs b074 <SD_FAT_initialize+0x14>
    b0a8:	4879 0000 b020 	pea b020 <FAT_media_write>
    b0ae:	4879 0000 b040 	pea b040 <FAT_media_read>
    b0b4:	4eb9 0000 bb4a 	jsr bb4a <fl_attach_media>
    b0ba:	508f           	addql #8,%sp
    b0bc:	4a80           	tstl %d0
    b0be:	66b4           	bnes b074 <SD_FAT_initialize+0x14>
    b0c0:	13fc 0001 0001 	moveb #1,136f4 <initialized>
    b0c6:	36f4 
    b0c8:	4879 0000 b010 	pea b010 <__sd_fat_shutdown>
    b0ce:	4eb9 0000 220c 	jsr 220c <atexit>
    b0d4:	588f           	addql #4,%sp
    b0d6:	1002           	moveb %d2,%d0
    b0d8:	241f           	movel %sp@+,%d2
    b0da:	4e75           	rts

0000b0dc <SD_FAT_get_sd_card>:
    b0dc:	4a39 0001 36f4 	tstb 136f4 <initialized>
    b0e2:	6708           	beqs b0ec <SD_FAT_get_sd_card+0x10>
    b0e4:	203c 0001 3726 	movel #79654,%d0
    b0ea:	4e75           	rts
    b0ec:	7000           	moveq #0,%d0
    b0ee:	4e75           	rts

0000b0f0 <SD_check_support>:
    b0f0:	7000           	moveq #0,%d0
    b0f2:	4e4d           	trap #13
    b0f4:	b0bc 1234 fedc 	cmpl #305463004,%d0
    b0fa:	6704           	beqs b100 <SD_check_support+0x10>
    b0fc:	7000           	moveq #0,%d0
    b0fe:	6002           	bras b102 <SD_check_support+0x12>
    b100:	7001           	moveq #1,%d0
    b102:	4e75           	rts

0000b104 <SD_initialize>:
    b104:	2f08           	movel %a0,%sp@-
    b106:	2f09           	movel %a1,%sp@-
    b108:	226f 000c      	moveal %sp@(12),%a1
    b10c:	7001           	moveq #1,%d0
    b10e:	4e4d           	trap #13
    b110:	225f           	moveal %sp@+,%a1
    b112:	205f           	moveal %sp@+,%a0
    b114:	4e75           	rts

0000b116 <SD_read_block>:
    b116:	48e7 40e0      	moveml %d1/%a0-%a2,%sp@-
    b11a:	226f 0014      	moveal %sp@(20),%a1
    b11e:	222f 0018      	movel %sp@(24),%d1
    b122:	246f 001c      	moveal %sp@(28),%a2
    b126:	7002           	moveq #2,%d0
    b128:	4e4d           	trap #13
    b12a:	4cdf 0702      	moveml %sp@+,%d1/%a0-%a2
    b12e:	4e75           	rts

0000b130 <SD_write_block>:
    b130:	48e7 40e0      	moveml %d1/%a0-%a2,%sp@-
    b134:	226f 0014      	moveal %sp@(20),%a1
    b138:	222f 0018      	movel %sp@(24),%d1
    b13c:	246f 001c      	moveal %sp@(28),%a2
    b140:	7003           	moveq #3,%d0
    b142:	4e4d           	trap #13
    b144:	4cdf 0702      	moveml %sp@+,%d1/%a0-%a2
    b148:	4e75           	rts

0000b14a <SD_read_register>:
    b14a:	48e7 40e0      	moveml %d1/%a0-%a2,%sp@-
    b14e:	226f 0014      	moveal %sp@(20),%a1
    b152:	222f 0018      	movel %sp@(24),%d1
    b156:	246f 001c      	moveal %sp@(28),%a2
    b15a:	7004           	moveq #4,%d0
    b15c:	4e4d           	trap #13
    b15e:	4cdf 0702      	moveml %sp@+,%d1/%a0-%a2
    b162:	4e75           	rts

0000b164 <Part_init_SD>:
    b164:	2f0a           	movel %a2,%sp@-
    b166:	4879 0001 373c 	pea 1373c <buffer>
    b16c:	42a7           	clrl %sp@-
    b16e:	2f2f 0014      	movel %sp@(20),%sp@-
    b172:	4eb9 0000 b116 	jsr b116 <SD_read_block>
    b178:	4fef 000c      	lea %sp@(12),%sp
    b17c:	4a00           	tstb %d0
    b17e:	6766           	beqs b1e6 <Part_init_SD+0x82>
    b180:	0c79 55aa 0001 	cmpiw #21930,1393a <buffer+0x1fe>
    b186:	393a 
    b188:	6706           	beqs b190 <Part_init_SD+0x2c>
    b18a:	7002           	moveq #2,%d0
    b18c:	245f           	moveal %sp@+,%a2
    b18e:	4e75           	rts
    b190:	206f 0008      	moveal %sp@(8),%a0
    b194:	4290           	clrl %a0@
    b196:	216f 000c 0004 	movel %sp@(12),%a0@(4)
    b19c:	43f9 0001 38fa 	lea 138fa <buffer+0x1be>,%a1
    b1a2:	5088           	addql #8,%a0
    b1a4:	347c 0030      	moveaw #48,%a2
    b1a8:	d5ef 0008      	addal %sp@(8),%a2
    b1ac:	4240           	clrw %d0
    b1ae:	1011           	moveb %a1@,%d0
    b1b0:	e148           	lslw #8,%d0
    b1b2:	1029 0004      	moveb %a1@(4),%d0
    b1b6:	3080           	movew %d0,%a0@
    b1b8:	2029 0008      	movel %a1@(8),%d0
    b1bc:	e058           	rorw #8,%d0
    b1be:	4840           	swap %d0
    b1c0:	e058           	rorw #8,%d0
    b1c2:	2140 0002      	movel %d0,%a0@(2)
    b1c6:	2029 000c      	movel %a1@(12),%d0
    b1ca:	e058           	rorw #8,%d0
    b1cc:	4840           	swap %d0
    b1ce:	e058           	rorw #8,%d0
    b1d0:	2140 0006      	movel %d0,%a0@(6)
    b1d4:	43e9 0010      	lea %a1@(16),%a1
    b1d8:	41e8 000a      	lea %a0@(10),%a0
    b1dc:	b5c8           	cmpal %a0,%a2
    b1de:	66cc           	bnes b1ac <Part_init_SD+0x48>
    b1e0:	7000           	moveq #0,%d0
    b1e2:	245f           	moveal %sp@+,%a2
    b1e4:	4e75           	rts
    b1e6:	7001           	moveq #1,%d0
    b1e8:	245f           	moveal %sp@+,%a2
    b1ea:	4e75           	rts

0000b1ec <Part_read>:
    b1ec:	48e7 3838      	moveml %d2-%d4/%a2-%a4,%sp@-
    b1f0:	266f 001c      	moveal %sp@(28),%a3
    b1f4:	202f 0020      	movel %sp@(32),%d0
    b1f8:	242f 0024      	movel %sp@(36),%d2
    b1fc:	2453           	moveal %a3@,%a2
    b1fe:	b4fc 0000      	cmpaw #0,%a2
    b202:	670a           	beqs b20e <Part_read+0x22>
    b204:	95ca           	subal %a2,%a2
    b206:	200a           	movel %a2,%d0
    b208:	4cdf 1c1c      	moveml %sp@+,%d2-%d4/%a2-%a4
    b20c:	4e75           	rts
    b20e:	0c00 0003      	cmpib #3,%d0
    b212:	6200 0084      	bhiw b298 <Part_read+0xac>
    b216:	0280 0000 00ff 	andil #255,%d0
    b21c:	2200           	movel %d0,%d1
    b21e:	d280           	addl %d0,%d1
    b220:	d281           	addl %d1,%d1
    b222:	d280           	addl %d0,%d1
    b224:	d281           	addl %d1,%d1
    b226:	41f3 1800      	lea %a3@(0,%d1:l),%a0
    b22a:	4a28 0009      	tstb %a0@(9)
    b22e:	675a           	beqs b28a <Part_read+0x9e>
    b230:	2828 000e      	movel %a0@(14),%d4
    b234:	b8af 0028      	cmpl %sp@(40),%d4
    b238:	63ca           	blss b204 <Part_read+0x18>
    b23a:	98af 0028      	subl %sp@(40),%d4
    b23e:	b8af 002c      	cmpl %sp@(44),%d4
    b242:	6262           	bhis b2a6 <Part_read+0xba>
    b244:	4a84           	tstl %d4
    b246:	67bc           	beqs b204 <Part_read+0x18>
    b248:	5280           	addql #1,%d0
    b24a:	49f9 0000 b116 	lea b116 <SD_read_block>,%a4
    b250:	2600           	movel %d0,%d3
    b252:	d680           	addl %d0,%d3
    b254:	d683           	addl %d3,%d3
    b256:	d680           	addl %d0,%d3
    b258:	d683           	addl %d3,%d3
    b25a:	2f02           	movel %d2,%sp@-
    b25c:	206f 002c      	moveal %sp@(44),%a0
    b260:	d1f3 3800      	addal %a3@(0,%d3:l),%a0
    b264:	4870 a800      	pea %a0@(0,%a2:l)
    b268:	2f2b 0004      	movel %a3@(4),%sp@-
    b26c:	4e94           	jsr %a4@
    b26e:	4fef 000c      	lea %sp@(12),%sp
    b272:	4a00           	tstb %d0
    b274:	6790           	beqs b206 <Part_read+0x1a>
    b276:	0682 0000 0200 	addil #512,%d2
    b27c:	528a           	addql #1,%a2
    b27e:	b5c4           	cmpal %d4,%a2
    b280:	66d8           	bnes b25a <Part_read+0x6e>
    b282:	200a           	movel %a2,%d0
    b284:	4cdf 1c1c      	moveml %sp@+,%d2-%d4/%a2-%a4
    b288:	4e75           	rts
    b28a:	7006           	moveq #6,%d0
    b28c:	23c0 0001 3650 	movel %d0,13650 <errno>
    b292:	95ca           	subal %a2,%a2
    b294:	6000 ff70      	braw b206 <Part_read+0x1a>
    b298:	7016           	moveq #22,%d0
    b29a:	23c0 0001 3650 	movel %d0,13650 <errno>
    b2a0:	95ca           	subal %a2,%a2
    b2a2:	6000 ff62      	braw b206 <Part_read+0x1a>
    b2a6:	282f 002c      	movel %sp@(44),%d4
    b2aa:	6098           	bras b244 <Part_read+0x58>

0000b2ac <Part_write>:
    b2ac:	48e7 3838      	moveml %d2-%d4/%a2-%a4,%sp@-
    b2b0:	266f 001c      	moveal %sp@(28),%a3
    b2b4:	202f 0020      	movel %sp@(32),%d0
    b2b8:	242f 0024      	movel %sp@(36),%d2
    b2bc:	2453           	moveal %a3@,%a2
    b2be:	b4fc 0000      	cmpaw #0,%a2
    b2c2:	670a           	beqs b2ce <Part_write+0x22>
    b2c4:	95ca           	subal %a2,%a2
    b2c6:	200a           	movel %a2,%d0
    b2c8:	4cdf 1c1c      	moveml %sp@+,%d2-%d4/%a2-%a4
    b2cc:	4e75           	rts
    b2ce:	0c00 0003      	cmpib #3,%d0
    b2d2:	6200 0084      	bhiw b358 <Part_write+0xac>
    b2d6:	0280 0000 00ff 	andil #255,%d0
    b2dc:	2200           	movel %d0,%d1
    b2de:	d280           	addl %d0,%d1
    b2e0:	d281           	addl %d1,%d1
    b2e2:	d280           	addl %d0,%d1
    b2e4:	d281           	addl %d1,%d1
    b2e6:	41f3 1800      	lea %a3@(0,%d1:l),%a0
    b2ea:	4a28 0009      	tstb %a0@(9)
    b2ee:	675a           	beqs b34a <Part_write+0x9e>
    b2f0:	2828 000e      	movel %a0@(14),%d4
    b2f4:	b8af 0028      	cmpl %sp@(40),%d4
    b2f8:	63ca           	blss b2c4 <Part_write+0x18>
    b2fa:	98af 0028      	subl %sp@(40),%d4
    b2fe:	b8af 002c      	cmpl %sp@(44),%d4
    b302:	6262           	bhis b366 <Part_write+0xba>
    b304:	4a84           	tstl %d4
    b306:	67bc           	beqs b2c4 <Part_write+0x18>
    b308:	5280           	addql #1,%d0
    b30a:	49f9 0000 b130 	lea b130 <SD_write_block>,%a4
    b310:	2600           	movel %d0,%d3
    b312:	d680           	addl %d0,%d3
    b314:	d683           	addl %d3,%d3
    b316:	d680           	addl %d0,%d3
    b318:	d683           	addl %d3,%d3
    b31a:	2f02           	movel %d2,%sp@-
    b31c:	206f 002c      	moveal %sp@(44),%a0
    b320:	d1f3 3800      	addal %a3@(0,%d3:l),%a0
    b324:	4870 a800      	pea %a0@(0,%a2:l)
    b328:	2f2b 0004      	movel %a3@(4),%sp@-
    b32c:	4e94           	jsr %a4@
    b32e:	4fef 000c      	lea %sp@(12),%sp
    b332:	4a00           	tstb %d0
    b334:	6790           	beqs b2c6 <Part_write+0x1a>
    b336:	0682 0000 0200 	addil #512,%d2
    b33c:	528a           	addql #1,%a2
    b33e:	b5c4           	cmpal %d4,%a2
    b340:	66d8           	bnes b31a <Part_write+0x6e>
    b342:	200a           	movel %a2,%d0
    b344:	4cdf 1c1c      	moveml %sp@+,%d2-%d4/%a2-%a4
    b348:	4e75           	rts
    b34a:	7006           	moveq #6,%d0
    b34c:	23c0 0001 3650 	movel %d0,13650 <errno>
    b352:	95ca           	subal %a2,%a2
    b354:	6000 ff70      	braw b2c6 <Part_write+0x1a>
    b358:	7016           	moveq #22,%d0
    b35a:	23c0 0001 3650 	movel %d0,13650 <errno>
    b360:	95ca           	subal %a2,%a2
    b362:	6000 ff62      	braw b2c6 <Part_write+0x1a>
    b366:	282f 002c      	movel %sp@(44),%d4
    b36a:	6098           	bras b304 <Part_write+0x58>

0000b36c <Part_valid>:
    b36c:	7000           	moveq #0,%d0
    b36e:	102f 000b      	moveb %sp@(11),%d0
    b372:	2200           	movel %d0,%d1
    b374:	d280           	addl %d0,%d1
    b376:	d281           	addl %d1,%d1
    b378:	d081           	addl %d1,%d0
    b37a:	d080           	addl %d0,%d0
    b37c:	206f 0004      	moveal %sp@(4),%a0
    b380:	d1c0           	addal %d0,%a0
    b382:	4a28 0009      	tstb %a0@(9)
    b386:	56c0           	sne %d0
    b388:	4400           	negb %d0
    b38a:	4e75           	rts

0000b38c <_open_directory>:
    b38c:	4fef fedc      	lea %sp@(-292),%sp
    b390:	48e7 3e38      	moveml %d2-%d6/%a2-%a4,%sp@-
    b394:	2c2f 0148      	movel %sp@(328),%d6
    b398:	4879 0001 394c 	pea 1394c <_fs>
    b39e:	4eb9 0000 e898 	jsr e898 <fatfs_get_root_cluster>
    b3a4:	2400           	movel %d0,%d2
    b3a6:	2f06           	movel %d6,%sp@-
    b3a8:	4eb9 0000 d3d2 	jsr d3d2 <fatfs_total_path_levels>
    b3ae:	2a00           	movel %d0,%d5
    b3b0:	508f           	addql #8,%sp
    b3b2:	6b6e           	bmis b422 <_open_directory+0x96>
    b3b4:	7600           	moveq #0,%d3
    b3b6:	7840           	moveq #64,%d4
    b3b8:	d88f           	addl %sp,%d4
    b3ba:	45f9 0000 d438 	lea d438 <fatfs_get_substring>,%a2
    b3c0:	47f9 0000 e8a2 	lea e8a2 <fatfs_get_file_entry>,%a3
    b3c6:	49f9 0000 cd3e 	lea cd3e <fatfs_entry_is_dir>,%a4
    b3cc:	4878 0104      	pea 104 <DBL_MANT_DIG+0xcf>
    b3d0:	2f04           	movel %d4,%sp@-
    b3d2:	2f03           	movel %d3,%sp@-
    b3d4:	2f06           	movel %d6,%sp@-
    b3d6:	4e92           	jsr %a2@
    b3d8:	4fef 0010      	lea %sp@(16),%sp
    b3dc:	5280           	addql #1,%d0
    b3de:	6754           	beqs b434 <_open_directory+0xa8>
    b3e0:	486f 0020      	pea %sp@(32)
    b3e4:	2f04           	movel %d4,%sp@-
    b3e6:	2f02           	movel %d2,%sp@-
    b3e8:	4879 0001 394c 	pea 1394c <_fs>
    b3ee:	4e93           	jsr %a3@
    b3f0:	4fef 0010      	lea %sp@(16),%sp
    b3f4:	4a80           	tstl %d0
    b3f6:	673c           	beqs b434 <_open_directory+0xa8>
    b3f8:	486f 0020      	pea %sp@(32)
    b3fc:	4e94           	jsr %a4@
    b3fe:	588f           	addql #4,%sp
    b400:	4a80           	tstl %d0
    b402:	6730           	beqs b434 <_open_directory+0xa8>
    b404:	342f 0034      	movew %sp@(52),%d2
    b408:	e05a           	rorw #8,%d2
    b40a:	4842           	swap %d2
    b40c:	4242           	clrw %d2
    b40e:	302f 003a      	movew %sp@(58),%d0
    b412:	e058           	rorw #8,%d0
    b414:	0280 0000 ffff 	andil #65535,%d0
    b41a:	d480           	addl %d0,%d2
    b41c:	5283           	addql #1,%d3
    b41e:	b685           	cmpl %d5,%d3
    b420:	6faa           	bles b3cc <_open_directory+0x40>
    b422:	206f 014c      	moveal %sp@(332),%a0
    b426:	2082           	movel %d2,%a0@
    b428:	7001           	moveq #1,%d0
    b42a:	4cdf 1c7c      	moveml %sp@+,%d2-%d6/%a2-%a4
    b42e:	4fef 0124      	lea %sp@(292),%sp
    b432:	4e75           	rts
    b434:	7000           	moveq #0,%d0
    b436:	4cdf 1c7c      	moveml %sp@+,%d2-%d6/%a2-%a4
    b43a:	4fef 0124      	lea %sp@(292),%sp
    b43e:	4e75           	rts

0000b440 <_write_sectors>:
    b440:	4e56 fff8      	linkw %fp,#-8
    b444:	48e7 3f3c      	moveml %d2-%d7/%a2-%a5,%sp@-
    b448:	246e 0008      	moveal %fp@(8),%a2
    b44c:	266e 000c      	moveal %fp@(12),%a3
    b450:	70ff           	moveq #-1,%d0
    b452:	2d40 fff8      	movel %d0,%fp@(-8)
    b456:	2c3c 0001 394c 	movel #80204,%d6
    b45c:	2046           	moveal %d6,%a0
    b45e:	7800           	moveq #0,%d4
    b460:	1810           	moveb %a0@,%d4
    b462:	2f04           	movel %d4,%sp@-
    b464:	2f0b           	movel %a3,%sp@-
    b466:	4eb9 0000 ee74 	jsr ee74 <__udivsi3>
    b46c:	508f           	addql #8,%sp
    b46e:	2600           	movel %d0,%d3
    b470:	2f04           	movel %d4,%sp@-
    b472:	2f0b           	movel %a3,%sp@-
    b474:	4eb9 0000 ef00 	jsr ef00 <__umodsi3>
    b47a:	508f           	addql #8,%sp
    b47c:	2840           	moveal %d0,%a4
    b47e:	202e 0014      	movel %fp@(20),%d0
    b482:	d08c           	addl %a4,%d0
    b484:	b084           	cmpl %d4,%d0
    b486:	6300 0132      	blsw b5ba <_write_sectors+0x17a>
    b48a:	2f03           	movel %d3,%sp@-
    b48c:	2f04           	movel %d4,%sp@-
    b48e:	4eb9 0000 ee50 	jsr ee50 <__mulsi3>
    b494:	508f           	addql #8,%sp
    b496:	2204           	movel %d4,%d1
    b498:	928b           	subl %a3,%d1
    b49a:	2a00           	movel %d0,%d5
    b49c:	da81           	addl %d1,%d5
    b49e:	242a 0628      	movel %a2@(1576),%d2
    b4a2:	b682           	cmpl %d2,%d3
    b4a4:	6700 0122      	beqw b5c8 <_write_sectors+0x188>
    b4a8:	b7c4           	cmpal %d4,%a3
    b4aa:	650a           	bcss b4b6 <_write_sectors+0x76>
    b4ac:	2002           	movel %d2,%d0
    b4ae:	5280           	addql #1,%d0
    b4b0:	b680           	cmpl %d0,%d3
    b4b2:	6700 0148      	beqw b5fc <_write_sectors+0x1bc>
    b4b6:	2e2a 0004      	movel %a2@(4),%d7
    b4ba:	7400           	moveq #0,%d2
    b4bc:	b483           	cmpl %d3,%d2
    b4be:	6400 0144      	bccw b604 <_write_sectors+0x1c4>
    b4c2:	280e           	movel %fp,%d4
    b4c4:	5984           	subql #4,%d4
    b4c6:	47f9 0000 ed58 	lea ed58 <fatfs_cache_get_next_cluster>,%a3
    b4cc:	4bf9 0000 ed80 	lea ed80 <fatfs_cache_set_next_cluster>,%a5
    b4d2:	2f04           	movel %d4,%sp@-
    b4d4:	2f02           	movel %d2,%sp@-
    b4d6:	2f0a           	movel %a2,%sp@-
    b4d8:	4879 0001 394c 	pea 1394c <_fs>
    b4de:	4e93           	jsr %a3@
    b4e0:	4fef 0010      	lea %sp@(16),%sp
    b4e4:	4a80           	tstl %d0
    b4e6:	6754           	beqs b53c <_write_sectors+0xfc>
    b4e8:	2d47 fff8      	movel %d7,%fp@(-8)
    b4ec:	2e2e fffc      	movel %fp@(-4),%d7
    b4f0:	70ff           	moveq #-1,%d0
    b4f2:	b087           	cmpl %d7,%d0
    b4f4:	6778           	beqs b56e <_write_sectors+0x12e>
    b4f6:	5282           	addql #1,%d2
    b4f8:	b483           	cmpl %d3,%d2
    b4fa:	66d6           	bnes b4d2 <_write_sectors+0x92>
    b4fc:	2547 062c      	movel %d7,%a2@(1580)
    b500:	2543 0628      	movel %d3,%a2@(1576)
    b504:	2f07           	movel %d7,%sp@-
    b506:	4879 0001 394c 	pea 1394c <_fs>
    b50c:	4eb9 0000 e542 	jsr e542 <fatfs_lba_of_cluster>
    b512:	2f05           	movel %d5,%sp@-
    b514:	2f2e 0010      	movel %fp@(16),%sp@-
    b518:	4874 0800      	pea %a4@(0,%d0:l)
    b51c:	4879 0001 394c 	pea 1394c <_fs>
    b522:	4eb9 0000 e596 	jsr e596 <fatfs_sector_write>
    b528:	4fef 0018      	lea %sp@(24),%sp
    b52c:	4a80           	tstl %d0
    b52e:	677c           	beqs b5ac <_write_sectors+0x16c>
    b530:	2005           	movel %d5,%d0
    b532:	4cee 3cfc ffd0 	moveml %fp@(-48),%d2-%d7/%a2-%a5
    b538:	4e5e           	unlk %fp
    b53a:	4e75           	rts
    b53c:	2f07           	movel %d7,%sp@-
    b53e:	4879 0001 394c 	pea 1394c <_fs>
    b544:	4eb9 0000 da92 	jsr da92 <fatfs_find_next_cluster>
    b54a:	2d40 fffc      	movel %d0,%fp@(-4)
    b54e:	2f00           	movel %d0,%sp@-
    b550:	2f02           	movel %d2,%sp@-
    b552:	2f0a           	movel %a2,%sp@-
    b554:	4879 0001 394c 	pea 1394c <_fs>
    b55a:	4e95           	jsr %a5@
    b55c:	4fef 0018      	lea %sp@(24),%sp
    b560:	2d47 fff8      	movel %d7,%fp@(-8)
    b564:	2e2e fffc      	movel %fp@(-4),%d7
    b568:	70ff           	moveq #-1,%d0
    b56a:	b087           	cmpl %d7,%d0
    b56c:	6688           	bnes b4f6 <_write_sectors+0xb6>
    b56e:	2046           	moveal %d6,%a0
    b570:	7000           	moveq #0,%d0
    b572:	1010           	moveb %a0@,%d0
    b574:	2f00           	movel %d0,%sp@-
    b576:	206e 0014      	moveal %fp@(20),%a0
    b57a:	4870 08ff      	pea %a0@(ffffffffffffffff,%d0:l)
    b57e:	4eb9 0000 ee74 	jsr ee74 <__udivsi3>
    b584:	588f           	addql #4,%sp
    b586:	2e80           	movel %d0,%sp@
    b588:	486e fff8      	pea %fp@(-8)
    b58c:	2f06           	movel %d6,%sp@-
    b58e:	4eb9 0000 df08 	jsr df08 <fatfs_add_free_space>
    b594:	4fef 000c      	lea %sp@(12),%sp
    b598:	4a80           	tstl %d0
    b59a:	6710           	beqs b5ac <_write_sectors+0x16c>
    b59c:	2e2e fff8      	movel %fp@(-8),%d7
    b5a0:	2547 062c      	movel %d7,%a2@(1580)
    b5a4:	2543 0628      	movel %d3,%a2@(1576)
    b5a8:	6000 ff5a      	braw b504 <_write_sectors+0xc4>
    b5ac:	7a00           	moveq #0,%d5
    b5ae:	2005           	movel %d5,%d0
    b5b0:	4cee 3cfc ffd0 	moveml %fp@(-48),%d2-%d7/%a2-%a5
    b5b6:	4e5e           	unlk %fp
    b5b8:	4e75           	rts
    b5ba:	2a2e 0014      	movel %fp@(20),%d5
    b5be:	242a 0628      	movel %a2@(1576),%d2
    b5c2:	b682           	cmpl %d2,%d3
    b5c4:	6600 fee2      	bnew b4a8 <_write_sectors+0x68>
    b5c8:	2e2a 062c      	movel %a2@(1580),%d7
    b5cc:	2f07           	movel %d7,%sp@-
    b5ce:	4879 0001 394c 	pea 1394c <_fs>
    b5d4:	4eb9 0000 e542 	jsr e542 <fatfs_lba_of_cluster>
    b5da:	2f05           	movel %d5,%sp@-
    b5dc:	2f2e 0010      	movel %fp@(16),%sp@-
    b5e0:	4874 0800      	pea %a4@(0,%d0:l)
    b5e4:	4879 0001 394c 	pea 1394c <_fs>
    b5ea:	4eb9 0000 e596 	jsr e596 <fatfs_sector_write>
    b5f0:	4fef 0018      	lea %sp@(24),%sp
    b5f4:	4a80           	tstl %d0
    b5f6:	67b4           	beqs b5ac <_write_sectors+0x16c>
    b5f8:	6000 ff36      	braw b530 <_write_sectors+0xf0>
    b5fc:	2e2a 062c      	movel %a2@(1580),%d7
    b600:	6000 feba      	braw b4bc <_write_sectors+0x7c>
    b604:	70ff           	moveq #-1,%d0
    b606:	b087           	cmpl %d7,%d0
    b608:	6700 ff64      	beqw b56e <_write_sectors+0x12e>
    b60c:	2547 062c      	movel %d7,%a2@(1580)
    b610:	2543 0628      	movel %d3,%a2@(1576)
    b614:	6000 feee      	braw b504 <_write_sectors+0xc4>

0000b618 <_read_sectors>:
    b618:	598f           	subql #4,%sp
    b61a:	48e7 3c3e      	moveml %d2-%d5/%a2-%fp,%sp@-
    b61e:	246f 002c      	moveal %sp@(44),%a2
    b622:	266f 0030      	moveal %sp@(48),%a3
    b626:	2a2f 0038      	movel %sp@(56),%d5
    b62a:	7800           	moveq #0,%d4
    b62c:	1839 0001 394c 	moveb 1394c <_fs>,%d4
    b632:	2f04           	movel %d4,%sp@-
    b634:	2f0b           	movel %a3,%sp@-
    b636:	4eb9 0000 ee74 	jsr ee74 <__udivsi3>
    b63c:	508f           	addql #8,%sp
    b63e:	2600           	movel %d0,%d3
    b640:	2f04           	movel %d4,%sp@-
    b642:	2f0b           	movel %a3,%sp@-
    b644:	4eb9 0000 ef00 	jsr ef00 <__umodsi3>
    b64a:	508f           	addql #8,%sp
    b64c:	2840           	moveal %d0,%a4
    b64e:	2005           	movel %d5,%d0
    b650:	d08c           	addl %a4,%d0
    b652:	b084           	cmpl %d4,%d0
    b654:	6314           	blss b66a <_read_sectors+0x52>
    b656:	2f03           	movel %d3,%sp@-
    b658:	2f04           	movel %d4,%sp@-
    b65a:	4eb9 0000 ee50 	jsr ee50 <__mulsi3>
    b660:	508f           	addql #8,%sp
    b662:	2204           	movel %d4,%d1
    b664:	928b           	subl %a3,%d1
    b666:	2a00           	movel %d0,%d5
    b668:	da81           	addl %d1,%d5
    b66a:	242a 0628      	movel %a2@(1576),%d2
    b66e:	b682           	cmpl %d2,%d3
    b670:	6700 00c0      	beqw b732 <_read_sectors+0x11a>
    b674:	b7c4           	cmpal %d4,%a3
    b676:	650a           	bcss b682 <_read_sectors+0x6a>
    b678:	2002           	movel %d2,%d0
    b67a:	5280           	addql #1,%d0
    b67c:	b680           	cmpl %d0,%d3
    b67e:	6700 00c6      	beqw b746 <_read_sectors+0x12e>
    b682:	282a 0004      	movel %a2@(4),%d4
    b686:	7400           	moveq #0,%d2
    b688:	b483           	cmpl %d3,%d2
    b68a:	6434           	bccs b6c0 <_read_sectors+0xa8>
    b68c:	47f9 0000 ed58 	lea ed58 <fatfs_cache_get_next_cluster>,%a3
    b692:	4df9 0000 da92 	lea da92 <fatfs_find_next_cluster>,%fp
    b698:	4bf9 0000 ed80 	lea ed80 <fatfs_cache_set_next_cluster>,%a5
    b69e:	486f 0024      	pea %sp@(36)
    b6a2:	2f02           	movel %d2,%sp@-
    b6a4:	2f0a           	movel %a2,%sp@-
    b6a6:	4879 0001 394c 	pea 1394c <_fs>
    b6ac:	4e93           	jsr %a3@
    b6ae:	4fef 0010      	lea %sp@(16),%sp
    b6b2:	4a80           	tstl %d0
    b6b4:	674e           	beqs b704 <_read_sectors+0xec>
    b6b6:	282f 0024      	movel %sp@(36),%d4
    b6ba:	5282           	addql #1,%d2
    b6bc:	b483           	cmpl %d3,%d2
    b6be:	66de           	bnes b69e <_read_sectors+0x86>
    b6c0:	70ff           	moveq #-1,%d0
    b6c2:	b084           	cmpl %d4,%d0
    b6c4:	6776           	beqs b73c <_read_sectors+0x124>
    b6c6:	2544 062c      	movel %d4,%a2@(1580)
    b6ca:	2543 0628      	movel %d3,%a2@(1576)
    b6ce:	2f04           	movel %d4,%sp@-
    b6d0:	4879 0001 394c 	pea 1394c <_fs>
    b6d6:	4eb9 0000 e542 	jsr e542 <fatfs_lba_of_cluster>
    b6dc:	2f05           	movel %d5,%sp@-
    b6de:	2f2f 0040      	movel %sp@(64),%sp@-
    b6e2:	4874 0800      	pea %a4@(0,%d0:l)
    b6e6:	4879 0001 394c 	pea 1394c <_fs>
    b6ec:	4eb9 0000 e576 	jsr e576 <fatfs_sector_read>
    b6f2:	4fef 0018      	lea %sp@(24),%sp
    b6f6:	4a80           	tstl %d0
    b6f8:	6742           	beqs b73c <_read_sectors+0x124>
    b6fa:	2005           	movel %d5,%d0
    b6fc:	4cdf 7c3c      	moveml %sp@+,%d2-%d5/%a2-%fp
    b700:	588f           	addql #4,%sp
    b702:	4e75           	rts
    b704:	2f04           	movel %d4,%sp@-
    b706:	4879 0001 394c 	pea 1394c <_fs>
    b70c:	4e96           	jsr %fp@
    b70e:	2f40 002c      	movel %d0,%sp@(44)
    b712:	2f00           	movel %d0,%sp@-
    b714:	2f02           	movel %d2,%sp@-
    b716:	2f0a           	movel %a2,%sp@-
    b718:	4879 0001 394c 	pea 1394c <_fs>
    b71e:	4e95           	jsr %a5@
    b720:	4fef 0018      	lea %sp@(24),%sp
    b724:	282f 0024      	movel %sp@(36),%d4
    b728:	5282           	addql #1,%d2
    b72a:	b483           	cmpl %d3,%d2
    b72c:	6600 ff70      	bnew b69e <_read_sectors+0x86>
    b730:	608e           	bras b6c0 <_read_sectors+0xa8>
    b732:	282a 062c      	movel %a2@(1580),%d4
    b736:	70ff           	moveq #-1,%d0
    b738:	b084           	cmpl %d4,%d0
    b73a:	6692           	bnes b6ce <_read_sectors+0xb6>
    b73c:	7000           	moveq #0,%d0
    b73e:	4cdf 7c3c      	moveml %sp@+,%d2-%d5/%a2-%fp
    b742:	588f           	addql #4,%sp
    b744:	4e75           	rts
    b746:	282a 062c      	movel %a2@(1580),%d4
    b74a:	6000 ff3c      	braw b688 <_read_sectors+0x70>

0000b74e <_allocate_file>:
    b74e:	2f0b           	movel %a3,%sp@-
    b750:	2f0a           	movel %a2,%sp@-
    b752:	47f9 0001 393c 	lea 1393c <_free_file_list>,%a3
    b758:	2053           	moveal %a3@,%a0
    b75a:	b0fc 0000      	cmpaw #0,%a0
    b75e:	674a           	beqs b7aa <_allocate_file+0x5c>
    b760:	2450           	moveal %a0@,%a2
    b762:	2268 0004      	moveal %a0@(4),%a1
    b766:	b4fc 0000      	cmpaw #0,%a2
    b76a:	6746           	beqs b7b2 <_allocate_file+0x64>
    b76c:	2549 0004      	movel %a1,%a2@(4)
    b770:	2268 0004      	moveal %a0@(4),%a1
    b774:	b2fc 0000      	cmpaw #0,%a1
    b778:	673c           	beqs b7b6 <_allocate_file+0x68>
    b77a:	228a           	movel %a2,%a1@
    b77c:	45f9 0001 3944 	lea 13944 <_open_file_list>,%a2
    b782:	2279 0001 3948 	moveal 13948 <_open_file_list+0x4>,%a1
    b788:	b2fc 0000      	cmpaw #0,%a1
    b78c:	6740           	beqs b7ce <_allocate_file+0x80>
    b78e:	2089           	movel %a1,%a0@
    b790:	2169 0004 0004 	movel %a1@(4),%a0@(4)
    b796:	2469 0004      	moveal %a1@(4),%a2
    b79a:	b4fc 0000      	cmpaw #0,%a2
    b79e:	6750           	beqs b7f0 <_allocate_file+0xa2>
    b7a0:	2488           	movel %a0,%a2@
    b7a2:	2348 0004      	movel %a0,%a1@(4)
    b7a6:	41e8 f7c6      	lea %a0@(-2106),%a0
    b7aa:	2008           	movel %a0,%d0
    b7ac:	245f           	moveal %sp@+,%a2
    b7ae:	265f           	moveal %sp@+,%a3
    b7b0:	4e75           	rts
    b7b2:	2689           	movel %a1,%a3@
    b7b4:	66c4           	bnes b77a <_allocate_file+0x2c>
    b7b6:	23ca 0001 3940 	movel %a2,13940 <_free_file_list+0x4>
    b7bc:	45f9 0001 3944 	lea 13944 <_open_file_list>,%a2
    b7c2:	2279 0001 3948 	moveal 13948 <_open_file_list+0x4>,%a1
    b7c8:	b2fc 0000      	cmpaw #0,%a1
    b7cc:	66c0           	bnes b78e <_allocate_file+0x40>
    b7ce:	2252           	moveal %a2@,%a1
    b7d0:	b2fc 0000      	cmpaw #0,%a1
    b7d4:	6726           	beqs b7fc <_allocate_file+0xae>
    b7d6:	2091           	movel %a1@,%a0@
    b7d8:	2149 0004      	movel %a1,%a0@(4)
    b7dc:	2651           	moveal %a1@,%a3
    b7de:	b6fc 0000      	cmpaw #0,%a3
    b7e2:	672c           	beqs b810 <_allocate_file+0xc2>
    b7e4:	2748 0004      	movel %a0,%a3@(4)
    b7e8:	2288           	movel %a0,%a1@
    b7ea:	41e8 f7c6      	lea %a0@(-2106),%a0
    b7ee:	60ba           	bras b7aa <_allocate_file+0x5c>
    b7f0:	23c8 0001 3948 	movel %a0,13948 <_open_file_list+0x4>
    b7f6:	2348 0004      	movel %a0,%a1@(4)
    b7fa:	60aa           	bras b7a6 <_allocate_file+0x58>
    b7fc:	2488           	movel %a0,%a2@
    b7fe:	23c8 0001 3948 	movel %a0,13948 <_open_file_list+0x4>
    b804:	4290           	clrl %a0@
    b806:	42a8 0004      	clrl %a0@(4)
    b80a:	41e8 f7c6      	lea %a0@(-2106),%a0
    b80e:	609a           	bras b7aa <_allocate_file+0x5c>
    b810:	2488           	movel %a0,%a2@
    b812:	2288           	movel %a0,%a1@
    b814:	60d4           	bras b7ea <_allocate_file+0x9c>

0000b816 <_free_file>:
    b816:	2f0a           	movel %a2,%sp@-
    b818:	206f 0008      	moveal %sp@(8),%a0
    b81c:	2468 083a      	moveal %a0@(2106),%a2
    b820:	2268 083e      	moveal %a0@(2110),%a1
    b824:	b4fc 0000      	cmpaw #0,%a2
    b828:	6748           	beqs b872 <_free_file+0x5c>
    b82a:	2549 0004      	movel %a1,%a2@(4)
    b82e:	2268 083e      	moveal %a0@(2110),%a1
    b832:	b2fc 0000      	cmpaw #0,%a1
    b836:	6742           	beqs b87a <_free_file+0x64>
    b838:	228a           	movel %a2,%a1@
    b83a:	2008           	movel %a0,%d0
    b83c:	0680 0000 083a 	addil #2106,%d0
    b842:	45f9 0001 393c 	lea 1393c <_free_file_list>,%a2
    b848:	2279 0001 3940 	moveal 13940 <_free_file_list+0x4>,%a1
    b84e:	b2fc 0000      	cmpaw #0,%a1
    b852:	6746           	beqs b89a <_free_file+0x84>
    b854:	2149 083a      	movel %a1,%a0@(2106)
    b858:	2169 0004 083e 	movel %a1@(4),%a0@(2110)
    b85e:	2069 0004      	moveal %a1@(4),%a0
    b862:	b0fc 0000      	cmpaw #0,%a0
    b866:	6754           	beqs b8bc <_free_file+0xa6>
    b868:	2080           	movel %d0,%a0@
    b86a:	2340 0004      	movel %d0,%a1@(4)
    b86e:	245f           	moveal %sp@+,%a2
    b870:	4e75           	rts
    b872:	23c9 0001 3944 	movel %a1,13944 <_open_file_list>
    b878:	66be           	bnes b838 <_free_file+0x22>
    b87a:	23ca 0001 3948 	movel %a2,13948 <_open_file_list+0x4>
    b880:	2008           	movel %a0,%d0
    b882:	0680 0000 083a 	addil #2106,%d0
    b888:	45f9 0001 393c 	lea 1393c <_free_file_list>,%a2
    b88e:	2279 0001 3940 	moveal 13940 <_free_file_list+0x4>,%a1
    b894:	b2fc 0000      	cmpaw #0,%a1
    b898:	66ba           	bnes b854 <_free_file+0x3e>
    b89a:	2252           	moveal %a2@,%a1
    b89c:	b2fc 0000      	cmpaw #0,%a1
    b8a0:	6726           	beqs b8c8 <_free_file+0xb2>
    b8a2:	2151 083a      	movel %a1@,%a0@(2106)
    b8a6:	2149 083e      	movel %a1,%a0@(2110)
    b8aa:	2051           	moveal %a1@,%a0
    b8ac:	b0fc 0000      	cmpaw #0,%a0
    b8b0:	672a           	beqs b8dc <_free_file+0xc6>
    b8b2:	2140 0004      	movel %d0,%a0@(4)
    b8b6:	2280           	movel %d0,%a1@
    b8b8:	245f           	moveal %sp@+,%a2
    b8ba:	4e75           	rts
    b8bc:	23c0 0001 3940 	movel %d0,13940 <_free_file_list+0x4>
    b8c2:	2340 0004      	movel %d0,%a1@(4)
    b8c6:	60a6           	bras b86e <_free_file+0x58>
    b8c8:	2480           	movel %d0,%a2@
    b8ca:	23c0 0001 3940 	movel %d0,13940 <_free_file_list+0x4>
    b8d0:	42a8 083a      	clrl %a0@(2106)
    b8d4:	42a8 083e      	clrl %a0@(2110)
    b8d8:	245f           	moveal %sp@+,%a2
    b8da:	4e75           	rts
    b8dc:	2480           	movel %d0,%a2@
    b8de:	2280           	movel %d0,%a1@
    b8e0:	60d6           	bras b8b8 <_free_file+0xa2>

0000b8e2 <_open_file>:
    b8e2:	4fef ffe0      	lea %sp@(-32),%sp
    b8e6:	48e7 3038      	moveml %d2-%d3/%a2-%a4,%sp@-
    b8ea:	4eb9 0000 b74e 	jsr b74e <_allocate_file>
    b8f0:	2440           	moveal %d0,%a2
    b8f2:	4a80           	tstl %d0
    b8f4:	6700 015c      	beqw ba52 <_open_file+0x170>
    b8f8:	47ea 0014      	lea %a2@(20),%a3
    b8fc:	243c 0000 0104 	movel #260,%d2
    b902:	2f02           	movel %d2,%sp@-
    b904:	42a7           	clrl %sp@-
    b906:	2f0b           	movel %a3,%sp@-
    b908:	49f9 0000 263c 	lea 263c <memset>,%a4
    b90e:	4e94           	jsr %a4@
    b910:	260a           	movel %a2,%d3
    b912:	0683 0000 0118 	addil #280,%d3
    b918:	2f02           	movel %d2,%sp@-
    b91a:	42a7           	clrl %sp@-
    b91c:	2f03           	movel %d3,%sp@-
    b91e:	4e94           	jsr %a4@
    b920:	2f02           	movel %d2,%sp@-
    b922:	2f03           	movel %d3,%sp@-
    b924:	2f02           	movel %d2,%sp@-
    b926:	2f0b           	movel %a3,%sp@-
    b928:	2f2f 0060      	movel %sp@(96),%sp@-
    b92c:	4eb9 0000 d4f6 	jsr d4f6 <fatfs_split_path>
    b932:	4fef 002c      	lea %sp@(44),%sp
    b936:	5280           	addql #1,%d0
    b938:	6700 0126      	beqw ba60 <_open_file+0x17e>
    b93c:	4a2a 0014      	tstb %a2@(20)
    b940:	675e           	beqs b9a0 <_open_file+0xbe>
    b942:	2f0a           	movel %a2,%sp@-
    b944:	2f0b           	movel %a3,%sp@-
    b946:	4eb9 0000 b38c 	jsr b38c <_open_directory>
    b94c:	508f           	addql #8,%sp
    b94e:	4a80           	tstl %d0
    b950:	672e           	beqs b980 <_open_file+0x9e>
    b952:	2012           	movel %a2@,%d0
    b954:	486f 0014      	pea %sp@(20)
    b958:	2f03           	movel %d3,%sp@-
    b95a:	2f00           	movel %d0,%sp@-
    b95c:	4879 0001 394c 	pea 1394c <_fs>
    b962:	4eb9 0000 e8a2 	jsr e8a2 <fatfs_get_file_entry>
    b968:	4fef 0010      	lea %sp@(16),%sp
    b96c:	4a80           	tstl %d0
    b96e:	6710           	beqs b980 <_open_file+0x9e>
    b970:	486f 0014      	pea %sp@(20)
    b974:	4eb9 0000 cd4e 	jsr cd4e <fatfs_entry_is_file>
    b97a:	588f           	addql #4,%sp
    b97c:	4a80           	tstl %d0
    b97e:	6632           	bnes b9b2 <_open_file+0xd0>
    b980:	2f0a           	movel %a2,%sp@-
    b982:	4eb9 0000 b816 	jsr b816 <_free_file>
    b988:	7202           	moveq #2,%d1
    b98a:	23c1 0001 3650 	movel %d1,13650 <errno>
    b990:	588f           	addql #4,%sp
    b992:	95ca           	subal %a2,%a2
    b994:	200a           	movel %a2,%d0
    b996:	4cdf 1c0c      	moveml %sp@+,%d2-%d3/%a2-%a4
    b99a:	4fef 0020      	lea %sp@(32),%sp
    b99e:	4e75           	rts
    b9a0:	4879 0001 394c 	pea 1394c <_fs>
    b9a6:	4eb9 0000 e898 	jsr e898 <fatfs_get_root_cluster>
    b9ac:	2480           	movel %d0,%a2@
    b9ae:	588f           	addql #4,%sp
    b9b0:	60a2           	bras b954 <_open_file+0x72>
    b9b2:	41ea 021c      	lea %a2@(540),%a0
    b9b6:	10ef 0014      	moveb %sp@(20),%a0@+
    b9ba:	10ef 0015      	moveb %sp@(21),%a0@+
    b9be:	10ef 0016      	moveb %sp@(22),%a0@+
    b9c2:	10ef 0017      	moveb %sp@(23),%a0@+
    b9c6:	10ef 0018      	moveb %sp@(24),%a0@+
    b9ca:	10ef 0019      	moveb %sp@(25),%a0@+
    b9ce:	10ef 001a      	moveb %sp@(26),%a0@+
    b9d2:	10ef 001b      	moveb %sp@(27),%a0@+
    b9d6:	10ef 001c      	moveb %sp@(28),%a0@+
    b9da:	10ef 001d      	moveb %sp@(29),%a0@+
    b9de:	10af 001e      	moveb %sp@(30),%a0@
    b9e2:	202f 0030      	movel %sp@(48),%d0
    b9e6:	e058           	rorw #8,%d0
    b9e8:	4840           	swap %d0
    b9ea:	e058           	rorw #8,%d0
    b9ec:	2540 000c      	movel %d0,%a2@(12)
    b9f0:	42aa 0008      	clrl %a2@(8)
    b9f4:	302f 0028      	movew %sp@(40),%d0
    b9f8:	e058           	rorw #8,%d0
    b9fa:	2200           	movel %d0,%d1
    b9fc:	4841           	swap %d1
    b9fe:	4241           	clrw %d1
    ba00:	302f 002e      	movew %sp@(46),%d0
    ba04:	e058           	rorw #8,%d0
    ba06:	0280 0000 ffff 	andil #65535,%d0
    ba0c:	d280           	addl %d0,%d1
    ba0e:	2541 0004      	movel %d1,%a2@(4)
    ba12:	70ff           	moveq #-1,%d0
    ba14:	2540 0830      	movel %d0,%a2@(2096)
    ba18:	42aa 0834      	clrl %a2@(2100)
    ba1c:	42aa 0010      	clrl %a2@(16)
    ba20:	2540 0628      	movel %d0,%a2@(1576)
    ba24:	2540 062c      	movel %d0,%a2@(1580)
    ba28:	2f0a           	movel %a2,%sp@-
    ba2a:	4879 0001 394c 	pea 1394c <_fs>
    ba30:	4eb9 0000 ed24 	jsr ed24 <fatfs_cache_init>
    ba36:	4879 0001 394c 	pea 1394c <_fs>
    ba3c:	4eb9 0000 da0e 	jsr da0e <fatfs_fat_purge>
    ba42:	4fef 000c      	lea %sp@(12),%sp
    ba46:	200a           	movel %a2,%d0
    ba48:	4cdf 1c0c      	moveml %sp@+,%d2-%d3/%a2-%a4
    ba4c:	4fef 0020      	lea %sp@(32),%sp
    ba50:	4e75           	rts
    ba52:	7018           	moveq #24,%d0
    ba54:	23c0 0001 3650 	movel %d0,13650 <errno>
    ba5a:	95ca           	subal %a2,%a2
    ba5c:	6000 ff36      	braw b994 <_open_file+0xb2>
    ba60:	2f0a           	movel %a2,%sp@-
    ba62:	4eb9 0000 b816 	jsr b816 <_free_file>
    ba68:	705b           	moveq #91,%d0
    ba6a:	23c0 0001 3650 	movel %d0,13650 <errno>
    ba70:	588f           	addql #4,%sp
    ba72:	95ca           	subal %a2,%a2
    ba74:	6000 ff1e      	braw b994 <_open_file+0xb2>

0000ba78 <fl_init>:
    ba78:	48e7 0038      	moveml %a2-%a4,%sp@-
    ba7c:	42b9 0001 3940 	clrl 13940 <_free_file_list+0x4>
    ba82:	42b9 0001 393c 	clrl 1393c <_free_file_list>
    ba88:	42b9 0001 3948 	clrl 13948 <_open_file_list+0x4>
    ba8e:	42b9 0001 3944 	clrl 13944 <_open_file_list>
    ba94:	41f9 0001 9220 	lea 19220 <_files+0x83a>,%a0
    ba9a:	45f9 0001 9224 	lea 19224 <_files+0x83e>,%a2
    baa0:	93c9           	subal %a1,%a1
    baa2:	49f9 0001 393c 	lea 1393c <_free_file_list>,%a4
    baa8:	b2fc 0000      	cmpaw #0,%a1
    baac:	6732           	beqs bae0 <fl_init+0x68>
    baae:	2089           	movel %a1,%a0@
    bab0:	24a9 0004      	movel %a1@(4),%a2@
    bab4:	2669 0004      	moveal %a1@(4),%a3
    bab8:	b6fc 0000      	cmpaw #0,%a3
    babc:	675a           	beqs bb18 <fl_init+0xa0>
    babe:	2688           	movel %a0,%a3@
    bac0:	2348 0004      	movel %a0,%a1@(4)
    bac4:	41e8 0842      	lea %a0@(2114),%a0
    bac8:	45ea 0842      	lea %a2@(2114),%a2
    bacc:	b1fc 0002 9a60 	cmpal #170592,%a0
    bad2:	6736           	beqs bb0a <fl_init+0x92>
    bad4:	2279 0001 3940 	moveal 13940 <_free_file_list+0x4>,%a1
    bada:	b2fc 0000      	cmpaw #0,%a1
    bade:	66ce           	bnes baae <fl_init+0x36>
    bae0:	2254           	moveal %a4@,%a1
    bae2:	b2fc 0000      	cmpaw #0,%a1
    bae6:	673c           	beqs bb24 <fl_init+0xac>
    bae8:	2091           	movel %a1@,%a0@
    baea:	2489           	movel %a1,%a2@
    baec:	2651           	moveal %a1@,%a3
    baee:	b6fc 0000      	cmpaw #0,%a3
    baf2:	673e           	beqs bb32 <fl_init+0xba>
    baf4:	2748 0004      	movel %a0,%a3@(4)
    baf8:	2288           	movel %a0,%a1@
    bafa:	41e8 0842      	lea %a0@(2114),%a0
    bafe:	45ea 0842      	lea %a2@(2114),%a2
    bb02:	b1fc 0002 9a60 	cmpal #170592,%a0
    bb08:	66ca           	bnes bad4 <fl_init+0x5c>
    bb0a:	7001           	moveq #1,%d0
    bb0c:	23c0 0001 89e2 	movel %d0,189e2 <_filelib_init>
    bb12:	4cdf 1c00      	moveml %sp@+,%a2-%a4
    bb16:	4e75           	rts
    bb18:	23c8 0001 3940 	movel %a0,13940 <_free_file_list+0x4>
    bb1e:	2348 0004      	movel %a0,%a1@(4)
    bb22:	60a0           	bras bac4 <fl_init+0x4c>
    bb24:	2888           	movel %a0,%a4@
    bb26:	23c8 0001 3940 	movel %a0,13940 <_free_file_list+0x4>
    bb2c:	4290           	clrl %a0@
    bb2e:	4292           	clrl %a2@
    bb30:	6092           	bras bac4 <fl_init+0x4c>
    bb32:	2888           	movel %a0,%a4@
    bb34:	2288           	movel %a0,%a1@
    bb36:	60c2           	bras bafa <fl_init+0x82>

0000bb38 <fl_attach_locks>:
    bb38:	23ef 0004 0001 	movel %sp@(4),13982 <_fs+0x36>
    bb3e:	3982 
    bb40:	23ef 0008 0001 	movel %sp@(8),13986 <_fs+0x3a>
    bb46:	3986 
    bb48:	4e75           	rts

0000bb4a <fl_attach_media>:
    bb4a:	4ab9 0001 89e2 	tstl 189e2 <_filelib_init>
    bb50:	672c           	beqs bb7e <fl_attach_media+0x34>
    bb52:	23ef 0004 0001 	movel %sp@(4),1397a <_fs+0x2e>
    bb58:	397a 
    bb5a:	23ef 0008 0001 	movel %sp@(8),1397e <_fs+0x32>
    bb60:	397e 
    bb62:	4879 0001 394c 	pea 1394c <_fs>
    bb68:	4eb9 0000 e340 	jsr e340 <fatfs_init>
    bb6e:	588f           	addql #4,%sp
    bb70:	4a80           	tstl %d0
    bb72:	6608           	bnes bb7c <fl_attach_media+0x32>
    bb74:	7201           	moveq #1,%d1
    bb76:	23c1 0001 89de 	movel %d1,189de <_filelib_valid>
    bb7c:	4e75           	rts
    bb7e:	4eb9 0000 ba78 	jsr ba78 <fl_init>
    bb84:	60cc           	bras bb52 <fl_attach_media+0x8>

0000bb86 <fl_shutdown>:
    bb86:	4ab9 0001 89e2 	tstl 189e2 <_filelib_init>
    bb8c:	672a           	beqs bbb8 <fl_shutdown+0x32>
    bb8e:	2079 0001 3982 	moveal 13982 <_fs+0x36>,%a0
    bb94:	b0fc 0000      	cmpaw #0,%a0
    bb98:	6702           	beqs bb9c <fl_shutdown+0x16>
    bb9a:	4e90           	jsr %a0@
    bb9c:	4879 0001 394c 	pea 1394c <_fs>
    bba2:	4eb9 0000 da0e 	jsr da0e <fatfs_fat_purge>
    bba8:	2279 0001 3986 	moveal 13986 <_fs+0x3a>,%a1
    bbae:	588f           	addql #4,%sp
    bbb0:	b2fc 0000      	cmpaw #0,%a1
    bbb4:	670a           	beqs bbc0 <fl_shutdown+0x3a>
    bbb6:	4ed1           	jmp %a1@
    bbb8:	4eb9 0000 ba78 	jsr ba78 <fl_init>
    bbbe:	60ce           	bras bb8e <fl_shutdown+0x8>
    bbc0:	4e75           	rts

0000bbc2 <fl_fopen>:
    bbc2:	4e56 ffd4      	linkw %fp,#-44
    bbc6:	48e7 3f3c      	moveml %d2-%d7/%a2-%a5,%sp@-
    bbca:	262e 000c      	movel %fp@(12),%d3
    bbce:	4ab9 0001 89e2 	tstl 189e2 <_filelib_init>
    bbd4:	6700 0098      	beqw bc6e <fl_fopen+0xac>
    bbd8:	4ab9 0001 89de 	tstl 189de <_filelib_valid>
    bbde:	6700 009e      	beqw bc7e <fl_fopen+0xbc>
    bbe2:	7016           	moveq #22,%d0
    bbe4:	4aae 0008      	tstl %fp@(8)
    bbe8:	6700 0096      	beqw bc80 <fl_fopen+0xbe>
    bbec:	7003           	moveq #3,%d0
    bbee:	c083           	andl %d3,%d0
    bbf0:	6778           	beqs bc6a <fl_fopen+0xa8>
    bbf2:	7201           	moveq #1,%d1
    bbf4:	b280           	cmpl %d0,%d1
    bbf6:	6700 0196      	beqw bd8e <fl_fopen+0x1cc>
    bbfa:	5580           	subql #2,%d0
    bbfc:	6700 00bc      	beqw bcba <fl_fopen+0xf8>
    bc00:	4202           	clrb %d2
    bc02:	0803 0003      	btst #3,%d3
    bc06:	6704           	beqs bc0c <fl_fopen+0x4a>
    bc08:	0002 0004      	orib #4,%d2
    bc0c:	0803 0009      	btst #9,%d3
    bc10:	6704           	beqs bc16 <fl_fopen+0x54>
    bc12:	0002 0020      	orib #32,%d2
    bc16:	0803 000a      	btst #10,%d3
    bc1a:	6704           	beqs bc20 <fl_fopen+0x5e>
    bc1c:	0002 0010      	orib #16,%d2
    bc20:	4ab9 0001 397e 	tstl 1397e <_fs+0x32>
    bc26:	6700 016c      	beqw bd94 <fl_fopen+0x1d2>
    bc2a:	2079 0001 3982 	moveal 13982 <_fs+0x36>,%a0
    bc30:	b0fc 0000      	cmpaw #0,%a0
    bc34:	6702           	beqs bc38 <fl_fopen+0x76>
    bc36:	4e90           	jsr %a0@
    bc38:	1e02           	moveb %d2,%d7
    bc3a:	0207 0001      	andib #1,%d7
    bc3e:	1802           	moveb %d2,%d4
    bc40:	0204 0020      	andib #32,%d4
    bc44:	0802 0000      	btst #0,%d2
    bc48:	664a           	bnes bc94 <fl_fopen+0xd2>
    bc4a:	4a04           	tstb %d4
    bc4c:	6672           	bnes bcc0 <fl_fopen+0xfe>
    bc4e:	95ca           	subal %a2,%a2
    bc50:	2079 0001 3986 	moveal 13986 <_fs+0x3a>,%a0
    bc56:	b0fc 0000      	cmpaw #0,%a0
    bc5a:	6702           	beqs bc5e <fl_fopen+0x9c>
    bc5c:	4e90           	jsr %a0@
    bc5e:	200a           	movel %a2,%d0
    bc60:	4cee 3cfc ffac 	moveml %fp@(-84),%d2-%d7/%a2-%a5
    bc66:	4e5e           	unlk %fp
    bc68:	4e75           	rts
    bc6a:	7401           	moveq #1,%d2
    bc6c:	6094           	bras bc02 <fl_fopen+0x40>
    bc6e:	4eb9 0000 ba78 	jsr ba78 <fl_init>
    bc74:	4ab9 0001 89de 	tstl 189de <_filelib_valid>
    bc7a:	6600 ff66      	bnew bbe2 <fl_fopen+0x20>
    bc7e:	7006           	moveq #6,%d0
    bc80:	23c0 0001 3650 	movel %d0,13650 <errno>
    bc86:	95ca           	subal %a2,%a2
    bc88:	200a           	movel %a2,%d0
    bc8a:	4cee 3cfc ffac 	moveml %fp@(-84),%d2-%d7/%a2-%a5
    bc90:	4e5e           	unlk %fp
    bc92:	4e75           	rts
    bc94:	2f2e 0008      	movel %fp@(8),%sp@-
    bc98:	4eb9 0000 b8e2 	jsr b8e2 <_open_file>
    bc9e:	2440           	moveal %d0,%a2
    bca0:	588f           	addql #4,%sp
    bca2:	4a80           	tstl %d0
    bca4:	6700 00fc      	beqw bda2 <fl_fopen+0x1e0>
    bca8:	4a04           	tstb %d4
    bcaa:	6708           	beqs bcb4 <fl_fopen+0xf2>
    bcac:	0803 000b      	btst #11,%d3
    bcb0:	6600 00c4      	bnew bd76 <fl_fopen+0x1b4>
    bcb4:	1542 0838      	moveb %d2,%a2@(2104)
    bcb8:	6096           	bras bc50 <fl_fopen+0x8e>
    bcba:	7403           	moveq #3,%d2
    bcbc:	6000 ff44      	braw bc02 <fl_fopen+0x40>
    bcc0:	0283 0000 0800 	andil #2048,%d3
    bcc6:	4ab9 0001 397e 	tstl 1397e <_fs+0x32>
    bccc:	6700 0084      	beqw bd52 <fl_fopen+0x190>
    bcd0:	4eb9 0000 b74e 	jsr b74e <_allocate_file>
    bcd6:	2440           	moveal %d0,%a2
    bcd8:	4a80           	tstl %d0
    bcda:	6776           	beqs bd52 <fl_fopen+0x190>
    bcdc:	47ea 0014      	lea %a2@(20),%a3
    bce0:	283c 0000 0104 	movel #260,%d4
    bce6:	2f04           	movel %d4,%sp@-
    bce8:	42a7           	clrl %sp@-
    bcea:	2f0b           	movel %a3,%sp@-
    bcec:	49f9 0000 263c 	lea 263c <memset>,%a4
    bcf2:	4e94           	jsr %a4@
    bcf4:	2c0a           	movel %a2,%d6
    bcf6:	0686 0000 0118 	addil #280,%d6
    bcfc:	2f04           	movel %d4,%sp@-
    bcfe:	42a7           	clrl %sp@-
    bd00:	2f06           	movel %d6,%sp@-
    bd02:	4e94           	jsr %a4@
    bd04:	2f04           	movel %d4,%sp@-
    bd06:	2f06           	movel %d6,%sp@-
    bd08:	2f04           	movel %d4,%sp@-
    bd0a:	2f0b           	movel %a3,%sp@-
    bd0c:	2f2e 0008      	movel %fp@(8),%sp@-
    bd10:	4eb9 0000 d4f6 	jsr d4f6 <fatfs_split_path>
    bd16:	4fef 002c      	lea %sp@(44),%sp
    bd1a:	5280           	addql #1,%d0
    bd1c:	6700 01d4      	beqw bef2 <fl_fopen+0x330>
    bd20:	4a2a 0014      	tstb %a2@(20)
    bd24:	6700 00ee      	beqw be14 <fl_fopen+0x252>
    bd28:	2f0a           	movel %a2,%sp@-
    bd2a:	2f0b           	movel %a3,%sp@-
    bd2c:	4eb9 0000 b38c 	jsr b38c <_open_directory>
    bd32:	508f           	addql #8,%sp
    bd34:	4a80           	tstl %d0
    bd36:	6600 00ec      	bnew be24 <fl_fopen+0x262>
    bd3a:	2f0a           	movel %a2,%sp@-
    bd3c:	4eb9 0000 b816 	jsr b816 <_free_file>
    bd42:	7002           	moveq #2,%d0
    bd44:	23c0 0001 3650 	movel %d0,13650 <errno>
    bd4a:	588f           	addql #4,%sp
    bd4c:	4a07           	tstb %d7
    bd4e:	6600 fefe      	bnew bc4e <fl_fopen+0x8c>
    bd52:	1002           	moveb %d2,%d0
    bd54:	0200 0006      	andib #6,%d0
    bd58:	6700 fef4      	beqw bc4e <fl_fopen+0x8c>
    bd5c:	2f2e 0008      	movel %fp@(8),%sp@-
    bd60:	4eb9 0000 b8e2 	jsr b8e2 <_open_file>
    bd66:	2440           	moveal %d0,%a2
    bd68:	588f           	addql #4,%sp
    bd6a:	4a80           	tstl %d0
    bd6c:	6700 fee0      	beqw bc4e <fl_fopen+0x8c>
    bd70:	4a83           	tstl %d3
    bd72:	6700 ff40      	beqw bcb4 <fl_fopen+0xf2>
    bd76:	2f0a           	movel %a2,%sp@-
    bd78:	4eb9 0000 b816 	jsr b816 <_free_file>
    bd7e:	588f           	addql #4,%sp
    bd80:	7011           	moveq #17,%d0
    bd82:	23c0 0001 3650 	movel %d0,13650 <errno>
    bd88:	95ca           	subal %a2,%a2
    bd8a:	6000 fefc      	braw bc88 <fl_fopen+0xc6>
    bd8e:	7402           	moveq #2,%d2
    bd90:	6000 fe70      	braw bc02 <fl_fopen+0x40>
    bd94:	700d           	moveq #13,%d0
    bd96:	23c0 0001 3650 	movel %d0,13650 <errno>
    bd9c:	95ca           	subal %a2,%a2
    bd9e:	6000 fee8      	braw bc88 <fl_fopen+0xc6>
    bda2:	4a04           	tstb %d4
    bda4:	6700 fea8      	beqw bc4e <fl_fopen+0x8c>
    bda8:	4ab9 0001 397e 	tstl 1397e <_fs+0x32>
    bdae:	6700 fe9e      	beqw bc4e <fl_fopen+0x8c>
    bdb2:	4eb9 0000 b74e 	jsr b74e <_allocate_file>
    bdb8:	2440           	moveal %d0,%a2
    bdba:	4a80           	tstl %d0
    bdbc:	6700 fe90      	beqw bc4e <fl_fopen+0x8c>
    bdc0:	47ea 0014      	lea %a2@(20),%a3
    bdc4:	283c 0000 0104 	movel #260,%d4
    bdca:	2f04           	movel %d4,%sp@-
    bdcc:	42a7           	clrl %sp@-
    bdce:	2f0b           	movel %a3,%sp@-
    bdd0:	49f9 0000 263c 	lea 263c <memset>,%a4
    bdd6:	4e94           	jsr %a4@
    bdd8:	2c0a           	movel %a2,%d6
    bdda:	0686 0000 0118 	addil #280,%d6
    bde0:	2f04           	movel %d4,%sp@-
    bde2:	42a7           	clrl %sp@-
    bde4:	2f06           	movel %d6,%sp@-
    bde6:	4e94           	jsr %a4@
    bde8:	2f04           	movel %d4,%sp@-
    bdea:	2f06           	movel %d6,%sp@-
    bdec:	2f04           	movel %d4,%sp@-
    bdee:	2f0b           	movel %a3,%sp@-
    bdf0:	2f2e 0008      	movel %fp@(8),%sp@-
    bdf4:	4eb9 0000 d4f6 	jsr d4f6 <fatfs_split_path>
    bdfa:	4fef 002c      	lea %sp@(44),%sp
    bdfe:	5280           	addql #1,%d0
    be00:	6600 01f2      	bnew bff4 <fl_fopen+0x432>
    be04:	2f0a           	movel %a2,%sp@-
    be06:	4eb9 0000 b816 	jsr b816 <_free_file>
    be0c:	588f           	addql #4,%sp
    be0e:	95ca           	subal %a2,%a2
    be10:	6000 fe3e      	braw bc50 <fl_fopen+0x8e>
    be14:	4879 0001 394c 	pea 1394c <_fs>
    be1a:	4eb9 0000 e898 	jsr e898 <fatfs_get_root_cluster>
    be20:	2480           	movel %d0,%a2@
    be22:	588f           	addql #4,%sp
    be24:	4a83           	tstl %d3
    be26:	671e           	beqs be46 <fl_fopen+0x284>
    be28:	486e ffe0      	pea %fp@(-32)
    be2c:	2f06           	movel %d6,%sp@-
    be2e:	2f12           	movel %a2@,%sp@-
    be30:	4879 0001 394c 	pea 1394c <_fs>
    be36:	4eb9 0000 e8a2 	jsr e8a2 <fatfs_get_file_entry>
    be3c:	4fef 0010      	lea %sp@(16),%sp
    be40:	5380           	subql #1,%d0
    be42:	6700 00c6      	beqw bf0a <fl_fopen+0x348>
    be46:	42aa 0004      	clrl %a2@(4)
    be4a:	4878 0001      	pea 1 <ADD>
    be4e:	486a 0004      	pea %a2@(4)
    be52:	4878 0001      	pea 1 <ADD>
    be56:	4879 0001 394c 	pea 1394c <_fs>
    be5c:	4eb9 0000 dfa4 	jsr dfa4 <fatfs_allocate_free_space>
    be62:	4fef 0010      	lea %sp@(16),%sp
    be66:	4a80           	tstl %d0
    be68:	6700 0164      	beqw bfce <fl_fopen+0x40c>
    be6c:	2f06           	movel %d6,%sp@-
    be6e:	47ee ffd5      	lea %fp@(-43),%a3
    be72:	2f0b           	movel %a3,%sp@-
    be74:	49f9 0000 d098 	lea d098 <fatfs_lfn_create_sfn>,%a4
    be7a:	4e94           	jsr %a4@
    be7c:	2a0a           	movel %a2,%d5
    be7e:	0685 0000 021c 	addil #540,%d5
    be84:	2045           	moveal %d5,%a0
    be86:	10d3           	moveb %a3@,%a0@+
    be88:	10ee ffd6      	moveb %fp@(-42),%a0@+
    be8c:	10ee ffd7      	moveb %fp@(-41),%a0@+
    be90:	10ee ffd8      	moveb %fp@(-40),%a0@+
    be94:	10ee ffd9      	moveb %fp@(-39),%a0@+
    be98:	10ee ffda      	moveb %fp@(-38),%a0@+
    be9c:	10ee ffdb      	moveb %fp@(-37),%a0@+
    bea0:	10ee ffdc      	moveb %fp@(-36),%a0@+
    bea4:	10ee ffdd      	moveb %fp@(-35),%a0@+
    bea8:	10ee ffde      	moveb %fp@(-34),%a0@+
    beac:	10ae ffdf      	moveb %fp@(-33),%a0@
    beb0:	508f           	addql #8,%sp
    beb2:	7800           	moveq #0,%d4
    beb4:	4bf9 0000 ea90 	lea ea90 <fatfs_sfn_exists>,%a5
    beba:	2f05           	movel %d5,%sp@-
    bebc:	2f12           	movel %a2@,%sp@-
    bebe:	4879 0001 394c 	pea 1394c <_fs>
    bec4:	4e95           	jsr %a5@
    bec6:	4fef 000c      	lea %sp@(12),%sp
    beca:	4a80           	tstl %d0
    becc:	6762           	beqs bf30 <fl_fopen+0x36e>
    bece:	5284           	addql #1,%d4
    bed0:	0c84 0000 270f 	cmpil #9999,%d4
    bed6:	6700 00be      	beqw bf96 <fl_fopen+0x3d4>
    beda:	2f06           	movel %d6,%sp@-
    bedc:	2f0b           	movel %a3,%sp@-
    bede:	4e94           	jsr %a4@
    bee0:	2f04           	movel %d4,%sp@-
    bee2:	2f0b           	movel %a3,%sp@-
    bee4:	2f05           	movel %d5,%sp@-
    bee6:	4eb9 0000 d1c8 	jsr d1c8 <fatfs_lfn_generate_tail>
    beec:	4fef 0014      	lea %sp@(20),%sp
    bef0:	60c8           	bras beba <fl_fopen+0x2f8>
    bef2:	2f0a           	movel %a2,%sp@-
    bef4:	4eb9 0000 b816 	jsr b816 <_free_file>
    befa:	588f           	addql #4,%sp
    befc:	1002           	moveb %d2,%d0
    befe:	0200 0006      	andib #6,%d0
    bf02:	6700 fd4a      	beqw bc4e <fl_fopen+0x8c>
    bf06:	6000 fe54      	braw bd5c <fl_fopen+0x19a>
    bf0a:	2f0a           	movel %a2,%sp@-
    bf0c:	4eb9 0000 b816 	jsr b816 <_free_file>
    bf12:	7011           	moveq #17,%d0
    bf14:	23c0 0001 3650 	movel %d0,13650 <errno>
    bf1a:	588f           	addql #4,%sp
    bf1c:	4a07           	tstb %d7
    bf1e:	6600 fd2e      	bnew bc4e <fl_fopen+0x8c>
    bf22:	1002           	moveb %d2,%d0
    bf24:	0200 0006      	andib #6,%d0
    bf28:	6700 fd24      	beqw bc4e <fl_fopen+0x8c>
    bf2c:	6000 fe2e      	braw bd5c <fl_fopen+0x19a>
    bf30:	42a7           	clrl %sp@-
    bf32:	42a7           	clrl %sp@-
    bf34:	2f2a 0004      	movel %a2@(4),%sp@-
    bf38:	2f05           	movel %d5,%sp@-
    bf3a:	2f06           	movel %d6,%sp@-
    bf3c:	2f12           	movel %a2@,%sp@-
    bf3e:	4879 0001 394c 	pea 1394c <_fs>
    bf44:	4eb9 0000 e0b2 	jsr e0b2 <fatfs_add_file_entry>
    bf4a:	4fef 001c      	lea %sp@(28),%sp
    bf4e:	4a80           	tstl %d0
    bf50:	6744           	beqs bf96 <fl_fopen+0x3d4>
    bf52:	42aa 000c      	clrl %a2@(12)
    bf56:	42aa 0008      	clrl %a2@(8)
    bf5a:	72ff           	moveq #-1,%d1
    bf5c:	2541 0830      	movel %d1,%a2@(2096)
    bf60:	42aa 0834      	clrl %a2@(2100)
    bf64:	42aa 0010      	clrl %a2@(16)
    bf68:	2541 0628      	movel %d1,%a2@(1576)
    bf6c:	2541 062c      	movel %d1,%a2@(1580)
    bf70:	2f0a           	movel %a2,%sp@-
    bf72:	4879 0001 394c 	pea 1394c <_fs>
    bf78:	4eb9 0000 ed24 	jsr ed24 <fatfs_cache_init>
    bf7e:	4879 0001 394c 	pea 1394c <_fs>
    bf84:	4eb9 0000 da0e 	jsr da0e <fatfs_fat_purge>
    bf8a:	4fef 000c      	lea %sp@(12),%sp
    bf8e:	1542 0838      	moveb %d2,%a2@(2104)
    bf92:	6000 fcbc      	braw bc50 <fl_fopen+0x8e>
    bf96:	2f2a 0004      	movel %a2@(4),%sp@-
    bf9a:	4879 0001 394c 	pea 1394c <_fs>
    bfa0:	4eb9 0000 ddae 	jsr ddae <fatfs_free_cluster_chain>
    bfa6:	2f0a           	movel %a2,%sp@-
    bfa8:	4eb9 0000 b816 	jsr b816 <_free_file>
    bfae:	701c           	moveq #28,%d0
    bfb0:	23c0 0001 3650 	movel %d0,13650 <errno>
    bfb6:	4fef 000c      	lea %sp@(12),%sp
    bfba:	4a07           	tstb %d7
    bfbc:	6600 fc90      	bnew bc4e <fl_fopen+0x8c>
    bfc0:	1002           	moveb %d2,%d0
    bfc2:	0200 0006      	andib #6,%d0
    bfc6:	6700 fc86      	beqw bc4e <fl_fopen+0x8c>
    bfca:	6000 fd90      	braw bd5c <fl_fopen+0x19a>
    bfce:	2f0a           	movel %a2,%sp@-
    bfd0:	4eb9 0000 b816 	jsr b816 <_free_file>
    bfd6:	721c           	moveq #28,%d1
    bfd8:	23c1 0001 3650 	movel %d1,13650 <errno>
    bfde:	588f           	addql #4,%sp
    bfe0:	4a07           	tstb %d7
    bfe2:	6600 fc6a      	bnew bc4e <fl_fopen+0x8c>
    bfe6:	1002           	moveb %d2,%d0
    bfe8:	0200 0006      	andib #6,%d0
    bfec:	6700 fc60      	beqw bc4e <fl_fopen+0x8c>
    bff0:	6000 fd6a      	braw bd5c <fl_fopen+0x19a>
    bff4:	0283 0000 0800 	andil #2048,%d3
    bffa:	4a2a 0014      	tstb %a2@(20)
    bffe:	6600 fd28      	bnew bd28 <fl_fopen+0x166>
    c002:	6000 fe10      	braw be14 <fl_fopen+0x252>

0000c006 <fl_fflush>:
    c006:	2f0a           	movel %a2,%sp@-
    c008:	246f 0008      	moveal %sp@(8),%a2
    c00c:	4ab9 0001 89e2 	tstl 189e2 <_filelib_init>
    c012:	672e           	beqs c042 <fl_fflush+0x3c>
    c014:	b4fc 0000      	cmpaw #0,%a2
    c018:	6722           	beqs c03c <fl_fflush+0x36>
    c01a:	2079 0001 3982 	moveal 13982 <_fs+0x36>,%a0
    c020:	b0fc 0000      	cmpaw #0,%a0
    c024:	6702           	beqs c028 <fl_fflush+0x22>
    c026:	4e90           	jsr %a0@
    c028:	4aaa 0834      	tstl %a2@(2100)
    c02c:	661c           	bnes c04a <fl_fflush+0x44>
    c02e:	2079 0001 3986 	moveal 13986 <_fs+0x3a>,%a0
    c034:	b0fc 0000      	cmpaw #0,%a0
    c038:	6702           	beqs c03c <fl_fflush+0x36>
    c03a:	4e90           	jsr %a0@
    c03c:	7000           	moveq #0,%d0
    c03e:	245f           	moveal %sp@+,%a2
    c040:	4e75           	rts
    c042:	4eb9 0000 ba78 	jsr ba78 <fl_init>
    c048:	60ca           	bras c014 <fl_fflush+0xe>
    c04a:	4878 0001      	pea 1 <ADD>
    c04e:	486a 0630      	pea %a2@(1584)
    c052:	2f2a 0830      	movel %a2@(2096),%sp@-
    c056:	2f0a           	movel %a2,%sp@-
    c058:	4eb9 0000 b440 	jsr b440 <_write_sectors>
    c05e:	4fef 0010      	lea %sp@(16),%sp
    c062:	4a80           	tstl %d0
    c064:	67c8           	beqs c02e <fl_fflush+0x28>
    c066:	42aa 0834      	clrl %a2@(2100)
    c06a:	2079 0001 3986 	moveal 13986 <_fs+0x3a>,%a0
    c070:	b0fc 0000      	cmpaw #0,%a0
    c074:	66c4           	bnes c03a <fl_fflush+0x34>
    c076:	60c4           	bras c03c <fl_fflush+0x36>

0000c078 <fl_fclose>:
    c078:	2f0a           	movel %a2,%sp@-
    c07a:	246f 0008      	moveal %sp@(8),%a2
    c07e:	4ab9 0001 89e2 	tstl 189e2 <_filelib_init>
    c084:	6768           	beqs c0ee <fl_fclose+0x76>
    c086:	b4fc 0000      	cmpaw #0,%a2
    c08a:	675e           	beqs c0ea <fl_fclose+0x72>
    c08c:	2079 0001 3982 	moveal 13982 <_fs+0x36>,%a0
    c092:	b0fc 0000      	cmpaw #0,%a0
    c096:	6702           	beqs c09a <fl_fclose+0x22>
    c098:	4e90           	jsr %a0@
    c09a:	2f0a           	movel %a2,%sp@-
    c09c:	4eb9 0000 c006 	jsr c006 <fl_fflush>
    c0a2:	588f           	addql #4,%sp
    c0a4:	4aaa 0010      	tstl %a2@(16)
    c0a8:	664c           	bnes c0f6 <fl_fclose+0x7e>
    c0aa:	42aa 0008      	clrl %a2@(8)
    c0ae:	42aa 000c      	clrl %a2@(12)
    c0b2:	42aa 0004      	clrl %a2@(4)
    c0b6:	70ff           	moveq #-1,%d0
    c0b8:	2540 0830      	movel %d0,%a2@(2096)
    c0bc:	42aa 0834      	clrl %a2@(2100)
    c0c0:	42aa 0010      	clrl %a2@(16)
    c0c4:	2f0a           	movel %a2,%sp@-
    c0c6:	4eb9 0000 b816 	jsr b816 <_free_file>
    c0cc:	4879 0001 394c 	pea 1394c <_fs>
    c0d2:	4eb9 0000 da0e 	jsr da0e <fatfs_fat_purge>
    c0d8:	2279 0001 3986 	moveal 13986 <_fs+0x3a>,%a1
    c0de:	508f           	addql #8,%sp
    c0e0:	b2fc 0000      	cmpaw #0,%a1
    c0e4:	6704           	beqs c0ea <fl_fclose+0x72>
    c0e6:	245f           	moveal %sp@+,%a2
    c0e8:	4ed1           	jmp %a1@
    c0ea:	245f           	moveal %sp@+,%a2
    c0ec:	4e75           	rts
    c0ee:	4eb9 0000 ba78 	jsr ba78 <fl_init>
    c0f4:	6090           	bras c086 <fl_fclose+0xe>
    c0f6:	2f2a 000c      	movel %a2@(12),%sp@-
    c0fa:	486a 021c      	pea %a2@(540)
    c0fe:	2f12           	movel %a2@,%sp@-
    c100:	4879 0001 394c 	pea 1394c <_fs>
    c106:	4eb9 0000 eb3a 	jsr eb3a <fatfs_update_file_length>
    c10c:	4fef 0010      	lea %sp@(16),%sp
    c110:	42aa 0008      	clrl %a2@(8)
    c114:	42aa 000c      	clrl %a2@(12)
    c118:	42aa 0004      	clrl %a2@(4)
    c11c:	70ff           	moveq #-1,%d0
    c11e:	2540 0830      	movel %d0,%a2@(2096)
    c122:	42aa 0834      	clrl %a2@(2100)
    c126:	42aa 0010      	clrl %a2@(16)
    c12a:	2f0a           	movel %a2,%sp@-
    c12c:	4eb9 0000 b816 	jsr b816 <_free_file>
    c132:	4879 0001 394c 	pea 1394c <_fs>
    c138:	4eb9 0000 da0e 	jsr da0e <fatfs_fat_purge>
    c13e:	2279 0001 3986 	moveal 13986 <_fs+0x3a>,%a1
    c144:	508f           	addql #8,%sp
    c146:	b2fc 0000      	cmpaw #0,%a1
    c14a:	669a           	bnes c0e6 <fl_fclose+0x6e>
    c14c:	609c           	bras c0ea <fl_fclose+0x72>

0000c14e <fl_fread>:
    c14e:	48e7 3f38      	moveml %d2-%d7/%a2-%a4,%sp@-
    c152:	286f 0028      	moveal %sp@(40),%a4
    c156:	246f 0034      	moveal %sp@(52),%a2
    c15a:	2f2f 0030      	movel %sp@(48),%sp@-
    c15e:	2f2f 0030      	movel %sp@(48),%sp@-
    c162:	4eb9 0000 ee50 	jsr ee50 <__mulsi3>
    c168:	508f           	addql #8,%sp
    c16a:	2400           	movel %d0,%d2
    c16c:	4ab9 0001 89e2 	tstl 189e2 <_filelib_init>
    c172:	6700 00de      	beqw c252 <fl_fread+0x104>
    c176:	b4fc 0000      	cmpaw #0,%a2
    c17a:	6700 0138      	beqw c2b4 <fl_fread+0x166>
    c17e:	082a 0000 0838 	btst #0,%a2@(2104)
    c184:	6700 011c      	beqw c2a2 <fl_fread+0x154>
    c188:	4a82           	tstl %d2
    c18a:	6700 00be      	beqw c24a <fl_fread+0xfc>
    c18e:	2c2a 0008      	movel %a2@(8),%d6
    c192:	2a2a 000c      	movel %a2@(12),%d5
    c196:	ba86           	cmpl %d6,%d5
    c198:	6300 00ae      	blsw c248 <fl_fread+0xfa>
    c19c:	b8fc 0000      	cmpaw #0,%a4
    c1a0:	6700 011e      	beqw c2c0 <fl_fread+0x172>
    c1a4:	2002           	movel %d2,%d0
    c1a6:	d086           	addl %d6,%d0
    c1a8:	b085           	cmpl %d5,%d0
    c1aa:	6300 00f0      	blsw c29c <fl_fread+0x14e>
    c1ae:	9a86           	subl %d6,%d5
    c1b0:	2806           	movel %d6,%d4
    c1b2:	7009           	moveq #9,%d0
    c1b4:	e0ac           	lsrl %d0,%d4
    c1b6:	0286 0000 01ff 	andil #511,%d6
    c1bc:	4a85           	tstl %d5
    c1be:	6f00 0088      	blew c248 <fl_fread+0xfa>
    c1c2:	7400           	moveq #0,%d2
    c1c4:	4a86           	tstl %d6
    c1c6:	6766           	beqs c22e <fl_fread+0xe0>
    c1c8:	b8aa 0830      	cmpl %a2@(2096),%d4
    c1cc:	6774           	beqs c242 <fl_fread+0xf4>
    c1ce:	4aaa 0834      	tstl %a2@(2100)
    c1d2:	6600 0088      	bnew c25c <fl_fread+0x10e>
    c1d6:	4878 0001      	pea 1 <ADD>
    c1da:	47ea 0630      	lea %a2@(1584),%a3
    c1de:	2f0b           	movel %a3,%sp@-
    c1e0:	2f04           	movel %d4,%sp@-
    c1e2:	2f0a           	movel %a2,%sp@-
    c1e4:	4eb9 0000 b618 	jsr b618 <_read_sectors>
    c1ea:	4fef 0010      	lea %sp@(16),%sp
    c1ee:	4a80           	tstl %d0
    c1f0:	6758           	beqs c24a <fl_fread+0xfc>
    c1f2:	2544 0830      	movel %d4,%a2@(2096)
    c1f6:	42aa 0834      	clrl %a2@(2100)
    c1fa:	203c 0000 0200 	movel #512,%d0
    c200:	9086           	subl %d6,%d0
    c202:	2605           	movel %d5,%d3
    c204:	9682           	subl %d2,%d3
    c206:	b083           	cmpl %d3,%d0
    c208:	6c02           	bges c20c <fl_fread+0xbe>
    c20a:	2600           	movel %d0,%d3
    c20c:	2e03           	movel %d3,%d7
    c20e:	2f03           	movel %d3,%sp@-
    c210:	4873 6800      	pea %a3@(0,%d6:l)
    c214:	4874 2800      	pea %a4@(0,%d2:l)
    c218:	4eb9 0000 5b10 	jsr 5b10 <memcpy>
    c21e:	5284           	addql #1,%d4
    c220:	4fef 000c      	lea %sp@(12),%sp
    c224:	d483           	addl %d3,%d2
    c226:	dfaa 0008      	addl %d7,%a2@(8)
    c22a:	b485           	cmpl %d5,%d2
    c22c:	6c1c           	bges c24a <fl_fread+0xfc>
    c22e:	2005           	movel %d5,%d0
    c230:	9082           	subl %d2,%d0
    c232:	0c80 0000 01ff 	cmpil #511,%d0
    c238:	6e30           	bgts c26a <fl_fread+0x11c>
    c23a:	7c00           	moveq #0,%d6
    c23c:	b8aa 0830      	cmpl %a2@(2096),%d4
    c240:	668c           	bnes c1ce <fl_fread+0x80>
    c242:	47ea 0630      	lea %a2@(1584),%a3
    c246:	60b2           	bras c1fa <fl_fread+0xac>
    c248:	7400           	moveq #0,%d2
    c24a:	2002           	movel %d2,%d0
    c24c:	4cdf 1cfc      	moveml %sp@+,%d2-%d7/%a2-%a4
    c250:	4e75           	rts
    c252:	4eb9 0000 ba78 	jsr ba78 <fl_init>
    c258:	6000 ff1c      	braw c176 <fl_fread+0x28>
    c25c:	2f0a           	movel %a2,%sp@-
    c25e:	4eb9 0000 c006 	jsr c006 <fl_fflush>
    c264:	588f           	addql #4,%sp
    c266:	6000 ff6e      	braw c1d6 <fl_fread+0x88>
    c26a:	7209           	moveq #9,%d1
    c26c:	e2a0           	asrl %d1,%d0
    c26e:	2f00           	movel %d0,%sp@-
    c270:	4874 2800      	pea %a4@(0,%d2:l)
    c274:	2f04           	movel %d4,%sp@-
    c276:	2f0a           	movel %a2,%sp@-
    c278:	4eb9 0000 b618 	jsr b618 <_read_sectors>
    c27e:	4fef 0010      	lea %sp@(16),%sp
    c282:	4a80           	tstl %d0
    c284:	67c4           	beqs c24a <fl_fread+0xfc>
    c286:	2e00           	movel %d0,%d7
    c288:	7209           	moveq #9,%d1
    c28a:	e3af           	lsll %d1,%d7
    c28c:	2607           	movel %d7,%d3
    c28e:	d880           	addl %d0,%d4
    c290:	d483           	addl %d3,%d2
    c292:	dfaa 0008      	addl %d7,%a2@(8)
    c296:	b485           	cmpl %d5,%d2
    c298:	6d94           	blts c22e <fl_fread+0xe0>
    c29a:	60ae           	bras c24a <fl_fread+0xfc>
    c29c:	2a02           	movel %d2,%d5
    c29e:	6000 ff10      	braw c1b0 <fl_fread+0x62>
    c2a2:	700d           	moveq #13,%d0
    c2a4:	23c0 0001 3650 	movel %d0,13650 <errno>
    c2aa:	74ff           	moveq #-1,%d2
    c2ac:	2002           	movel %d2,%d0
    c2ae:	4cdf 1cfc      	moveml %sp@+,%d2-%d7/%a2-%a4
    c2b2:	4e75           	rts
    c2b4:	7009           	moveq #9,%d0
    c2b6:	23c0 0001 3650 	movel %d0,13650 <errno>
    c2bc:	74ff           	moveq #-1,%d2
    c2be:	60ec           	bras c2ac <fl_fread+0x15e>
    c2c0:	700c           	moveq #12,%d0
    c2c2:	23c0 0001 3650 	movel %d0,13650 <errno>
    c2c8:	74ff           	moveq #-1,%d2
    c2ca:	60e0           	bras c2ac <fl_fread+0x15e>

0000c2cc <fl_fgetc>:
    c2cc:	4e56 fffc      	linkw %fp,#-4
    c2d0:	422e ffff      	clrb %fp@(-1)
    c2d4:	2f2e 0008      	movel %fp@(8),%sp@-
    c2d8:	4878 0001      	pea 1 <ADD>
    c2dc:	4878 0001      	pea 1 <ADD>
    c2e0:	486e ffff      	pea %fp@(-1)
    c2e4:	4eb9 0000 c14e 	jsr c14e <fl_fread>
    c2ea:	4fef 0010      	lea %sp@(16),%sp
    c2ee:	7201           	moveq #1,%d1
    c2f0:	b280           	cmpl %d0,%d1
    c2f2:	6704           	beqs c2f8 <fl_fgetc+0x2c>
    c2f4:	4e5e           	unlk %fp
    c2f6:	4e75           	rts
    c2f8:	7000           	moveq #0,%d0
    c2fa:	102e ffff      	moveb %fp@(-1),%d0
    c2fe:	4e5e           	unlk %fp
    c300:	4e75           	rts

0000c302 <fl_fgets>:
    c302:	598f           	subql #4,%sp
    c304:	48e7 3c38      	moveml %d2-%d5/%a2-%a4,%sp@-
    c308:	286f 0024      	moveal %sp@(36),%a4
    c30c:	282f 002c      	movel %sp@(44),%d4
    c310:	4aaf 0028      	tstl %sp@(40)
    c314:	6f54           	bles c36a <fl_fgets+0x68>
    c316:	244c           	moveal %a4,%a2
    c318:	262f 0028      	movel %sp@(40),%d3
    c31c:	5383           	subql #1,%d3
    c31e:	7400           	moveq #0,%d2
    c320:	7a1f           	moveq #31,%d5
    c322:	da8f           	addl %sp,%d5
    c324:	47f9 0000 c14e 	lea c14e <fl_fread>,%a3
    c32a:	b682           	cmpl %d2,%d3
    c32c:	6738           	beqs c366 <fl_fgets+0x64>
    c32e:	422f 001f      	clrb %sp@(31)
    c332:	2f04           	movel %d4,%sp@-
    c334:	4878 0001      	pea 1 <ADD>
    c338:	4878 0001      	pea 1 <ADD>
    c33c:	2f05           	movel %d5,%sp@-
    c33e:	4e93           	jsr %a3@
    c340:	4fef 0010      	lea %sp@(16),%sp
    c344:	7201           	moveq #1,%d1
    c346:	b280           	cmpl %d0,%d1
    c348:	672a           	beqs c374 <fl_fgets+0x72>
    c34a:	4a80           	tstl %d0
    c34c:	6d18           	blts c366 <fl_fgets+0x64>
    c34e:	5282           	addql #1,%d2
    c350:	14c0           	moveb %d0,%a2@+
    c352:	720a           	moveq #10,%d1
    c354:	b280           	cmpl %d0,%d1
    c356:	66d2           	bnes c32a <fl_fgets+0x28>
    c358:	4234 2800      	clrb %a4@(0,%d2:l)
    c35c:	200c           	movel %a4,%d0
    c35e:	4cdf 1c3c      	moveml %sp@+,%d2-%d5/%a2-%a4
    c362:	588f           	addql #4,%sp
    c364:	4e75           	rts
    c366:	4a82           	tstl %d2
    c368:	66ee           	bnes c358 <fl_fgets+0x56>
    c36a:	7000           	moveq #0,%d0
    c36c:	4cdf 1c3c      	moveml %sp@+,%d2-%d5/%a2-%a4
    c370:	588f           	addql #4,%sp
    c372:	4e75           	rts
    c374:	7000           	moveq #0,%d0
    c376:	102f 001f      	moveb %sp@(31),%d0
    c37a:	5282           	addql #1,%d2
    c37c:	14c0           	moveb %d0,%a2@+
    c37e:	720a           	moveq #10,%d1
    c380:	b280           	cmpl %d0,%d1
    c382:	66a6           	bnes c32a <fl_fgets+0x28>
    c384:	60d2           	bras c358 <fl_fgets+0x56>

0000c386 <fl_fseek>:
    c386:	48e7 3020      	moveml %d2-%d3/%a2,%sp@-
    c38a:	246f 0010      	moveal %sp@(16),%a2
    c38e:	262f 0014      	movel %sp@(20),%d3
    c392:	242f 0018      	movel %sp@(24),%d2
    c396:	4ab9 0001 89e2 	tstl 189e2 <_filelib_init>
    c39c:	6752           	beqs c3f0 <fl_fseek+0x6a>
    c39e:	b4fc 0000      	cmpaw #0,%a2
    c3a2:	6700 00e4      	beqw c488 <fl_fseek+0x102>
    c3a6:	7002           	moveq #2,%d0
    c3a8:	b082           	cmpl %d2,%d0
    c3aa:	675a           	beqs c406 <fl_fseek+0x80>
    c3ac:	2079 0001 3982 	moveal 13982 <_fs+0x36>,%a0
    c3b2:	b0fc 0000      	cmpaw #0,%a0
    c3b6:	6774           	beqs c42c <fl_fseek+0xa6>
    c3b8:	4e90           	jsr %a0@
    c3ba:	70ff           	moveq #-1,%d0
    c3bc:	2540 0830      	movel %d0,%a2@(2096)
    c3c0:	42aa 0834      	clrl %a2@(2100)
    c3c4:	4a82           	tstl %d2
    c3c6:	6630           	bnes c3f8 <fl_fseek+0x72>
    c3c8:	2543 0008      	movel %d3,%a2@(8)
    c3cc:	202a 000c      	movel %a2@(12),%d0
    c3d0:	b083           	cmpl %d3,%d0
    c3d2:	6404           	bccs c3d8 <fl_fseek+0x52>
    c3d4:	2540 0008      	movel %d0,%a2@(8)
    c3d8:	7400           	moveq #0,%d2
    c3da:	2079 0001 3986 	moveal 13986 <_fs+0x3a>,%a0
    c3e0:	b0fc 0000      	cmpaw #0,%a0
    c3e4:	6702           	beqs c3e8 <fl_fseek+0x62>
    c3e6:	4e90           	jsr %a0@
    c3e8:	2002           	movel %d2,%d0
    c3ea:	4cdf 040c      	moveml %sp@+,%d2-%d3/%a2
    c3ee:	4e75           	rts
    c3f0:	4eb9 0000 ba78 	jsr ba78 <fl_init>
    c3f6:	60a6           	bras c39e <fl_fseek+0x18>
    c3f8:	7001           	moveq #1,%d0
    c3fa:	b082           	cmpl %d2,%d0
    c3fc:	6740           	beqs c43e <fl_fseek+0xb8>
    c3fe:	5582           	subql #2,%d2
    c400:	6720           	beqs c422 <fl_fseek+0x9c>
    c402:	74ff           	moveq #-1,%d2
    c404:	60d4           	bras c3da <fl_fseek+0x54>
    c406:	4a83           	tstl %d3
    c408:	667e           	bnes c488 <fl_fseek+0x102>
    c40a:	2079 0001 3982 	moveal 13982 <_fs+0x36>,%a0
    c410:	b0fc 0000      	cmpaw #0,%a0
    c414:	6742           	beqs c458 <fl_fseek+0xd2>
    c416:	4e90           	jsr %a0@
    c418:	70ff           	moveq #-1,%d0
    c41a:	2540 0830      	movel %d0,%a2@(2096)
    c41e:	42aa 0834      	clrl %a2@(2100)
    c422:	256a 000c 0008 	movel %a2@(12),%a2@(8)
    c428:	7400           	moveq #0,%d2
    c42a:	60ae           	bras c3da <fl_fseek+0x54>
    c42c:	70ff           	moveq #-1,%d0
    c42e:	2540 0830      	movel %d0,%a2@(2096)
    c432:	42aa 0834      	clrl %a2@(2100)
    c436:	4a82           	tstl %d2
    c438:	678e           	beqs c3c8 <fl_fseek+0x42>
    c43a:	5382           	subql #1,%d2
    c43c:	66c4           	bnes c402 <fl_fseek+0x7c>
    c43e:	202a 0008      	movel %a2@(8),%d0
    c442:	4a83           	tstl %d3
    c444:	6d24           	blts c46a <fl_fseek+0xe4>
    c446:	d680           	addl %d0,%d3
    c448:	2543 0008      	movel %d3,%a2@(8)
    c44c:	202a 000c      	movel %a2@(12),%d0
    c450:	b083           	cmpl %d3,%d0
    c452:	6484           	bccs c3d8 <fl_fseek+0x52>
    c454:	6000 ff7e      	braw c3d4 <fl_fseek+0x4e>
    c458:	70ff           	moveq #-1,%d0
    c45a:	2540 0830      	movel %d0,%a2@(2096)
    c45e:	42aa 0834      	clrl %a2@(2100)
    c462:	256a 000c 0008 	movel %a2@(12),%a2@(8)
    c468:	60be           	bras c428 <fl_fseek+0xa2>
    c46a:	2203           	movel %d3,%d1
    c46c:	4481           	negl %d1
    c46e:	b081           	cmpl %d1,%d0
    c470:	640a           	bccs c47c <fl_fseek+0xf6>
    c472:	42aa 0008      	clrl %a2@(8)
    c476:	7400           	moveq #0,%d2
    c478:	6000 ff60      	braw c3da <fl_fseek+0x54>
    c47c:	d680           	addl %d0,%d3
    c47e:	2543 0008      	movel %d3,%a2@(8)
    c482:	7400           	moveq #0,%d2
    c484:	6000 ff54      	braw c3da <fl_fseek+0x54>
    c488:	74ff           	moveq #-1,%d2
    c48a:	2002           	movel %d2,%d0
    c48c:	4cdf 040c      	moveml %sp@+,%d2-%d3/%a2
    c490:	4e75           	rts

0000c492 <fl_fgetpos>:
    c492:	2f0a           	movel %a2,%sp@-
    c494:	246f 0008      	moveal %sp@(8),%a2
    c498:	b4fc 0000      	cmpaw #0,%a2
    c49c:	672a           	beqs c4c8 <fl_fgetpos+0x36>
    c49e:	2079 0001 3982 	moveal 13982 <_fs+0x36>,%a0
    c4a4:	b0fc 0000      	cmpaw #0,%a0
    c4a8:	6702           	beqs c4ac <fl_fgetpos+0x1a>
    c4aa:	4e90           	jsr %a0@
    c4ac:	206f 000c      	moveal %sp@(12),%a0
    c4b0:	20aa 0008      	movel %a2@(8),%a0@
    c4b4:	2079 0001 3986 	moveal 13986 <_fs+0x3a>,%a0
    c4ba:	b0fc 0000      	cmpaw #0,%a0
    c4be:	6702           	beqs c4c2 <fl_fgetpos+0x30>
    c4c0:	4e90           	jsr %a0@
    c4c2:	7000           	moveq #0,%d0
    c4c4:	245f           	moveal %sp@+,%a2
    c4c6:	4e75           	rts
    c4c8:	70ff           	moveq #-1,%d0
    c4ca:	245f           	moveal %sp@+,%a2
    c4cc:	4e75           	rts

0000c4ce <fl_ftell>:
    c4ce:	2f0a           	movel %a2,%sp@-
    c4d0:	246f 0008      	moveal %sp@(8),%a2
    c4d4:	b4fc 0000      	cmpaw #0,%a2
    c4d8:	6726           	beqs c500 <fl_ftell+0x32>
    c4da:	2079 0001 3982 	moveal 13982 <_fs+0x36>,%a0
    c4e0:	b0fc 0000      	cmpaw #0,%a0
    c4e4:	6702           	beqs c4e8 <fl_ftell+0x1a>
    c4e6:	4e90           	jsr %a0@
    c4e8:	2079 0001 3986 	moveal 13986 <_fs+0x3a>,%a0
    c4ee:	246a 0008      	moveal %a2@(8),%a2
    c4f2:	b0fc 0000      	cmpaw #0,%a0
    c4f6:	6702           	beqs c4fa <fl_ftell+0x2c>
    c4f8:	4e90           	jsr %a0@
    c4fa:	200a           	movel %a2,%d0
    c4fc:	245f           	moveal %sp@+,%a2
    c4fe:	4e75           	rts
    c500:	95ca           	subal %a2,%a2
    c502:	200a           	movel %a2,%d0
    c504:	245f           	moveal %sp@+,%a2
    c506:	4e75           	rts

0000c508 <fl_feof>:
    c508:	2f0a           	movel %a2,%sp@-
    c50a:	2f02           	movel %d2,%sp@-
    c50c:	246f 000c      	moveal %sp@(12),%a2
    c510:	b4fc 0000      	cmpaw #0,%a2
    c514:	6732           	beqs c548 <fl_feof+0x40>
    c516:	2079 0001 3982 	moveal 13982 <_fs+0x36>,%a0
    c51c:	b0fc 0000      	cmpaw #0,%a0
    c520:	6702           	beqs c524 <fl_feof+0x1c>
    c522:	4e90           	jsr %a0@
    c524:	202a 0008      	movel %a2@(8),%d0
    c528:	b0aa 000c      	cmpl %a2@(12),%d0
    c52c:	57c2           	seq %d2
    c52e:	4882           	extw %d2
    c530:	48c2           	extl %d2
    c532:	2079 0001 3986 	moveal 13986 <_fs+0x3a>,%a0
    c538:	b0fc 0000      	cmpaw #0,%a0
    c53c:	6702           	beqs c540 <fl_feof+0x38>
    c53e:	4e90           	jsr %a0@
    c540:	2002           	movel %d2,%d0
    c542:	241f           	movel %sp@+,%d2
    c544:	245f           	moveal %sp@+,%a2
    c546:	4e75           	rts
    c548:	74ff           	moveq #-1,%d2
    c54a:	2002           	movel %d2,%d0
    c54c:	241f           	movel %sp@+,%d2
    c54e:	245f           	moveal %sp@+,%a2
    c550:	4e75           	rts

0000c552 <fl_fwrite>:
    c552:	48e7 3e38      	moveml %d2-%d6/%a2-%a4,%sp@-
    c556:	266f 0024      	moveal %sp@(36),%a3
    c55a:	246f 0030      	moveal %sp@(48),%a2
    c55e:	2f2f 002c      	movel %sp@(44),%sp@-
    c562:	2f2f 002c      	movel %sp@(44),%sp@-
    c566:	4eb9 0000 ee50 	jsr ee50 <__mulsi3>
    c56c:	508f           	addql #8,%sp
    c56e:	2a00           	movel %d0,%d5
    c570:	4ab9 0001 89e2 	tstl 189e2 <_filelib_init>
    c576:	6700 01f8      	beqw c770 <fl_fwrite+0x21e>
    c57a:	b4fc 0000      	cmpaw #0,%a2
    c57e:	6700 0222      	beqw c7a2 <fl_fwrite+0x250>
    c582:	2079 0001 3982 	moveal 13982 <_fs+0x36>,%a0
    c588:	b0fc 0000      	cmpaw #0,%a0
    c58c:	6702           	beqs c590 <fl_fwrite+0x3e>
    c58e:	4e90           	jsr %a0@
    c590:	102a 0838      	moveb %a2@(2104),%d0
    c594:	0800 0001      	btst #1,%d0
    c598:	6700 01e8      	beqw c782 <fl_fwrite+0x230>
    c59c:	0800 0002      	btst #2,%d0
    c5a0:	6700 010e      	beqw c6b0 <fl_fwrite+0x15e>
    c5a4:	2c2a 000c      	movel %a2@(12),%d6
    c5a8:	2546 0008      	movel %d6,%a2@(8)
    c5ac:	2806           	movel %d6,%d4
    c5ae:	7009           	moveq #9,%d0
    c5b0:	e0ac           	lsrl %d0,%d4
    c5b2:	0286 0000 01ff 	andil #511,%d6
    c5b8:	4a85           	tstl %d5
    c5ba:	6700 00de      	beqw c69a <fl_fwrite+0x148>
    c5be:	202a 0830      	movel %a2@(2096),%d0
    c5c2:	4a86           	tstl %d6
    c5c4:	6700 010a      	beqw c6d0 <fl_fwrite+0x17e>
    c5c8:	263c 0000 0200 	movel #512,%d3
    c5ce:	9686           	subl %d6,%d3
    c5d0:	ba83           	cmpl %d3,%d5
    c5d2:	6402           	bccs c5d6 <fl_fwrite+0x84>
    c5d4:	2605           	movel %d5,%d3
    c5d6:	7400           	moveq #0,%d2
    c5d8:	b084           	cmpl %d4,%d0
    c5da:	6700 010a      	beqw c6e6 <fl_fwrite+0x194>
    c5de:	4aaa 0834      	tstl %a2@(2100)
    c5e2:	6600 014a      	bnew c72e <fl_fwrite+0x1dc>
    c5e6:	49ea 0630      	lea %a2@(1584),%a4
    c5ea:	4878 0001      	pea 1 <ADD>
    c5ee:	2f0c           	movel %a4,%sp@-
    c5f0:	2f04           	movel %d4,%sp@-
    c5f2:	2f0a           	movel %a2,%sp@-
    c5f4:	4eb9 0000 b618 	jsr b618 <_read_sectors>
    c5fa:	4fef 0010      	lea %sp@(16),%sp
    c5fe:	4a80           	tstl %d0
    c600:	6700 010e      	beqw c710 <fl_fwrite+0x1be>
    c604:	2544 0830      	movel %d4,%a2@(2096)
    c608:	42aa 0834      	clrl %a2@(2100)
    c60c:	2f03           	movel %d3,%sp@-
    c60e:	4873 2800      	pea %a3@(0,%d2:l)
    c612:	4874 6800      	pea %a4@(0,%d6:l)
    c616:	4eb9 0000 5b10 	jsr 5b10 <memcpy>
    c61c:	7001           	moveq #1,%d0
    c61e:	2540 0834      	movel %d0,%a2@(2100)
    c622:	d483           	addl %d3,%d2
    c624:	d7aa 0008      	addl %d3,%a2@(8)
    c628:	5284           	addql #1,%d4
    c62a:	4fef 000c      	lea %sp@(12),%sp
    c62e:	ba82           	cmpl %d2,%d5
    c630:	6300 0148      	blsw c77a <fl_fwrite+0x228>
    c634:	2605           	movel %d5,%d3
    c636:	9682           	subl %d2,%d3
    c638:	202a 0830      	movel %a2@(2096),%d0
    c63c:	0c83 0000 01ff 	cmpil #511,%d3
    c642:	6300 009a      	blsw c6de <fl_fwrite+0x18c>
    c646:	5280           	addql #1,%d0
    c648:	6712           	beqs c65c <fl_fwrite+0x10a>
    c64a:	4aaa 0834      	tstl %a2@(2100)
    c64e:	6600 0108      	bnew c758 <fl_fwrite+0x206>
    c652:	70ff           	moveq #-1,%d0
    c654:	2540 0830      	movel %d0,%a2@(2096)
    c658:	42aa 0834      	clrl %a2@(2100)
    c65c:	7209           	moveq #9,%d1
    c65e:	e2ab           	lsrl %d1,%d3
    c660:	2f03           	movel %d3,%sp@-
    c662:	4873 2800      	pea %a3@(0,%d2:l)
    c666:	2f04           	movel %d4,%sp@-
    c668:	2f0a           	movel %a2,%sp@-
    c66a:	4eb9 0000 b440 	jsr b440 <_write_sectors>
    c670:	2200           	movel %d0,%d1
    c672:	7609           	moveq #9,%d3
    c674:	e7a9           	lsll %d3,%d1
    c676:	d481           	addl %d1,%d2
    c678:	d2aa 0008      	addl %a2@(8),%d1
    c67c:	2541 0008      	movel %d1,%a2@(8)
    c680:	d880           	addl %d0,%d4
    c682:	4fef 0010      	lea %sp@(16),%sp
    c686:	4a80           	tstl %d0
    c688:	66a4           	bnes c62e <fl_fwrite+0xdc>
    c68a:	b2aa 000c      	cmpl %a2@(12),%d1
    c68e:	630a           	blss c69a <fl_fwrite+0x148>
    c690:	2541 000c      	movel %d1,%a2@(12)
    c694:	7201           	moveq #1,%d1
    c696:	2541 0010      	movel %d1,%a2@(16)
    c69a:	2079 0001 3986 	moveal 13986 <_fs+0x3a>,%a0
    c6a0:	b0fc 0000      	cmpaw #0,%a0
    c6a4:	6702           	beqs c6a8 <fl_fwrite+0x156>
    c6a6:	4e90           	jsr %a0@
    c6a8:	2005           	movel %d5,%d0
    c6aa:	4cdf 1c7c      	moveml %sp@+,%d2-%d6/%a2-%a4
    c6ae:	4e75           	rts
    c6b0:	222a 0008      	movel %a2@(8),%d1
    c6b4:	2801           	movel %d1,%d4
    c6b6:	7609           	moveq #9,%d3
    c6b8:	e6ac           	lsrl %d3,%d4
    c6ba:	2c01           	movel %d1,%d6
    c6bc:	0286 0000 01ff 	andil #511,%d6
    c6c2:	4a85           	tstl %d5
    c6c4:	67c4           	beqs c68a <fl_fwrite+0x138>
    c6c6:	202a 0830      	movel %a2@(2096),%d0
    c6ca:	4a86           	tstl %d6
    c6cc:	6600 fefa      	bnew c5c8 <fl_fwrite+0x76>
    c6d0:	2605           	movel %d5,%d3
    c6d2:	7400           	moveq #0,%d2
    c6d4:	0c83 0000 01ff 	cmpil #511,%d3
    c6da:	6200 ff6a      	bhiw c646 <fl_fwrite+0xf4>
    c6de:	7c00           	moveq #0,%d6
    c6e0:	b084           	cmpl %d4,%d0
    c6e2:	6600 fefa      	bnew c5de <fl_fwrite+0x8c>
    c6e6:	49ea 0630      	lea %a2@(1584),%a4
    c6ea:	2f03           	movel %d3,%sp@-
    c6ec:	4873 2800      	pea %a3@(0,%d2:l)
    c6f0:	4874 6800      	pea %a4@(0,%d6:l)
    c6f4:	4eb9 0000 5b10 	jsr 5b10 <memcpy>
    c6fa:	7001           	moveq #1,%d0
    c6fc:	2540 0834      	movel %d0,%a2@(2100)
    c700:	d483           	addl %d3,%d2
    c702:	d7aa 0008      	addl %d3,%a2@(8)
    c706:	5284           	addql #1,%d4
    c708:	4fef 000c      	lea %sp@(12),%sp
    c70c:	6000 ff20      	braw c62e <fl_fwrite+0xdc>
    c710:	4878 0200      	pea 200 <DBL_MANT_DIG+0x1cb>
    c714:	42a7           	clrl %sp@-
    c716:	2f0c           	movel %a4,%sp@-
    c718:	4eb9 0000 263c 	jsr 263c <memset>
    c71e:	4fef 000c      	lea %sp@(12),%sp
    c722:	2544 0830      	movel %d4,%a2@(2096)
    c726:	42aa 0834      	clrl %a2@(2100)
    c72a:	6000 fee0      	braw c60c <fl_fwrite+0xba>
    c72e:	2f0a           	movel %a2,%sp@-
    c730:	4eb9 0000 c006 	jsr c006 <fl_fflush>
    c736:	588f           	addql #4,%sp
    c738:	49ea 0630      	lea %a2@(1584),%a4
    c73c:	4878 0001      	pea 1 <ADD>
    c740:	2f0c           	movel %a4,%sp@-
    c742:	2f04           	movel %d4,%sp@-
    c744:	2f0a           	movel %a2,%sp@-
    c746:	4eb9 0000 b618 	jsr b618 <_read_sectors>
    c74c:	4fef 0010      	lea %sp@(16),%sp
    c750:	4a80           	tstl %d0
    c752:	6600 feb0      	bnew c604 <fl_fwrite+0xb2>
    c756:	60b8           	bras c710 <fl_fwrite+0x1be>
    c758:	2f0a           	movel %a2,%sp@-
    c75a:	4eb9 0000 c006 	jsr c006 <fl_fflush>
    c760:	588f           	addql #4,%sp
    c762:	70ff           	moveq #-1,%d0
    c764:	2540 0830      	movel %d0,%a2@(2096)
    c768:	42aa 0834      	clrl %a2@(2100)
    c76c:	6000 feee      	braw c65c <fl_fwrite+0x10a>
    c770:	4eb9 0000 ba78 	jsr ba78 <fl_init>
    c776:	6000 fe02      	braw c57a <fl_fwrite+0x28>
    c77a:	222a 0008      	movel %a2@(8),%d1
    c77e:	6000 ff0a      	braw c68a <fl_fwrite+0x138>
    c782:	2079 0001 3986 	moveal 13986 <_fs+0x3a>,%a0
    c788:	b0fc 0000      	cmpaw #0,%a0
    c78c:	6702           	beqs c790 <fl_fwrite+0x23e>
    c78e:	4e90           	jsr %a0@
    c790:	700d           	moveq #13,%d0
    c792:	23c0 0001 3650 	movel %d0,13650 <errno>
    c798:	7aff           	moveq #-1,%d5
    c79a:	2005           	movel %d5,%d0
    c79c:	4cdf 1c7c      	moveml %sp@+,%d2-%d6/%a2-%a4
    c7a0:	4e75           	rts
    c7a2:	7009           	moveq #9,%d0
    c7a4:	23c0 0001 3650 	movel %d0,13650 <errno>
    c7aa:	7aff           	moveq #-1,%d5
    c7ac:	60ec           	bras c79a <fl_fwrite+0x248>

0000c7ae <fl_fputc>:
    c7ae:	4e56 fffc      	linkw %fp,#-4
    c7b2:	2f02           	movel %d2,%sp@-
    c7b4:	242e 0008      	movel %fp@(8),%d2
    c7b8:	1d42 ffff      	moveb %d2,%fp@(-1)
    c7bc:	2f2e 000c      	movel %fp@(12),%sp@-
    c7c0:	4878 0001      	pea 1 <ADD>
    c7c4:	4878 0001      	pea 1 <ADD>
    c7c8:	486e ffff      	pea %fp@(-1)
    c7cc:	4eb9 0000 c552 	jsr c552 <fl_fwrite>
    c7d2:	4fef 0010      	lea %sp@(16),%sp
    c7d6:	7201           	moveq #1,%d1
    c7d8:	b280           	cmpl %d0,%d1
    c7da:	6708           	beqs c7e4 <fl_fputc+0x36>
    c7dc:	242e fff8      	movel %fp@(-8),%d2
    c7e0:	4e5e           	unlk %fp
    c7e2:	4e75           	rts
    c7e4:	2002           	movel %d2,%d0
    c7e6:	242e fff8      	movel %fp@(-8),%d2
    c7ea:	4e5e           	unlk %fp
    c7ec:	4e75           	rts

0000c7ee <fl_fputs>:
    c7ee:	2f02           	movel %d2,%sp@-
    c7f0:	242f 0008      	movel %sp@(8),%d2
    c7f4:	2f02           	movel %d2,%sp@-
    c7f6:	4eb9 0000 5afc 	jsr 5afc <strlen>
    c7fc:	588f           	addql #4,%sp
    c7fe:	2f2f 000c      	movel %sp@(12),%sp@-
    c802:	2f00           	movel %d0,%sp@-
    c804:	4878 0001      	pea 1 <ADD>
    c808:	2f02           	movel %d2,%sp@-
    c80a:	4eb9 0000 c552 	jsr c552 <fl_fwrite>
    c810:	4fef 0010      	lea %sp@(16),%sp
    c814:	241f           	movel %sp@+,%d2
    c816:	4e75           	rts

0000c818 <fl_remove>:
    c818:	48e7 203c      	moveml %d2/%a2-%a5,%sp@-
    c81c:	2079 0001 3982 	moveal 13982 <_fs+0x36>,%a0
    c822:	b0fc 0000      	cmpaw #0,%a0
    c826:	6702           	beqs c82a <fl_remove+0x12>
    c828:	4e90           	jsr %a0@
    c82a:	42a7           	clrl %sp@-
    c82c:	2f2f 001c      	movel %sp@(28),%sp@-
    c830:	4eb9 0000 bbc2 	jsr bbc2 <fl_fopen>
    c836:	2640           	moveal %d0,%a3
    c838:	508f           	addql #8,%sp
    c83a:	4a80           	tstl %d0
    c83c:	6700 00a0      	beqw c8de <fl_remove+0xc6>
    c840:	2479 0001 3944 	moveal 13944 <_open_file_list>,%a2
    c846:	b4fc 0000      	cmpaw #0,%a2
    c84a:	6732           	beqs c87e <fl_remove+0x66>
    c84c:	4beb 0014      	lea %a3@(20),%a5
    c850:	49f9 0000 d59a 	lea d59a <fatfs_compare_names>,%a4
    c856:	2400           	movel %d0,%d2
    c858:	0682 0000 0118 	addil #280,%d2
    c85e:	41ea f7c6      	lea %a2@(-2106),%a0
    c862:	b1cb           	cmpal %a3,%a0
    c864:	670e           	beqs c874 <fl_remove+0x5c>
    c866:	2f0d           	movel %a5,%sp@-
    c868:	4868 0014      	pea %a0@(20)
    c86c:	4e94           	jsr %a4@
    c86e:	508f           	addql #8,%sp
    c870:	4a80           	tstl %d0
    c872:	665c           	bnes c8d0 <fl_remove+0xb8>
    c874:	246a 0004      	moveal %a2@(4),%a2
    c878:	b4fc 0000      	cmpaw #0,%a2
    c87c:	66e0           	bnes c85e <fl_remove+0x46>
    c87e:	2f2b 0004      	movel %a3@(4),%sp@-
    c882:	4879 0001 394c 	pea 1394c <_fs>
    c888:	4eb9 0000 ddae 	jsr ddae <fatfs_free_cluster_chain>
    c88e:	508f           	addql #8,%sp
    c890:	4a80           	tstl %d0
    c892:	674a           	beqs c8de <fl_remove+0xc6>
    c894:	486b 021c      	pea %a3@(540)
    c898:	2f13           	movel %a3@,%sp@-
    c89a:	4879 0001 394c 	pea 1394c <_fs>
    c8a0:	4eb9 0000 ec5a 	jsr ec5a <fatfs_mark_file_deleted>
    c8a6:	4fef 000c      	lea %sp@(12),%sp
    c8aa:	4a80           	tstl %d0
    c8ac:	6730           	beqs c8de <fl_remove+0xc6>
    c8ae:	2f0b           	movel %a3,%sp@-
    c8b0:	4eb9 0000 c078 	jsr c078 <fl_fclose>
    c8b6:	588f           	addql #4,%sp
    c8b8:	7400           	moveq #0,%d2
    c8ba:	2079 0001 3986 	moveal 13986 <_fs+0x3a>,%a0
    c8c0:	b0fc 0000      	cmpaw #0,%a0
    c8c4:	6702           	beqs c8c8 <fl_remove+0xb0>
    c8c6:	4e90           	jsr %a0@
    c8c8:	2002           	movel %d2,%d0
    c8ca:	4cdf 3c04      	moveml %sp@+,%d2/%a2-%a5
    c8ce:	4e75           	rts
    c8d0:	2f02           	movel %d2,%sp@-
    c8d2:	486a f8de      	pea %a2@(-1826)
    c8d6:	4e94           	jsr %a4@
    c8d8:	508f           	addql #8,%sp
    c8da:	4a80           	tstl %d0
    c8dc:	6796           	beqs c874 <fl_remove+0x5c>
    c8de:	74ff           	moveq #-1,%d2
    c8e0:	60d8           	bras c8ba <fl_remove+0xa2>

0000c8e2 <fl_createdirectory>:
    c8e2:	4e56 ffd4      	linkw %fp,#-44
    c8e6:	48e7 383c      	moveml %d2-%d4/%a2-%a5,%sp@-
    c8ea:	4ab9 0001 89e2 	tstl 189e2 <_filelib_init>
    c8f0:	6700 022c      	beqw cb1e <fl_createdirectory+0x23c>
    c8f4:	2079 0001 3982 	moveal 13982 <_fs+0x36>,%a0
    c8fa:	b0fc 0000      	cmpaw #0,%a0
    c8fe:	6702           	beqs c902 <fl_createdirectory+0x20>
    c900:	4e90           	jsr %a0@
    c902:	4eb9 0000 b74e 	jsr b74e <_allocate_file>
    c908:	2440           	moveal %d0,%a2
    c90a:	4a80           	tstl %d0
    c90c:	6700 020c      	beqw cb1a <fl_createdirectory+0x238>
    c910:	47ea 0014      	lea %a2@(20),%a3
    c914:	243c 0000 0104 	movel #260,%d2
    c91a:	2f02           	movel %d2,%sp@-
    c91c:	42a7           	clrl %sp@-
    c91e:	2f0b           	movel %a3,%sp@-
    c920:	49f9 0000 263c 	lea 263c <memset>,%a4
    c926:	4e94           	jsr %a4@
    c928:	260a           	movel %a2,%d3
    c92a:	0683 0000 0118 	addil #280,%d3
    c930:	2f02           	movel %d2,%sp@-
    c932:	42a7           	clrl %sp@-
    c934:	2f03           	movel %d3,%sp@-
    c936:	4e94           	jsr %a4@
    c938:	2f02           	movel %d2,%sp@-
    c93a:	2f03           	movel %d3,%sp@-
    c93c:	2f02           	movel %d2,%sp@-
    c93e:	2f0b           	movel %a3,%sp@-
    c940:	2f2e 0008      	movel %fp@(8),%sp@-
    c944:	4eb9 0000 d4f6 	jsr d4f6 <fatfs_split_path>
    c94a:	4fef 002c      	lea %sp@(44),%sp
    c94e:	5280           	addql #1,%d0
    c950:	6700 01be      	beqw cb10 <fl_createdirectory+0x22e>
    c954:	4a2a 0014      	tstb %a2@(20)
    c958:	6700 01ce      	beqw cb28 <fl_createdirectory+0x246>
    c95c:	2f0a           	movel %a2,%sp@-
    c95e:	2f0b           	movel %a3,%sp@-
    c960:	4eb9 0000 b38c 	jsr b38c <_open_directory>
    c966:	508f           	addql #8,%sp
    c968:	4a80           	tstl %d0
    c96a:	6700 01a4      	beqw cb10 <fl_createdirectory+0x22e>
    c96e:	2012           	movel %a2@,%d0
    c970:	486e ffe0      	pea %fp@(-32)
    c974:	2f03           	movel %d3,%sp@-
    c976:	2f00           	movel %d0,%sp@-
    c978:	4879 0001 394c 	pea 1394c <_fs>
    c97e:	4eb9 0000 e8a2 	jsr e8a2 <fatfs_get_file_entry>
    c984:	4fef 0010      	lea %sp@(16),%sp
    c988:	5380           	subql #1,%d0
    c98a:	6700 0184      	beqw cb10 <fl_createdirectory+0x22e>
    c98e:	42aa 0004      	clrl %a2@(4)
    c992:	4878 0001      	pea 1 <ADD>
    c996:	486a 0004      	pea %a2@(4)
    c99a:	4878 0001      	pea 1 <ADD>
    c99e:	4879 0001 394c 	pea 1394c <_fs>
    c9a4:	4eb9 0000 dfa4 	jsr dfa4 <fatfs_allocate_free_space>
    c9aa:	4fef 0010      	lea %sp@(16),%sp
    c9ae:	4a80           	tstl %d0
    c9b0:	6700 015e      	beqw cb10 <fl_createdirectory+0x22e>
    c9b4:	280a           	movel %a2,%d4
    c9b6:	0684 0000 0630 	addil #1584,%d4
    c9bc:	4878 0200      	pea 200 <DBL_MANT_DIG+0x1cb>
    c9c0:	42a7           	clrl %sp@-
    c9c2:	2f04           	movel %d4,%sp@-
    c9c4:	4e94           	jsr %a4@
    c9c6:	4fef 000c      	lea %sp@(12),%sp
    c9ca:	4a39 0001 394c 	tstb 1394c <_fs>
    c9d0:	6732           	beqs ca04 <fl_createdirectory+0x122>
    c9d2:	7400           	moveq #0,%d2
    c9d4:	47f9 0000 e7a8 	lea e7a8 <fatfs_write_sector>,%a3
    c9da:	49f9 0001 394c 	lea 1394c <_fs>,%a4
    c9e0:	2f04           	movel %d4,%sp@-
    c9e2:	2f02           	movel %d2,%sp@-
    c9e4:	2f2a 0004      	movel %a2@(4),%sp@-
    c9e8:	4879 0001 394c 	pea 1394c <_fs>
    c9ee:	4e93           	jsr %a3@
    c9f0:	4fef 0010      	lea %sp@(16),%sp
    c9f4:	4a80           	tstl %d0
    c9f6:	6700 0118      	beqw cb10 <fl_createdirectory+0x22e>
    c9fa:	5282           	addql #1,%d2
    c9fc:	7000           	moveq #0,%d0
    c9fe:	1014           	moveb %a4@,%d0
    ca00:	b082           	cmpl %d2,%d0
    ca02:	6edc           	bgts c9e0 <fl_createdirectory+0xfe>
    ca04:	2f03           	movel %d3,%sp@-
    ca06:	47ee ffd5      	lea %fp@(-43),%a3
    ca0a:	2f0b           	movel %a3,%sp@-
    ca0c:	4bf9 0000 d098 	lea d098 <fatfs_lfn_create_sfn>,%a5
    ca12:	4e95           	jsr %a5@
    ca14:	280a           	movel %a2,%d4
    ca16:	0684 0000 021c 	addil #540,%d4
    ca1c:	2044           	moveal %d4,%a0
    ca1e:	10d3           	moveb %a3@,%a0@+
    ca20:	10ee ffd6      	moveb %fp@(-42),%a0@+
    ca24:	10ee ffd7      	moveb %fp@(-41),%a0@+
    ca28:	10ee ffd8      	moveb %fp@(-40),%a0@+
    ca2c:	10ee ffd9      	moveb %fp@(-39),%a0@+
    ca30:	10ee ffda      	moveb %fp@(-38),%a0@+
    ca34:	10ee ffdb      	moveb %fp@(-37),%a0@+
    ca38:	10ee ffdc      	moveb %fp@(-36),%a0@+
    ca3c:	10ee ffdd      	moveb %fp@(-35),%a0@+
    ca40:	10ee ffde      	moveb %fp@(-34),%a0@+
    ca44:	10ae ffdf      	moveb %fp@(-33),%a0@
    ca48:	508f           	addql #8,%sp
    ca4a:	7400           	moveq #0,%d2
    ca4c:	49f9 0000 ea90 	lea ea90 <fatfs_sfn_exists>,%a4
    ca52:	2f04           	movel %d4,%sp@-
    ca54:	2f12           	movel %a2@,%sp@-
    ca56:	4879 0001 394c 	pea 1394c <_fs>
    ca5c:	4e94           	jsr %a4@
    ca5e:	4fef 000c      	lea %sp@(12),%sp
    ca62:	4a80           	tstl %d0
    ca64:	6736           	beqs ca9c <fl_createdirectory+0x1ba>
    ca66:	5282           	addql #1,%d2
    ca68:	0c82 0000 270f 	cmpil #9999,%d2
    ca6e:	6700 00cc      	beqw cb3c <fl_createdirectory+0x25a>
    ca72:	2f03           	movel %d3,%sp@-
    ca74:	2f0b           	movel %a3,%sp@-
    ca76:	4e95           	jsr %a5@
    ca78:	2f02           	movel %d2,%sp@-
    ca7a:	2f0b           	movel %a3,%sp@-
    ca7c:	2f04           	movel %d4,%sp@-
    ca7e:	4eb9 0000 d1c8 	jsr d1c8 <fatfs_lfn_generate_tail>
    ca84:	4fef 0014      	lea %sp@(20),%sp
    ca88:	2f04           	movel %d4,%sp@-
    ca8a:	2f12           	movel %a2@,%sp@-
    ca8c:	4879 0001 394c 	pea 1394c <_fs>
    ca92:	4e94           	jsr %a4@
    ca94:	4fef 000c      	lea %sp@(12),%sp
    ca98:	4a80           	tstl %d0
    ca9a:	66ca           	bnes ca66 <fl_createdirectory+0x184>
    ca9c:	4878 0001      	pea 1 <ADD>
    caa0:	42a7           	clrl %sp@-
    caa2:	2f2a 0004      	movel %a2@(4),%sp@-
    caa6:	2f04           	movel %d4,%sp@-
    caa8:	2f03           	movel %d3,%sp@-
    caaa:	2f12           	movel %a2@,%sp@-
    caac:	4879 0001 394c 	pea 1394c <_fs>
    cab2:	4eb9 0000 e0b2 	jsr e0b2 <fatfs_add_file_entry>
    cab8:	4fef 001c      	lea %sp@(28),%sp
    cabc:	4a80           	tstl %d0
    cabe:	677c           	beqs cb3c <fl_createdirectory+0x25a>
    cac0:	42aa 000c      	clrl %a2@(12)
    cac4:	42aa 0008      	clrl %a2@(8)
    cac8:	70ff           	moveq #-1,%d0
    caca:	2540 0830      	movel %d0,%a2@(2096)
    cace:	42aa 0834      	clrl %a2@(2100)
    cad2:	42aa 0010      	clrl %a2@(16)
    cad6:	2540 0628      	movel %d0,%a2@(1576)
    cada:	2540 062c      	movel %d0,%a2@(1580)
    cade:	4879 0001 394c 	pea 1394c <_fs>
    cae4:	4eb9 0000 da0e 	jsr da0e <fatfs_fat_purge>
    caea:	2f0a           	movel %a2,%sp@-
    caec:	4eb9 0000 b816 	jsr b816 <_free_file>
    caf2:	508f           	addql #8,%sp
    caf4:	7401           	moveq #1,%d2
    caf6:	2079 0001 3986 	moveal 13986 <_fs+0x3a>,%a0
    cafc:	b0fc 0000      	cmpaw #0,%a0
    cb00:	6702           	beqs cb04 <fl_createdirectory+0x222>
    cb02:	4e90           	jsr %a0@
    cb04:	2002           	movel %d2,%d0
    cb06:	4cee 3c1c ffb8 	moveml %fp@(-72),%d2-%d4/%a2-%a5
    cb0c:	4e5e           	unlk %fp
    cb0e:	4e75           	rts
    cb10:	2f0a           	movel %a2,%sp@-
    cb12:	4eb9 0000 b816 	jsr b816 <_free_file>
    cb18:	588f           	addql #4,%sp
    cb1a:	7400           	moveq #0,%d2
    cb1c:	60d8           	bras caf6 <fl_createdirectory+0x214>
    cb1e:	4eb9 0000 ba78 	jsr ba78 <fl_init>
    cb24:	6000 fdce      	braw c8f4 <fl_createdirectory+0x12>
    cb28:	4879 0001 394c 	pea 1394c <_fs>
    cb2e:	4eb9 0000 e898 	jsr e898 <fatfs_get_root_cluster>
    cb34:	2480           	movel %d0,%a2@
    cb36:	588f           	addql #4,%sp
    cb38:	6000 fe36      	braw c970 <fl_createdirectory+0x8e>
    cb3c:	2f2a 0004      	movel %a2@(4),%sp@-
    cb40:	4879 0001 394c 	pea 1394c <_fs>
    cb46:	4eb9 0000 ddae 	jsr ddae <fatfs_free_cluster_chain>
    cb4c:	2f0a           	movel %a2,%sp@-
    cb4e:	4eb9 0000 b816 	jsr b816 <_free_file>
    cb54:	4fef 000c      	lea %sp@(12),%sp
    cb58:	7400           	moveq #0,%d2
    cb5a:	609a           	bras caf6 <fl_createdirectory+0x214>

0000cb5c <fatfs_lfn_cache_init>:
    cb5c:	226f 0004      	moveal %sp@(4),%a1
    cb60:	4229 0105      	clrb %a1@(261)
    cb64:	4aaf 0008      	tstl %sp@(8)
    cb68:	672c           	beqs cb96 <fatfs_lfn_cache_init+0x3a>
    cb6a:	2009           	movel %a1,%d0
    cb6c:	0680 0000 0104 	addil #260,%d0
    cb72:	2049           	moveal %a1,%a0
    cb74:	4218           	clrb %a0@+
    cb76:	4218           	clrb %a0@+
    cb78:	4218           	clrb %a0@+
    cb7a:	4218           	clrb %a0@+
    cb7c:	4218           	clrb %a0@+
    cb7e:	4218           	clrb %a0@+
    cb80:	4218           	clrb %a0@+
    cb82:	4218           	clrb %a0@+
    cb84:	4218           	clrb %a0@+
    cb86:	4218           	clrb %a0@+
    cb88:	4218           	clrb %a0@+
    cb8a:	4218           	clrb %a0@+
    cb8c:	4210           	clrb %a0@
    cb8e:	43e9 000d      	lea %a1@(13),%a1
    cb92:	b089           	cmpl %a1,%d0
    cb94:	66dc           	bnes cb72 <fatfs_lfn_cache_init+0x16>
    cb96:	4e75           	rts

0000cb98 <fatfs_lfn_cache_entry>:
    cb98:	2f0a           	movel %a2,%sp@-
    cb9a:	246f 0008      	moveal %sp@(8),%a2
    cb9e:	226f 000c      	moveal %sp@(12),%a1
    cba2:	1011           	moveb %a1@,%d0
    cba4:	0200 001f      	andib #31,%d0
    cba8:	1200           	moveb %d0,%d1
    cbaa:	5301           	subqb #1,%d1
    cbac:	0c01 0013      	cmpib #19,%d1
    cbb0:	627c           	bhis cc2e <fatfs_lfn_cache_entry+0x96>
    cbb2:	4a2a 0105      	tstb %a2@(261)
    cbb6:	6604           	bnes cbbc <fatfs_lfn_cache_entry+0x24>
    cbb8:	1540 0105      	moveb %d0,%a2@(261)
    cbbc:	7200           	moveq #0,%d1
    cbbe:	1200           	moveb %d0,%d1
    cbc0:	5381           	subql #1,%d1
    cbc2:	2001           	movel %d1,%d0
    cbc4:	d081           	addl %d1,%d0
    cbc6:	d081           	addl %d1,%d0
    cbc8:	d080           	addl %d0,%d0
    cbca:	d080           	addl %d0,%d0
    cbcc:	d081           	addl %d1,%d0
    cbce:	15a9 0001 0800 	moveb %a1@(1),%a2@(0,%d0:l)
    cbd4:	41f2 0800      	lea %a2@(0,%d0:l),%a0
    cbd8:	1169 0003 0001 	moveb %a1@(3),%a0@(1)
    cbde:	1169 0005 0002 	moveb %a1@(5),%a0@(2)
    cbe4:	1169 0007 0003 	moveb %a1@(7),%a0@(3)
    cbea:	1169 0009 0004 	moveb %a1@(9),%a0@(4)
    cbf0:	1169 000e 0005 	moveb %a1@(14),%a0@(5)
    cbf6:	1169 0010 0006 	moveb %a1@(16),%a0@(6)
    cbfc:	1169 0012 0007 	moveb %a1@(18),%a0@(7)
    cc02:	1169 0014 0008 	moveb %a1@(20),%a0@(8)
    cc08:	1169 0016 0009 	moveb %a1@(22),%a0@(9)
    cc0e:	1169 0018 000a 	moveb %a1@(24),%a0@(10)
    cc14:	1169 001c 000b 	moveb %a1@(28),%a0@(11)
    cc1a:	1169 001e 000c 	moveb %a1@(30),%a0@(12)
    cc20:	43f2 080d      	lea %a2@(d,%d0:l),%a1
    cc24:	0c18 ffff      	cmpib #-1,%a0@+
    cc28:	6708           	beqs cc32 <fatfs_lfn_cache_entry+0x9a>
    cc2a:	b3c8           	cmpal %a0,%a1
    cc2c:	66f6           	bnes cc24 <fatfs_lfn_cache_entry+0x8c>
    cc2e:	245f           	moveal %sp@+,%a2
    cc30:	4e75           	rts
    cc32:	117c 0020 ffff 	moveb #32,%a0@(-1)
    cc38:	b3c8           	cmpal %a0,%a1
    cc3a:	66e8           	bnes cc24 <fatfs_lfn_cache_entry+0x8c>
    cc3c:	60f0           	bras cc2e <fatfs_lfn_cache_entry+0x96>

0000cc3e <fatfs_lfn_cache_get>:
    cc3e:	202f 0004      	movel %sp@(4),%d0
    cc42:	2040           	moveal %d0,%a0
    cc44:	1228 0105      	moveb %a0@(261),%d1
    cc48:	0c01 0014      	cmpib #20,%d1
    cc4c:	6722           	beqs cc70 <fatfs_lfn_cache_get+0x32>
    cc4e:	4a01           	tstb %d1
    cc50:	671a           	beqs cc6c <fatfs_lfn_cache_get+0x2e>
    cc52:	0281 0000 00ff 	andil #255,%d1
    cc58:	2041           	moveal %d1,%a0
    cc5a:	d1c1           	addal %d1,%a0
    cc5c:	d1c1           	addal %d1,%a0
    cc5e:	d1c8           	addal %a0,%a0
    cc60:	d1c8           	addal %a0,%a0
    cc62:	d288           	addl %a0,%d1
    cc64:	2041           	moveal %d1,%a0
    cc66:	4230 0800      	clrb %a0@(0,%d0:l)
    cc6a:	4e75           	rts
    cc6c:	4210           	clrb %a0@
    cc6e:	4e75           	rts
    cc70:	4228 0104      	clrb %a0@(260)
    cc74:	4e75           	rts

0000cc76 <fatfs_entry_lfn_text>:
    cc76:	206f 0004      	moveal %sp@(4),%a0
    cc7a:	1028 000b      	moveb %a0@(11),%d0
    cc7e:	0200 000f      	andib #15,%d0
    cc82:	0c00 000f      	cmpib #15,%d0
    cc86:	57c0           	seq %d0
    cc88:	4880           	extw %d0
    cc8a:	48c0           	extl %d0
    cc8c:	4480           	negl %d0
    cc8e:	4e75           	rts

0000cc90 <fatfs_entry_lfn_invalid>:
    cc90:	206f 0004      	moveal %sp@(4),%a0
    cc94:	1010           	moveb %a0@,%d0
    cc96:	6724           	beqs ccbc <fatfs_entry_lfn_invalid+0x2c>
    cc98:	1010           	moveb %a0@,%d0
    cc9a:	0c00 ffe5      	cmpib #-27,%d0
    cc9e:	671c           	beqs ccbc <fatfs_entry_lfn_invalid+0x2c>
    cca0:	1028 000b      	moveb %a0@(11),%d0
    cca4:	0c00 0008      	cmpib #8,%d0
    cca8:	6712           	beqs ccbc <fatfs_entry_lfn_invalid+0x2c>
    ccaa:	1028 000b      	moveb %a0@(11),%d0
    ccae:	0200 0006      	andib #6,%d0
    ccb2:	56c0           	sne %d0
    ccb4:	4880           	extw %d0
    ccb6:	48c0           	extl %d0
    ccb8:	4480           	negl %d0
    ccba:	4e75           	rts
    ccbc:	7001           	moveq #1,%d0
    ccbe:	4e75           	rts

0000ccc0 <fatfs_entry_lfn_exists>:
    ccc0:	206f 0008      	moveal %sp@(8),%a0
    ccc4:	1028 000b      	moveb %a0@(11),%d0
    ccc8:	0c00 000f      	cmpib #15,%d0
    cccc:	6732           	beqs cd00 <fatfs_entry_lfn_exists+0x40>
    ccce:	1010           	moveb %a0@,%d0
    ccd0:	672e           	beqs cd00 <fatfs_entry_lfn_exists+0x40>
    ccd2:	1010           	moveb %a0@,%d0
    ccd4:	0c00 ffe5      	cmpib #-27,%d0
    ccd8:	6726           	beqs cd00 <fatfs_entry_lfn_exists+0x40>
    ccda:	1028 000b      	moveb %a0@(11),%d0
    ccde:	0c00 0008      	cmpib #8,%d0
    cce2:	671c           	beqs cd00 <fatfs_entry_lfn_exists+0x40>
    cce4:	1028 000b      	moveb %a0@(11),%d0
    cce8:	0200 0006      	andib #6,%d0
    ccec:	6612           	bnes cd00 <fatfs_entry_lfn_exists+0x40>
    ccee:	206f 0004      	moveal %sp@(4),%a0
    ccf2:	4a28 0105      	tstb %a0@(261)
    ccf6:	56c0           	sne %d0
    ccf8:	4880           	extw %d0
    ccfa:	48c0           	extl %d0
    ccfc:	4480           	negl %d0
    ccfe:	4e75           	rts
    cd00:	7000           	moveq #0,%d0
    cd02:	4e75           	rts

0000cd04 <fatfs_entry_sfn_only>:
    cd04:	206f 0004      	moveal %sp@(4),%a0
    cd08:	1028 000b      	moveb %a0@(11),%d0
    cd0c:	0c00 000f      	cmpib #15,%d0
    cd10:	6728           	beqs cd3a <fatfs_entry_sfn_only+0x36>
    cd12:	1010           	moveb %a0@,%d0
    cd14:	6724           	beqs cd3a <fatfs_entry_sfn_only+0x36>
    cd16:	1010           	moveb %a0@,%d0
    cd18:	0c00 ffe5      	cmpib #-27,%d0
    cd1c:	671c           	beqs cd3a <fatfs_entry_sfn_only+0x36>
    cd1e:	1028 000b      	moveb %a0@(11),%d0
    cd22:	0c00 0008      	cmpib #8,%d0
    cd26:	6712           	beqs cd3a <fatfs_entry_sfn_only+0x36>
    cd28:	1028 000b      	moveb %a0@(11),%d0
    cd2c:	0200 0006      	andib #6,%d0
    cd30:	57c0           	seq %d0
    cd32:	4880           	extw %d0
    cd34:	48c0           	extl %d0
    cd36:	4480           	negl %d0
    cd38:	4e75           	rts
    cd3a:	7000           	moveq #0,%d0
    cd3c:	4e75           	rts

0000cd3e <fatfs_entry_is_dir>:
    cd3e:	206f 0004      	moveal %sp@(4),%a0
    cd42:	1028 000b      	moveb %a0@(11),%d0
    cd46:	e808           	lsrb #4,%d0
    cd48:	7201           	moveq #1,%d1
    cd4a:	c081           	andl %d1,%d0
    cd4c:	4e75           	rts

0000cd4e <fatfs_entry_is_file>:
    cd4e:	206f 0004      	moveal %sp@(4),%a0
    cd52:	1028 000b      	moveb %a0@(11),%d0
    cd56:	ea08           	lsrb #5,%d0
    cd58:	7201           	moveq #1,%d1
    cd5a:	c081           	andl %d1,%d0
    cd5c:	4e75           	rts

0000cd5e <fatfs_lfn_entries_required>:
    cd5e:	2f2f 0004      	movel %sp@(4),%sp@-
    cd62:	4eb9 0000 5afc 	jsr 5afc <strlen>
    cd68:	588f           	addql #4,%sp
    cd6a:	4a80           	tstl %d0
    cd6c:	6714           	beqs cd82 <fatfs_lfn_entries_required+0x24>
    cd6e:	4878 000d      	pea d <DUART_CTUR+0x1>
    cd72:	2040           	moveal %d0,%a0
    cd74:	4868 000c      	pea %a0@(12)
    cd78:	4eb9 0000 eed0 	jsr eed0 <__divsi3>
    cd7e:	508f           	addql #8,%sp
    cd80:	4e75           	rts
    cd82:	7000           	moveq #0,%d0
    cd84:	4e75           	rts

0000cd86 <fatfs_filename_to_lfn>:
    cd86:	4fef ffcc      	lea %sp@(-52),%sp
    cd8a:	48e7 383e      	moveml %d2-%d4/%a2-%fp,%sp@-
    cd8e:	2a6f 0058      	moveal %sp@(88),%a5
    cd92:	286f 005c      	moveal %sp@(92),%a4
    cd96:	262f 0060      	movel %sp@(96),%d3
    cd9a:	282f 0064      	movel %sp@(100),%d4
    cd9e:	7003           	moveq #3,%d0
    cda0:	2f40 0024      	movel %d0,%sp@(36)
    cda4:	7005           	moveq #5,%d0
    cda6:	2f40 0028      	movel %d0,%sp@(40)
    cdaa:	7007           	moveq #7,%d0
    cdac:	2f40 002c      	movel %d0,%sp@(44)
    cdb0:	7009           	moveq #9,%d0
    cdb2:	2f40 0030      	movel %d0,%sp@(48)
    cdb6:	700e           	moveq #14,%d0
    cdb8:	2f40 0034      	movel %d0,%sp@(52)
    cdbc:	7010           	moveq #16,%d0
    cdbe:	2f40 0038      	movel %d0,%sp@(56)
    cdc2:	7012           	moveq #18,%d0
    cdc4:	2f40 003c      	movel %d0,%sp@(60)
    cdc8:	7014           	moveq #20,%d0
    cdca:	2f40 0040      	movel %d0,%sp@(64)
    cdce:	7016           	moveq #22,%d0
    cdd0:	2f40 0044      	movel %d0,%sp@(68)
    cdd4:	7018           	moveq #24,%d0
    cdd6:	2f40 0048      	movel %d0,%sp@(72)
    cdda:	701c           	moveq #28,%d0
    cddc:	2f40 004c      	movel %d0,%sp@(76)
    cde0:	701e           	moveq #30,%d0
    cde2:	2f40 0050      	movel %d0,%sp@(80)
    cde6:	2f0d           	movel %a5,%sp@-
    cde8:	4eb9 0000 5afc 	jsr 5afc <strlen>
    cdee:	588f           	addql #4,%sp
    cdf0:	2640           	moveal %d0,%a3
    cdf2:	4a80           	tstl %d0
    cdf4:	6700 009c      	beqw ce92 <fatfs_filename_to_lfn+0x10c>
    cdf8:	4878 000d      	pea d <DUART_CTUR+0x1>
    cdfc:	486b 000c      	pea %a3@(12)
    ce00:	4eb9 0000 eed0 	jsr eed0 <__divsi3>
    ce06:	508f           	addql #8,%sp
    ce08:	2440           	moveal %d0,%a2
    ce0a:	538a           	subql #1,%a2
    ce0c:	2003           	movel %d3,%d0
    ce0e:	d083           	addl %d3,%d0
    ce10:	2200           	movel %d0,%d1
    ce12:	d283           	addl %d3,%d1
    ce14:	d281           	addl %d1,%d1
    ce16:	d281           	addl %d1,%d1
    ce18:	2401           	movel %d1,%d2
    ce1a:	d483           	addl %d3,%d2
    ce1c:	4878 001f      	pea 1f <R_STOPCNTCMD+0x1>
    ce20:	42a7           	clrl %sp@-
    ce22:	486c 0001      	pea %a4@(1)
    ce26:	4eb9 0000 263c 	jsr 263c <memset>
    ce2c:	1003           	moveb %d3,%d0
    ce2e:	5200           	addqb #1,%d0
    ce30:	4fef 000c      	lea %sp@(12),%sp
    ce34:	b5c3           	cmpal %d3,%a2
    ce36:	6700 008c      	beqw cec4 <fatfs_filename_to_lfn+0x13e>
    ce3a:	1880           	moveb %d0,%a4@
    ce3c:	197c 000f 000b 	moveb #15,%a4@(11)
    ce42:	1944 000d      	moveb %d4,%a4@(13)
    ce46:	2202           	movel %d2,%d1
    ce48:	41ef 0020      	lea %sp@(32),%a0
    ce4c:	4def 0054      	lea %sp@(84),%fp
    ce50:	327c 0001      	moveaw #1,%a1
    ce54:	45f4 9800      	lea %a4@(0,%a1:l),%a2
    ce58:	b28b           	cmpl %a3,%d1
    ce5a:	6c16           	bges ce72 <fatfs_filename_to_lfn+0xec>
    ce5c:	14b5 1800      	moveb %a5@(0,%d1:l),%a2@
    ce60:	5281           	addql #1,%d1
    ce62:	5888           	addql #4,%a0
    ce64:	b1ce           	cmpal %fp,%a0
    ce66:	671c           	beqs ce84 <fatfs_filename_to_lfn+0xfe>
    ce68:	2250           	moveal %a0@,%a1
    ce6a:	45f4 9800      	lea %a4@(0,%a1:l),%a2
    ce6e:	b28b           	cmpl %a3,%d1
    ce70:	6dea           	blts ce5c <fatfs_filename_to_lfn+0xd6>
    ce72:	b28b           	cmpl %a3,%d1
    ce74:	6718           	beqs ce8e <fatfs_filename_to_lfn+0x108>
    ce76:	50d2           	st %a2@
    ce78:	50f4 9801      	st %a4@(1,%a1:l)
    ce7c:	5281           	addql #1,%d1
    ce7e:	5888           	addql #4,%a0
    ce80:	b1ce           	cmpal %fp,%a0
    ce82:	66e4           	bnes ce68 <fatfs_filename_to_lfn+0xe2>
    ce84:	4cdf 7c1c      	moveml %sp@+,%d2-%d4/%a2-%fp
    ce88:	4fef 0034      	lea %sp@(52),%sp
    ce8c:	4e75           	rts
    ce8e:	4212           	clrb %a2@
    ce90:	60ce           	bras ce60 <fatfs_filename_to_lfn+0xda>
    ce92:	347c ffff      	moveaw #-1,%a2
    ce96:	2003           	movel %d3,%d0
    ce98:	d083           	addl %d3,%d0
    ce9a:	2200           	movel %d0,%d1
    ce9c:	d283           	addl %d3,%d1
    ce9e:	d281           	addl %d1,%d1
    cea0:	d281           	addl %d1,%d1
    cea2:	2401           	movel %d1,%d2
    cea4:	d483           	addl %d3,%d2
    cea6:	4878 001f      	pea 1f <R_STOPCNTCMD+0x1>
    ceaa:	42a7           	clrl %sp@-
    ceac:	486c 0001      	pea %a4@(1)
    ceb0:	4eb9 0000 263c 	jsr 263c <memset>
    ceb6:	1003           	moveb %d3,%d0
    ceb8:	5200           	addqb #1,%d0
    ceba:	4fef 000c      	lea %sp@(12),%sp
    cebe:	b5c3           	cmpal %d3,%a2
    cec0:	6600 ff78      	bnew ce3a <fatfs_filename_to_lfn+0xb4>
    cec4:	0000 0040      	orib #64,%d0
    cec8:	1880           	moveb %d0,%a4@
    ceca:	197c 000f 000b 	moveb #15,%a4@(11)
    ced0:	1944 000d      	moveb %d4,%a4@(13)
    ced4:	2202           	movel %d2,%d1
    ced6:	41ef 0020      	lea %sp@(32),%a0
    ceda:	4def 0054      	lea %sp@(84),%fp
    cede:	327c 0001      	moveaw #1,%a1
    cee2:	6000 ff70      	braw ce54 <fatfs_filename_to_lfn+0xce>

0000cee6 <fatfs_sfn_create_entry>:
    cee6:	2f03           	movel %d3,%sp@-
    cee8:	2f02           	movel %d2,%sp@-
    ceea:	226f 000c      	moveal %sp@(12),%a1
    ceee:	222f 0014      	movel %sp@(20),%d1
    cef2:	206f 0018      	moveal %sp@(24),%a0
    cef6:	7000           	moveq #0,%d0
    cef8:	11b1 0800 0800 	moveb %a1@(0,%d0:l),%a0@(0,%d0:l)
    cefe:	5280           	addql #1,%d0
    cf00:	740b           	moveq #11,%d2
    cf02:	b480           	cmpl %d0,%d2
    cf04:	66f2           	bnes cef8 <fatfs_sfn_create_entry+0x12>
    cf06:	117c 0000 000d 	moveb #0,%a0@(13)
    cf0c:	117c 0000 000e 	moveb #0,%a0@(14)
    cf12:	117c 0000 000f 	moveb #0,%a0@(15)
    cf18:	117c 0000 0011 	moveb #0,%a0@(17)
    cf1e:	117c 0020 0010 	moveb #32,%a0@(16)
    cf24:	117c 0000 0013 	moveb #0,%a0@(19)
    cf2a:	117c 0020 0012 	moveb #32,%a0@(18)
    cf30:	117c 0000 0016 	moveb #0,%a0@(22)
    cf36:	117c 0000 0017 	moveb #0,%a0@(23)
    cf3c:	117c 0000 0019 	moveb #0,%a0@(25)
    cf42:	117c 0020 0018 	moveb #32,%a0@(24)
    cf48:	4aaf 001c      	tstl %sp@(28)
    cf4c:	6600 00a6      	bnew cff4 <fatfs_sfn_create_entry+0x10e>
    cf50:	117c 0020 000b 	moveb #32,%a0@(11)
    cf56:	117c 0000 000c 	moveb #0,%a0@(12)
    cf5c:	2001           	movel %d1,%d0
    cf5e:	4240           	clrw %d0
    cf60:	4840           	swap %d0
    cf62:	3400           	movew %d0,%d2
    cf64:	e05a           	rorw #8,%d2
    cf66:	0280 0000 00ff 	andil #255,%d0
    cf6c:	1628 0014      	moveb %a0@(20),%d3
    cf70:	1140 0014      	moveb %d0,%a0@(20)
    cf74:	7000           	moveq #0,%d0
    cf76:	1002           	moveb %d2,%d0
    cf78:	1428 0015      	moveb %a0@(21),%d2
    cf7c:	1140 0015      	moveb %d0,%a0@(21)
    cf80:	3001           	movew %d1,%d0
    cf82:	e058           	rorw #8,%d0
    cf84:	0281 0000 00ff 	andil #255,%d1
    cf8a:	1428 001a      	moveb %a0@(26),%d2
    cf8e:	1141 001a      	moveb %d1,%a0@(26)
    cf92:	0280 0000 00ff 	andil #255,%d0
    cf98:	1228 001b      	moveb %a0@(27),%d1
    cf9c:	1140 001b      	moveb %d0,%a0@(27)
    cfa0:	202f 0010      	movel %sp@(16),%d0
    cfa4:	e058           	rorw #8,%d0
    cfa6:	4840           	swap %d0
    cfa8:	e058           	rorw #8,%d0
    cfaa:	2200           	movel %d0,%d1
    cfac:	4241           	clrw %d1
    cfae:	4841           	swap %d1
    cfb0:	e049           	lsrw #8,%d1
    cfb2:	1428 001c      	moveb %a0@(28),%d2
    cfb6:	1141 001c      	moveb %d1,%a0@(28)
    cfba:	2200           	movel %d0,%d1
    cfbc:	4241           	clrw %d1
    cfbe:	4841           	swap %d1
    cfc0:	7400           	moveq #0,%d2
    cfc2:	4602           	notb %d2
    cfc4:	c282           	andl %d2,%d1
    cfc6:	1428 001d      	moveb %a0@(29),%d2
    cfca:	1141 001d      	moveb %d1,%a0@(29)
    cfce:	2200           	movel %d0,%d1
    cfd0:	e089           	lsrl #8,%d1
    cfd2:	7400           	moveq #0,%d2
    cfd4:	4602           	notb %d2
    cfd6:	c282           	andl %d2,%d1
    cfd8:	1428 001e      	moveb %a0@(30),%d2
    cfdc:	1141 001e      	moveb %d1,%a0@(30)
    cfe0:	7200           	moveq #0,%d1
    cfe2:	4601           	notb %d1
    cfe4:	c081           	andl %d1,%d0
    cfe6:	1228 001f      	moveb %a0@(31),%d1
    cfea:	1140 001f      	moveb %d0,%a0@(31)
    cfee:	241f           	movel %sp@+,%d2
    cff0:	261f           	movel %sp@+,%d3
    cff2:	4e75           	rts
    cff4:	117c 0010 000b 	moveb #16,%a0@(11)
    cffa:	117c 0000 000c 	moveb #0,%a0@(12)
    d000:	2001           	movel %d1,%d0
    d002:	4240           	clrw %d0
    d004:	4840           	swap %d0
    d006:	3400           	movew %d0,%d2
    d008:	e05a           	rorw #8,%d2
    d00a:	0280 0000 00ff 	andil #255,%d0
    d010:	1628 0014      	moveb %a0@(20),%d3
    d014:	1140 0014      	moveb %d0,%a0@(20)
    d018:	7000           	moveq #0,%d0
    d01a:	1002           	moveb %d2,%d0
    d01c:	1428 0015      	moveb %a0@(21),%d2
    d020:	1140 0015      	moveb %d0,%a0@(21)
    d024:	3001           	movew %d1,%d0
    d026:	e058           	rorw #8,%d0
    d028:	0281 0000 00ff 	andil #255,%d1
    d02e:	1428 001a      	moveb %a0@(26),%d2
    d032:	1141 001a      	moveb %d1,%a0@(26)
    d036:	0280 0000 00ff 	andil #255,%d0
    d03c:	1228 001b      	moveb %a0@(27),%d1
    d040:	1140 001b      	moveb %d0,%a0@(27)
    d044:	202f 0010      	movel %sp@(16),%d0
    d048:	e058           	rorw #8,%d0
    d04a:	4840           	swap %d0
    d04c:	e058           	rorw #8,%d0
    d04e:	2200           	movel %d0,%d1
    d050:	4241           	clrw %d1
    d052:	4841           	swap %d1
    d054:	e049           	lsrw #8,%d1
    d056:	1428 001c      	moveb %a0@(28),%d2
    d05a:	1141 001c      	moveb %d1,%a0@(28)
    d05e:	2200           	movel %d0,%d1
    d060:	4241           	clrw %d1
    d062:	4841           	swap %d1
    d064:	7400           	moveq #0,%d2
    d066:	4602           	notb %d2
    d068:	c282           	andl %d2,%d1
    d06a:	1428 001d      	moveb %a0@(29),%d2
    d06e:	1141 001d      	moveb %d1,%a0@(29)
    d072:	2200           	movel %d0,%d1
    d074:	e089           	lsrl #8,%d1
    d076:	7400           	moveq #0,%d2
    d078:	4602           	notb %d2
    d07a:	c282           	andl %d2,%d1
    d07c:	1428 001e      	moveb %a0@(30),%d2
    d080:	1141 001e      	moveb %d1,%a0@(30)
    d084:	7200           	moveq #0,%d1
    d086:	4601           	notb %d1
    d088:	c081           	andl %d1,%d0
    d08a:	1228 001f      	moveb %a0@(31),%d1
    d08e:	1140 001f      	moveb %d0,%a0@(31)
    d092:	241f           	movel %sp@+,%d2
    d094:	261f           	movel %sp@+,%d3
    d096:	4e75           	rts

0000d098 <fatfs_lfn_create_sfn>:
    d098:	598f           	subql #4,%sp
    d09a:	48e7 2030      	moveml %d2/%a2-%a3,%sp@-
    d09e:	266f 0014      	moveal %sp@(20),%a3
    d0a2:	246f 0018      	moveal %sp@(24),%a2
    d0a6:	0c12 002e      	cmpib #46,%a2@
    d0aa:	6700 0104      	beqw d1b0 <fatfs_lfn_create_sfn+0x118>
    d0ae:	2f0a           	movel %a2,%sp@-
    d0b0:	4eb9 0000 5afc 	jsr 5afc <strlen>
    d0b6:	588f           	addql #4,%sp
    d0b8:	204b           	moveal %a3,%a0
    d0ba:	10fc 0020      	moveb #32,%a0@+
    d0be:	10fc 0020      	moveb #32,%a0@+
    d0c2:	10fc 0020      	moveb #32,%a0@+
    d0c6:	10fc 0020      	moveb #32,%a0@+
    d0ca:	10fc 0020      	moveb #32,%a0@+
    d0ce:	10fc 0020      	moveb #32,%a0@+
    d0d2:	10fc 0020      	moveb #32,%a0@+
    d0d6:	10fc 0020      	moveb #32,%a0@+
    d0da:	10fc 0020      	moveb #32,%a0@+
    d0de:	10fc 0020      	moveb #32,%a0@+
    d0e2:	10bc 0020      	moveb #32,%a0@
    d0e6:	1f7c 0020 000d 	moveb #32,%sp@(13)
    d0ec:	1f7c 0020 000e 	moveb #32,%sp@(14)
    d0f2:	1f7c 0020 000f 	moveb #32,%sp@(15)
    d0f8:	4a80           	tstl %d0
    d0fa:	6778           	beqs d174 <fatfs_lfn_create_sfn+0xdc>
    d0fc:	327c ffff      	moveaw #-1,%a1
    d100:	7200           	moveq #0,%d1
    d102:	0c32 002e 1800 	cmpib #46,%a2@(0,%d1:l)
    d108:	6700 0098      	beqw d1a2 <fatfs_lfn_create_sfn+0x10a>
    d10c:	5281           	addql #1,%d1
    d10e:	b280           	cmpl %d0,%d1
    d110:	66f0           	bnes d102 <fatfs_lfn_create_sfn+0x6a>
    d112:	74ff           	moveq #-1,%d2
    d114:	b489           	cmpl %a1,%d2
    d116:	6700 00a2      	beqw d1ba <fatfs_lfn_create_sfn+0x122>
    d11a:	2009           	movel %a1,%d0
    d11c:	5280           	addql #1,%d0
    d11e:	41ef 000d      	lea %sp@(13),%a0
    d122:	2409           	movel %a1,%d2
    d124:	5882           	addql #4,%d2
    d126:	b280           	cmpl %d0,%d1
    d128:	6f04           	bles d12e <fatfs_lfn_create_sfn+0x96>
    d12a:	10b2 0800      	moveb %a2@(0,%d0:l),%a0@
    d12e:	5280           	addql #1,%d0
    d130:	5288           	addql #1,%a0
    d132:	b082           	cmpl %d2,%d0
    d134:	66f0           	bnes d126 <fatfs_lfn_create_sfn+0x8e>
    d136:	b2fc 0000      	cmpaw #0,%a1
    d13a:	6f38           	bles d174 <fatfs_lfn_create_sfn+0xdc>
    d13c:	204a           	moveal %a2,%a0
    d13e:	43f2 9800      	lea %a2@(0,%a1:l),%a1
    d142:	7200           	moveq #0,%d1
    d144:	1018           	moveb %a0@+,%d0
    d146:	0c00 0020      	cmpib #32,%d0
    d14a:	6724           	beqs d170 <fatfs_lfn_create_sfn+0xd8>
    d14c:	0c00 002e      	cmpib #46,%d0
    d150:	671e           	beqs d170 <fatfs_lfn_create_sfn+0xd8>
    d152:	45f3 1800      	lea %a3@(0,%d1:l),%a2
    d156:	5281           	addql #1,%d1
    d158:	1400           	moveb %d0,%d2
    d15a:	0602 ff9f      	addib #-97,%d2
    d15e:	0c02 0019      	cmpib #25,%d2
    d162:	6204           	bhis d168 <fatfs_lfn_create_sfn+0xd0>
    d164:	0600 ffe0      	addib #-32,%d0
    d168:	1480           	moveb %d0,%a2@
    d16a:	7008           	moveq #8,%d0
    d16c:	b081           	cmpl %d1,%d0
    d16e:	6704           	beqs d174 <fatfs_lfn_create_sfn+0xdc>
    d170:	b3c8           	cmpal %a0,%a1
    d172:	66d0           	bnes d144 <fatfs_lfn_create_sfn+0xac>
    d174:	43ef 000d      	lea %sp@(13),%a1
    d178:	41eb 0008      	lea %a3@(8),%a0
    d17c:	47eb 000b      	lea %a3@(11),%a3
    d180:	1019           	moveb %a1@+,%d0
    d182:	1200           	moveb %d0,%d1
    d184:	0601 ff9f      	addib #-97,%d1
    d188:	0c01 0019      	cmpib #25,%d1
    d18c:	6204           	bhis d192 <fatfs_lfn_create_sfn+0xfa>
    d18e:	0600 ffe0      	addib #-32,%d0
    d192:	10c0           	moveb %d0,%a0@+
    d194:	b7c8           	cmpal %a0,%a3
    d196:	66e8           	bnes d180 <fatfs_lfn_create_sfn+0xe8>
    d198:	7001           	moveq #1,%d0
    d19a:	4cdf 0c04      	moveml %sp@+,%d2/%a2-%a3
    d19e:	588f           	addql #4,%sp
    d1a0:	4e75           	rts
    d1a2:	2241           	moveal %d1,%a1
    d1a4:	5281           	addql #1,%d1
    d1a6:	b280           	cmpl %d0,%d1
    d1a8:	6600 ff58      	bnew d102 <fatfs_lfn_create_sfn+0x6a>
    d1ac:	6000 ff64      	braw d112 <fatfs_lfn_create_sfn+0x7a>
    d1b0:	7000           	moveq #0,%d0
    d1b2:	4cdf 0c04      	moveml %sp@+,%d2/%a2-%a3
    d1b6:	588f           	addql #4,%sp
    d1b8:	4e75           	rts
    d1ba:	2240           	moveal %d0,%a1
    d1bc:	204a           	moveal %a2,%a0
    d1be:	43f2 9800      	lea %a2@(0,%a1:l),%a1
    d1c2:	7200           	moveq #0,%d1
    d1c4:	6000 ff7e      	braw d144 <fatfs_lfn_create_sfn+0xac>

0000d1c8 <fatfs_lfn_generate_tail>:
    d1c8:	4e56 ffd4      	linkw %fp,#-44
    d1cc:	48e7 383c      	moveml %d2-%d4/%a2-%a5,%sp@-
    d1d0:	242e 0010      	movel %fp@(16),%d2
    d1d4:	0c82 0001 869f 	cmpil #99999,%d2
    d1da:	630c           	blss d1e8 <fatfs_lfn_generate_tail+0x20>
    d1dc:	7000           	moveq #0,%d0
    d1de:	4cee 3c1c ffb8 	moveml %fp@(-72),%d2-%d4/%a2-%a5
    d1e4:	4e5e           	unlk %fp
    d1e6:	4e75           	rts
    d1e8:	422e ffd8      	clrb %fp@(-40)
    d1ec:	422e ffd9      	clrb %fp@(-39)
    d1f0:	422e ffda      	clrb %fp@(-38)
    d1f4:	422e ffdb      	clrb %fp@(-37)
    d1f8:	422e ffdc      	clrb %fp@(-36)
    d1fc:	422e ffdd      	clrb %fp@(-35)
    d200:	422e ffde      	clrb %fp@(-34)
    d204:	422e ffdf      	clrb %fp@(-33)
    d208:	422e ffe0      	clrb %fp@(-32)
    d20c:	422e ffe1      	clrb %fp@(-31)
    d210:	422e ffe2      	clrb %fp@(-30)
    d214:	1d7c 007e ffd7 	moveb #126,%fp@(-41)
    d21a:	4878 0011      	pea 11 <DUART_MR1B+0x1>
    d21e:	4879 0001 08db 	pea 108db <_dtors_end+0x5f>
    d224:	486e ffef      	pea %fp@(-17)
    d228:	47f9 0000 5b10 	lea 5b10 <memcpy>,%a3
    d22e:	4e93           	jsr %a3@
    d230:	4fef 000c      	lea %sp@(12),%sp
    d234:	49ee ffe3      	lea %fp@(-29),%a4
    d238:	244c           	moveal %a4,%a2
    d23a:	4bf9 0000 ee74 	lea ee74 <__udivsi3>,%a5
    d240:	280a           	movel %a2,%d4
    d242:	4878 000a      	pea a <DUART_IMR>
    d246:	2f02           	movel %d2,%sp@-
    d248:	4eb9 0000 ef00 	jsr ef00 <__umodsi3>
    d24e:	508f           	addql #8,%sp
    d250:	14f6 08ef      	moveb %fp@(ffffffffffffffef,%d0:l),%a2@+
    d254:	2602           	movel %d2,%d3
    d256:	4878 000a      	pea a <DUART_IMR>
    d25a:	2f02           	movel %d2,%sp@-
    d25c:	4e95           	jsr %a5@
    d25e:	508f           	addql #8,%sp
    d260:	2400           	movel %d0,%d2
    d262:	7009           	moveq #9,%d0
    d264:	b083           	cmpl %d3,%d0
    d266:	65d8           	bcss d240 <fatfs_lfn_generate_tail+0x78>
    d268:	4212           	clrb %a2@
    d26a:	b9c4           	cmpal %d4,%a4
    d26c:	6264           	bhis d2d2 <fatfs_lfn_generate_tail+0x10a>
    d26e:	43ee ffd8      	lea %fp@(-40),%a1
    d272:	2044           	moveal %d4,%a0
    d274:	12d0           	moveb %a0@,%a1@+
    d276:	2008           	movel %a0,%d0
    d278:	5388           	subql #1,%a0
    d27a:	b08c           	cmpl %a4,%d0
    d27c:	66f6           	bnes d274 <fatfs_lfn_generate_tail+0xac>
    d27e:	988c           	subl %a4,%d4
    d280:	41f6 48d9      	lea %fp@(ffffffffffffffd9,%d4:l),%a0
    d284:	4210           	clrb %a0@
    d286:	226e 000c      	moveal %fp@(12),%a1
    d28a:	206e 0008      	moveal %fp@(8),%a0
    d28e:	10d9           	moveb %a1@+,%a0@+
    d290:	10d9           	moveb %a1@+,%a0@+
    d292:	10d9           	moveb %a1@+,%a0@+
    d294:	10d9           	moveb %a1@+,%a0@+
    d296:	10d9           	moveb %a1@+,%a0@+
    d298:	10d9           	moveb %a1@+,%a0@+
    d29a:	10d9           	moveb %a1@+,%a0@+
    d29c:	10d9           	moveb %a1@+,%a0@+
    d29e:	10d9           	moveb %a1@+,%a0@+
    d2a0:	10d9           	moveb %a1@+,%a0@+
    d2a2:	1091           	moveb %a1@,%a0@
    d2a4:	45ee ffd7      	lea %fp@(-41),%a2
    d2a8:	2f0a           	movel %a2,%sp@-
    d2aa:	4eb9 0000 5afc 	jsr 5afc <strlen>
    d2b0:	7208           	moveq #8,%d1
    d2b2:	9280           	subl %d0,%d1
    d2b4:	2e80           	movel %d0,%sp@
    d2b6:	2f0a           	movel %a2,%sp@-
    d2b8:	206e 0008      	moveal %fp@(8),%a0
    d2bc:	4870 1800      	pea %a0@(0,%d1:l)
    d2c0:	4e93           	jsr %a3@
    d2c2:	4fef 000c      	lea %sp@(12),%sp
    d2c6:	7001           	moveq #1,%d0
    d2c8:	4cee 3c1c ffb8 	moveml %fp@(-72),%d2-%d4/%a2-%a5
    d2ce:	4e5e           	unlk %fp
    d2d0:	4e75           	rts
    d2d2:	41ee ffd8      	lea %fp@(-40),%a0
    d2d6:	4210           	clrb %a0@
    d2d8:	226e 000c      	moveal %fp@(12),%a1
    d2dc:	206e 0008      	moveal %fp@(8),%a0
    d2e0:	10d9           	moveb %a1@+,%a0@+
    d2e2:	10d9           	moveb %a1@+,%a0@+
    d2e4:	10d9           	moveb %a1@+,%a0@+
    d2e6:	10d9           	moveb %a1@+,%a0@+
    d2e8:	10d9           	moveb %a1@+,%a0@+
    d2ea:	10d9           	moveb %a1@+,%a0@+
    d2ec:	10d9           	moveb %a1@+,%a0@+
    d2ee:	10d9           	moveb %a1@+,%a0@+
    d2f0:	10d9           	moveb %a1@+,%a0@+
    d2f2:	10d9           	moveb %a1@+,%a0@+
    d2f4:	1091           	moveb %a1@,%a0@
    d2f6:	45ee ffd7      	lea %fp@(-41),%a2
    d2fa:	2f0a           	movel %a2,%sp@-
    d2fc:	4eb9 0000 5afc 	jsr 5afc <strlen>
    d302:	7208           	moveq #8,%d1
    d304:	9280           	subl %d0,%d1
    d306:	2e80           	movel %d0,%sp@
    d308:	2f0a           	movel %a2,%sp@-
    d30a:	206e 0008      	moveal %fp@(8),%a0
    d30e:	4870 1800      	pea %a0@(0,%d1:l)
    d312:	4e93           	jsr %a3@
    d314:	4fef 000c      	lea %sp@(12),%sp
    d318:	7001           	moveq #1,%d0
    d31a:	60ac           	bras d2c8 <fatfs_lfn_generate_tail+0x100>

0000d31c <FileString_StrCmpNoCase>:
    d31c:	48e7 3830      	moveml %d2-%d4/%a2-%a3,%sp@-
    d320:	4aaf 0020      	tstl %sp@(32)
    d324:	6744           	beqs d36a <FileString_StrCmpNoCase+0x4e>
    d326:	246f 001c      	moveal %sp@(28),%a2
    d32a:	206f 0018      	moveal %sp@(24),%a0
    d32e:	262f 0020      	movel %sp@(32),%d3
    d332:	d688           	addl %a0,%d3
    d334:	1418           	moveb %a0@+,%d2
    d336:	121a           	moveb %a2@+,%d1
    d338:	1801           	moveb %d1,%d4
    d33a:	0604 ffbf      	addib #-65,%d4
    d33e:	1002           	moveb %d2,%d0
    d340:	0600 ffbf      	addib #-65,%d0
    d344:	0c00 0019      	cmpib #25,%d0
    d348:	622a           	bhis d374 <FileString_StrCmpNoCase+0x58>
    d34a:	0602 0020      	addib #32,%d2
    d34e:	0282 0000 00ff 	andil #255,%d2
    d354:	0c04 0019      	cmpib #25,%d4
    d358:	6342           	blss d39c <FileString_StrCmpNoCase+0x80>
    d35a:	4881           	extw %d1
    d35c:	2642           	moveal %d2,%a3
    d35e:	96c1           	subaw %d1,%a3
    d360:	b6fc 0000      	cmpaw #0,%a3
    d364:	6606           	bnes d36c <FileString_StrCmpNoCase+0x50>
    d366:	b1c3           	cmpal %d3,%a0
    d368:	66ca           	bnes d334 <FileString_StrCmpNoCase+0x18>
    d36a:	97cb           	subal %a3,%a3
    d36c:	200b           	movel %a3,%d0
    d36e:	4cdf 0c1c      	moveml %sp@+,%d2-%d4/%a2-%a3
    d372:	4e75           	rts
    d374:	1002           	moveb %d2,%d0
    d376:	4880           	extw %d0
    d378:	3240           	moveaw %d0,%a1
    d37a:	0c04 0019      	cmpib #25,%d4
    d37e:	6234           	bhis d3b4 <FileString_StrCmpNoCase+0x98>
    d380:	0601 0020      	addib #32,%d1
    d384:	0281 0000 00ff 	andil #255,%d1
    d38a:	2649           	moveal %a1,%a3
    d38c:	97c1           	subal %d1,%a3
    d38e:	b289           	cmpl %a1,%d1
    d390:	66da           	bnes d36c <FileString_StrCmpNoCase+0x50>
    d392:	4a02           	tstb %d2
    d394:	67d6           	beqs d36c <FileString_StrCmpNoCase+0x50>
    d396:	b1c3           	cmpal %d3,%a0
    d398:	669a           	bnes d334 <FileString_StrCmpNoCase+0x18>
    d39a:	60ce           	bras d36a <FileString_StrCmpNoCase+0x4e>
    d39c:	0601 0020      	addib #32,%d1
    d3a0:	0281 0000 00ff 	andil #255,%d1
    d3a6:	2642           	moveal %d2,%a3
    d3a8:	97c1           	subal %d1,%a3
    d3aa:	b282           	cmpl %d2,%d1
    d3ac:	66be           	bnes d36c <FileString_StrCmpNoCase+0x50>
    d3ae:	b1c3           	cmpal %d3,%a0
    d3b0:	6682           	bnes d334 <FileString_StrCmpNoCase+0x18>
    d3b2:	60b6           	bras d36a <FileString_StrCmpNoCase+0x4e>
    d3b4:	1001           	moveb %d1,%d0
    d3b6:	4880           	extw %d0
    d3b8:	2649           	moveal %a1,%a3
    d3ba:	96c0           	subaw %d0,%a3
    d3bc:	b6fc 0000      	cmpaw #0,%a3
    d3c0:	66aa           	bnes d36c <FileString_StrCmpNoCase+0x50>
    d3c2:	4a02           	tstb %d2
    d3c4:	67a6           	beqs d36c <FileString_StrCmpNoCase+0x50>
    d3c6:	4a01           	tstb %d1
    d3c8:	669c           	bnes d366 <FileString_StrCmpNoCase+0x4a>
    d3ca:	200b           	movel %a3,%d0
    d3cc:	4cdf 0c1c      	moveml %sp@+,%d2-%d4/%a2-%a3
    d3d0:	4e75           	rts

0000d3d2 <fatfs_total_path_levels>:
    d3d2:	2f03           	movel %d3,%sp@-
    d3d4:	2f02           	movel %d2,%sp@-
    d3d6:	206f 000c      	moveal %sp@(12),%a0
    d3da:	b0fc 0000      	cmpaw #0,%a0
    d3de:	6750           	beqs d430 <fatfs_total_path_levels+0x5e>
    d3e0:	1610           	moveb %a0@,%d3
    d3e2:	0c03 002f      	cmpib #47,%d3
    d3e6:	673e           	beqs d426 <fatfs_total_path_levels+0x54>
    d3e8:	0c28 003a 0001 	cmpib #58,%a0@(1)
    d3ee:	6708           	beqs d3f8 <fatfs_total_path_levels+0x26>
    d3f0:	0c28 005c 0002 	cmpib #92,%a0@(2)
    d3f6:	6638           	bnes d430 <fatfs_total_path_levels+0x5e>
    d3f8:	5688           	addql #3,%a0
    d3fa:	765c           	moveq #92,%d3
    d3fc:	1210           	moveb %a0@,%d1
    d3fe:	7000           	moveq #0,%d0
    d400:	4a01           	tstb %d1
    d402:	672c           	beqs d430 <fatfs_total_path_levels+0x5e>
    d404:	1401           	moveb %d1,%d2
    d406:	1228 0001      	moveb %a0@(1),%d1
    d40a:	5288           	addql #1,%a0
    d40c:	b403           	cmpb %d3,%d2
    d40e:	670a           	beqs d41a <fatfs_total_path_levels+0x48>
    d410:	4a01           	tstb %d1
    d412:	66f0           	bnes d404 <fatfs_total_path_levels+0x32>
    d414:	241f           	movel %sp@+,%d2
    d416:	261f           	movel %sp@+,%d3
    d418:	4e75           	rts
    d41a:	2240           	moveal %d0,%a1
    d41c:	5289           	addql #1,%a1
    d41e:	4a01           	tstb %d1
    d420:	67f2           	beqs d414 <fatfs_total_path_levels+0x42>
    d422:	2009           	movel %a1,%d0
    d424:	60de           	bras d404 <fatfs_total_path_levels+0x32>
    d426:	5288           	addql #1,%a0
    d428:	1210           	moveb %a0@,%d1
    d42a:	7000           	moveq #0,%d0
    d42c:	4a01           	tstb %d1
    d42e:	66d4           	bnes d404 <fatfs_total_path_levels+0x32>
    d430:	70ff           	moveq #-1,%d0
    d432:	241f           	movel %sp@+,%d2
    d434:	261f           	movel %sp@+,%d3
    d436:	4e75           	rts

0000d438 <fatfs_get_substring>:
    d438:	48e7 3c20      	moveml %d2-%d5/%a2,%sp@-
    d43c:	206f 0018      	moveal %sp@(24),%a0
    d440:	282f 001c      	movel %sp@(28),%d4
    d444:	246f 0020      	moveal %sp@(32),%a2
    d448:	b0fc 0000      	cmpaw #0,%a0
    d44c:	6700 00a0      	beqw d4ee <fatfs_get_substring+0xb6>
    d450:	4aaf 0024      	tstl %sp@(36)
    d454:	6f00 0098      	blew d4ee <fatfs_get_substring+0xb6>
    d458:	1610           	moveb %a0@,%d3
    d45a:	0c03 002f      	cmpib #47,%d3
    d45e:	676e           	beqs d4ce <fatfs_get_substring+0x96>
    d460:	0c28 003a 0001 	cmpib #58,%a0@(1)
    d466:	6708           	beqs d470 <fatfs_get_substring+0x38>
    d468:	0c28 005c 0002 	cmpib #92,%a0@(2)
    d46e:	667e           	bnes d4ee <fatfs_get_substring+0xb6>
    d470:	2408           	movel %a0,%d2
    d472:	5682           	addql #3,%d2
    d474:	765c           	moveq #92,%d3
    d476:	2f02           	movel %d2,%sp@-
    d478:	4eb9 0000 5afc 	jsr 5afc <strlen>
    d47e:	588f           	addql #4,%sp
    d480:	4a80           	tstl %d0
    d482:	675c           	beqs d4e0 <fatfs_get_substring+0xa8>
    d484:	2042           	moveal %d2,%a0
    d486:	43f0 0800      	lea %a0@(0,%d0:l),%a1
    d48a:	7400           	moveq #0,%d2
    d48c:	7200           	moveq #0,%d1
    d48e:	2a2f 0024      	movel %sp@(36),%d5
    d492:	5385           	subql #1,%d5
    d494:	1018           	moveb %a0@+,%d0
    d496:	b600           	cmpb %d0,%d3
    d498:	672c           	beqs d4c6 <fatfs_get_substring+0x8e>
    d49a:	b284           	cmpl %d4,%d1
    d49c:	6718           	beqs d4b6 <fatfs_get_substring+0x7e>
    d49e:	b3c8           	cmpal %a0,%a1
    d4a0:	66f2           	bnes d494 <fatfs_get_substring+0x5c>
    d4a2:	41f2 2800      	lea %a2@(0,%d2:l),%a0
    d4a6:	4210           	clrb %a0@
    d4a8:	4a12           	tstb %a2@
    d4aa:	57c0           	seq %d0
    d4ac:	4880           	extw %d0
    d4ae:	48c0           	extl %d0
    d4b0:	4cdf 043c      	moveml %sp@+,%d2-%d5/%a2
    d4b4:	4e75           	rts
    d4b6:	b485           	cmpl %d5,%d2
    d4b8:	6ce4           	bges d49e <fatfs_get_substring+0x66>
    d4ba:	1580 2800      	moveb %d0,%a2@(0,%d2:l)
    d4be:	5282           	addql #1,%d2
    d4c0:	b3c8           	cmpal %a0,%a1
    d4c2:	66d0           	bnes d494 <fatfs_get_substring+0x5c>
    d4c4:	60dc           	bras d4a2 <fatfs_get_substring+0x6a>
    d4c6:	5281           	addql #1,%d1
    d4c8:	b3c8           	cmpal %a0,%a1
    d4ca:	66c8           	bnes d494 <fatfs_get_substring+0x5c>
    d4cc:	60d4           	bras d4a2 <fatfs_get_substring+0x6a>
    d4ce:	2408           	movel %a0,%d2
    d4d0:	5282           	addql #1,%d2
    d4d2:	2f02           	movel %d2,%sp@-
    d4d4:	4eb9 0000 5afc 	jsr 5afc <strlen>
    d4da:	588f           	addql #4,%sp
    d4dc:	4a80           	tstl %d0
    d4de:	66a4           	bnes d484 <fatfs_get_substring+0x4c>
    d4e0:	204a           	moveal %a2,%a0
    d4e2:	4210           	clrb %a0@
    d4e4:	4a12           	tstb %a2@
    d4e6:	57c0           	seq %d0
    d4e8:	4880           	extw %d0
    d4ea:	48c0           	extl %d0
    d4ec:	60c2           	bras d4b0 <fatfs_get_substring+0x78>
    d4ee:	70ff           	moveq #-1,%d0
    d4f0:	4cdf 043c      	moveml %sp@+,%d2-%d5/%a2
    d4f4:	4e75           	rts

0000d4f6 <fatfs_split_path>:
    d4f6:	48e7 3830      	moveml %d2-%d4/%a2-%a3,%sp@-
    d4fa:	282f 0018      	movel %sp@(24),%d4
    d4fe:	246f 001c      	moveal %sp@(28),%a2
    d502:	2f04           	movel %d4,%sp@-
    d504:	4eb9 0000 d3d2 	jsr d3d2 <fatfs_total_path_levels>
    d50a:	588f           	addql #4,%sp
    d50c:	2400           	movel %d0,%d2
    d50e:	70ff           	moveq #-1,%d0
    d510:	b082           	cmpl %d2,%d0
    d512:	677c           	beqs d590 <fatfs_split_path+0x9a>
    d514:	2f2f 0028      	movel %sp@(40),%sp@-
    d518:	2f2f 0028      	movel %sp@(40),%sp@-
    d51c:	2f02           	movel %d2,%sp@-
    d51e:	2f04           	movel %d4,%sp@-
    d520:	4eb9 0000 d438 	jsr d438 <fatfs_get_substring>
    d526:	2600           	movel %d0,%d3
    d528:	4fef 0010      	lea %sp@(16),%sp
    d52c:	6662           	bnes d590 <fatfs_split_path+0x9a>
    d52e:	4a82           	tstl %d2
    d530:	660a           	bnes d53c <fatfs_split_path+0x46>
    d532:	4212           	clrb %a2@
    d534:	2003           	movel %d3,%d0
    d536:	4cdf 0c1c      	moveml %sp@+,%d2-%d4/%a2-%a3
    d53a:	4e75           	rts
    d53c:	2f04           	movel %d4,%sp@-
    d53e:	47f9 0000 5afc 	lea 5afc <strlen>,%a3
    d544:	4e93           	jsr %a3@
    d546:	588f           	addql #4,%sp
    d548:	2400           	movel %d0,%d2
    d54a:	2f2f 0024      	movel %sp@(36),%sp@-
    d54e:	4e93           	jsr %a3@
    d550:	588f           	addql #4,%sp
    d552:	9480           	subl %d0,%d2
    d554:	b4af 0020      	cmpl %sp@(32),%d2
    d558:	6e1c           	bgts d576 <fatfs_split_path+0x80>
    d55a:	2f02           	movel %d2,%sp@-
    d55c:	2f04           	movel %d4,%sp@-
    d55e:	2f0a           	movel %a2,%sp@-
    d560:	4eb9 0000 5b10 	jsr 5b10 <memcpy>
    d566:	4232 28ff      	clrb %a2@(ffffffffffffffff,%d2:l)
    d56a:	4fef 000c      	lea %sp@(12),%sp
    d56e:	2003           	movel %d3,%d0
    d570:	4cdf 0c1c      	moveml %sp@+,%d2-%d4/%a2-%a3
    d574:	4e75           	rts
    d576:	242f 0020      	movel %sp@(32),%d2
    d57a:	2f02           	movel %d2,%sp@-
    d57c:	2f04           	movel %d4,%sp@-
    d57e:	2f0a           	movel %a2,%sp@-
    d580:	4eb9 0000 5b10 	jsr 5b10 <memcpy>
    d586:	4232 28ff      	clrb %a2@(ffffffffffffffff,%d2:l)
    d58a:	4fef 000c      	lea %sp@(12),%sp
    d58e:	60de           	bras d56e <fatfs_split_path+0x78>
    d590:	76ff           	moveq #-1,%d3
    d592:	2003           	movel %d3,%d0
    d594:	4cdf 0c1c      	moveml %sp@+,%d2-%d4/%a2-%a3
    d598:	4e75           	rts

0000d59a <fatfs_compare_names>:
    d59a:	48e7 3e3e      	moveml %d2-%d6/%a2-%fp,%sp@-
    d59e:	246f 002c      	moveal %sp@(44),%a2
    d5a2:	266f 0030      	moveal %sp@(48),%a3
    d5a6:	1012           	moveb %a2@,%d0
    d5a8:	1213           	moveb %a3@,%d1
    d5aa:	4a00           	tstb %d0
    d5ac:	6700 0128      	beqw d6d6 <fatfs_compare_names+0x13c>
    d5b0:	204a           	moveal %a2,%a0
    d5b2:	74ff           	moveq #-1,%d2
    d5b4:	0c00 002e      	cmpib #46,%d0
    d5b8:	6700 00ae      	beqw d668 <fatfs_compare_names+0xce>
    d5bc:	5288           	addql #1,%a0
    d5be:	1010           	moveb %a0@,%d0
    d5c0:	66f2           	bnes d5b4 <fatfs_compare_names+0x1a>
    d5c2:	4a01           	tstb %d1
    d5c4:	6700 0108      	beqw d6ce <fatfs_compare_names+0x134>
    d5c8:	204b           	moveal %a3,%a0
    d5ca:	76ff           	moveq #-1,%d3
    d5cc:	0c01 002e      	cmpib #46,%d1
    d5d0:	6700 00a6      	beqw d678 <fatfs_compare_names+0xde>
    d5d4:	5288           	addql #1,%a0
    d5d6:	1210           	moveb %a0@,%d1
    d5d8:	66f2           	bnes d5cc <fatfs_compare_names+0x32>
    d5da:	70ff           	moveq #-1,%d0
    d5dc:	b082           	cmpl %d2,%d0
    d5de:	6700 00a8      	beqw d688 <fatfs_compare_names+0xee>
    d5e2:	70ff           	moveq #-1,%d0
    d5e4:	b083           	cmpl %d3,%d0
    d5e6:	6778           	beqs d660 <fatfs_compare_names+0xc6>
    d5e8:	2c02           	movel %d2,%d6
    d5ea:	4bf2 2801      	lea %a2@(1,%d2:l),%a5
    d5ee:	2a03           	movel %d3,%d5
    d5f0:	4df3 3801      	lea %a3@(1,%d3:l),%fp
    d5f4:	2f0d           	movel %a5,%sp@-
    d5f6:	49f9 0000 5afc 	lea 5afc <strlen>,%a4
    d5fc:	4e94           	jsr %a4@
    d5fe:	2800           	movel %d0,%d4
    d600:	2e8e           	movel %fp,%sp@
    d602:	4e94           	jsr %a4@
    d604:	588f           	addql #4,%sp
    d606:	b084           	cmpl %d4,%d0
    d608:	6656           	bnes d660 <fatfs_compare_names+0xc6>
    d60a:	2f04           	movel %d4,%sp@-
    d60c:	2f0e           	movel %fp,%sp@-
    d60e:	2f0d           	movel %a5,%sp@-
    d610:	4eb9 0000 d31c 	jsr d31c <FileString_StrCmpNoCase>
    d616:	4fef 000c      	lea %sp@(12),%sp
    d61a:	4a80           	tstl %d0
    d61c:	6642           	bnes d660 <fatfs_compare_names+0xc6>
    d61e:	43f2 68ff      	lea %a2@(ffffffffffffffff,%d6:l),%a1
    d622:	41f3 58ff      	lea %a3@(ffffffffffffffff,%d5:l),%a0
    d626:	4a82           	tstl %d2
    d628:	677e           	beqs d6a8 <fatfs_compare_names+0x10e>
    d62a:	2202           	movel %d2,%d1
    d62c:	9289           	subl %a1,%d1
    d62e:	0c11 0020      	cmpib #32,%a1@
    d632:	660c           	bnes d640 <fatfs_compare_names+0xa6>
    d634:	2409           	movel %a1,%d2
    d636:	948a           	subl %a2,%d2
    d638:	5389           	subql #1,%a1
    d63a:	2009           	movel %a1,%d0
    d63c:	d081           	addl %d1,%d0
    d63e:	66ee           	bnes d62e <fatfs_compare_names+0x94>
    d640:	4a83           	tstl %d3
    d642:	6700 00a0      	beqw d6e4 <fatfs_compare_names+0x14a>
    d646:	2203           	movel %d3,%d1
    d648:	9288           	subl %a0,%d1
    d64a:	0c10 0020      	cmpib #32,%a0@
    d64e:	660c           	bnes d65c <fatfs_compare_names+0xc2>
    d650:	2608           	movel %a0,%d3
    d652:	968b           	subl %a3,%d3
    d654:	5388           	subql #1,%a0
    d656:	2008           	movel %a0,%d0
    d658:	d081           	addl %d1,%d0
    d65a:	66ee           	bnes d64a <fatfs_compare_names+0xb0>
    d65c:	b682           	cmpl %d2,%d3
    d65e:	674e           	beqs d6ae <fatfs_compare_names+0x114>
    d660:	7000           	moveq #0,%d0
    d662:	4cdf 7c7c      	moveml %sp@+,%d2-%d6/%a2-%fp
    d666:	4e75           	rts
    d668:	2408           	movel %a0,%d2
    d66a:	948a           	subl %a2,%d2
    d66c:	5288           	addql #1,%a0
    d66e:	1010           	moveb %a0@,%d0
    d670:	6600 ff42      	bnew d5b4 <fatfs_compare_names+0x1a>
    d674:	6000 ff4c      	braw d5c2 <fatfs_compare_names+0x28>
    d678:	2608           	movel %a0,%d3
    d67a:	968b           	subl %a3,%d3
    d67c:	5288           	addql #1,%a0
    d67e:	1210           	moveb %a0@,%d1
    d680:	6600 ff4a      	bnew d5cc <fatfs_compare_names+0x32>
    d684:	6000 ff54      	braw d5da <fatfs_compare_names+0x40>
    d688:	b083           	cmpl %d3,%d0
    d68a:	66d4           	bnes d660 <fatfs_compare_names+0xc6>
    d68c:	2f0a           	movel %a2,%sp@-
    d68e:	49f9 0000 5afc 	lea 5afc <strlen>,%a4
    d694:	4e94           	jsr %a4@
    d696:	2c00           	movel %d0,%d6
    d698:	2400           	movel %d0,%d2
    d69a:	2e8b           	movel %a3,%sp@
    d69c:	4e94           	jsr %a4@
    d69e:	588f           	addql #4,%sp
    d6a0:	2a00           	movel %d0,%d5
    d6a2:	2600           	movel %d0,%d3
    d6a4:	6000 ff78      	braw d61e <fatfs_compare_names+0x84>
    d6a8:	7400           	moveq #0,%d2
    d6aa:	4a83           	tstl %d3
    d6ac:	6698           	bnes d646 <fatfs_compare_names+0xac>
    d6ae:	2f03           	movel %d3,%sp@-
    d6b0:	2f0b           	movel %a3,%sp@-
    d6b2:	2f0a           	movel %a2,%sp@-
    d6b4:	4eb9 0000 d31c 	jsr d31c <FileString_StrCmpNoCase>
    d6ba:	4fef 000c      	lea %sp@(12),%sp
    d6be:	4a80           	tstl %d0
    d6c0:	57c0           	seq %d0
    d6c2:	4880           	extw %d0
    d6c4:	48c0           	extl %d0
    d6c6:	4480           	negl %d0
    d6c8:	4cdf 7c7c      	moveml %sp@+,%d2-%d6/%a2-%fp
    d6cc:	4e75           	rts
    d6ce:	5282           	addql #1,%d2
    d6d0:	67ba           	beqs d68c <fatfs_compare_names+0xf2>
    d6d2:	7000           	moveq #0,%d0
    d6d4:	608c           	bras d662 <fatfs_compare_names+0xc8>
    d6d6:	74ff           	moveq #-1,%d2
    d6d8:	4a01           	tstb %d1
    d6da:	67b0           	beqs d68c <fatfs_compare_names+0xf2>
    d6dc:	204b           	moveal %a3,%a0
    d6de:	76ff           	moveq #-1,%d3
    d6e0:	6000 feea      	braw d5cc <fatfs_compare_names+0x32>
    d6e4:	7600           	moveq #0,%d3
    d6e6:	b682           	cmpl %d2,%d3
    d6e8:	6600 ff76      	bnew d660 <fatfs_compare_names+0xc6>
    d6ec:	60c0           	bras d6ae <fatfs_compare_names+0x114>

0000d6ee <fatfs_string_ends_with_slash>:
    d6ee:	206f 0004      	moveal %sp@(4),%a0
    d6f2:	b0fc 0000      	cmpaw #0,%a0
    d6f6:	6720           	beqs d718 <fatfs_string_ends_with_slash+0x2a>
    d6f8:	1210           	moveb %a0@,%d1
    d6fa:	671c           	beqs d718 <fatfs_string_ends_with_slash+0x2a>
    d6fc:	5288           	addql #1,%a0
    d6fe:	1001           	moveb %d1,%d0
    d700:	1218           	moveb %a0@+,%d1
    d702:	66fa           	bnes d6fe <fatfs_string_ends_with_slash+0x10>
    d704:	0c00 005c      	cmpib #92,%d0
    d708:	6712           	beqs d71c <fatfs_string_ends_with_slash+0x2e>
    d70a:	0c00 002f      	cmpib #47,%d0
    d70e:	57c0           	seq %d0
    d710:	4880           	extw %d0
    d712:	48c0           	extl %d0
    d714:	4480           	negl %d0
    d716:	4e75           	rts
    d718:	7000           	moveq #0,%d0
    d71a:	4e75           	rts
    d71c:	7001           	moveq #1,%d0
    d71e:	4e75           	rts

0000d720 <fatfs_get_sfn_display_name>:
    d720:	2f02           	movel %d2,%sp@-
    d722:	206f 0008      	moveal %sp@(8),%a0
    d726:	226f 000c      	moveal %sp@(12),%a1
    d72a:	1011           	moveb %a1@,%d0
    d72c:	6728           	beqs d756 <fatfs_get_sfn_display_name+0x36>
    d72e:	7200           	moveq #0,%d1
    d730:	5289           	addql #1,%a1
    d732:	0c00 0020      	cmpib #32,%d0
    d736:	6726           	beqs d75e <fatfs_get_sfn_display_name+0x3e>
    d738:	1400           	moveb %d0,%d2
    d73a:	0602 ffbf      	addib #-65,%d2
    d73e:	0c02 0019      	cmpib #25,%d2
    d742:	6204           	bhis d748 <fatfs_get_sfn_display_name+0x28>
    d744:	0600 0020      	addib #32,%d0
    d748:	10c0           	moveb %d0,%a0@+
    d74a:	5281           	addql #1,%d1
    d74c:	1011           	moveb %a1@,%d0
    d74e:	6706           	beqs d756 <fatfs_get_sfn_display_name+0x36>
    d750:	740c           	moveq #12,%d2
    d752:	b481           	cmpl %d1,%d2
    d754:	66da           	bnes d730 <fatfs_get_sfn_display_name+0x10>
    d756:	4210           	clrb %a0@
    d758:	7001           	moveq #1,%d0
    d75a:	241f           	movel %sp@+,%d2
    d75c:	4e75           	rts
    d75e:	1011           	moveb %a1@,%d0
    d760:	66ce           	bnes d730 <fatfs_get_sfn_display_name+0x10>
    d762:	4210           	clrb %a0@
    d764:	7001           	moveq #1,%d0
    d766:	241f           	movel %sp@+,%d2
    d768:	4e75           	rts

0000d76a <fatfs_get_extension>:
    d76a:	2f0a           	movel %a2,%sp@-
    d76c:	226f 0008      	moveal %sp@(8),%a1
    d770:	246f 000c      	moveal %sp@(12),%a2
    d774:	1011           	moveb %a1@,%d0
    d776:	6720           	beqs d798 <fatfs_get_extension+0x2e>
    d778:	2049           	moveal %a1,%a0
    d77a:	72ff           	moveq #-1,%d1
    d77c:	0c00 002e      	cmpib #46,%d0
    d780:	671c           	beqs d79e <fatfs_get_extension+0x34>
    d782:	5288           	addql #1,%a0
    d784:	1010           	moveb %a0@,%d0
    d786:	66f4           	bnes d77c <fatfs_get_extension+0x12>
    d788:	4a81           	tstl %d1
    d78a:	6f0c           	bles d798 <fatfs_get_extension+0x2e>
    d78c:	b4fc 0000      	cmpaw #0,%a2
    d790:	6706           	beqs d798 <fatfs_get_extension+0x2e>
    d792:	4aaf 0010      	tstl %sp@(16)
    d796:	6612           	bnes d7aa <fatfs_get_extension+0x40>
    d798:	7000           	moveq #0,%d0
    d79a:	245f           	moveal %sp@+,%a2
    d79c:	4e75           	rts
    d79e:	2208           	movel %a0,%d1
    d7a0:	9289           	subl %a1,%d1
    d7a2:	5288           	addql #1,%a0
    d7a4:	1010           	moveb %a0@,%d0
    d7a6:	66d4           	bnes d77c <fatfs_get_extension+0x12>
    d7a8:	60de           	bras d788 <fatfs_get_extension+0x1e>
    d7aa:	41f1 1801      	lea %a1@(1,%d1:l),%a0
    d7ae:	1010           	moveb %a0@,%d0
    d7b0:	672c           	beqs d7de <fatfs_get_extension+0x74>
    d7b2:	7201           	moveq #1,%d1
    d7b4:	b2af 0010      	cmpl %sp@(16),%d1
    d7b8:	6c24           	bges d7de <fatfs_get_extension+0x74>
    d7ba:	222f 0010      	movel %sp@(16),%d1
    d7be:	43f2 18ff      	lea %a2@(ffffffffffffffff,%d1:l),%a1
    d7c2:	5288           	addql #1,%a0
    d7c4:	1200           	moveb %d0,%d1
    d7c6:	0601 ffbf      	addib #-65,%d1
    d7ca:	0c01 0019      	cmpib #25,%d1
    d7ce:	6204           	bhis d7d4 <fatfs_get_extension+0x6a>
    d7d0:	0600 0020      	addib #32,%d0
    d7d4:	14c0           	moveb %d0,%a2@+
    d7d6:	1010           	moveb %a0@,%d0
    d7d8:	6704           	beqs d7de <fatfs_get_extension+0x74>
    d7da:	b3ca           	cmpal %a2,%a1
    d7dc:	66e4           	bnes d7c2 <fatfs_get_extension+0x58>
    d7de:	4212           	clrb %a2@
    d7e0:	7001           	moveq #1,%d0
    d7e2:	245f           	moveal %sp@+,%a2
    d7e4:	4e75           	rts

0000d7e6 <fatfs_create_path_string>:
    d7e6:	48e7 3030      	moveml %d2-%d3/%a2-%a3,%sp@-
    d7ea:	246f 0014      	moveal %sp@(20),%a2
    d7ee:	226f 0018      	moveal %sp@(24),%a1
    d7f2:	206f 001c      	moveal %sp@(28),%a0
    d7f6:	b4fc 0000      	cmpaw #0,%a2
    d7fa:	6712           	beqs d80e <fatfs_create_path_string+0x28>
    d7fc:	b2fc 0000      	cmpaw #0,%a1
    d800:	670c           	beqs d80e <fatfs_create_path_string+0x28>
    d802:	b0fc 0000      	cmpaw #0,%a0
    d806:	6706           	beqs d80e <fatfs_create_path_string+0x28>
    d808:	4aaf 0020      	tstl %sp@(32)
    d80c:	6e08           	bgts d816 <fatfs_create_path_string+0x30>
    d80e:	7000           	moveq #0,%d0
    d810:	4cdf 0c0c      	moveml %sp@+,%d2-%d3/%a2-%a3
    d814:	4e75           	rts
    d816:	1212           	moveb %a2@,%d1
    d818:	676c           	beqs d886 <fatfs_create_path_string+0xa0>
    d81a:	7002           	moveq #2,%d0
    d81c:	b0af 0020      	cmpl %sp@(32),%d0
    d820:	6c64           	bges d886 <fatfs_create_path_string+0xa0>
    d822:	202f 0020      	movel %sp@(32),%d0
    d826:	47f0 08fe      	lea %a0@(fffffffffffffffe,%d0:l),%a3
    d82a:	762f           	moveq #47,%d3
    d82c:	7000           	moveq #0,%d0
    d82e:	0c01 005c      	cmpib #92,%d1
    d832:	6716           	beqs d84a <fatfs_create_path_string+0x64>
    d834:	10c1           	moveb %d1,%a0@+
    d836:	5280           	addql #1,%d0
    d838:	1432 0800      	moveb %a2@(0,%d0:l),%d2
    d83c:	6710           	beqs d84e <fatfs_create_path_string+0x68>
    d83e:	b7c8           	cmpal %a0,%a3
    d840:	670c           	beqs d84e <fatfs_create_path_string+0x68>
    d842:	1202           	moveb %d2,%d1
    d844:	0c01 005c      	cmpib #92,%d1
    d848:	66ea           	bnes d834 <fatfs_create_path_string+0x4e>
    d84a:	765c           	moveq #92,%d3
    d84c:	60e6           	bras d834 <fatfs_create_path_string+0x4e>
    d84e:	0c01 005c      	cmpib #92,%d1
    d852:	6708           	beqs d85c <fatfs_create_path_string+0x76>
    d854:	0c01 002f      	cmpib #47,%d1
    d858:	6702           	beqs d85c <fatfs_create_path_string+0x76>
    d85a:	10c3           	moveb %d3,%a0@+
    d85c:	1211           	moveb %a1@,%d1
    d85e:	671c           	beqs d87c <fatfs_create_path_string+0x96>
    d860:	242f 0020      	movel %sp@(32),%d2
    d864:	5382           	subql #1,%d2
    d866:	b480           	cmpl %d0,%d2
    d868:	6f12           	bles d87c <fatfs_create_path_string+0x96>
    d86a:	9480           	subl %d0,%d2
    d86c:	2009           	movel %a1,%d0
    d86e:	d082           	addl %d2,%d0
    d870:	5289           	addql #1,%a1
    d872:	10c1           	moveb %d1,%a0@+
    d874:	1211           	moveb %a1@,%d1
    d876:	6704           	beqs d87c <fatfs_create_path_string+0x96>
    d878:	b089           	cmpl %a1,%d0
    d87a:	66f4           	bnes d870 <fatfs_create_path_string+0x8a>
    d87c:	4210           	clrb %a0@
    d87e:	7001           	moveq #1,%d0
    d880:	4cdf 0c0c      	moveml %sp@+,%d2-%d3/%a2-%a3
    d884:	4e75           	rts
    d886:	762f           	moveq #47,%d3
    d888:	7000           	moveq #0,%d0
    d88a:	10c3           	moveb %d3,%a0@+
    d88c:	60ce           	bras d85c <fatfs_create_path_string+0x76>
	...

0000d890 <fatfs_fat_read_sector>:
    d890:	48e7 3030      	moveml %d2-%d3/%a2-%a3,%sp@-
    d894:	266f 0014      	moveal %sp@(20),%a3
    d898:	242f 0018      	movel %sp@(24),%d2
    d89c:	246b 104e      	moveal %a3@(4174),%a2
    d8a0:	b4fc 0000      	cmpaw #0,%a2
    d8a4:	6700 0104      	beqw d9aa <fatfs_fat_read_sector+0x11a>
    d8a8:	202a 1000      	movel %a2@(4096),%d0
    d8ac:	91c8           	subal %a0,%a0
    d8ae:	b480           	cmpl %d0,%d2
    d8b0:	6506           	bcss d8b8 <fatfs_fat_read_sector+0x28>
    d8b2:	5080           	addql #8,%d0
    d8b4:	b480           	cmpl %d0,%d2
    d8b6:	6576           	bcss d92e <fatfs_fat_read_sector+0x9e>
    d8b8:	202a 100c      	movel %a2@(4108),%d0
    d8bc:	6754           	beqs d912 <fatfs_fat_read_sector+0x82>
    d8be:	204a           	moveal %a2,%a0
    d8c0:	2440           	moveal %d0,%a2
    d8c2:	202a 1000      	movel %a2@(4096),%d0
    d8c6:	b082           	cmpl %d2,%d0
    d8c8:	63e8           	blss d8b2 <fatfs_fat_read_sector+0x22>
    d8ca:	202a 100c      	movel %a2@(4108),%d0
    d8ce:	66ee           	bnes d8be <fatfs_fat_read_sector+0x2e>
    d8d0:	42a8 100c      	clrl %a0@(4108)
    d8d4:	202a 100c      	movel %a2@(4108),%d0
    d8d8:	66e4           	bnes d8be <fatfs_fat_read_sector+0x2e>
    d8da:	256b 104e 100c 	movel %a3@(4174),%a2@(4108)
    d8e0:	274a 104e      	movel %a2,%a3@(4174)
    d8e4:	4aaa 1004      	tstl %a2@(4100)
    d8e8:	665a           	bnes d944 <fatfs_fat_read_sector+0xb4>
    d8ea:	2542 1000      	movel %d2,%a2@(4096)
    d8ee:	4878 0008      	pea 8 <DIVIDE_BY_ZERO>
    d8f2:	2f0a           	movel %a2,%sp@-
    d8f4:	2f02           	movel %d2,%sp@-
    d8f6:	206b 002e      	moveal %a3@(46),%a0
    d8fa:	4e90           	jsr %a0@
    d8fc:	4fef 000c      	lea %sp@(12),%sp
    d900:	4a80           	tstl %d0
    d902:	6700 0086      	beqw d98a <fatfs_fat_read_sector+0xfa>
    d906:	254a 1008      	movel %a2,%a2@(4104)
    d90a:	200a           	movel %a2,%d0
    d90c:	4cdf 0c0c      	moveml %sp@+,%d2-%d3/%a2-%a3
    d910:	4e75           	rts
    d912:	b0fc 0000      	cmpaw #0,%a0
    d916:	66b8           	bnes d8d0 <fatfs_fat_read_sector+0x40>
    d918:	42ab 104e      	clrl %a3@(4174)
    d91c:	256b 104e 100c 	movel %a3@(4174),%a2@(4108)
    d922:	274a 104e      	movel %a2,%a3@(4174)
    d926:	4aaa 1004      	tstl %a2@(4100)
    d92a:	67be           	beqs d8ea <fatfs_fat_read_sector+0x5a>
    d92c:	6016           	bras d944 <fatfs_fat_read_sector+0xb4>
    d92e:	94aa 1000      	subl %a2@(4096),%d2
    d932:	7009           	moveq #9,%d0
    d934:	e1aa           	lsll %d0,%d2
    d936:	d48a           	addl %a2,%d2
    d938:	2542 1008      	movel %d2,%a2@(4104)
    d93c:	200a           	movel %a2,%d0
    d93e:	4cdf 0c0c      	moveml %sp@+,%d2-%d3/%a2-%a3
    d942:	4e75           	rts
    d944:	226b 0032      	moveal %a3@(50),%a1
    d948:	b2fc 0000      	cmpaw #0,%a1
    d94c:	6734           	beqs d982 <fatfs_fat_read_sector+0xf2>
    d94e:	202a 1000      	movel %a2@(4096),%d0
    d952:	222b 0012      	movel %a3@(18),%d1
    d956:	262b 001c      	movel %a3@(28),%d3
    d95a:	307c 0008      	moveaw #8,%a0
    d95e:	91c1           	subal %d1,%a0
    d960:	d1c0           	addal %d0,%a0
    d962:	b688           	cmpl %a0,%d3
    d964:	652e           	bcss d994 <fatfs_fat_read_sector+0x104>
    d966:	7208           	moveq #8,%d1
    d968:	2f01           	movel %d1,%sp@-
    d96a:	2f0a           	movel %a2,%sp@-
    d96c:	2f00           	movel %d0,%sp@-
    d96e:	4e91           	jsr %a1@
    d970:	4fef 000c      	lea %sp@(12),%sp
    d974:	4a80           	tstl %d0
    d976:	660a           	bnes d982 <fatfs_fat_read_sector+0xf2>
    d978:	95ca           	subal %a2,%a2
    d97a:	200a           	movel %a2,%d0
    d97c:	4cdf 0c0c      	moveml %sp@+,%d2-%d3/%a2-%a3
    d980:	4e75           	rts
    d982:	42aa 1004      	clrl %a2@(4100)
    d986:	6000 ff62      	braw d8ea <fatfs_fat_read_sector+0x5a>
    d98a:	70ff           	moveq #-1,%d0
    d98c:	2540 1000      	movel %d0,%a2@(4096)
    d990:	95ca           	subal %a2,%a2
    d992:	60e6           	bras d97a <fatfs_fat_read_sector+0xea>
    d994:	d283           	addl %d3,%d1
    d996:	9280           	subl %d0,%d1
    d998:	2f01           	movel %d1,%sp@-
    d99a:	2f0a           	movel %a2,%sp@-
    d99c:	2f00           	movel %d0,%sp@-
    d99e:	4e91           	jsr %a1@
    d9a0:	4fef 000c      	lea %sp@(12),%sp
    d9a4:	4a80           	tstl %d0
    d9a6:	67d0           	beqs d978 <fatfs_fat_read_sector+0xe8>
    d9a8:	60d8           	bras d982 <fatfs_fat_read_sector+0xf2>
    d9aa:	7000           	moveq #0,%d0
    d9ac:	21c0 100c      	movel %d0,100c <D_MAX_EXP+0x80d>
    d9b0:	4e47           	trap #7

0000d9b2 <fatfs_fat_init>:
    d9b2:	48e7 3838      	moveml %d2-%d4/%a2-%a4,%sp@-
    d9b6:	266f 001c      	moveal %sp@(28),%a3
    d9ba:	42ab 104e      	clrl %a3@(4174)
    d9be:	45eb 2052      	lea %a3@(8274),%a2
    d9c2:	280b           	movel %a3,%d4
    d9c4:	0684 0000 6092 	addil #24722,%d4
    d9ca:	49f9 0000 263c 	lea 263c <memset>,%a4
    d9d0:	263c 0000 1000 	movel #4096,%d3
    d9d6:	70ff           	moveq #-1,%d0
    d9d8:	2480           	movel %d0,%a2@
    d9da:	42aa 0004      	clrl %a2@(4)
    d9de:	240a           	movel %a2,%d2
    d9e0:	0682 ffff f000 	addil #-4096,%d2
    d9e6:	2f03           	movel %d3,%sp@-
    d9e8:	42a7           	clrl %sp@-
    d9ea:	2f02           	movel %d2,%sp@-
    d9ec:	4e94           	jsr %a4@
    d9ee:	42aa 0008      	clrl %a2@(8)
    d9f2:	256b 104e 000c 	movel %a3@(4174),%a2@(12)
    d9f8:	2742 104e      	movel %d2,%a3@(4174)
    d9fc:	45ea 1010      	lea %a2@(4112),%a2
    da00:	4fef 000c      	lea %sp@(12),%sp
    da04:	b88a           	cmpl %a2,%d4
    da06:	66ce           	bnes d9d6 <fatfs_fat_init+0x24>
    da08:	4cdf 1c1c      	moveml %sp@+,%d2-%d4/%a2-%a4
    da0c:	4e75           	rts

0000da0e <fatfs_fat_purge>:
    da0e:	48e7 0038      	moveml %a2-%a4,%sp@-
    da12:	266f 0010      	moveal %sp@(16),%a3
    da16:	246b 104e      	moveal %a3@(4174),%a2
    da1a:	b4fc 0000      	cmpaw #0,%a2
    da1e:	6710           	beqs da30 <fatfs_fat_purge+0x22>
    da20:	4aaa 1004      	tstl %a2@(4100)
    da24:	6612           	bnes da38 <fatfs_fat_purge+0x2a>
    da26:	246a 100c      	moveal %a2@(4108),%a2
    da2a:	b4fc 0000      	cmpaw #0,%a2
    da2e:	66f0           	bnes da20 <fatfs_fat_purge+0x12>
    da30:	7001           	moveq #1,%d0
    da32:	4cdf 1c00      	moveml %sp@+,%a2-%a4
    da36:	4e75           	rts
    da38:	286b 0032      	moveal %a3@(50),%a4
    da3c:	b8fc 0000      	cmpaw #0,%a4
    da40:	672c           	beqs da6e <fatfs_fat_purge+0x60>
    da42:	226a 1000      	moveal %a2@(4096),%a1
    da46:	222b 0012      	movel %a3@(18),%d1
    da4a:	202b 001c      	movel %a3@(28),%d0
    da4e:	307c 0008      	moveaw #8,%a0
    da52:	91c1           	subal %d1,%a0
    da54:	d1c9           	addal %a1,%a0
    da56:	b088           	cmpl %a0,%d0
    da58:	6424           	bccs da7e <fatfs_fat_purge+0x70>
    da5a:	d280           	addl %d0,%d1
    da5c:	9289           	subl %a1,%d1
    da5e:	2f01           	movel %d1,%sp@-
    da60:	2f0a           	movel %a2,%sp@-
    da62:	2f09           	movel %a1,%sp@-
    da64:	4e94           	jsr %a4@
    da66:	4fef 000c      	lea %sp@(12),%sp
    da6a:	4a80           	tstl %d0
    da6c:	67c4           	beqs da32 <fatfs_fat_purge+0x24>
    da6e:	42aa 1004      	clrl %a2@(4100)
    da72:	246a 100c      	moveal %a2@(4108),%a2
    da76:	b4fc 0000      	cmpaw #0,%a2
    da7a:	66a4           	bnes da20 <fatfs_fat_purge+0x12>
    da7c:	60b2           	bras da30 <fatfs_fat_purge+0x22>
    da7e:	7208           	moveq #8,%d1
    da80:	2f01           	movel %d1,%sp@-
    da82:	2f0a           	movel %a2,%sp@-
    da84:	2f09           	movel %a1,%sp@-
    da86:	4e94           	jsr %a4@
    da88:	4fef 000c      	lea %sp@(12),%sp
    da8c:	4a80           	tstl %d0
    da8e:	67a2           	beqs da32 <fatfs_fat_purge+0x24>
    da90:	60dc           	bras da6e <fatfs_fat_purge+0x60>

0000da92 <fatfs_find_next_cluster>:
    da92:	48e7 3020      	moveml %d2-%d3/%a2,%sp@-
    da96:	246f 0010      	moveal %sp@(16),%a2
    da9a:	242f 0014      	movel %sp@(20),%d2
    da9e:	6602           	bnes daa2 <fatfs_find_next_cluster+0x10>
    daa0:	7402           	moveq #2,%d2
    daa2:	2602           	movel %d2,%d3
    daa4:	4aaa 002a      	tstl %a2@(42)
    daa8:	6654           	bnes dafe <fatfs_find_next_cluster+0x6c>
    daaa:	e08b           	lsrl #8,%d3
    daac:	2003           	movel %d3,%d0
    daae:	d0aa 0012      	addl %a2@(18),%d0
    dab2:	2f00           	movel %d0,%sp@-
    dab4:	2f0a           	movel %a2,%sp@-
    dab6:	4eb9 0000 d890 	jsr d890 <fatfs_fat_read_sector>
    dabc:	508f           	addql #8,%sp
    dabe:	4a80           	tstl %d0
    dac0:	6754           	beqs db16 <fatfs_find_next_cluster+0x84>
    dac2:	2240           	moveal %d0,%a1
    dac4:	2069 1008      	moveal %a1@(4104),%a0
    dac8:	4aaa 002a      	tstl %a2@(42)
    dacc:	6650           	bnes db1e <fatfs_find_next_cluster+0x8c>
    dace:	e18b           	lsll #8,%d3
    dad0:	9483           	subl %d3,%d2
    dad2:	d482           	addl %d2,%d2
    dad4:	0282 0000 ffff 	andil #65535,%d2
    dada:	7000           	moveq #0,%d0
    dadc:	1030 2801      	moveb %a0@(1,%d2:l),%d0
    dae0:	e188           	lsll #8,%d0
    dae2:	7200           	moveq #0,%d1
    dae4:	1230 2800      	moveb %a0@(0,%d2:l),%d1
    dae8:	d081           	addl %d1,%d0
    daea:	2200           	movel %d0,%d1
    daec:	0681 ffff 0008 	addil #-65528,%d1
    daf2:	7407           	moveq #7,%d2
    daf4:	b481           	cmpl %d1,%d2
    daf6:	641e           	bccs db16 <fatfs_find_next_cluster+0x84>
    daf8:	4cdf 040c      	moveml %sp@+,%d2-%d3/%a2
    dafc:	4e75           	rts
    dafe:	ee8b           	lsrl #7,%d3
    db00:	2003           	movel %d3,%d0
    db02:	d0aa 0012      	addl %a2@(18),%d0
    db06:	2f00           	movel %d0,%sp@-
    db08:	2f0a           	movel %a2,%sp@-
    db0a:	4eb9 0000 d890 	jsr d890 <fatfs_fat_read_sector>
    db10:	508f           	addql #8,%sp
    db12:	4a80           	tstl %d0
    db14:	66ac           	bnes dac2 <fatfs_find_next_cluster+0x30>
    db16:	70ff           	moveq #-1,%d0
    db18:	4cdf 040c      	moveml %sp@+,%d2-%d3/%a2
    db1c:	4e75           	rts
    db1e:	ef8b           	lsll #7,%d3
    db20:	9483           	subl %d3,%d2
    db22:	d482           	addl %d2,%d2
    db24:	d482           	addl %d2,%d2
    db26:	0282 0000 ffff 	andil #65535,%d2
    db2c:	7000           	moveq #0,%d0
    db2e:	1030 2803      	moveb %a0@(3,%d2:l),%d0
    db32:	e148           	lslw #8,%d0
    db34:	4840           	swap %d0
    db36:	4240           	clrw %d0
    db38:	7200           	moveq #0,%d1
    db3a:	1230 2802      	moveb %a0@(2,%d2:l),%d1
    db3e:	4841           	swap %d1
    db40:	4241           	clrw %d1
    db42:	d081           	addl %d1,%d0
    db44:	7200           	moveq #0,%d1
    db46:	1230 2800      	moveb %a0@(0,%d2:l),%d1
    db4a:	d280           	addl %d0,%d1
    db4c:	7000           	moveq #0,%d0
    db4e:	1030 2801      	moveb %a0@(1,%d2:l),%d0
    db52:	e188           	lsll #8,%d0
    db54:	d081           	addl %d1,%d0
    db56:	0280 0fff ffff 	andil #268435455,%d0
    db5c:	2200           	movel %d0,%d1
    db5e:	0681 f000 0008 	addil #-268435448,%d1
    db64:	7407           	moveq #7,%d2
    db66:	b481           	cmpl %d1,%d2
    db68:	64ac           	bccs db16 <fatfs_find_next_cluster+0x84>
    db6a:	4cdf 040c      	moveml %sp@+,%d2-%d3/%a2
    db6e:	4e75           	rts

0000db70 <fatfs_set_fs_info_next_free_cluster>:
    db70:	48e7 2030      	moveml %d2/%a2-%a3,%sp@-
    db74:	266f 0010      	moveal %sp@(16),%a3
    db78:	242f 0014      	movel %sp@(20),%d2
    db7c:	4aab 002a      	tstl %a3@(42)
    db80:	6606           	bnes db88 <fatfs_set_fs_info_next_free_cluster+0x18>
    db82:	4cdf 0c04      	moveml %sp@+,%d2/%a2-%a3
    db86:	4e75           	rts
    db88:	7000           	moveq #0,%d0
    db8a:	302b 0016      	movew %a3@(22),%d0
    db8e:	d0ab 0018      	addl %a3@(24),%d0
    db92:	2f00           	movel %d0,%sp@-
    db94:	2f0b           	movel %a3,%sp@-
    db96:	4eb9 0000 d890 	jsr d890 <fatfs_fat_read_sector>
    db9c:	2440           	moveal %d0,%a2
    db9e:	508f           	addql #8,%sp
    dba0:	4a80           	tstl %d0
    dba2:	67de           	beqs db82 <fatfs_set_fs_info_next_free_cluster+0x12>
    dba4:	206a 1008      	moveal %a2@(4104),%a0
    dba8:	1142 01ec      	moveb %d2,%a0@(492)
    dbac:	206a 1008      	moveal %a2@(4104),%a0
    dbb0:	2002           	movel %d2,%d0
    dbb2:	e088           	lsrl #8,%d0
    dbb4:	1140 01ed      	moveb %d0,%a0@(493)
    dbb8:	206a 1008      	moveal %a2@(4104),%a0
    dbbc:	2002           	movel %d2,%d0
    dbbe:	4240           	clrw %d0
    dbc0:	4840           	swap %d0
    dbc2:	1140 01ee      	moveb %d0,%a0@(494)
    dbc6:	206a 1008      	moveal %a2@(4104),%a0
    dbca:	2002           	movel %d2,%d0
    dbcc:	4240           	clrw %d0
    dbce:	4840           	swap %d0
    dbd0:	e048           	lsrw #8,%d0
    dbd2:	1140 01ef      	moveb %d0,%a0@(495)
    dbd6:	7001           	moveq #1,%d0
    dbd8:	2540 1004      	movel %d0,%a2@(4100)
    dbdc:	2742 0020      	movel %d2,%a3@(32)
    dbe0:	206b 0032      	moveal %a3@(50),%a0
    dbe4:	b0fc 0000      	cmpaw #0,%a0
    dbe8:	6710           	beqs dbfa <fatfs_set_fs_info_next_free_cluster+0x8a>
    dbea:	4878 0001      	pea 1 <ADD>
    dbee:	2f0a           	movel %a2,%sp@-
    dbf0:	2f2a 1000      	movel %a2@(4096),%sp@-
    dbf4:	4e90           	jsr %a0@
    dbf6:	4fef 000c      	lea %sp@(12),%sp
    dbfa:	70ff           	moveq #-1,%d0
    dbfc:	2540 1000      	movel %d0,%a2@(4096)
    dc00:	42aa 1004      	clrl %a2@(4100)
    dc04:	4cdf 0c04      	moveml %sp@+,%d2/%a2-%a3
    dc08:	4e75           	rts

0000dc0a <fatfs_find_blank_cluster>:
    dc0a:	48e7 3020      	moveml %d2-%d3/%a2,%sp@-
    dc0e:	246f 0010      	moveal %sp@(16),%a2
    dc12:	262f 0014      	movel %sp@(20),%d3
    dc16:	4aaa 002a      	tstl %a2@(42)
    dc1a:	6600 00a6      	bnew dcc2 <fatfs_find_blank_cluster+0xb8>
    dc1e:	2403           	movel %d3,%d2
    dc20:	e08a           	lsrl #8,%d2
    dc22:	b4aa 001c      	cmpl %a2@(28),%d2
    dc26:	6400 00a6      	bccw dcce <fatfs_find_blank_cluster+0xc4>
    dc2a:	2002           	movel %d2,%d0
    dc2c:	d0aa 0012      	addl %a2@(18),%d0
    dc30:	2f00           	movel %d0,%sp@-
    dc32:	2f0a           	movel %a2,%sp@-
    dc34:	4eb9 0000 d890 	jsr d890 <fatfs_fat_read_sector>
    dc3a:	508f           	addql #8,%sp
    dc3c:	4a80           	tstl %d0
    dc3e:	6700 008e      	beqw dcce <fatfs_find_blank_cluster+0xc4>
    dc42:	2240           	moveal %d0,%a1
    dc44:	2069 1008      	moveal %a1@(4104),%a0
    dc48:	4aaa 002a      	tstl %a2@(42)
    dc4c:	662c           	bnes dc7a <fatfs_find_blank_cluster+0x70>
    dc4e:	e18a           	lsll #8,%d2
    dc50:	2003           	movel %d3,%d0
    dc52:	9082           	subl %d2,%d0
    dc54:	d080           	addl %d0,%d0
    dc56:	0280 0000 ffff 	andil #65535,%d0
    dc5c:	7200           	moveq #0,%d1
    dc5e:	1230 0801      	moveb %a0@(1,%d0:l),%d1
    dc62:	e189           	lsll #8,%d1
    dc64:	1030 0800      	moveb %a0@(0,%d0:l),%d0
    dc68:	0280 0000 00ff 	andil #255,%d0
    dc6e:	d081           	addl %d1,%d0
    dc70:	6764           	beqs dcd6 <fatfs_find_blank_cluster+0xcc>
    dc72:	5283           	addql #1,%d3
    dc74:	2403           	movel %d3,%d2
    dc76:	e08a           	lsrl #8,%d2
    dc78:	60a8           	bras dc22 <fatfs_find_blank_cluster+0x18>
    dc7a:	ef8a           	lsll #7,%d2
    dc7c:	2003           	movel %d3,%d0
    dc7e:	9082           	subl %d2,%d0
    dc80:	d080           	addl %d0,%d0
    dc82:	d080           	addl %d0,%d0
    dc84:	0280 0000 ffff 	andil #65535,%d0
    dc8a:	7200           	moveq #0,%d1
    dc8c:	1230 0803      	moveb %a0@(3,%d0:l),%d1
    dc90:	e149           	lslw #8,%d1
    dc92:	4841           	swap %d1
    dc94:	4241           	clrw %d1
    dc96:	7400           	moveq #0,%d2
    dc98:	1430 0802      	moveb %a0@(2,%d0:l),%d2
    dc9c:	4842           	swap %d2
    dc9e:	4242           	clrw %d2
    dca0:	d282           	addl %d2,%d1
    dca2:	7400           	moveq #0,%d2
    dca4:	1430 0800      	moveb %a0@(0,%d0:l),%d2
    dca8:	d282           	addl %d2,%d1
    dcaa:	1030 0801      	moveb %a0@(1,%d0:l),%d0
    dcae:	0280 0000 00ff 	andil #255,%d0
    dcb4:	e188           	lsll #8,%d0
    dcb6:	d081           	addl %d1,%d0
    dcb8:	0280 0fff ffff 	andil #268435455,%d0
    dcbe:	6716           	beqs dcd6 <fatfs_find_blank_cluster+0xcc>
    dcc0:	5283           	addql #1,%d3
    dcc2:	2403           	movel %d3,%d2
    dcc4:	ee8a           	lsrl #7,%d2
    dcc6:	b4aa 001c      	cmpl %a2@(28),%d2
    dcca:	6500 ff5e      	bcsw dc2a <fatfs_find_blank_cluster+0x20>
    dcce:	7000           	moveq #0,%d0
    dcd0:	4cdf 040c      	moveml %sp@+,%d2-%d3/%a2
    dcd4:	4e75           	rts
    dcd6:	206f 0018      	moveal %sp@(24),%a0
    dcda:	2083           	movel %d3,%a0@
    dcdc:	7001           	moveq #1,%d0
    dcde:	4cdf 040c      	moveml %sp@+,%d2-%d3/%a2
    dce2:	4e75           	rts

0000dce4 <fatfs_fat_set_cluster>:
    dce4:	48e7 3820      	moveml %d2-%d4/%a2,%sp@-
    dce8:	246f 0014      	moveal %sp@(20),%a2
    dcec:	242f 0018      	movel %sp@(24),%d2
    dcf0:	262f 001c      	movel %sp@(28),%d3
    dcf4:	2802           	movel %d2,%d4
    dcf6:	4aaa 002a      	tstl %a2@(42)
    dcfa:	664c           	bnes dd48 <fatfs_fat_set_cluster+0x64>
    dcfc:	e08c           	lsrl #8,%d4
    dcfe:	2004           	movel %d4,%d0
    dd00:	d0aa 0012      	addl %a2@(18),%d0
    dd04:	2f00           	movel %d0,%sp@-
    dd06:	2f0a           	movel %a2,%sp@-
    dd08:	4eb9 0000 d890 	jsr d890 <fatfs_fat_read_sector>
    dd0e:	2040           	moveal %d0,%a0
    dd10:	508f           	addql #8,%sp
    dd12:	4a80           	tstl %d0
    dd14:	674c           	beqs dd62 <fatfs_fat_set_cluster+0x7e>
    dd16:	2268 1008      	moveal %a0@(4104),%a1
    dd1a:	4aaa 002a      	tstl %a2@(42)
    dd1e:	664a           	bnes dd6a <fatfs_fat_set_cluster+0x86>
    dd20:	e18c           	lsll #8,%d4
    dd22:	9484           	subl %d4,%d2
    dd24:	d482           	addl %d2,%d2
    dd26:	0282 0000 ffff 	andil #65535,%d2
    dd2c:	1383 2800      	moveb %d3,%a1@(0,%d2:l)
    dd30:	2268 1008      	moveal %a0@(4104),%a1
    dd34:	e04b           	lsrw #8,%d3
    dd36:	1383 2801      	moveb %d3,%a1@(1,%d2:l)
    dd3a:	7001           	moveq #1,%d0
    dd3c:	2140 1004      	movel %d0,%a0@(4100)
    dd40:	7001           	moveq #1,%d0
    dd42:	4cdf 041c      	moveml %sp@+,%d2-%d4/%a2
    dd46:	4e75           	rts
    dd48:	ee8c           	lsrl #7,%d4
    dd4a:	2004           	movel %d4,%d0
    dd4c:	d0aa 0012      	addl %a2@(18),%d0
    dd50:	2f00           	movel %d0,%sp@-
    dd52:	2f0a           	movel %a2,%sp@-
    dd54:	4eb9 0000 d890 	jsr d890 <fatfs_fat_read_sector>
    dd5a:	2040           	moveal %d0,%a0
    dd5c:	508f           	addql #8,%sp
    dd5e:	4a80           	tstl %d0
    dd60:	66b4           	bnes dd16 <fatfs_fat_set_cluster+0x32>
    dd62:	7000           	moveq #0,%d0
    dd64:	4cdf 041c      	moveml %sp@+,%d2-%d4/%a2
    dd68:	4e75           	rts
    dd6a:	ef8c           	lsll #7,%d4
    dd6c:	9484           	subl %d4,%d2
    dd6e:	d482           	addl %d2,%d2
    dd70:	d482           	addl %d2,%d2
    dd72:	0282 0000 ffff 	andil #65535,%d2
    dd78:	1383 2800      	moveb %d3,%a1@(0,%d2:l)
    dd7c:	2268 1008      	moveal %a0@(4104),%a1
    dd80:	2003           	movel %d3,%d0
    dd82:	e088           	lsrl #8,%d0
    dd84:	1380 2801      	moveb %d0,%a1@(1,%d2:l)
    dd88:	2268 1008      	moveal %a0@(4104),%a1
    dd8c:	2003           	movel %d3,%d0
    dd8e:	4240           	clrw %d0
    dd90:	4840           	swap %d0
    dd92:	1380 2802      	moveb %d0,%a1@(2,%d2:l)
    dd96:	2268 1008      	moveal %a0@(4104),%a1
    dd9a:	4243           	clrw %d3
    dd9c:	4843           	swap %d3
    dd9e:	e04b           	lsrw #8,%d3
    dda0:	1383 2803      	moveb %d3,%a1@(3,%d2:l)
    dda4:	7001           	moveq #1,%d0
    dda6:	2140 1004      	movel %d0,%a0@(4100)
    ddaa:	7001           	moveq #1,%d0
    ddac:	6094           	bras dd42 <fatfs_fat_set_cluster+0x5e>

0000ddae <fatfs_free_cluster_chain>:
    ddae:	48e7 3830      	moveml %d2-%d4/%a2-%a3,%sp@-
    ddb2:	282f 0018      	movel %sp@(24),%d4
    ddb6:	242f 001c      	movel %sp@(28),%d2
    ddba:	2002           	movel %d2,%d0
    ddbc:	5380           	subql #1,%d0
    ddbe:	72fd           	moveq #-3,%d1
    ddc0:	b280           	cmpl %d0,%d1
    ddc2:	652c           	bcss ddf0 <fatfs_free_cluster_chain+0x42>
    ddc4:	47f9 0000 da92 	lea da92 <fatfs_find_next_cluster>,%a3
    ddca:	45f9 0000 dce4 	lea dce4 <fatfs_fat_set_cluster>,%a2
    ddd0:	2602           	movel %d2,%d3
    ddd2:	2f02           	movel %d2,%sp@-
    ddd4:	2f04           	movel %d4,%sp@-
    ddd6:	4e93           	jsr %a3@
    ddd8:	2400           	movel %d0,%d2
    ddda:	42a7           	clrl %sp@-
    dddc:	2f03           	movel %d3,%sp@-
    ddde:	2f04           	movel %d4,%sp@-
    dde0:	4e92           	jsr %a2@
    dde2:	2002           	movel %d2,%d0
    dde4:	5380           	subql #1,%d0
    dde6:	4fef 0014      	lea %sp@(20),%sp
    ddea:	72fd           	moveq #-3,%d1
    ddec:	b280           	cmpl %d0,%d1
    ddee:	64e0           	bccs ddd0 <fatfs_free_cluster_chain+0x22>
    ddf0:	7001           	moveq #1,%d0
    ddf2:	4cdf 0c1c      	moveml %sp@+,%d2-%d4/%a2-%a3
    ddf6:	4e75           	rts

0000ddf8 <fatfs_fat_add_cluster_to_chain>:
    ddf8:	48e7 3020      	moveml %d2-%d3/%a2,%sp@-
    ddfc:	262f 0010      	movel %sp@(16),%d3
    de00:	202f 0014      	movel %sp@(20),%d0
    de04:	45f9 0000 da92 	lea da92 <fatfs_find_next_cluster>,%a2
    de0a:	72ff           	moveq #-1,%d1
    de0c:	b280           	cmpl %d0,%d1
    de0e:	673c           	beqs de4c <fatfs_fat_add_cluster_to_chain+0x54>
    de10:	2400           	movel %d0,%d2
    de12:	2f00           	movel %d0,%sp@-
    de14:	2f03           	movel %d3,%sp@-
    de16:	4e92           	jsr %a2@
    de18:	508f           	addql #8,%sp
    de1a:	4a80           	tstl %d0
    de1c:	672e           	beqs de4c <fatfs_fat_add_cluster_to_chain+0x54>
    de1e:	72ff           	moveq #-1,%d1
    de20:	b280           	cmpl %d0,%d1
    de22:	66ec           	bnes de10 <fatfs_fat_add_cluster_to_chain+0x18>
    de24:	2f2f 0018      	movel %sp@(24),%sp@-
    de28:	2f02           	movel %d2,%sp@-
    de2a:	2f03           	movel %d3,%sp@-
    de2c:	45f9 0000 dce4 	lea dce4 <fatfs_fat_set_cluster>,%a2
    de32:	4e92           	jsr %a2@
    de34:	4878 ffff      	pea ffffffff <LESS+0x0>
    de38:	2f2f 0028      	movel %sp@(40),%sp@-
    de3c:	2f03           	movel %d3,%sp@-
    de3e:	4e92           	jsr %a2@
    de40:	4fef 0018      	lea %sp@(24),%sp
    de44:	7001           	moveq #1,%d0
    de46:	4cdf 040c      	moveml %sp@+,%d2-%d3/%a2
    de4a:	4e75           	rts
    de4c:	7000           	moveq #0,%d0
    de4e:	4cdf 040c      	moveml %sp@+,%d2-%d3/%a2
    de52:	4e75           	rts

0000de54 <fatfs_count_free_clusters>:
    de54:	48e7 3f30      	moveml %d2-%d7/%a2-%a3,%sp@-
    de58:	266f 0024      	moveal %sp@(36),%a3
    de5c:	262b 001c      	movel %a3@(28),%d3
    de60:	675e           	beqs dec0 <fatfs_count_free_clusters+0x6c>
    de62:	7600           	moveq #0,%d3
    de64:	7800           	moveq #0,%d4
    de66:	45f9 0000 d890 	lea d890 <fatfs_fat_read_sector>,%a2
    de6c:	2004           	movel %d4,%d0
    de6e:	d0ab 0012      	addl %a3@(18),%d0
    de72:	2f00           	movel %d0,%sp@-
    de74:	2f0b           	movel %a3,%sp@-
    de76:	4e92           	jsr %a2@
    de78:	508f           	addql #8,%sp
    de7a:	4a80           	tstl %d0
    de7c:	6742           	beqs dec0 <fatfs_count_free_clusters+0x6c>
    de7e:	2a2b 002a      	movel %a3@(42),%d5
    de82:	2040           	moveal %d0,%a0
    de84:	2268 1008      	moveal %a0@(4104),%a1
    de88:	7200           	moveq #0,%d1
    de8a:	2e01           	movel %d1,%d7
    de8c:	5487           	addql #2,%d7
    de8e:	1031 1801      	moveb %a1@(1,%d1:l),%d0
    de92:	1c31 1800      	moveb %a1@(0,%d1:l),%d6
    de96:	4a85           	tstl %d5
    de98:	662e           	bnes dec8 <fatfs_count_free_clusters+0x74>
    de9a:	0280 0000 00ff 	andil #255,%d0
    dea0:	e188           	lsll #8,%d0
    dea2:	0286 0000 00ff 	andil #255,%d6
    dea8:	d086           	addl %d6,%d0
    deaa:	6602           	bnes deae <fatfs_count_free_clusters+0x5a>
    deac:	5283           	addql #1,%d3
    deae:	2207           	movel %d7,%d1
    deb0:	0c81 0000 01ff 	cmpil #511,%d1
    deb6:	63d2           	blss de8a <fatfs_count_free_clusters+0x36>
    deb8:	5284           	addql #1,%d4
    deba:	b8ab 001c      	cmpl %a3@(28),%d4
    debe:	65ac           	bcss de6c <fatfs_count_free_clusters+0x18>
    dec0:	2003           	movel %d3,%d0
    dec2:	4cdf 0cfc      	moveml %sp@+,%d2-%d7/%a2-%a3
    dec6:	4e75           	rts
    dec8:	7400           	moveq #0,%d2
    deca:	1431 1803      	moveb %a1@(3,%d1:l),%d2
    dece:	e14a           	lslw #8,%d2
    ded0:	4842           	swap %d2
    ded2:	4242           	clrw %d2
    ded4:	1e31 7800      	moveb %a1@(0,%d7:l),%d7
    ded8:	0287 0000 00ff 	andil #255,%d7
    dede:	4847           	swap %d7
    dee0:	4247           	clrw %d7
    dee2:	d487           	addl %d7,%d2
    dee4:	0286 0000 00ff 	andil #255,%d6
    deea:	2042           	moveal %d2,%a0
    deec:	d1c6           	addal %d6,%a0
    deee:	0280 0000 00ff 	andil #255,%d0
    def4:	e188           	lsll #8,%d0
    def6:	d088           	addl %a0,%d0
    def8:	6602           	bnes defc <fatfs_count_free_clusters+0xa8>
    defa:	5283           	addql #1,%d3
    defc:	5881           	addql #4,%d1
    defe:	0c81 0000 01ff 	cmpil #511,%d1
    df04:	6384           	blss de8a <fatfs_count_free_clusters+0x36>
    df06:	60b0           	bras deb8 <fatfs_count_free_clusters+0x64>

0000df08 <fatfs_add_free_space>:
    df08:	598f           	subql #4,%sp
    df0a:	48e7 383e      	moveml %d2-%d4/%a2-%fp,%sp@-
    df0e:	246f 0028      	moveal %sp@(40),%a2
    df12:	2a6f 002c      	moveal %sp@(44),%a5
    df16:	282f 0030      	movel %sp@(48),%d4
    df1a:	2615           	movel %a5@,%d3
    df1c:	70ff           	moveq #-1,%d0
    df1e:	b0aa 0020      	cmpl %a2@(32),%d0
    df22:	6770           	beqs df94 <fatfs_add_free_space+0x8c>
    df24:	4a84           	tstl %d4
    df26:	6750           	beqs df78 <fatfs_add_free_space+0x70>
    df28:	7400           	moveq #0,%d2
    df2a:	49f9 0000 dc0a 	lea dc0a <fatfs_find_blank_cluster>,%a4
    df30:	47f9 0000 dce4 	lea dce4 <fatfs_fat_set_cluster>,%a3
    df36:	4df9 0000 db70 	lea db70 <fatfs_set_fs_info_next_free_cluster>,%fp
    df3c:	486f 0020      	pea %sp@(32)
    df40:	2f2a 0020      	movel %a2@(32),%sp@-
    df44:	2f0a           	movel %a2,%sp@-
    df46:	4e94           	jsr %a4@
    df48:	4fef 000c      	lea %sp@(12),%sp
    df4c:	4a80           	tstl %d0
    df4e:	672a           	beqs df7a <fatfs_add_free_space+0x72>
    df50:	2f2f 0020      	movel %sp@(32),%sp@-
    df54:	2f03           	movel %d3,%sp@-
    df56:	2f0a           	movel %a2,%sp@-
    df58:	4e93           	jsr %a3@
    df5a:	4878 ffff      	pea ffffffff <LESS+0x0>
    df5e:	2f2f 0030      	movel %sp@(48),%sp@-
    df62:	2f0a           	movel %a2,%sp@-
    df64:	4e93           	jsr %a3@
    df66:	262f 0038      	movel %sp@(56),%d3
    df6a:	4fef 0018      	lea %sp@(24),%sp
    df6e:	4a82           	tstl %d2
    df70:	6710           	beqs df82 <fatfs_add_free_space+0x7a>
    df72:	5282           	addql #1,%d2
    df74:	b484           	cmpl %d4,%d2
    df76:	66c4           	bnes df3c <fatfs_add_free_space+0x34>
    df78:	7001           	moveq #1,%d0
    df7a:	4cdf 7c1c      	moveml %sp@+,%d2-%d4/%a2-%fp
    df7e:	588f           	addql #4,%sp
    df80:	4e75           	rts
    df82:	2a83           	movel %d3,%a5@
    df84:	2f03           	movel %d3,%sp@-
    df86:	2f0a           	movel %a2,%sp@-
    df88:	4e96           	jsr %fp@
    df8a:	508f           	addql #8,%sp
    df8c:	5282           	addql #1,%d2
    df8e:	b484           	cmpl %d4,%d2
    df90:	66aa           	bnes df3c <fatfs_add_free_space+0x34>
    df92:	60e4           	bras df78 <fatfs_add_free_space+0x70>
    df94:	2f2a 0006      	movel %a2@(6),%sp@-
    df98:	2f0a           	movel %a2,%sp@-
    df9a:	4eb9 0000 db70 	jsr db70 <fatfs_set_fs_info_next_free_cluster>
    dfa0:	508f           	addql #8,%sp
    dfa2:	6080           	bras df24 <fatfs_add_free_space+0x1c>

0000dfa4 <fatfs_allocate_free_space>:
    dfa4:	598f           	subql #4,%sp
    dfa6:	48e7 3820      	moveml %d2-%d4/%a2,%sp@-
    dfaa:	246f 0018      	moveal %sp@(24),%a2
    dfae:	262f 0024      	movel %sp@(36),%d3
    dfb2:	6700 00ba      	beqw e06e <fatfs_allocate_free_space+0xca>
    dfb6:	70ff           	moveq #-1,%d0
    dfb8:	b0aa 0020      	cmpl %a2@(32),%d0
    dfbc:	6700 00ba      	beqw e078 <fatfs_allocate_free_space+0xd4>
    dfc0:	7800           	moveq #0,%d4
    dfc2:	1812           	moveb %a2@,%d4
    dfc4:	7009           	moveq #9,%d0
    dfc6:	e1ac           	lsll %d0,%d4
    dfc8:	2f04           	movel %d4,%sp@-
    dfca:	2f03           	movel %d3,%sp@-
    dfcc:	4eb9 0000 ee74 	jsr ee74 <__udivsi3>
    dfd2:	508f           	addql #8,%sp
    dfd4:	2400           	movel %d0,%d2
    dfd6:	2f00           	movel %d0,%sp@-
    dfd8:	2f04           	movel %d4,%sp@-
    dfda:	4eb9 0000 ee50 	jsr ee50 <__mulsi3>
    dfe0:	508f           	addql #8,%sp
    dfe2:	b680           	cmpl %d0,%d3
    dfe4:	6702           	beqs dfe8 <fatfs_allocate_free_space+0x44>
    dfe6:	5282           	addql #1,%d2
    dfe8:	4aaf 001c      	tstl %sp@(28)
    dfec:	662e           	bnes e01c <fatfs_allocate_free_space+0x78>
    dfee:	206f 0020      	moveal %sp@(32),%a0
    dff2:	2f50 0010      	movel %a0@,%sp@(16)
    dff6:	7610           	moveq #16,%d3
    dff8:	d68f           	addl %sp,%d3
    dffa:	2f02           	movel %d2,%sp@-
    dffc:	2f03           	movel %d3,%sp@-
    dffe:	2f0a           	movel %a2,%sp@-
    e000:	4eb9 0000 df08 	jsr df08 <fatfs_add_free_space>
    e006:	4fef 000c      	lea %sp@(12),%sp
    e00a:	4a80           	tstl %d0
    e00c:	56c0           	sne %d0
    e00e:	4880           	extw %d0
    e010:	48c0           	extl %d0
    e012:	4480           	negl %d0
    e014:	4cdf 041c      	moveml %sp@+,%d2-%d4/%a2
    e018:	588f           	addql #4,%sp
    e01a:	4e75           	rts
    e01c:	7610           	moveq #16,%d3
    e01e:	d68f           	addl %sp,%d3
    e020:	2f03           	movel %d3,%sp@-
    e022:	2f2a 0020      	movel %a2@(32),%sp@-
    e026:	2f0a           	movel %a2,%sp@-
    e028:	4eb9 0000 dc0a 	jsr dc0a <fatfs_find_blank_cluster>
    e02e:	4fef 000c      	lea %sp@(12),%sp
    e032:	4a80           	tstl %d0
    e034:	6738           	beqs e06e <fatfs_allocate_free_space+0xca>
    e036:	7001           	moveq #1,%d0
    e038:	b082           	cmpl %d2,%d0
    e03a:	66be           	bnes dffa <fatfs_allocate_free_space+0x56>
    e03c:	4878 ffff      	pea ffffffff <LESS+0x0>
    e040:	2f2f 0014      	movel %sp@(20),%sp@-
    e044:	2f0a           	movel %a2,%sp@-
    e046:	4eb9 0000 dce4 	jsr dce4 <fatfs_fat_set_cluster>
    e04c:	202f 001c      	movel %sp@(28),%d0
    e050:	206f 002c      	moveal %sp@(44),%a0
    e054:	2080           	movel %d0,%a0@
    e056:	2f00           	movel %d0,%sp@-
    e058:	2f0a           	movel %a2,%sp@-
    e05a:	4eb9 0000 db70 	jsr db70 <fatfs_set_fs_info_next_free_cluster>
    e060:	4fef 0014      	lea %sp@(20),%sp
    e064:	7001           	moveq #1,%d0
    e066:	4cdf 041c      	moveml %sp@+,%d2-%d4/%a2
    e06a:	588f           	addql #4,%sp
    e06c:	4e75           	rts
    e06e:	7000           	moveq #0,%d0
    e070:	4cdf 041c      	moveml %sp@+,%d2-%d4/%a2
    e074:	588f           	addql #4,%sp
    e076:	4e75           	rts
    e078:	2f2a 0006      	movel %a2@(6),%sp@-
    e07c:	2f0a           	movel %a2,%sp@-
    e07e:	4eb9 0000 db70 	jsr db70 <fatfs_set_fs_info_next_free_cluster>
    e084:	508f           	addql #8,%sp
    e086:	7800           	moveq #0,%d4
    e088:	1812           	moveb %a2@,%d4
    e08a:	7009           	moveq #9,%d0
    e08c:	e1ac           	lsll %d0,%d4
    e08e:	2f04           	movel %d4,%sp@-
    e090:	2f03           	movel %d3,%sp@-
    e092:	4eb9 0000 ee74 	jsr ee74 <__udivsi3>
    e098:	508f           	addql #8,%sp
    e09a:	2400           	movel %d0,%d2
    e09c:	2f00           	movel %d0,%sp@-
    e09e:	2f04           	movel %d4,%sp@-
    e0a0:	4eb9 0000 ee50 	jsr ee50 <__mulsi3>
    e0a6:	508f           	addql #8,%sp
    e0a8:	b680           	cmpl %d0,%d3
    e0aa:	6600 ff3a      	bnew dfe6 <fatfs_allocate_free_space+0x42>
    e0ae:	6000 ff38      	braw dfe8 <fatfs_allocate_free_space+0x44>

0000e0b2 <fatfs_add_file_entry>:
    e0b2:	4e56 ffd4      	linkw %fp,#-44
    e0b6:	48e7 3f3c      	moveml %d2-%d7/%a2-%a5,%sp@-
    e0ba:	266e 0008      	moveal %fp@(8),%a3
    e0be:	286e 0010      	moveal %fp@(16),%a4
    e0c2:	4aab 0032      	tstl %a3@(50)
    e0c6:	6714           	beqs e0dc <fatfs_add_file_entry+0x2a>
    e0c8:	2f0c           	movel %a4,%sp@-
    e0ca:	4eb9 0000 cd5e 	jsr cd5e <fatfs_lfn_entries_required>
    e0d0:	2600           	movel %d0,%d3
    e0d2:	5280           	addql #1,%d0
    e0d4:	588f           	addql #4,%sp
    e0d6:	7201           	moveq #1,%d1
    e0d8:	b280           	cmpl %d0,%d1
    e0da:	650c           	bcss e0e8 <fatfs_add_file_entry+0x36>
    e0dc:	7000           	moveq #0,%d0
    e0de:	4cee 3cfc ffac 	moveml %fp@(-84),%d2-%d7/%a2-%a5
    e0e4:	4e5e           	unlk %fp
    e0e6:	4e75           	rts
    e0e8:	7a00           	moveq #0,%d5
    e0ea:	4207           	clrb %d7
    e0ec:	7800           	moveq #0,%d4
    e0ee:	7c00           	moveq #0,%d6
    e0f0:	7400           	moveq #0,%d2
    e0f2:	4beb 003e      	lea %a3@(62),%a5
    e0f6:	45f9 0000 cc76 	lea cc76 <fatfs_entry_lfn_text>,%a2
    e0fc:	2d43 ffd4      	movel %d3,%fp@(-44)
    e100:	2d4c ffdc      	movel %a4,%fp@(-36)
    e104:	42a7           	clrl %sp@-
    e106:	2f05           	movel %d5,%sp@-
    e108:	2f2e 000c      	movel %fp@(12),%sp@-
    e10c:	2f0b           	movel %a3,%sp@-
    e10e:	4eb9 0000 e5b6 	jsr e5b6 <fatfs_sector_reader>
    e114:	4fef 0010      	lea %sp@(16),%sp
    e118:	4a80           	tstl %d0
    e11a:	6700 0188      	beqw e2a4 <fatfs_add_file_entry+0x1f2>
    e11e:	2d4d ffd8      	movel %a5,%fp@(-40)
    e122:	284d           	moveal %a5,%a4
    e124:	4203           	clrb %d3
    e126:	2f0c           	movel %a4,%sp@-
    e128:	4e92           	jsr %a2@
    e12a:	588f           	addql #4,%sp
    e12c:	4a80           	tstl %d0
    e12e:	671c           	beqs e14c <fatfs_add_file_entry+0x9a>
    e130:	4a82           	tstl %d2
    e132:	6606           	bnes e13a <fatfs_add_file_entry+0x88>
    e134:	1e03           	moveb %d3,%d7
    e136:	2805           	movel %d5,%d4
    e138:	7c01           	moveq #1,%d6
    e13a:	5282           	addql #1,%d2
    e13c:	5203           	addqb #1,%d3
    e13e:	49ec 0020      	lea %a4@(32),%a4
    e142:	0c03 0010      	cmpib #16,%d3
    e146:	66de           	bnes e126 <fatfs_add_file_entry+0x74>
    e148:	5285           	addql #1,%d5
    e14a:	60b8           	bras e104 <fatfs_add_file_entry+0x52>
    e14c:	1014           	moveb %a4@,%d0
    e14e:	0c00 ffe5      	cmpib #-27,%d0
    e152:	6716           	beqs e16a <fatfs_add_file_entry+0xb8>
    e154:	4a00           	tstb %d0
    e156:	6712           	beqs e16a <fatfs_add_file_entry+0xb8>
    e158:	7c00           	moveq #0,%d6
    e15a:	7400           	moveq #0,%d2
    e15c:	5203           	addqb #1,%d3
    e15e:	49ec 0020      	lea %a4@(32),%a4
    e162:	0c03 0010      	cmpib #16,%d3
    e166:	66be           	bnes e126 <fatfs_add_file_entry+0x74>
    e168:	60de           	bras e148 <fatfs_add_file_entry+0x96>
    e16a:	4a82           	tstl %d2
    e16c:	6606           	bnes e174 <fatfs_add_file_entry+0xc2>
    e16e:	1e03           	moveb %d3,%d7
    e170:	2805           	movel %d5,%d4
    e172:	7c01           	moveq #1,%d6
    e174:	2002           	movel %d2,%d0
    e176:	5280           	addql #1,%d0
    e178:	b4ae ffd4      	cmpl %fp@(-44),%d2
    e17c:	6c10           	bges e18e <fatfs_add_file_entry+0xdc>
    e17e:	2400           	movel %d0,%d2
    e180:	5203           	addqb #1,%d3
    e182:	49ec 0020      	lea %a4@(32),%a4
    e186:	0c03 0010      	cmpib #16,%d3
    e18a:	669a           	bnes e126 <fatfs_add_file_entry+0x74>
    e18c:	60ba           	bras e148 <fatfs_add_file_entry+0x96>
    e18e:	262e ffd4      	movel %fp@(-44),%d3
    e192:	286e ffdc      	moveal %fp@(-36),%a4
    e196:	327c 000b      	moveaw #11,%a1
    e19a:	d3ee 0014      	addal %fp@(20),%a1
    e19e:	206e 0014      	moveal %fp@(20),%a0
    e1a2:	4202           	clrb %d2
    e1a4:	e21a           	rorb #1,%d2
    e1a6:	d418           	addb %a0@+,%d2
    e1a8:	b3c8           	cmpal %a0,%a1
    e1aa:	66f8           	bnes e1a4 <fatfs_add_file_entry+0xf2>
    e1ac:	2a04           	movel %d4,%d5
    e1ae:	7200           	moveq #0,%d1
    e1b0:	0282 0000 00ff 	andil #255,%d2
    e1b6:	45f9 0000 cd86 	lea cd86 <fatfs_filename_to_lfn>,%a2
    e1bc:	2a43           	moveal %d3,%a5
    e1be:	2601           	movel %d1,%d3
    e1c0:	2d4b ffd4      	movel %a3,%fp@(-44)
    e1c4:	42a7           	clrl %sp@-
    e1c6:	2f05           	movel %d5,%sp@-
    e1c8:	2f2e 000c      	movel %fp@(12),%sp@-
    e1cc:	2f2e ffd4      	movel %fp@(-44),%sp@-
    e1d0:	4eb9 0000 e5b6 	jsr e5b6 <fatfs_sector_reader>
    e1d6:	4fef 0010      	lea %sp@(16),%sp
    e1da:	4a80           	tstl %d0
    e1dc:	6700 fefe      	beqw e0dc <fatfs_add_file_entry+0x2a>
    e1e0:	266e ffd8      	moveal %fp@(-40),%a3
    e1e4:	7000           	moveq #0,%d0
    e1e6:	4206           	clrb %d6
    e1e8:	4a83           	tstl %d3
    e1ea:	663c           	bnes e228 <fatfs_add_file_entry+0x176>
    e1ec:	b885           	cmpl %d5,%d4
    e1ee:	6734           	beqs e224 <fatfs_add_file_entry+0x172>
    e1f0:	5206           	addqb #1,%d6
    e1f2:	47eb 0020      	lea %a3@(32),%a3
    e1f6:	0c06 0010      	cmpib #16,%d6
    e1fa:	66ec           	bnes e1e8 <fatfs_add_file_entry+0x136>
    e1fc:	4a80           	tstl %d0
    e1fe:	6720           	beqs e220 <fatfs_add_file_entry+0x16e>
    e200:	4878 0001      	pea 1 <ADD>
    e204:	2f2e ffd8      	movel %fp@(-40),%sp@-
    e208:	206e ffd4      	moveal %fp@(-44),%a0
    e20c:	2f28 103e      	movel %a0@(4158),%sp@-
    e210:	2268 0032      	moveal %a0@(50),%a1
    e214:	4e91           	jsr %a1@
    e216:	4fef 000c      	lea %sp@(12),%sp
    e21a:	4a80           	tstl %d0
    e21c:	6700 febe      	beqw e0dc <fatfs_add_file_entry+0x2a>
    e220:	5285           	addql #1,%d5
    e222:	60a0           	bras e1c4 <fatfs_add_file_entry+0x112>
    e224:	be06           	cmpb %d6,%d7
    e226:	66c8           	bnes e1f0 <fatfs_add_file_entry+0x13e>
    e228:	bafc 0000      	cmpaw #0,%a5
    e22c:	6722           	beqs e250 <fatfs_add_file_entry+0x19e>
    e22e:	538d           	subql #1,%a5
    e230:	2f02           	movel %d2,%sp@-
    e232:	2f0d           	movel %a5,%sp@-
    e234:	2f0b           	movel %a3,%sp@-
    e236:	2f0c           	movel %a4,%sp@-
    e238:	4e92           	jsr %a2@
    e23a:	4fef 0010      	lea %sp@(16),%sp
    e23e:	7601           	moveq #1,%d3
    e240:	7001           	moveq #1,%d0
    e242:	5206           	addqb #1,%d6
    e244:	47eb 0020      	lea %a3@(32),%a3
    e248:	0c06 0010      	cmpib #16,%d6
    e24c:	669a           	bnes e1e8 <fatfs_add_file_entry+0x136>
    e24e:	60ac           	bras e1fc <fatfs_add_file_entry+0x14a>
    e250:	2a4b           	moveal %a3,%a5
    e252:	266e ffd4      	moveal %fp@(-44),%a3
    e256:	2f2e 0020      	movel %fp@(32),%sp@-
    e25a:	45ee ffe0      	lea %fp@(-32),%a2
    e25e:	2f0a           	movel %a2,%sp@-
    e260:	2f2e 0018      	movel %fp@(24),%sp@-
    e264:	2f2e 001c      	movel %fp@(28),%sp@-
    e268:	2f2e 0014      	movel %fp@(20),%sp@-
    e26c:	4eb9 0000 cee6 	jsr cee6 <fatfs_sfn_create_entry>
    e272:	4878 0020      	pea 20 <R_STOPCNTCMD+0x2>
    e276:	2f0a           	movel %a2,%sp@-
    e278:	2f0d           	movel %a5,%sp@-
    e27a:	4eb9 0000 5b10 	jsr 5b10 <memcpy>
    e280:	4fef 0020      	lea %sp@(32),%sp
    e284:	4878 0001      	pea 1 <ADD>
    e288:	2f2e ffd8      	movel %fp@(-40),%sp@-
    e28c:	2f2b 103e      	movel %a3@(4158),%sp@-
    e290:	206b 0032      	moveal %a3@(50),%a0
    e294:	4e90           	jsr %a0@
    e296:	4fef 000c      	lea %sp@(12),%sp
    e29a:	4cee 3cfc ffac 	moveml %fp@(-84),%d2-%d7/%a2-%a5
    e2a0:	4e5e           	unlk %fp
    e2a2:	4e75           	rts
    e2a4:	262e ffd4      	movel %fp@(-44),%d3
    e2a8:	286e ffdc      	moveal %fp@(-36),%a4
    e2ac:	486e ffe0      	pea %fp@(-32)
    e2b0:	2f2b 0006      	movel %a3@(6),%sp@-
    e2b4:	2f0b           	movel %a3,%sp@-
    e2b6:	4eb9 0000 dc0a 	jsr dc0a <fatfs_find_blank_cluster>
    e2bc:	4fef 000c      	lea %sp@(12),%sp
    e2c0:	4a80           	tstl %d0
    e2c2:	6700 fe18      	beqw e0dc <fatfs_add_file_entry+0x2a>
    e2c6:	2f2e ffe0      	movel %fp@(-32),%sp@-
    e2ca:	2f2e 000c      	movel %fp@(12),%sp@-
    e2ce:	2f0b           	movel %a3,%sp@-
    e2d0:	4eb9 0000 ddf8 	jsr ddf8 <fatfs_fat_add_cluster_to_chain>
    e2d6:	4fef 000c      	lea %sp@(12),%sp
    e2da:	4a80           	tstl %d0
    e2dc:	6700 fdfe      	beqw e0dc <fatfs_add_file_entry+0x2a>
    e2e0:	41eb 003e      	lea %a3@(62),%a0
    e2e4:	2d48 ffd8      	movel %a0,%fp@(-40)
    e2e8:	4878 0200      	pea 200 <DBL_MANT_DIG+0x1cb>
    e2ec:	42a7           	clrl %sp@-
    e2ee:	2f08           	movel %a0,%sp@-
    e2f0:	4eb9 0000 263c 	jsr 263c <memset>
    e2f6:	4fef 000c      	lea %sp@(12),%sp
    e2fa:	4a13           	tstb %a3@
    e2fc:	6724           	beqs e322 <fatfs_add_file_entry+0x270>
    e2fe:	7400           	moveq #0,%d2
    e300:	45f9 0000 e7a8 	lea e7a8 <fatfs_write_sector>,%a2
    e306:	42a7           	clrl %sp@-
    e308:	2f02           	movel %d2,%sp@-
    e30a:	2f2e ffe0      	movel %fp@(-32),%sp@-
    e30e:	2f0b           	movel %a3,%sp@-
    e310:	4e92           	jsr %a2@
    e312:	4fef 0010      	lea %sp@(16),%sp
    e316:	4a80           	tstl %d0
    e318:	6700 fdc2      	beqw e0dc <fatfs_add_file_entry+0x2a>
    e31c:	5282           	addql #1,%d2
    e31e:	b413           	cmpb %a3@,%d2
    e320:	65e4           	bcss e306 <fatfs_add_file_entry+0x254>
    e322:	4a86           	tstl %d6
    e324:	6600 fe70      	bnew e196 <fatfs_add_file_entry+0xe4>
    e328:	2805           	movel %d5,%d4
    e32a:	4207           	clrb %d7
    e32c:	327c 000b      	moveaw #11,%a1
    e330:	d3ee 0014      	addal %fp@(20),%a1
    e334:	206e 0014      	moveal %fp@(20),%a0
    e338:	4202           	clrb %d2
    e33a:	6000 fe68      	braw e1a4 <fatfs_add_file_entry+0xf2>
	...

0000e340 <fatfs_init>:
    e340:	48e7 3c30      	moveml %d2-%d5/%a2-%a3,%sp@-
    e344:	246f 001c      	moveal %sp@(28),%a2
    e348:	70ff           	moveq #-1,%d0
    e34a:	2540 103e      	movel %d0,%a2@(4158)
    e34e:	42aa 1042      	clrl %a2@(4162)
    e352:	42aa 0020      	clrl %a2@(32)
    e356:	2f0a           	movel %a2,%sp@-
    e358:	4eb9 0000 d9b2 	jsr d9b2 <fatfs_fat_init>
    e35e:	206a 002e      	moveal %a2@(46),%a0
    e362:	588f           	addql #4,%sp
    e364:	b0fc 0000      	cmpaw #0,%a0
    e368:	6700 01c0      	beqw e52a <fatfs_init+0x1ea>
    e36c:	47ea 003e      	lea %a2@(62),%a3
    e370:	4878 0001      	pea 1 <ADD>
    e374:	2f0b           	movel %a3,%sp@-
    e376:	42a7           	clrl %sp@-
    e378:	4e90           	jsr %a0@
    e37a:	4fef 000c      	lea %sp@(12),%sp
    e37e:	4a80           	tstl %d0
    e380:	6700 01a8      	beqw e52a <fatfs_init+0x1ea>
    e384:	0c6a 55aa 023c 	cmpiw #21930,%a2@(572)
    e38a:	6600 0196      	bnew e522 <fatfs_init+0x1e2>
    e38e:	102a 0200      	moveb %a2@(512),%d0
    e392:	0c00 0006      	cmpib #6,%d0
    e396:	6200 013e      	bhiw e4d6 <fatfs_init+0x196>
    e39a:	0c00 0004      	cmpib #4,%d0
    e39e:	6200 0148      	bhiw e4e8 <fatfs_init+0x1a8>
    e3a2:	4a00           	tstb %d0
    e3a4:	6600 0142      	bnew e4e8 <fatfs_init+0x1a8>
    e3a8:	7000           	moveq #0,%d0
    e3aa:	2540 0018      	movel %d0,%a2@(24)
    e3ae:	4878 0001      	pea 1 <ADD>
    e3b2:	2f0b           	movel %a3,%sp@-
    e3b4:	2f00           	movel %d0,%sp@-
    e3b6:	206a 002e      	moveal %a2@(46),%a0
    e3ba:	4e90           	jsr %a0@
    e3bc:	4fef 000c      	lea %sp@(12),%sp
    e3c0:	4a80           	tstl %d0
    e3c2:	6700 0166      	beqw e52a <fatfs_init+0x1ea>
    e3c6:	7000           	moveq #0,%d0
    e3c8:	102a 0049      	moveb %a2@(73),%d0
    e3cc:	e188           	lsll #8,%d0
    e3ce:	802a 004a      	orb %a2@(74),%d0
    e3d2:	0c40 0002      	cmpiw #2,%d0
    e3d6:	6600 015a      	bnew e532 <fatfs_init+0x1f2>
    e3da:	162a 004b      	moveb %a2@(75),%d3
    e3de:	1483           	moveb %d3,%a2@
    e3e0:	3a2a 004c      	movew %a2@(76),%d5
    e3e4:	e05d           	rorw #8,%d5
    e3e6:	102a 004e      	moveb %a2@(78),%d0
    e3ea:	7400           	moveq #0,%d2
    e3ec:	142a 004f      	moveb %a2@(79),%d2
    e3f0:	e18a           	lsll #8,%d2
    e3f2:	842a 0050      	orb %a2@(80),%d2
    e3f6:	e05a           	rorw #8,%d2
    e3f8:	3542 0024      	movew %d2,%a2@(36)
    e3fc:	322a 0054      	movew %a2@(84),%d1
    e400:	e059           	rorw #8,%d1
    e402:	7800           	moveq #0,%d4
    e404:	3801           	movew %d1,%d4
    e406:	660a           	bnes e412 <fatfs_init+0xd2>
    e408:	282a 0062      	movel %a2@(98),%d4
    e40c:	e05c           	rorw #8,%d4
    e40e:	4844           	swap %d4
    e410:	e05c           	rorw #8,%d4
    e412:	2544 001c      	movel %d4,%a2@(28)
    e416:	222a 006a      	movel %a2@(106),%d1
    e41a:	e059           	rorw #8,%d1
    e41c:	4841           	swap %d1
    e41e:	e059           	rorw #8,%d1
    e420:	2541 0006      	movel %d1,%a2@(6)
    e424:	322a 006e      	movew %a2@(110),%d1
    e428:	e059           	rorw #8,%d1
    e42a:	3541 0016      	movew %d1,%a2@(22)
    e42e:	0285 0000 ffff 	andil #65535,%d5
    e434:	0280 0000 00ff 	andil #255,%d0
    e43a:	2f04           	movel %d4,%sp@-
    e43c:	2f00           	movel %d0,%sp@-
    e43e:	4eb9 0000 ee50 	jsr ee50 <__mulsi3>
    e444:	508f           	addql #8,%sp
    e446:	2205           	movel %d5,%d1
    e448:	d280           	addl %d0,%d1
    e44a:	2541 000a      	movel %d1,%a2@(10)
    e44e:	0282 0000 ffff 	andil #65535,%d2
    e454:	eb8a           	lsll #5,%d2
    e456:	0682 0000 01ff 	addil #511,%d2
    e45c:	7209           	moveq #9,%d1
    e45e:	e2a2           	asrl %d1,%d2
    e460:	2542 000e      	movel %d2,%a2@(14)
    e464:	2205           	movel %d5,%d1
    e466:	d2aa 0018      	addl %a2@(24),%d1
    e46a:	2541 0012      	movel %d1,%a2@(18)
    e46e:	d280           	addl %d0,%d1
    e470:	2541 0002      	movel %d1,%a2@(2)
    e474:	0c6a 55aa 023c 	cmpiw #21930,%a2@(572)
    e47a:	6600 00a6      	bnew e522 <fatfs_init+0x1e2>
    e47e:	7200           	moveq #0,%d1
    e480:	122a 0051      	moveb %a2@(81),%d1
    e484:	e189           	lsll #8,%d1
    e486:	822a 0052      	orb %a2@(82),%d1
    e48a:	4a81           	tstl %d1
    e48c:	6768           	beqs e4f6 <fatfs_init+0x1b6>
    e48e:	e059           	rorw #8,%d1
    e490:	0281 0000 ffff 	andil #65535,%d1
    e496:	2045           	moveal %d5,%a0
    e498:	d1c2           	addal %d2,%a0
    e49a:	d088           	addl %a0,%d0
    e49c:	9280           	subl %d0,%d1
    e49e:	4a03           	tstb %d3
    e4a0:	6700 0098      	beqw e53a <fatfs_init+0x1fa>
    e4a4:	0283 0000 00ff 	andil #255,%d3
    e4aa:	2f03           	movel %d3,%sp@-
    e4ac:	2f01           	movel %d1,%sp@-
    e4ae:	4eb9 0000 ee74 	jsr ee74 <__udivsi3>
    e4b4:	508f           	addql #8,%sp
    e4b6:	0c80 0000 0ff4 	cmpil #4084,%d0
    e4bc:	637c           	blss e53a <fatfs_init+0x1fa>
    e4be:	0c80 0000 fff4 	cmpil #65524,%d0
    e4c4:	623c           	bhis e502 <fatfs_init+0x1c2>
    e4c6:	42aa 0006      	clrl %a2@(6)
    e4ca:	42aa 002a      	clrl %a2@(42)
    e4ce:	7000           	moveq #0,%d0
    e4d0:	4cdf 0c3c      	moveml %sp@+,%d2-%d5/%a2-%a3
    e4d4:	4e75           	rts
    e4d6:	0c00 000c      	cmpib #12,%d0
    e4da:	6330           	blss e50c <fatfs_init+0x1cc>
    e4dc:	0600 fff2      	addib #-14,%d0
    e4e0:	0c00 0001      	cmpib #1,%d0
    e4e4:	6200 fec2      	bhiw e3a8 <fatfs_init+0x68>
    e4e8:	202a 0204      	movel %a2@(516),%d0
    e4ec:	e058           	rorw #8,%d0
    e4ee:	4840           	swap %d0
    e4f0:	e058           	rorw #8,%d0
    e4f2:	6000 feb6      	braw e3aa <fatfs_init+0x6a>
    e4f6:	222a 005e      	movel %a2@(94),%d1
    e4fa:	e059           	rorw #8,%d1
    e4fc:	4841           	swap %d1
    e4fe:	e059           	rorw #8,%d1
    e500:	6094           	bras e496 <fatfs_init+0x156>
    e502:	7001           	moveq #1,%d0
    e504:	2540 002a      	movel %d0,%a2@(42)
    e508:	7000           	moveq #0,%d0
    e50a:	60c4           	bras e4d0 <fatfs_init+0x190>
    e50c:	0c00 000a      	cmpib #10,%d0
    e510:	6300 fe96      	blsw e3a8 <fatfs_init+0x68>
    e514:	202a 0204      	movel %a2@(516),%d0
    e518:	e058           	rorw #8,%d0
    e51a:	4840           	swap %d0
    e51c:	e058           	rorw #8,%d0
    e51e:	6000 fe8a      	braw e3aa <fatfs_init+0x6a>
    e522:	70fd           	moveq #-3,%d0
    e524:	4cdf 0c3c      	moveml %sp@+,%d2-%d5/%a2-%a3
    e528:	4e75           	rts
    e52a:	70ff           	moveq #-1,%d0
    e52c:	4cdf 0c3c      	moveml %sp@+,%d2-%d5/%a2-%a3
    e530:	4e75           	rts
    e532:	70fe           	moveq #-2,%d0
    e534:	4cdf 0c3c      	moveml %sp@+,%d2-%d5/%a2-%a3
    e538:	4e75           	rts
    e53a:	70fb           	moveq #-5,%d0
    e53c:	4cdf 0c3c      	moveml %sp@+,%d2-%d5/%a2-%a3
    e540:	4e75           	rts

0000e542 <fatfs_lba_of_cluster>:
    e542:	2f0a           	movel %a2,%sp@-
    e544:	246f 0008      	moveal %sp@(8),%a2
    e548:	7000           	moveq #0,%d0
    e54a:	1012           	moveb %a2@,%d0
    e54c:	2f00           	movel %d0,%sp@-
    e54e:	202f 0010      	movel %sp@(16),%d0
    e552:	5580           	subql #2,%d0
    e554:	2f00           	movel %d0,%sp@-
    e556:	4eb9 0000 ee50 	jsr ee50 <__mulsi3>
    e55c:	508f           	addql #8,%sp
    e55e:	d0aa 0002      	addl %a2@(2),%d0
    e562:	4aaa 002a      	tstl %a2@(42)
    e566:	660a           	bnes e572 <fatfs_lba_of_cluster+0x30>
    e568:	7200           	moveq #0,%d1
    e56a:	322a 0024      	movew %a2@(36),%d1
    e56e:	e881           	asrl #4,%d1
    e570:	d081           	addl %d1,%d0
    e572:	245f           	moveal %sp@+,%a2
    e574:	4e75           	rts

0000e576 <fatfs_sector_read>:
    e576:	206f 0004      	moveal %sp@(4),%a0
    e57a:	202f 0008      	movel %sp@(8),%d0
    e57e:	222f 000c      	movel %sp@(12),%d1
    e582:	2f6f 0010 000c 	movel %sp@(16),%sp@(12)
    e588:	2f41 0008      	movel %d1,%sp@(8)
    e58c:	2f40 0004      	movel %d0,%sp@(4)
    e590:	2268 002e      	moveal %a0@(46),%a1
    e594:	4ed1           	jmp %a1@

0000e596 <fatfs_sector_write>:
    e596:	206f 0004      	moveal %sp@(4),%a0
    e59a:	202f 0008      	movel %sp@(8),%d0
    e59e:	222f 000c      	movel %sp@(12),%d1
    e5a2:	2f6f 0010 000c 	movel %sp@(16),%sp@(12)
    e5a8:	2f41 0008      	movel %d1,%sp@(8)
    e5ac:	2f40 0004      	movel %d0,%sp@(4)
    e5b0:	2268 0032      	moveal %a0@(50),%a1
    e5b4:	4ed1           	jmp %a1@

0000e5b6 <fatfs_sector_reader>:
    e5b6:	48e7 3f30      	moveml %d2-%d7/%a2-%a3,%sp@-
    e5ba:	246f 0024      	moveal %sp@(36),%a2
    e5be:	242f 0028      	movel %sp@(40),%d2
    e5c2:	262f 002c      	movel %sp@(44),%d3
    e5c6:	2a2f 0030      	movel %sp@(48),%d5
    e5ca:	2002           	movel %d2,%d0
    e5cc:	80aa 002a      	orl %a2@(42),%d0
    e5d0:	6630           	bnes e602 <fatfs_sector_reader+0x4c>
    e5d2:	b6aa 000e      	cmpl %a2@(14),%d3
    e5d6:	6400 00d0      	bccw e6a8 <fatfs_sector_reader+0xf2>
    e5da:	202a 0018      	movel %a2@(24),%d0
    e5de:	d0aa 000a      	addl %a2@(10),%d0
    e5e2:	d083           	addl %d3,%d0
    e5e4:	4a85           	tstl %d5
    e5e6:	6700 0090      	beqw e678 <fatfs_sector_reader+0xc2>
    e5ea:	7201           	moveq #1,%d1
    e5ec:	2f41 002c      	movel %d1,%sp@(44)
    e5f0:	2f45 0028      	movel %d5,%sp@(40)
    e5f4:	2f40 0024      	movel %d0,%sp@(36)
    e5f8:	226a 002e      	moveal %a2@(46),%a1
    e5fc:	4cdf 0cfc      	moveml %sp@+,%d2-%d7/%a2-%a3
    e600:	4ed1           	jmp %a1@
    e602:	7e00           	moveq #0,%d7
    e604:	1e12           	moveb %a2@,%d7
    e606:	2f07           	movel %d7,%sp@-
    e608:	2f03           	movel %d3,%sp@-
    e60a:	4eb9 0000 ee74 	jsr ee74 <__udivsi3>
    e610:	508f           	addql #8,%sp
    e612:	2800           	movel %d0,%d4
    e614:	2f07           	movel %d7,%sp@-
    e616:	2f03           	movel %d3,%sp@-
    e618:	4eb9 0000 ef00 	jsr ef00 <__umodsi3>
    e61e:	508f           	addql #8,%sp
    e620:	2c00           	movel %d0,%d6
    e622:	b687           	cmpl %d7,%d3
    e624:	6518           	bcss e63e <fatfs_sector_reader+0x88>
    e626:	7600           	moveq #0,%d3
    e628:	47f9 0000 da92 	lea da92 <fatfs_find_next_cluster>,%a3
    e62e:	2f02           	movel %d2,%sp@-
    e630:	2f0a           	movel %a2,%sp@-
    e632:	4e93           	jsr %a3@
    e634:	2400           	movel %d0,%d2
    e636:	5283           	addql #1,%d3
    e638:	508f           	addql #8,%sp
    e63a:	b684           	cmpl %d4,%d3
    e63c:	65f0           	bcss e62e <fatfs_sector_reader+0x78>
    e63e:	70ff           	moveq #-1,%d0
    e640:	b082           	cmpl %d2,%d0
    e642:	6764           	beqs e6a8 <fatfs_sector_reader+0xf2>
    e644:	262a 0002      	movel %a2@(2),%d3
    e648:	7000           	moveq #0,%d0
    e64a:	1012           	moveb %a2@,%d0
    e64c:	2f00           	movel %d0,%sp@-
    e64e:	2042           	moveal %d2,%a0
    e650:	4868 fffe      	pea %a0@(-2)
    e654:	4eb9 0000 ee50 	jsr ee50 <__mulsi3>
    e65a:	508f           	addql #8,%sp
    e65c:	4aaa 002a      	tstl %a2@(42)
    e660:	663c           	bnes e69e <fatfs_sector_reader+0xe8>
    e662:	7200           	moveq #0,%d1
    e664:	322a 0024      	movew %a2@(36),%d1
    e668:	e881           	asrl #4,%d1
    e66a:	d283           	addl %d3,%d1
    e66c:	d280           	addl %d0,%d1
    e66e:	2001           	movel %d1,%d0
    e670:	d086           	addl %d6,%d0
    e672:	4a85           	tstl %d5
    e674:	6600 ff74      	bnew e5ea <fatfs_sector_reader+0x34>
    e678:	b0aa 103e      	cmpl %a2@(4158),%d0
    e67c:	6732           	beqs e6b0 <fatfs_sector_reader+0xfa>
    e67e:	2540 103e      	movel %d0,%a2@(4158)
    e682:	7201           	moveq #1,%d1
    e684:	2f41 002c      	movel %d1,%sp@(44)
    e688:	41ea 003e      	lea %a2@(62),%a0
    e68c:	2f48 0028      	movel %a0,%sp@(40)
    e690:	2f40 0024      	movel %d0,%sp@(36)
    e694:	226a 002e      	moveal %a2@(46),%a1
    e698:	4cdf 0cfc      	moveml %sp@+,%d2-%d7/%a2-%a3
    e69c:	4ed1           	jmp %a1@
    e69e:	2203           	movel %d3,%d1
    e6a0:	d280           	addl %d0,%d1
    e6a2:	2001           	movel %d1,%d0
    e6a4:	d086           	addl %d6,%d0
    e6a6:	60ca           	bras e672 <fatfs_sector_reader+0xbc>
    e6a8:	7000           	moveq #0,%d0
    e6aa:	4cdf 0cfc      	moveml %sp@+,%d2-%d7/%a2-%a3
    e6ae:	4e75           	rts
    e6b0:	7001           	moveq #1,%d0
    e6b2:	4cdf 0cfc      	moveml %sp@+,%d2-%d7/%a2-%a3
    e6b6:	4e75           	rts

0000e6b8 <fatfs_read_sector>:
    e6b8:	48e7 3020      	moveml %d2-%d3/%a2,%sp@-
    e6bc:	246f 0010      	moveal %sp@(16),%a2
    e6c0:	206f 0014      	moveal %sp@(20),%a0
    e6c4:	242f 0018      	movel %sp@(24),%d2
    e6c8:	262f 001c      	movel %sp@(28),%d3
    e6cc:	4aaa 002a      	tstl %a2@(42)
    e6d0:	6636           	bnes e708 <fatfs_read_sector+0x50>
    e6d2:	b0fc 0000      	cmpaw #0,%a0
    e6d6:	6664           	bnes e73c <fatfs_read_sector+0x84>
    e6d8:	b4aa 000e      	cmpl %a2@(14),%d2
    e6dc:	6400 00a6      	bccw e784 <fatfs_read_sector+0xcc>
    e6e0:	202a 0018      	movel %a2@(24),%d0
    e6e4:	d0aa 000a      	addl %a2@(10),%d0
    e6e8:	d082           	addl %d2,%d0
    e6ea:	226a 002e      	moveal %a2@(46),%a1
    e6ee:	4a83           	tstl %d3
    e6f0:	6700 009a      	beqw e78c <fatfs_read_sector+0xd4>
    e6f4:	7201           	moveq #1,%d1
    e6f6:	2f41 0018      	movel %d1,%sp@(24)
    e6fa:	2f43 0014      	movel %d3,%sp@(20)
    e6fe:	2f40 0010      	movel %d0,%sp@(16)
    e702:	4cdf 040c      	moveml %sp@+,%d2-%d3/%a2
    e706:	4ed1           	jmp %a1@
    e708:	7000           	moveq #0,%d0
    e70a:	1012           	moveb %a2@,%d0
    e70c:	4868 fffe      	pea %a0@(-2)
    e710:	2f00           	movel %d0,%sp@-
    e712:	4eb9 0000 ee50 	jsr ee50 <__mulsi3>
    e718:	508f           	addql #8,%sp
    e71a:	d0aa 0002      	addl %a2@(2),%d0
    e71e:	4a83           	tstl %d3
    e720:	6740           	beqs e762 <fatfs_read_sector+0xaa>
    e722:	7201           	moveq #1,%d1
    e724:	2f41 0018      	movel %d1,%sp@(24)
    e728:	2f43 0014      	movel %d3,%sp@(20)
    e72c:	d480           	addl %d0,%d2
    e72e:	2f42 0010      	movel %d2,%sp@(16)
    e732:	226a 002e      	moveal %a2@(46),%a1
    e736:	4cdf 040c      	moveml %sp@+,%d2-%d3/%a2
    e73a:	4ed1           	jmp %a1@
    e73c:	7000           	moveq #0,%d0
    e73e:	1012           	moveb %a2@,%d0
    e740:	2f00           	movel %d0,%sp@-
    e742:	4868 fffe      	pea %a0@(-2)
    e746:	4eb9 0000 ee50 	jsr ee50 <__mulsi3>
    e74c:	508f           	addql #8,%sp
    e74e:	2200           	movel %d0,%d1
    e750:	d2aa 0002      	addl %a2@(2),%d1
    e754:	7000           	moveq #0,%d0
    e756:	302a 0024      	movew %a2@(36),%d0
    e75a:	e880           	asrl #4,%d0
    e75c:	d081           	addl %d1,%d0
    e75e:	4a83           	tstl %d3
    e760:	66c0           	bnes e722 <fatfs_read_sector+0x6a>
    e762:	d480           	addl %d0,%d2
    e764:	2542 103e      	movel %d2,%a2@(4158)
    e768:	7001           	moveq #1,%d0
    e76a:	2f40 0018      	movel %d0,%sp@(24)
    e76e:	41ea 003e      	lea %a2@(62),%a0
    e772:	2f48 0014      	movel %a0,%sp@(20)
    e776:	2f42 0010      	movel %d2,%sp@(16)
    e77a:	226a 002e      	moveal %a2@(46),%a1
    e77e:	4cdf 040c      	moveml %sp@+,%d2-%d3/%a2
    e782:	4ed1           	jmp %a1@
    e784:	7000           	moveq #0,%d0
    e786:	4cdf 040c      	moveml %sp@+,%d2-%d3/%a2
    e78a:	4e75           	rts
    e78c:	2540 103e      	movel %d0,%a2@(4158)
    e790:	7201           	moveq #1,%d1
    e792:	2f41 0018      	movel %d1,%sp@(24)
    e796:	45ea 003e      	lea %a2@(62),%a2
    e79a:	2f4a 0014      	movel %a2,%sp@(20)
    e79e:	2f40 0010      	movel %d0,%sp@(16)
    e7a2:	4cdf 040c      	moveml %sp@+,%d2-%d3/%a2
    e7a6:	4ed1           	jmp %a1@

0000e7a8 <fatfs_write_sector>:
    e7a8:	48e7 3820      	moveml %d2-%d4/%a2,%sp@-
    e7ac:	246f 0014      	moveal %sp@(20),%a2
    e7b0:	206f 0018      	moveal %sp@(24),%a0
    e7b4:	262f 001c      	movel %sp@(28),%d3
    e7b8:	282f 0020      	movel %sp@(32),%d4
    e7bc:	242a 0032      	movel %a2@(50),%d2
    e7c0:	676a           	beqs e82c <fatfs_write_sector+0x84>
    e7c2:	4aaa 002a      	tstl %a2@(42)
    e7c6:	6632           	bnes e7fa <fatfs_write_sector+0x52>
    e7c8:	b0fc 0000      	cmpaw #0,%a0
    e7cc:	6666           	bnes e834 <fatfs_write_sector+0x8c>
    e7ce:	b6aa 000e      	cmpl %a2@(14),%d3
    e7d2:	6458           	bccs e82c <fatfs_write_sector+0x84>
    e7d4:	202a 0018      	movel %a2@(24),%d0
    e7d8:	d0aa 000a      	addl %a2@(10),%d0
    e7dc:	d083           	addl %d3,%d0
    e7de:	4a84           	tstl %d4
    e7e0:	6700 0098      	beqw e87a <fatfs_write_sector+0xd2>
    e7e4:	7201           	moveq #1,%d1
    e7e6:	2f41 001c      	movel %d1,%sp@(28)
    e7ea:	2f44 0018      	movel %d4,%sp@(24)
    e7ee:	2f40 0014      	movel %d0,%sp@(20)
    e7f2:	2242           	moveal %d2,%a1
    e7f4:	4cdf 041c      	moveml %sp@+,%d2-%d4/%a2
    e7f8:	4ed1           	jmp %a1@
    e7fa:	7000           	moveq #0,%d0
    e7fc:	1012           	moveb %a2@,%d0
    e7fe:	2f00           	movel %d0,%sp@-
    e800:	4868 fffe      	pea %a0@(-2)
    e804:	4eb9 0000 ee50 	jsr ee50 <__mulsi3>
    e80a:	508f           	addql #8,%sp
    e80c:	d0aa 0002      	addl %a2@(2),%d0
    e810:	4a84           	tstl %d4
    e812:	6746           	beqs e85a <fatfs_write_sector+0xb2>
    e814:	7201           	moveq #1,%d1
    e816:	2f41 001c      	movel %d1,%sp@(28)
    e81a:	2f44 0018      	movel %d4,%sp@(24)
    e81e:	d680           	addl %d0,%d3
    e820:	2f43 0014      	movel %d3,%sp@(20)
    e824:	2242           	moveal %d2,%a1
    e826:	4cdf 041c      	moveml %sp@+,%d2-%d4/%a2
    e82a:	4ed1           	jmp %a1@
    e82c:	7000           	moveq #0,%d0
    e82e:	4cdf 041c      	moveml %sp@+,%d2-%d4/%a2
    e832:	4e75           	rts
    e834:	7000           	moveq #0,%d0
    e836:	1012           	moveb %a2@,%d0
    e838:	4868 fffe      	pea %a0@(-2)
    e83c:	2f00           	movel %d0,%sp@-
    e83e:	4eb9 0000 ee50 	jsr ee50 <__mulsi3>
    e844:	508f           	addql #8,%sp
    e846:	2200           	movel %d0,%d1
    e848:	d2aa 0002      	addl %a2@(2),%d1
    e84c:	7000           	moveq #0,%d0
    e84e:	302a 0024      	movew %a2@(36),%d0
    e852:	e880           	asrl #4,%d0
    e854:	d081           	addl %d1,%d0
    e856:	4a84           	tstl %d4
    e858:	66ba           	bnes e814 <fatfs_write_sector+0x6c>
    e85a:	d680           	addl %d0,%d3
    e85c:	2543 103e      	movel %d3,%a2@(4158)
    e860:	7001           	moveq #1,%d0
    e862:	2f40 001c      	movel %d0,%sp@(28)
    e866:	45ea 003e      	lea %a2@(62),%a2
    e86a:	2f4a 0018      	movel %a2,%sp@(24)
    e86e:	2f43 0014      	movel %d3,%sp@(20)
    e872:	2242           	moveal %d2,%a1
    e874:	4cdf 041c      	moveml %sp@+,%d2-%d4/%a2
    e878:	4ed1           	jmp %a1@
    e87a:	2540 103e      	movel %d0,%a2@(4158)
    e87e:	7201           	moveq #1,%d1
    e880:	2f41 001c      	movel %d1,%sp@(28)
    e884:	45ea 003e      	lea %a2@(62),%a2
    e888:	2f4a 0018      	movel %a2,%sp@(24)
    e88c:	2f40 0014      	movel %d0,%sp@(20)
    e890:	2242           	moveal %d2,%a1
    e892:	4cdf 041c      	moveml %sp@+,%d2-%d4/%a2
    e896:	4ed1           	jmp %a1@

0000e898 <fatfs_get_root_cluster>:
    e898:	206f 0004      	moveal %sp@(4),%a0
    e89c:	2028 0006      	movel %a0@(6),%d0
    e8a0:	4e75           	rts

0000e8a2 <fatfs_get_file_entry>:
    e8a2:	4fef feec      	lea %sp@(-276),%sp
    e8a6:	48e7 3f3e      	moveml %d2-%d7/%a2-%fp,%sp@-
    e8aa:	4878 0001      	pea 1 <ADD>
    e8ae:	743e           	moveq #62,%d2
    e8b0:	d48f           	addl %sp,%d2
    e8b2:	2f02           	movel %d2,%sp@-
    e8b4:	4df9 0000 cb5c 	lea cb5c <fatfs_lfn_cache_init>,%fp
    e8ba:	4e96           	jsr %fp@
    e8bc:	508f           	addql #8,%sp
    e8be:	7a00           	moveq #0,%d5
    e8c0:	4bf9 0000 cc90 	lea cc90 <fatfs_entry_lfn_invalid>,%a5
    e8c6:	283c 0000 ccc0 	movel #52416,%d4
    e8cc:	42a7           	clrl %sp@-
    e8ce:	2f05           	movel %d5,%sp@-
    e8d0:	2f2f 0150      	movel %sp@(336),%sp@-
    e8d4:	2f2f 0150      	movel %sp@(336),%sp@-
    e8d8:	4eb9 0000 e5b6 	jsr e5b6 <fatfs_sector_reader>
    e8de:	4fef 0010      	lea %sp@(16),%sp
    e8e2:	4a80           	tstl %d0
    e8e4:	6760           	beqs e946 <fatfs_get_file_entry+0xa4>
    e8e6:	347c 003e      	moveaw #62,%a2
    e8ea:	d5ef 0144      	addal %sp@(324),%a2
    e8ee:	262f 0144      	movel %sp@(324),%d3
    e8f2:	0683 0000 023e 	addil #574,%d3
    e8f8:	47f9 0000 cc76 	lea cc76 <fatfs_entry_lfn_text>,%a3
    e8fe:	2e3c 0000 cc3e 	movel #52286,%d7
    e904:	2c3c 0000 d59a 	movel #54682,%d6
    e90a:	49f9 0000 cb98 	lea cb98 <fatfs_lfn_cache_entry>,%a4
    e910:	2f0a           	movel %a2,%sp@-
    e912:	4e93           	jsr %a3@
    e914:	588f           	addql #4,%sp
    e916:	4a80           	tstl %d0
    e918:	6738           	beqs e952 <fatfs_get_file_entry+0xb0>
    e91a:	2f0a           	movel %a2,%sp@-
    e91c:	2f02           	movel %d2,%sp@-
    e91e:	4e94           	jsr %a4@
    e920:	508f           	addql #8,%sp
    e922:	45ea 0020      	lea %a2@(32),%a2
    e926:	b5c3           	cmpal %d3,%a2
    e928:	66e6           	bnes e910 <fatfs_get_file_entry+0x6e>
    e92a:	5285           	addql #1,%d5
    e92c:	42a7           	clrl %sp@-
    e92e:	2f05           	movel %d5,%sp@-
    e930:	2f2f 0150      	movel %sp@(336),%sp@-
    e934:	2f2f 0150      	movel %sp@(336),%sp@-
    e938:	4eb9 0000 e5b6 	jsr e5b6 <fatfs_sector_reader>
    e93e:	4fef 0010      	lea %sp@(16),%sp
    e942:	4a80           	tstl %d0
    e944:	66a0           	bnes e8e6 <fatfs_get_file_entry+0x44>
    e946:	7000           	moveq #0,%d0
    e948:	4cdf 7cfc      	moveml %sp@+,%d2-%d7/%a2-%fp
    e94c:	4fef 0114      	lea %sp@(276),%sp
    e950:	4e75           	rts
    e952:	2f0a           	movel %a2,%sp@-
    e954:	4e95           	jsr %a5@
    e956:	588f           	addql #4,%sp
    e958:	4a80           	tstl %d0
    e95a:	6628           	bnes e984 <fatfs_get_file_entry+0xe2>
    e95c:	2f0a           	movel %a2,%sp@-
    e95e:	2f02           	movel %d2,%sp@-
    e960:	2044           	moveal %d4,%a0
    e962:	4e90           	jsr %a0@
    e964:	508f           	addql #8,%sp
    e966:	4a80           	tstl %d0
    e968:	6700 0082      	beqw e9ec <fatfs_get_file_entry+0x14a>
    e96c:	2f02           	movel %d2,%sp@-
    e96e:	2047           	moveal %d7,%a0
    e970:	4e90           	jsr %a0@
    e972:	2f2f 0150      	movel %sp@(336),%sp@-
    e976:	2f00           	movel %d0,%sp@-
    e978:	2046           	moveal %d6,%a0
    e97a:	4e90           	jsr %a0@
    e97c:	4fef 000c      	lea %sp@(12),%sp
    e980:	4a80           	tstl %d0
    e982:	6648           	bnes e9cc <fatfs_get_file_entry+0x12a>
    e984:	42a7           	clrl %sp@-
    e986:	2f02           	movel %d2,%sp@-
    e988:	4e96           	jsr %fp@
    e98a:	508f           	addql #8,%sp
    e98c:	45ea 0020      	lea %a2@(32),%a2
    e990:	b5c3           	cmpal %d3,%a2
    e992:	6600 ff7c      	bnew e910 <fatfs_get_file_entry+0x6e>
    e996:	6092           	bras e92a <fatfs_get_file_entry+0x88>
    e998:	122a 000a      	moveb %a2@(10),%d1
    e99c:	1f41 0038      	moveb %d1,%sp@(56)
    e9a0:	122a 000a      	moveb %a2@(10),%d1
    e9a4:	0c01 0020      	cmpib #32,%d1
    e9a8:	6600 00be      	bnew ea68 <fatfs_get_file_entry+0x1c6>
    e9ac:	b2fc 0000      	cmpaw #0,%a1
    e9b0:	6600 00b6      	bnew ea68 <fatfs_get_file_entry+0x1c6>
    e9b4:	7220           	moveq #32,%d1
    e9b6:	1f41 0035      	moveb %d1,%sp@(53)
    e9ba:	2f2f 014c      	movel %sp@(332),%sp@-
    e9be:	2f00           	movel %d0,%sp@-
    e9c0:	4eb9 0000 d59a 	jsr d59a <fatfs_compare_names>
    e9c6:	508f           	addql #8,%sp
    e9c8:	4a80           	tstl %d0
    e9ca:	67b8           	beqs e984 <fatfs_get_file_entry+0xe2>
    e9cc:	4878 0020      	pea 20 <R_STOPCNTCMD+0x2>
    e9d0:	2f0a           	movel %a2,%sp@-
    e9d2:	2f2f 0158      	movel %sp@(344),%sp@-
    e9d6:	4eb9 0000 5b10 	jsr 5b10 <memcpy>
    e9dc:	4fef 000c      	lea %sp@(12),%sp
    e9e0:	7001           	moveq #1,%d0
    e9e2:	4cdf 7cfc      	moveml %sp@+,%d2-%d7/%a2-%fp
    e9e6:	4fef 0114      	lea %sp@(276),%sp
    e9ea:	4e75           	rts
    e9ec:	2f0a           	movel %a2,%sp@-
    e9ee:	4eb9 0000 cd04 	jsr cd04 <fatfs_entry_sfn_only>
    e9f4:	588f           	addql #4,%sp
    e9f6:	4a80           	tstl %d0
    e9f8:	6700 ff28      	beqw e922 <fatfs_get_file_entry+0x80>
    e9fc:	702d           	moveq #45,%d0
    e9fe:	d08f           	addl %sp,%d0
    ea00:	2040           	moveal %d0,%a0
    ea02:	4218           	clrb %a0@+
    ea04:	4218           	clrb %a0@+
    ea06:	4218           	clrb %a0@+
    ea08:	4218           	clrb %a0@+
    ea0a:	4218           	clrb %a0@+
    ea0c:	4218           	clrb %a0@+
    ea0e:	4218           	clrb %a0@+
    ea10:	4218           	clrb %a0@+
    ea12:	4218           	clrb %a0@+
    ea14:	4218           	clrb %a0@+
    ea16:	4218           	clrb %a0@+
    ea18:	4218           	clrb %a0@+
    ea1a:	4210           	clrb %a0@
    ea1c:	2240           	moveal %d0,%a1
    ea1e:	91c8           	subal %a0,%a0
    ea20:	1232 8800      	moveb %a2@(0,%a0:l),%d1
    ea24:	12c1           	moveb %d1,%a1@+
    ea26:	5288           	addql #1,%a0
    ea28:	7208           	moveq #8,%d1
    ea2a:	b288           	cmpl %a0,%d1
    ea2c:	66f2           	bnes ea20 <fatfs_get_file_entry+0x17e>
    ea2e:	122a 0008      	moveb %a2@(8),%d1
    ea32:	1f41 0036      	moveb %d1,%sp@(54)
    ea36:	122a 0008      	moveb %a2@(8),%d1
    ea3a:	0c01 0020      	cmpib #32,%d1
    ea3e:	56c1           	sne %d1
    ea40:	4881           	extw %d1
    ea42:	48c1           	extl %d1
    ea44:	4481           	negl %d1
    ea46:	2241           	moveal %d1,%a1
    ea48:	122a 0009      	moveb %a2@(9),%d1
    ea4c:	1f41 0037      	moveb %d1,%sp@(55)
    ea50:	122a 0009      	moveb %a2@(9),%d1
    ea54:	0c01 0020      	cmpib #32,%d1
    ea58:	6700 ff3e      	beqw e998 <fatfs_get_file_entry+0xf6>
    ea5c:	122a 000a      	moveb %a2@(10),%d1
    ea60:	1f41 0038      	moveb %d1,%sp@(56)
    ea64:	122a 000a      	moveb %a2@(10),%d1
    ea68:	0c2f 002e 002d 	cmpib #46,%sp@(45)
    ea6e:	6700 ff44      	beqw e9b4 <fatfs_get_file_entry+0x112>
    ea72:	722e           	moveq #46,%d1
    ea74:	1f41 0035      	moveb %d1,%sp@(53)
    ea78:	2f2f 014c      	movel %sp@(332),%sp@-
    ea7c:	2f00           	movel %d0,%sp@-
    ea7e:	4eb9 0000 d59a 	jsr d59a <fatfs_compare_names>
    ea84:	508f           	addql #8,%sp
    ea86:	4a80           	tstl %d0
    ea88:	6700 fefa      	beqw e984 <fatfs_get_file_entry+0xe2>
    ea8c:	6000 ff3e      	braw e9cc <fatfs_get_file_entry+0x12a>

0000ea90 <fatfs_sfn_exists>:
    ea90:	48e7 3e3e      	moveml %d2-%d6/%a2-%fp,%sp@-
    ea94:	2a6f 002c      	moveal %sp@(44),%a5
    ea98:	2a2f 0030      	movel %sp@(48),%d5
    ea9c:	2c2f 0034      	movel %sp@(52),%d6
    eaa0:	7600           	moveq #0,%d3
    eaa2:	283c 0000 e5b6 	movel #58806,%d4
    eaa8:	240d           	movel %a5,%d2
    eaaa:	0682 0000 023e 	addil #574,%d2
    eab0:	47f9 0000 cc76 	lea cc76 <fatfs_entry_lfn_text>,%a3
    eab6:	49f9 0000 cc90 	lea cc90 <fatfs_entry_lfn_invalid>,%a4
    eabc:	4df9 0000 cd04 	lea cd04 <fatfs_entry_sfn_only>,%fp
    eac2:	42a7           	clrl %sp@-
    eac4:	2f03           	movel %d3,%sp@-
    eac6:	2f05           	movel %d5,%sp@-
    eac8:	2f0d           	movel %a5,%sp@-
    eaca:	2044           	moveal %d4,%a0
    eacc:	4e90           	jsr %a0@
    eace:	4fef 0010      	lea %sp@(16),%sp
    ead2:	4a80           	tstl %d0
    ead4:	672c           	beqs eb02 <fatfs_sfn_exists+0x72>
    ead6:	45ed 003e      	lea %a5@(62),%a2
    eada:	2f0a           	movel %a2,%sp@-
    eadc:	4e93           	jsr %a3@
    eade:	588f           	addql #4,%sp
    eae0:	4a80           	tstl %d0
    eae2:	6724           	beqs eb08 <fatfs_sfn_exists+0x78>
    eae4:	45ea 0020      	lea %a2@(32),%a2
    eae8:	b48a           	cmpl %a2,%d2
    eaea:	66ee           	bnes eada <fatfs_sfn_exists+0x4a>
    eaec:	5283           	addql #1,%d3
    eaee:	42a7           	clrl %sp@-
    eaf0:	2f03           	movel %d3,%sp@-
    eaf2:	2f05           	movel %d5,%sp@-
    eaf4:	2f0d           	movel %a5,%sp@-
    eaf6:	2044           	moveal %d4,%a0
    eaf8:	4e90           	jsr %a0@
    eafa:	4fef 0010      	lea %sp@(16),%sp
    eafe:	4a80           	tstl %d0
    eb00:	66d4           	bnes ead6 <fatfs_sfn_exists+0x46>
    eb02:	4cdf 7c7c      	moveml %sp@+,%d2-%d6/%a2-%fp
    eb06:	4e75           	rts
    eb08:	2f0a           	movel %a2,%sp@-
    eb0a:	4e94           	jsr %a4@
    eb0c:	588f           	addql #4,%sp
    eb0e:	4a80           	tstl %d0
    eb10:	66d2           	bnes eae4 <fatfs_sfn_exists+0x54>
    eb12:	2f0a           	movel %a2,%sp@-
    eb14:	4e96           	jsr %fp@
    eb16:	588f           	addql #4,%sp
    eb18:	4a80           	tstl %d0
    eb1a:	67c8           	beqs eae4 <fatfs_sfn_exists+0x54>
    eb1c:	4878 000b      	pea b <DUART_IMR+0x1>
    eb20:	2f06           	movel %d6,%sp@-
    eb22:	2f0a           	movel %a2,%sp@-
    eb24:	4eb9 0000 eda8 	jsr eda8 <strncmp>
    eb2a:	4fef 000c      	lea %sp@(12),%sp
    eb2e:	4a80           	tstl %d0
    eb30:	66b2           	bnes eae4 <fatfs_sfn_exists+0x54>
    eb32:	7001           	moveq #1,%d0
    eb34:	4cdf 7c7c      	moveml %sp@+,%d2-%d6/%a2-%fp
    eb38:	4e75           	rts

0000eb3a <fatfs_update_file_length>:
    eb3a:	598f           	subql #4,%sp
    eb3c:	48e7 3f3e      	moveml %d2-%d7/%a2-%fp,%sp@-
    eb40:	2a6f 0034      	moveal %sp@(52),%a5
    eb44:	282f 0038      	movel %sp@(56),%d4
    eb48:	2c2f 003c      	movel %sp@(60),%d6
    eb4c:	2f6f 0040 002c 	movel %sp@(64),%sp@(44)
    eb52:	4aad 0032      	tstl %a5@(50)
    eb56:	6764           	beqs ebbc <fatfs_update_file_length+0x82>
    eb58:	7600           	moveq #0,%d3
    eb5a:	2e3c 0000 e5b6 	movel #58806,%d7
    eb60:	7a3e           	moveq #62,%d5
    eb62:	da8d           	addl %a5,%d5
    eb64:	240d           	movel %a5,%d2
    eb66:	0682 0000 023e 	addil #574,%d2
    eb6c:	47f9 0000 cc90 	lea cc90 <fatfs_entry_lfn_invalid>,%a3
    eb72:	49f9 0000 cd04 	lea cd04 <fatfs_entry_sfn_only>,%a4
    eb78:	42a7           	clrl %sp@-
    eb7a:	2f03           	movel %d3,%sp@-
    eb7c:	2f04           	movel %d4,%sp@-
    eb7e:	2f0d           	movel %a5,%sp@-
    eb80:	2047           	moveal %d7,%a0
    eb82:	4e90           	jsr %a0@
    eb84:	4fef 0010      	lea %sp@(16),%sp
    eb88:	4a80           	tstl %d0
    eb8a:	6730           	beqs ebbc <fatfs_update_file_length+0x82>
    eb8c:	2c45           	moveal %d5,%fp
    eb8e:	45f9 0000 cc76 	lea cc76 <fatfs_entry_lfn_text>,%a2
    eb94:	2f0e           	movel %fp,%sp@-
    eb96:	4e92           	jsr %a2@
    eb98:	588f           	addql #4,%sp
    eb9a:	4a80           	tstl %d0
    eb9c:	6728           	beqs ebc6 <fatfs_update_file_length+0x8c>
    eb9e:	4dee 0020      	lea %fp@(32),%fp
    eba2:	bdc2           	cmpal %d2,%fp
    eba4:	66ee           	bnes eb94 <fatfs_update_file_length+0x5a>
    eba6:	5283           	addql #1,%d3
    eba8:	42a7           	clrl %sp@-
    ebaa:	2f03           	movel %d3,%sp@-
    ebac:	2f04           	movel %d4,%sp@-
    ebae:	2f0d           	movel %a5,%sp@-
    ebb0:	2047           	moveal %d7,%a0
    ebb2:	4e90           	jsr %a0@
    ebb4:	4fef 0010      	lea %sp@(16),%sp
    ebb8:	4a80           	tstl %d0
    ebba:	66d0           	bnes eb8c <fatfs_update_file_length+0x52>
    ebbc:	7000           	moveq #0,%d0
    ebbe:	4cdf 7cfc      	moveml %sp@+,%d2-%d7/%a2-%fp
    ebc2:	588f           	addql #4,%sp
    ebc4:	4e75           	rts
    ebc6:	2f0e           	movel %fp,%sp@-
    ebc8:	4e93           	jsr %a3@
    ebca:	588f           	addql #4,%sp
    ebcc:	4a80           	tstl %d0
    ebce:	66ce           	bnes eb9e <fatfs_update_file_length+0x64>
    ebd0:	2f0e           	movel %fp,%sp@-
    ebd2:	4e94           	jsr %a4@
    ebd4:	588f           	addql #4,%sp
    ebd6:	4a80           	tstl %d0
    ebd8:	67c4           	beqs eb9e <fatfs_update_file_length+0x64>
    ebda:	4878 000b      	pea b <DUART_IMR+0x1>
    ebde:	2f06           	movel %d6,%sp@-
    ebe0:	2f0e           	movel %fp,%sp@-
    ebe2:	4eb9 0000 eda8 	jsr eda8 <strncmp>
    ebe8:	4fef 000c      	lea %sp@(12),%sp
    ebec:	4a80           	tstl %d0
    ebee:	66ae           	bnes eb9e <fatfs_update_file_length+0x64>
    ebf0:	2e2f 002c      	movel %sp@(44),%d7
    ebf4:	e05f           	rorw #8,%d7
    ebf6:	4847           	swap %d7
    ebf8:	e05f           	rorw #8,%d7
    ebfa:	2007           	movel %d7,%d0
    ebfc:	4240           	clrw %d0
    ebfe:	4840           	swap %d0
    ec00:	e048           	lsrw #8,%d0
    ec02:	122e 001c      	moveb %fp@(28),%d1
    ec06:	1d40 001c      	moveb %d0,%fp@(28)
    ec0a:	2007           	movel %d7,%d0
    ec0c:	4240           	clrw %d0
    ec0e:	4840           	swap %d0
    ec10:	7200           	moveq #0,%d1
    ec12:	4601           	notb %d1
    ec14:	c081           	andl %d1,%d0
    ec16:	122e 001d      	moveb %fp@(29),%d1
    ec1a:	1d40 001d      	moveb %d0,%fp@(29)
    ec1e:	2007           	movel %d7,%d0
    ec20:	e088           	lsrl #8,%d0
    ec22:	7200           	moveq #0,%d1
    ec24:	4601           	notb %d1
    ec26:	c081           	andl %d1,%d0
    ec28:	122e 001e      	moveb %fp@(30),%d1
    ec2c:	1d40 001e      	moveb %d0,%fp@(30)
    ec30:	7000           	moveq #0,%d0
    ec32:	4600           	notb %d0
    ec34:	ce80           	andl %d0,%d7
    ec36:	102e 001f      	moveb %fp@(31),%d0
    ec3a:	1d47 001f      	moveb %d7,%fp@(31)
    ec3e:	7201           	moveq #1,%d1
    ec40:	2f41 003c      	movel %d1,%sp@(60)
    ec44:	2f45 0038      	movel %d5,%sp@(56)
    ec48:	2f6d 103e 0034 	movel %a5@(4158),%sp@(52)
    ec4e:	226d 0032      	moveal %a5@(50),%a1
    ec52:	4cdf 7cfc      	moveml %sp@+,%d2-%d7/%a2-%fp
    ec56:	588f           	addql #4,%sp
    ec58:	4ed1           	jmp %a1@

0000ec5a <fatfs_mark_file_deleted>:
    ec5a:	48e7 3f3e      	moveml %d2-%d7/%a2-%fp,%sp@-
    ec5e:	2c6f 0030      	moveal %sp@(48),%fp
    ec62:	282f 0034      	movel %sp@(52),%d4
    ec66:	2e2f 0038      	movel %sp@(56),%d7
    ec6a:	4aae 0032      	tstl %fp@(50)
    ec6e:	6764           	beqs ecd4 <fatfs_mark_file_deleted+0x7a>
    ec70:	7600           	moveq #0,%d3
    ec72:	2a3c 0000 e5b6 	movel #58806,%d5
    ec78:	7c3e           	moveq #62,%d6
    ec7a:	dc8e           	addl %fp,%d6
    ec7c:	240e           	movel %fp,%d2
    ec7e:	0682 0000 023e 	addil #574,%d2
    ec84:	49f9 0000 cc90 	lea cc90 <fatfs_entry_lfn_invalid>,%a4
    ec8a:	4bf9 0000 cd04 	lea cd04 <fatfs_entry_sfn_only>,%a5
    ec90:	42a7           	clrl %sp@-
    ec92:	2f03           	movel %d3,%sp@-
    ec94:	2f04           	movel %d4,%sp@-
    ec96:	2f0e           	movel %fp,%sp@-
    ec98:	2045           	moveal %d5,%a0
    ec9a:	4e90           	jsr %a0@
    ec9c:	4fef 0010      	lea %sp@(16),%sp
    eca0:	4a80           	tstl %d0
    eca2:	6730           	beqs ecd4 <fatfs_mark_file_deleted+0x7a>
    eca4:	2446           	moveal %d6,%a2
    eca6:	47f9 0000 cc76 	lea cc76 <fatfs_entry_lfn_text>,%a3
    ecac:	2f0a           	movel %a2,%sp@-
    ecae:	4e93           	jsr %a3@
    ecb0:	588f           	addql #4,%sp
    ecb2:	4a80           	tstl %d0
    ecb4:	6726           	beqs ecdc <fatfs_mark_file_deleted+0x82>
    ecb6:	45ea 0020      	lea %a2@(32),%a2
    ecba:	b48a           	cmpl %a2,%d2
    ecbc:	66ee           	bnes ecac <fatfs_mark_file_deleted+0x52>
    ecbe:	5283           	addql #1,%d3
    ecc0:	42a7           	clrl %sp@-
    ecc2:	2f03           	movel %d3,%sp@-
    ecc4:	2f04           	movel %d4,%sp@-
    ecc6:	2f0e           	movel %fp,%sp@-
    ecc8:	2045           	moveal %d5,%a0
    ecca:	4e90           	jsr %a0@
    eccc:	4fef 0010      	lea %sp@(16),%sp
    ecd0:	4a80           	tstl %d0
    ecd2:	66d0           	bnes eca4 <fatfs_mark_file_deleted+0x4a>
    ecd4:	7000           	moveq #0,%d0
    ecd6:	4cdf 7cfc      	moveml %sp@+,%d2-%d7/%a2-%fp
    ecda:	4e75           	rts
    ecdc:	2f0a           	movel %a2,%sp@-
    ecde:	4e94           	jsr %a4@
    ece0:	588f           	addql #4,%sp
    ece2:	4a80           	tstl %d0
    ece4:	66d0           	bnes ecb6 <fatfs_mark_file_deleted+0x5c>
    ece6:	2f0a           	movel %a2,%sp@-
    ece8:	4e95           	jsr %a5@
    ecea:	588f           	addql #4,%sp
    ecec:	4a80           	tstl %d0
    ecee:	67c6           	beqs ecb6 <fatfs_mark_file_deleted+0x5c>
    ecf0:	4878 000b      	pea b <DUART_IMR+0x1>
    ecf4:	2f07           	movel %d7,%sp@-
    ecf6:	2f0a           	movel %a2,%sp@-
    ecf8:	4eb9 0000 eda8 	jsr eda8 <strncmp>
    ecfe:	4fef 000c      	lea %sp@(12),%sp
    ed02:	4a80           	tstl %d0
    ed04:	66b0           	bnes ecb6 <fatfs_mark_file_deleted+0x5c>
    ed06:	14bc ffe5      	moveb #-27,%a2@
    ed0a:	7001           	moveq #1,%d0
    ed0c:	2f40 0038      	movel %d0,%sp@(56)
    ed10:	2f46 0034      	movel %d6,%sp@(52)
    ed14:	2f6e 103e 0030 	movel %fp@(4158),%sp@(48)
    ed1a:	226e 0032      	moveal %fp@(50),%a1
    ed1e:	4cdf 7cfc      	moveml %sp@+,%d2-%d7/%a2-%fp
    ed22:	4ed1           	jmp %a1@

0000ed24 <fatfs_cache_init>:
    ed24:	2f0b           	movel %a3,%sp@-
    ed26:	2f0a           	movel %a2,%sp@-
    ed28:	266f 0010      	moveal %sp@(16),%a3
    ed2c:	4878 0200      	pea 200 <DBL_MANT_DIG+0x1cb>
    ed30:	4878 00ff      	pea ff <DBL_MANT_DIG+0xca>
    ed34:	486b 0228      	pea %a3@(552)
    ed38:	45f9 0000 263c 	lea 263c <memset>,%a2
    ed3e:	4e92           	jsr %a2@
    ed40:	4878 0200      	pea 200 <DBL_MANT_DIG+0x1cb>
    ed44:	42a7           	clrl %sp@-
    ed46:	486b 0428      	pea %a3@(1064)
    ed4a:	4e92           	jsr %a2@
    ed4c:	4fef 0018      	lea %sp@(24),%sp
    ed50:	7001           	moveq #1,%d0
    ed52:	245f           	moveal %sp@+,%a2
    ed54:	265f           	moveal %sp@+,%a3
    ed56:	4e75           	rts

0000ed58 <fatfs_cache_get_next_cluster>:
    ed58:	222f 000c      	movel %sp@(12),%d1
    ed5c:	707f           	moveq #127,%d0
    ed5e:	c081           	andl %d1,%d0
    ed60:	d080           	addl %d0,%d0
    ed62:	d080           	addl %d0,%d0
    ed64:	206f 0008      	moveal %sp@(8),%a0
    ed68:	d1c0           	addal %d0,%a0
    ed6a:	b2a8 0228      	cmpl %a0@(552),%d1
    ed6e:	6704           	beqs ed74 <fatfs_cache_get_next_cluster+0x1c>
    ed70:	7000           	moveq #0,%d0
    ed72:	4e75           	rts
    ed74:	226f 0010      	moveal %sp@(16),%a1
    ed78:	22a8 0428      	movel %a0@(1064),%a1@
    ed7c:	7001           	moveq #1,%d0
    ed7e:	4e75           	rts

0000ed80 <fatfs_cache_set_next_cluster>:
    ed80:	202f 000c      	movel %sp@(12),%d0
    ed84:	727f           	moveq #127,%d1
    ed86:	c280           	andl %d0,%d1
    ed88:	2041           	moveal %d1,%a0
    ed8a:	d1c1           	addal %d1,%a0
    ed8c:	d1c8           	addal %a0,%a0
    ed8e:	d1ef 0008      	addal %sp@(8),%a0
    ed92:	b0a8 0228      	cmpl %a0@(552),%d0
    ed96:	6704           	beqs ed9c <fatfs_cache_set_next_cluster+0x1c>
    ed98:	2140 0228      	movel %d0,%a0@(552)
    ed9c:	216f 0010 0428 	movel %sp@(16),%a0@(1064)
    eda2:	7001           	moveq #1,%d0
    eda4:	4e75           	rts
	...

0000eda8 <strncmp>:
    eda8:	48e7 3030      	moveml %d2-%d3/%a2-%a3,%sp@-
    edac:	206f 0014      	moveal %sp@(20),%a0
    edb0:	226f 0018      	moveal %sp@(24),%a1
    edb4:	202f 001c      	movel %sp@(28),%d0
    edb8:	673e           	beqs edf8 <strncmp+0x50>
    edba:	2608           	movel %a0,%d3
    edbc:	2449           	moveal %a1,%a2
    edbe:	2208           	movel %a0,%d1
    edc0:	2409           	movel %a1,%d2
    edc2:	8282           	orl %d2,%d1
    edc4:	7403           	moveq #3,%d2
    edc6:	c282           	andl %d2,%d1
    edc8:	6736           	beqs ee00 <strncmp+0x58>
    edca:	1210           	moveb %a0@,%d1
    edcc:	1411           	moveb %a1@,%d2
    edce:	b401           	cmpb %d1,%d2
    edd0:	666c           	bnes ee3e <strncmp+0x96>
    edd2:	7401           	moveq #1,%d2
    edd4:	b480           	cmpl %d0,%d2
    edd6:	6720           	beqs edf8 <strncmp+0x50>
    edd8:	2648           	moveal %a0,%a3
    edda:	4a01           	tstb %d1
    eddc:	671a           	beqs edf8 <strncmp+0x50>
    edde:	5288           	addql #1,%a0
    ede0:	5289           	addql #1,%a1
    ede2:	1210           	moveb %a0@,%d1
    ede4:	1411           	moveb %a1@,%d2
    ede6:	b401           	cmpb %d1,%d2
    ede8:	6654           	bnes ee3e <strncmp+0x96>
    edea:	2400           	movel %d0,%d2
    edec:	9488           	subl %a0,%d2
    edee:	45f3 28ff      	lea %a3@(ffffffffffffffff,%d2:l),%a2
    edf2:	b4fc 0000      	cmpaw #0,%a2
    edf6:	66e2           	bnes edda <strncmp+0x32>
    edf8:	7000           	moveq #0,%d0
    edfa:	4cdf 0c0c      	moveml %sp@+,%d2-%d3/%a2-%a3
    edfe:	4e75           	rts
    ee00:	b480           	cmpl %d0,%d2
    ee02:	64c6           	bccs edca <strncmp+0x22>
    ee04:	224a           	moveal %a2,%a1
    ee06:	2043           	moveal %d3,%a0
    ee08:	2210           	movel %a0@,%d1
    ee0a:	5883           	addql #4,%d3
    ee0c:	b29a           	cmpl %a2@+,%d1
    ee0e:	6624           	bnes ee34 <strncmp+0x8c>
    ee10:	5980           	subql #4,%d0
    ee12:	67e4           	beqs edf8 <strncmp+0x50>
    ee14:	2401           	movel %d1,%d2
    ee16:	0682 fefe feff 	addil #-16843009,%d2
    ee1c:	4681           	notl %d1
    ee1e:	c282           	andl %d2,%d1
    ee20:	0281 8080 8080 	andil #-2139062144,%d1
    ee26:	66d0           	bnes edf8 <strncmp+0x50>
    ee28:	7203           	moveq #3,%d1
    ee2a:	b280           	cmpl %d0,%d1
    ee2c:	65d6           	bcss ee04 <strncmp+0x5c>
    ee2e:	2043           	moveal %d3,%a0
    ee30:	224a           	moveal %a2,%a1
    ee32:	6096           	bras edca <strncmp+0x22>
    ee34:	1210           	moveb %a0@,%d1
    ee36:	1411           	moveb %a1@,%d2
    ee38:	2648           	moveal %a0,%a3
    ee3a:	b202           	cmpb %d2,%d1
    ee3c:	679c           	beqs edda <strncmp+0x32>
    ee3e:	7000           	moveq #0,%d0
    ee40:	1001           	moveb %d1,%d0
    ee42:	0282 0000 00ff 	andil #255,%d2
    ee48:	9082           	subl %d2,%d0
    ee4a:	4cdf 0c0c      	moveml %sp@+,%d2-%d3/%a2-%a3
    ee4e:	4e75           	rts

0000ee50 <__mulsi3>:
    ee50:	302f 0004      	movew %sp@(4),%d0
    ee54:	c0ef 000a      	muluw %sp@(10),%d0
    ee58:	322f 0006      	movew %sp@(6),%d1
    ee5c:	c2ef 0008      	muluw %sp@(8),%d1
    ee60:	d041           	addw %d1,%d0
    ee62:	4840           	swap %d0
    ee64:	4240           	clrw %d0
    ee66:	322f 0006      	movew %sp@(6),%d1
    ee6a:	c2ef 000a      	muluw %sp@(10),%d1
    ee6e:	d081           	addl %d1,%d0
    ee70:	4e75           	rts
	...

0000ee74 <__udivsi3>:
    ee74:	2f02           	movel %d2,%sp@-
    ee76:	222f 000c      	movel %sp@(12),%d1
    ee7a:	202f 0008      	movel %sp@(8),%d0
    ee7e:	0c81 0001 0000 	cmpil #65536,%d1
    ee84:	6416           	bccs ee9c <L3>
    ee86:	2400           	movel %d0,%d2
    ee88:	4242           	clrw %d2
    ee8a:	4842           	swap %d2
    ee8c:	84c1           	divuw %d1,%d2
    ee8e:	3002           	movew %d2,%d0
    ee90:	4840           	swap %d0
    ee92:	342f 000a      	movew %sp@(10),%d2
    ee96:	84c1           	divuw %d1,%d2
    ee98:	3002           	movew %d2,%d0
    ee9a:	6030           	bras eecc <L6>

0000ee9c <L3>:
    ee9c:	2401           	movel %d1,%d2

0000ee9e <L4>:
    ee9e:	e289           	lsrl #1,%d1
    eea0:	e288           	lsrl #1,%d0
    eea2:	0c81 0001 0000 	cmpil #65536,%d1
    eea8:	64f4           	bccs ee9e <L4>
    eeaa:	80c1           	divuw %d1,%d0
    eeac:	0280 0000 ffff 	andil #65535,%d0
    eeb2:	2202           	movel %d2,%d1
    eeb4:	c2c0           	muluw %d0,%d1
    eeb6:	4842           	swap %d2
    eeb8:	c4c0           	muluw %d0,%d2
    eeba:	4842           	swap %d2
    eebc:	4a42           	tstw %d2
    eebe:	660a           	bnes eeca <L5>
    eec0:	d282           	addl %d2,%d1
    eec2:	6506           	bcss eeca <L5>
    eec4:	b2af 0008      	cmpl %sp@(8),%d1
    eec8:	6302           	blss eecc <L6>

0000eeca <L5>:
    eeca:	5380           	subql #1,%d0

0000eecc <L6>:
    eecc:	241f           	movel %sp@+,%d2
    eece:	4e75           	rts

0000eed0 <__divsi3>:
    eed0:	2f02           	movel %d2,%sp@-
    eed2:	7401           	moveq #1,%d2
    eed4:	222f 000c      	movel %sp@(12),%d1
    eed8:	6a04           	bpls eede <L1>
    eeda:	4481           	negl %d1
    eedc:	4402           	negb %d2

0000eede <L1>:
    eede:	202f 0008      	movel %sp@(8),%d0
    eee2:	6a04           	bpls eee8 <L2>
    eee4:	4480           	negl %d0
    eee6:	4402           	negb %d2

0000eee8 <L2>:
    eee8:	2f01           	movel %d1,%sp@-
    eeea:	2f00           	movel %d0,%sp@-
    eeec:	4eb9 0000 ee74 	jsr ee74 <__udivsi3>
    eef2:	508f           	addql #8,%sp
    eef4:	4a02           	tstb %d2
    eef6:	6a02           	bpls eefa <L3>
    eef8:	4480           	negl %d0

0000eefa <L3>:
    eefa:	241f           	movel %sp@+,%d2
    eefc:	4e75           	rts
	...

0000ef00 <__umodsi3>:
    ef00:	222f 0008      	movel %sp@(8),%d1
    ef04:	202f 0004      	movel %sp@(4),%d0
    ef08:	2f01           	movel %d1,%sp@-
    ef0a:	2f00           	movel %d0,%sp@-
    ef0c:	4eb9 0000 ee74 	jsr ee74 <__udivsi3>
    ef12:	508f           	addql #8,%sp
    ef14:	222f 0008      	movel %sp@(8),%d1
    ef18:	2f01           	movel %d1,%sp@-
    ef1a:	2f00           	movel %d0,%sp@-
    ef1c:	4eb9 0000 ee50 	jsr ee50 <__mulsi3>
    ef22:	508f           	addql #8,%sp
    ef24:	222f 0004      	movel %sp@(4),%d1
    ef28:	9280           	subl %d0,%d1
    ef2a:	2001           	movel %d1,%d0
    ef2c:	4e75           	rts
	...

0000ef30 <__modsi3>:
    ef30:	222f 0008      	movel %sp@(8),%d1
    ef34:	202f 0004      	movel %sp@(4),%d0
    ef38:	2f01           	movel %d1,%sp@-
    ef3a:	2f00           	movel %d0,%sp@-
    ef3c:	4eb9 0000 eed0 	jsr eed0 <__divsi3>
    ef42:	508f           	addql #8,%sp
    ef44:	222f 0008      	movel %sp@(8),%d1
    ef48:	2f01           	movel %d1,%sp@-
    ef4a:	2f00           	movel %d0,%sp@-
    ef4c:	4eb9 0000 ee50 	jsr ee50 <__mulsi3>
    ef52:	508f           	addql #8,%sp
    ef54:	222f 0004      	movel %sp@(4),%d1
    ef58:	9280           	subl %d0,%d1
    ef5a:	2001           	movel %d1,%d0
    ef5c:	4e75           	rts
	...

0000ef60 <Ld$den>:
    ef60:	8087           	orl %d7,%d0
    ef62:	3e3c 0003      	movew #3,%d7
    ef66:	7c02           	moveq #2,%d6
    ef68:	4ef9 0000 f93e 	jmp f93e <$_exception_handler>

0000ef6e <Ld$infty>:
    ef6e:	203c 7ff0 0000 	movel #2146435072,%d0
    ef74:	7200           	moveq #0,%d1
    ef76:	8087           	orl %d7,%d0
    ef78:	3e3c 0005      	movew #5,%d7
    ef7c:	7c02           	moveq #2,%d6
    ef7e:	4ef9 0000 f93e 	jmp f93e <$_exception_handler>

0000ef84 <Ld$underflow>:
    ef84:	7000           	moveq #0,%d0
    ef86:	2200           	movel %d0,%d1
    ef88:	3e3c 0003      	movew #3,%d7
    ef8c:	7c02           	moveq #2,%d6
    ef8e:	4ef9 0000 f93e 	jmp f93e <$_exception_handler>

0000ef94 <Ld$inop>:
    ef94:	70ff           	moveq #-1,%d0
    ef96:	2200           	movel %d0,%d1
    ef98:	3e3c 0011      	movew #17,%d7
    ef9c:	7c02           	moveq #2,%d6
    ef9e:	4ef9 0000 f93e 	jmp f93e <$_exception_handler>

0000efa4 <Ld$div$0>:
    efa4:	203c 7ff0 0000 	movel #2146435072,%d0
    efaa:	7200           	moveq #0,%d1
    efac:	8087           	orl %d7,%d0
    efae:	3e3c 0009      	movew #9,%d7
    efb2:	7c02           	moveq #2,%d6
    efb4:	4ef9 0000 f93e 	jmp f93e <$_exception_handler>

0000efba <__subdf3>:
    efba:	086f 001f 000c 	bchg #31,%sp@(12)

0000efc0 <__adddf3>:
    efc0:	4e56 0000      	linkw %fp,#0
    efc4:	48e7 3f00      	moveml %d2-%d7,%sp@-
    efc8:	202e 0008      	movel %fp@(8),%d0
    efcc:	222e 000c      	movel %fp@(12),%d1
    efd0:	242e 0010      	movel %fp@(16),%d2
    efd4:	262e 0014      	movel %fp@(20),%d3
    efd8:	2e00           	movel %d0,%d7
    efda:	d281           	addl %d1,%d1
    efdc:	d180           	addxl %d0,%d0
    efde:	6700 0286      	beqw f266 <Ladddf$b>
    efe2:	2c02           	movel %d2,%d6
    efe4:	d683           	addl %d3,%d3
    efe6:	d582           	addxl %d2,%d2
    efe8:	6700 029a      	beqw f284 <Ladddf$a>
    efec:	0287 8000 0000 	andil #-2147483648,%d7
    eff2:	4846           	swap %d6
    eff4:	0246 8000      	andiw #-32768,%d6
    eff8:	8e46           	orw %d6,%d7
    effa:	2047           	moveal %d7,%a0
    effc:	2c3c 001f ffff 	movel #2097151,%d6
    f002:	2e3c 0020 0000 	movel #2097152,%d7
    f008:	2800           	movel %d0,%d4
    f00a:	c086           	andl %d6,%d0
    f00c:	4686           	notl %d6
    f00e:	c886           	andl %d6,%d4
    f010:	6700 0246      	beqw f258 <Ladddf$a$den>
    f014:	b886           	cmpl %d6,%d4
    f016:	6700 02ca      	beqw f2e2 <Ladddf$nf>
    f01a:	8087           	orl %d7,%d0

0000f01c <Ladddf$1>:
    f01c:	4844           	swap %d4
    f01e:	ea4c           	lsrw #5,%d4
    f020:	2a02           	movel %d2,%d5
    f022:	ca86           	andl %d6,%d5
    f024:	6700 0238      	beqw f25e <Ladddf$b$den>
    f028:	ba86           	cmpl %d6,%d5
    f02a:	6700 02b6      	beqw f2e2 <Ladddf$nf>
    f02e:	4686           	notl %d6
    f030:	c486           	andl %d6,%d2
    f032:	8487           	orl %d7,%d2

0000f034 <Ladddf$2>:
    f034:	4845           	swap %d5
    f036:	ea4d           	lsrw #5,%d5
    f038:	48e7 0030      	moveml %a2-%a3,%sp@-
    f03c:	2444           	moveal %d4,%a2
    f03e:	2645           	moveal %d5,%a3
    f040:	7e00           	moveq #0,%d7
    f042:	2c07           	movel %d7,%d6
    f044:	2a03           	movel %d3,%d5
    f046:	2802           	movel %d2,%d4
    f048:	2607           	movel %d7,%d3
    f04a:	2407           	movel %d7,%d2
    f04c:	c98a           	exg %d4,%a2
    f04e:	cb8b           	exg %d5,%a3
    f050:	ba44           	cmpw %d4,%d5
    f052:	6700 00cc      	beqw f120 <Ladddf$3>
    f056:	6200 0064      	bhiw f0bc <Ladddf$2+0x88>
    f05a:	3404           	movew %d4,%d2
    f05c:	9445           	subw %d5,%d2
    f05e:	c98a           	exg %d4,%a2
    f060:	cb8b           	exg %d5,%a3
    f062:	0c42 0037      	cmpiw #55,%d2
    f066:	6c00 01d2      	bgew f23a <Ladddf$b$small>
    f06a:	0c42 0020      	cmpiw #32,%d2
    f06e:	6c00 0022      	bgew f092 <Ladddf$2+0x5e>
    f072:	0c42 0010      	cmpiw #16,%d2
    f076:	6c00 002a      	bgew f0a2 <Ladddf$2+0x6e>
    f07a:	6000 000a      	braw f086 <Ladddf$2+0x52>
    f07e:	e28c           	lsrl #1,%d4
    f080:	e295           	roxrl #1,%d5
    f082:	e296           	roxrl #1,%d6
    f084:	e297           	roxrl #1,%d7
    f086:	51ca fff6      	dbf %d2,f07e <Ladddf$2+0x4a>
    f08a:	7400           	moveq #0,%d2
    f08c:	2602           	movel %d2,%d3
    f08e:	6000 0094      	braw f124 <Ladddf$4>
    f092:	2e06           	movel %d6,%d7
    f094:	2c05           	movel %d5,%d6
    f096:	2a04           	movel %d4,%d5
    f098:	7800           	moveq #0,%d4
    f09a:	0442 0020      	subiw #32,%d2
    f09e:	6000 ffd2      	braw f072 <Ladddf$2+0x3e>
    f0a2:	3e06           	movew %d6,%d7
    f0a4:	4847           	swap %d7
    f0a6:	3c05           	movew %d5,%d6
    f0a8:	4846           	swap %d6
    f0aa:	3a04           	movew %d4,%d5
    f0ac:	4845           	swap %d5
    f0ae:	383c 0000      	movew #0,%d4
    f0b2:	4844           	swap %d4
    f0b4:	0442 0010      	subiw #16,%d2
    f0b8:	6000 ffcc      	braw f086 <Ladddf$2+0x52>
    f0bc:	c945           	exg %d4,%d5
    f0be:	3c04           	movew %d4,%d6
    f0c0:	9c45           	subw %d5,%d6
    f0c2:	c98a           	exg %d4,%a2
    f0c4:	cb8b           	exg %d5,%a3
    f0c6:	0c46 0037      	cmpiw #55,%d6
    f0ca:	6c00 0150      	bgew f21c <Ladddf$a$small>
    f0ce:	0c46 0020      	cmpiw #32,%d6
    f0d2:	6c00 0022      	bgew f0f6 <Ladddf$2+0xc2>
    f0d6:	0c46 0010      	cmpiw #16,%d6
    f0da:	6c00 002a      	bgew f106 <Ladddf$2+0xd2>
    f0de:	6000 000a      	braw f0ea <Ladddf$2+0xb6>
    f0e2:	e288           	lsrl #1,%d0
    f0e4:	e291           	roxrl #1,%d1
    f0e6:	e292           	roxrl #1,%d2
    f0e8:	e293           	roxrl #1,%d3
    f0ea:	51ce fff6      	dbf %d6,f0e2 <Ladddf$2+0xae>
    f0ee:	7e00           	moveq #0,%d7
    f0f0:	2c07           	movel %d7,%d6
    f0f2:	6000 0030      	braw f124 <Ladddf$4>
    f0f6:	2602           	movel %d2,%d3
    f0f8:	2401           	movel %d1,%d2
    f0fa:	2200           	movel %d0,%d1
    f0fc:	7000           	moveq #0,%d0
    f0fe:	0446 0020      	subiw #32,%d6
    f102:	6000 ffd2      	braw f0d6 <Ladddf$2+0xa2>
    f106:	3602           	movew %d2,%d3
    f108:	4843           	swap %d3
    f10a:	3401           	movew %d1,%d2
    f10c:	4842           	swap %d2
    f10e:	3200           	movew %d0,%d1
    f110:	4841           	swap %d1
    f112:	303c 0000      	movew #0,%d0
    f116:	4840           	swap %d0
    f118:	0446 0010      	subiw #16,%d6
    f11c:	6000 ffcc      	braw f0ea <Ladddf$2+0xb6>

0000f120 <Ladddf$3>:
    f120:	c98a           	exg %d4,%a2
    f122:	cb8b           	exg %d5,%a3

0000f124 <Ladddf$4>:
    f124:	cf88           	exg %d7,%a0
    f126:	cd8b           	exg %d6,%a3
    f128:	2c07           	movel %d7,%d6
    f12a:	3e3c 0000      	movew #0,%d7
    f12e:	4846           	swap %d6
    f130:	3c3c 0000      	movew #0,%d6
    f134:	bf86           	eorl %d7,%d6
    f136:	6b00 006e      	bmiw f1a6 <Lsubdf$0>
    f13a:	cf88           	exg %d7,%a0
    f13c:	cd8b           	exg %d6,%a3
    f13e:	d687           	addl %d7,%d3
    f140:	d586           	addxl %d6,%d2
    f142:	d385           	addxl %d5,%d1
    f144:	d184           	addxl %d4,%d0
    f146:	280a           	movel %a2,%d4
    f148:	2e08           	movel %a0,%d7
    f14a:	0287 8000 0000 	andil #-2147483648,%d7
    f150:	4cdf 0c00      	moveml %sp@+,%a2-%a3
    f154:	0800 0036      	btst #54,%d0
    f158:	6700 000c      	beqw f166 <Ladddf$4+0x42>
    f15c:	e288           	lsrl #1,%d0
    f15e:	e291           	roxrl #1,%d1
    f160:	e292           	roxrl #1,%d2
    f162:	e293           	roxrl #1,%d3
    f164:	5244           	addqw #1,%d4
    f166:	41fa 0020      	lea %pc@(f188 <Ladddf$5>),%a0
    f16a:	43f9 0001 330c 	lea 1330c <_fpCCR>,%a1
    f170:	3c29 0006      	movew %a1@(6),%d6
    f174:	6700 0752      	beqw f8c8 <Lround$to$nearest>
    f178:	0c46 0002      	cmpiw #2,%d6
    f17c:	6200 07ae      	bhiw f92c <Lround$to$minus>
    f180:	6d00 07aa      	bltw f92c <Lround$to$minus>
    f184:	6000 07a6      	braw f92c <Lround$to$minus>

0000f188 <Ladddf$5>:
    f188:	0c44 07ff      	cmpiw #2047,%d4
    f18c:	6c00 0012      	bgew f1a0 <Ladddf$5+0x18>
    f190:	0880 0034      	bclr #52,%d0
    f194:	e94c           	lslw #4,%d4
    f196:	4840           	swap %d0
    f198:	8044           	orw %d4,%d0
    f19a:	4840           	swap %d0
    f19c:	6000 0128      	braw f2c6 <Ladddf$ret>
    f1a0:	7a01           	moveq #1,%d5
    f1a2:	6000 fdca      	braw ef6e <Ld$infty>

0000f1a6 <Lsubdf$0>:
    f1a6:	cf88           	exg %d7,%a0
    f1a8:	cd8b           	exg %d6,%a3
    f1aa:	9687           	subl %d7,%d3
    f1ac:	9586           	subxl %d6,%d2
    f1ae:	9385           	subxl %d5,%d1
    f1b0:	9184           	subxl %d4,%d0
    f1b2:	6700 010e      	beqw f2c2 <Ladddf$ret$1>
    f1b6:	6a00 0012      	bplw f1ca <Lsubdf$0+0x24>
    f1ba:	2e08           	movel %a0,%d7
    f1bc:	0847 001f      	bchg #31,%d7
    f1c0:	2047           	moveal %d7,%a0
    f1c2:	4483           	negl %d3
    f1c4:	4082           	negxl %d2
    f1c6:	4081           	negxl %d1
    f1c8:	4080           	negxl %d0
    f1ca:	280a           	movel %a2,%d4
    f1cc:	2e08           	movel %a0,%d7
    f1ce:	0287 8000 0000 	andil #-2147483648,%d7
    f1d4:	4cdf 0c00      	moveml %sp@+,%a2-%a3
    f1d8:	0800 0036      	btst #54,%d0
    f1dc:	6700 000c      	beqw f1ea <Lsubdf$0+0x44>
    f1e0:	e288           	lsrl #1,%d0
    f1e2:	e291           	roxrl #1,%d1
    f1e4:	e292           	roxrl #1,%d2
    f1e6:	e293           	roxrl #1,%d3
    f1e8:	5244           	addqw #1,%d4
    f1ea:	41fa 0020      	lea %pc@(f20c <Lsubdf$1>),%a0
    f1ee:	43f9 0001 330c 	lea 1330c <_fpCCR>,%a1
    f1f4:	3c29 0006      	movew %a1@(6),%d6
    f1f8:	6700 06ce      	beqw f8c8 <Lround$to$nearest>
    f1fc:	0c46 0002      	cmpiw #2,%d6
    f200:	6200 072a      	bhiw f92c <Lround$to$minus>
    f204:	6d00 0726      	bltw f92c <Lround$to$minus>
    f208:	6000 0722      	braw f92c <Lround$to$minus>

0000f20c <Lsubdf$1>:
    f20c:	0880 0034      	bclr #52,%d0
    f210:	e94c           	lslw #4,%d4
    f212:	4840           	swap %d0
    f214:	8044           	orw %d4,%d0
    f216:	4840           	swap %d0
    f218:	6000 00ac      	braw f2c6 <Ladddf$ret>

0000f21c <Ladddf$a$small>:
    f21c:	4cdf 0c00      	moveml %sp@+,%a2-%a3
    f220:	202e 0010      	movel %fp@(16),%d0
    f224:	222e 0014      	movel %fp@(20),%d1
    f228:	41f9 0001 330c 	lea 1330c <_fpCCR>,%a0
    f22e:	30bc 0000      	movew #0,%a0@
    f232:	4cdf 00fc      	moveml %sp@+,%d2-%d7
    f236:	4e5e           	unlk %fp
    f238:	4e75           	rts

0000f23a <Ladddf$b$small>:
    f23a:	4cdf 0c00      	moveml %sp@+,%a2-%a3
    f23e:	202e 0008      	movel %fp@(8),%d0
    f242:	222e 000c      	movel %fp@(12),%d1
    f246:	41f9 0001 330c 	lea 1330c <_fpCCR>,%a0
    f24c:	30bc 0000      	movew #0,%a0@
    f250:	4cdf 00fc      	moveml %sp@+,%d2-%d7
    f254:	4e5e           	unlk %fp
    f256:	4e75           	rts

0000f258 <Ladddf$a$den>:
    f258:	2807           	movel %d7,%d4
    f25a:	6000 fdc0      	braw f01c <Ladddf$1>

0000f25e <Ladddf$b$den>:
    f25e:	2a07           	movel %d7,%d5
    f260:	4686           	notl %d6
    f262:	6000 fdd0      	braw f034 <Ladddf$2>

0000f266 <Ladddf$b>:
    f266:	2002           	movel %d2,%d0
    f268:	2203           	movel %d3,%d1
    f26a:	6600 0020      	bnew f28c <Ladddf$a+0x8>
    f26e:	0c80 8000 0000 	cmpil #-2147483648,%d0
    f274:	6600 0016      	bnew f28c <Ladddf$a+0x8>
    f278:	0287 8000 0000 	andil #-2147483648,%d7
    f27e:	4280           	clrl %d0
    f280:	6000 0044      	braw f2c6 <Ladddf$ret>

0000f284 <Ladddf$a>:
    f284:	202e 0008      	movel %fp@(8),%d0
    f288:	222e 000c      	movel %fp@(12),%d1
    f28c:	7a01           	moveq #1,%d5
    f28e:	2e00           	movel %d0,%d7
    f290:	0287 8000 0000 	andil #-2147483648,%d7
    f296:	0880 001f      	bclr #31,%d0
    f29a:	0c80 7ff0 0000 	cmpil #2146435072,%d0
    f2a0:	6c00 0010      	bgew f2b2 <Ladddf$a+0x2e>
    f2a4:	2000           	movel %d0,%d0
    f2a6:	6600 001e      	bnew f2c6 <Ladddf$ret>
    f2aa:	0887 001f      	bclr #31,%d7
    f2ae:	6000 0016      	braw f2c6 <Ladddf$ret>
    f2b2:	0280 000f ffff 	andil #1048575,%d0
    f2b8:	8081           	orl %d1,%d0
    f2ba:	6600 fcd8      	bnew ef94 <Ld$inop>
    f2be:	6000 fcae      	braw ef6e <Ld$infty>

0000f2c2 <Ladddf$ret$1>:
    f2c2:	4cdf 0c00      	moveml %sp@+,%a2-%a3

0000f2c6 <Ladddf$ret>:
    f2c6:	41f9 0001 330c 	lea 1330c <_fpCCR>,%a0
    f2cc:	30bc 0000      	movew #0,%a0@
    f2d0:	8087           	orl %d7,%d0
    f2d2:	4cdf 00fc      	moveml %sp@+,%d2-%d7
    f2d6:	4e5e           	unlk %fp
    f2d8:	4e75           	rts

0000f2da <Ladddf$ret$den>:
    f2da:	e288           	lsrl #1,%d0
    f2dc:	e291           	roxrl #1,%d1
    f2de:	6000 ffe6      	braw f2c6 <Ladddf$ret>

0000f2e2 <Ladddf$nf>:
    f2e2:	7a01           	moveq #1,%d5
    f2e4:	202e 0008      	movel %fp@(8),%d0
    f2e8:	222e 000c      	movel %fp@(12),%d1
    f2ec:	242e 0010      	movel %fp@(16),%d2
    f2f0:	262e 0014      	movel %fp@(20),%d3
    f2f4:	283c 7ff0 0000 	movel #2146435072,%d4
    f2fa:	2e00           	movel %d0,%d7
    f2fc:	2c02           	movel %d2,%d6
    f2fe:	0880 001f      	bclr #31,%d0
    f302:	0882 001f      	bclr #31,%d2
    f306:	b084           	cmpl %d4,%d0
    f308:	6200 fc8a      	bhiw ef94 <Ld$inop>
    f30c:	6600 0008      	bnew f316 <Ladddf$nf+0x34>
    f310:	4a81           	tstl %d1
    f312:	6600 fc80      	bnew ef94 <Ld$inop>
    f316:	b484           	cmpl %d4,%d2
    f318:	6200 fc7a      	bhiw ef94 <Ld$inop>
    f31c:	6600 0008      	bnew f326 <Ladddf$nf+0x44>
    f320:	4a83           	tstl %d3
    f322:	6600 fc70      	bnew ef94 <Ld$inop>
    f326:	bf86           	eorl %d7,%d6
    f328:	6b00 000c      	bmiw f336 <Ladddf$nf+0x54>
    f32c:	0287 8000 0000 	andil #-2147483648,%d7
    f332:	6000 fc3a      	braw ef6e <Ld$infty>
    f336:	b082           	cmpl %d2,%d0
    f338:	6600 0008      	bnew f342 <Ladddf$nf+0x60>
    f33c:	b283           	cmpl %d3,%d1
    f33e:	6700 fc54      	beqw ef94 <Ld$inop>
    f342:	0287 8000 0000 	andil #-2147483648,%d7
    f348:	b084           	cmpl %d4,%d0
    f34a:	6700 fc22      	beqw ef6e <Ld$infty>
    f34e:	0847 001f      	bchg #31,%d7
    f352:	6000 fc1a      	braw ef6e <Ld$infty>

0000f356 <__muldf3>:
    f356:	4e56 0000      	linkw %fp,#0
    f35a:	48e7 3f00      	moveml %d2-%d7,%sp@-
    f35e:	202e 0008      	movel %fp@(8),%d0
    f362:	222e 000c      	movel %fp@(12),%d1
    f366:	242e 0010      	movel %fp@(16),%d2
    f36a:	262e 0014      	movel %fp@(20),%d3
    f36e:	2e00           	movel %d0,%d7
    f370:	b587           	eorl %d2,%d7
    f372:	0287 8000 0000 	andil #-2147483648,%d7
    f378:	2047           	moveal %d7,%a0
    f37a:	2e3c 7ff0 0000 	movel #2146435072,%d7
    f380:	2c07           	movel %d7,%d6
    f382:	4686           	notl %d6
    f384:	0880 001f      	bclr #31,%d0
    f388:	2800           	movel %d0,%d4
    f38a:	8881           	orl %d1,%d4
    f38c:	6700 0120      	beqw f4ae <Lmuldf$a$0>
    f390:	2800           	movel %d0,%d4
    f392:	0882 001f      	bclr #31,%d2
    f396:	2a02           	movel %d2,%d5
    f398:	8a83           	orl %d3,%d5
    f39a:	6700 0106      	beqw f4a2 <Lmuldf$b$0>
    f39e:	2a02           	movel %d2,%d5
    f3a0:	b087           	cmpl %d7,%d0
    f3a2:	6200 00dc      	bhiw f480 <Lmuldf$inop>
    f3a6:	6700 00ec      	beqw f494 <Lmuldf$a$nf>
    f3aa:	b487           	cmpl %d7,%d2
    f3ac:	6200 00d2      	bhiw f480 <Lmuldf$inop>
    f3b0:	6700 00d4      	beqw f486 <Lmuldf$b$nf>
    f3b4:	c887           	andl %d7,%d4
    f3b6:	6700 0120      	beqw f4d8 <Lmuldf$a$den>
    f3ba:	c086           	andl %d6,%d0
    f3bc:	0080 0010 0000 	oril #1048576,%d0
    f3c2:	4844           	swap %d4
    f3c4:	e84c           	lsrw #4,%d4

0000f3c6 <Lmuldf$1>:
    f3c6:	ca87           	andl %d7,%d5
    f3c8:	6700 0124      	beqw f4ee <Lmuldf$b$den>
    f3cc:	c486           	andl %d6,%d2
    f3ce:	0082 0010 0000 	oril #1048576,%d2
    f3d4:	4845           	swap %d5
    f3d6:	e84d           	lsrw #4,%d5

0000f3d8 <Lmuldf$2>:
    f3d8:	d845           	addw %d5,%d4
    f3da:	0444 03ff      	subiw #1023,%d4
    f3de:	48e7 0030      	moveml %a2-%a3,%sp@-
    f3e2:	247c 0000 0000 	moveal #0,%a2
    f3e8:	2644           	moveal %d4,%a3
    f3ea:	ea9a           	rorl #5,%d2
    f3ec:	4842           	swap %d2
    f3ee:	ea9b           	rorl #5,%d3
    f3f0:	4843           	swap %d3
    f3f2:	3c03           	movew %d3,%d6
    f3f4:	0246 07ff      	andiw #2047,%d6
    f3f8:	8446           	orw %d6,%d2
    f3fa:	0243 f800      	andiw #-2048,%d3
    f3fe:	2c02           	movel %d2,%d6
    f400:	2e03           	movel %d3,%d7
    f402:	2800           	movel %d0,%d4
    f404:	2a01           	movel %d1,%d5
    f406:	7600           	moveq #0,%d3
    f408:	2403           	movel %d3,%d2
    f40a:	2203           	movel %d3,%d1
    f40c:	2003           	movel %d3,%d0
    f40e:	227c 0000 0034 	moveal #52,%a1
    f414:	cf89           	exg %d7,%a1
    f416:	cf89           	exg %d7,%a1
    f418:	d683           	addl %d3,%d3
    f41a:	d582           	addxl %d2,%d2
    f41c:	d381           	addxl %d1,%d1
    f41e:	d180           	addxl %d0,%d0
    f420:	de87           	addl %d7,%d7
    f422:	dd86           	addxl %d6,%d6
    f424:	6400 000e      	bccw f434 <Lmuldf$2+0x5c>
    f428:	cf8a           	exg %d7,%a2
    f42a:	d685           	addl %d5,%d3
    f42c:	d584           	addxl %d4,%d2
    f42e:	d387           	addxl %d7,%d1
    f430:	d187           	addxl %d7,%d0
    f432:	cf8a           	exg %d7,%a2
    f434:	cf89           	exg %d7,%a1
    f436:	51cf ffde      	dbf %d7,f416 <Lmuldf$2+0x3e>
    f43a:	280b           	movel %a3,%d4
    f43c:	4cdf 0c00      	moveml %sp@+,%a2-%a3
    f440:	4840           	swap %d0
    f442:	4841           	swap %d1
    f444:	3001           	movew %d1,%d0
    f446:	4842           	swap %d2
    f448:	3202           	movew %d2,%d1
    f44a:	4843           	swap %d3
    f44c:	3403           	movew %d3,%d2
    f44e:	363c 0000      	movew #0,%d3
    f452:	e288           	lsrl #1,%d0
    f454:	e291           	roxrl #1,%d1
    f456:	e292           	roxrl #1,%d2
    f458:	e293           	roxrl #1,%d3
    f45a:	e288           	lsrl #1,%d0
    f45c:	e291           	roxrl #1,%d1
    f45e:	e292           	roxrl #1,%d2
    f460:	e293           	roxrl #1,%d3
    f462:	e288           	lsrl #1,%d0
    f464:	e291           	roxrl #1,%d1
    f466:	e292           	roxrl #1,%d2
    f468:	e293           	roxrl #1,%d3
    f46a:	2e08           	movel %a0,%d7
    f46c:	7a02           	moveq #2,%d5
    f46e:	0800 0016      	btst #22,%d0
    f472:	6700 027a      	beqw f6ee <Lround$exit>
    f476:	e288           	lsrl #1,%d0
    f478:	e291           	roxrl #1,%d1
    f47a:	5244           	addqw #1,%d4
    f47c:	6000 0270      	braw f6ee <Lround$exit>

0000f480 <Lmuldf$inop>:
    f480:	7a02           	moveq #2,%d5
    f482:	6000 fb10      	braw ef94 <Ld$inop>

0000f486 <Lmuldf$b$nf>:
    f486:	7a02           	moveq #2,%d5
    f488:	2e08           	movel %a0,%d7
    f48a:	4a83           	tstl %d3
    f48c:	6600 fb06      	bnew ef94 <Ld$inop>
    f490:	6000 fadc      	braw ef6e <Ld$infty>

0000f494 <Lmuldf$a$nf>:
    f494:	7a02           	moveq #2,%d5
    f496:	2e08           	movel %a0,%d7
    f498:	4a81           	tstl %d1
    f49a:	6600 faf8      	bnew ef94 <Ld$inop>
    f49e:	6000 face      	braw ef6e <Ld$infty>

0000f4a2 <Lmuldf$b$0>:
    f4a2:	7a02           	moveq #2,%d5
    f4a4:	c540           	exg %d2,%d0
    f4a6:	c741           	exg %d3,%d1
    f4a8:	2008           	movel %a0,%d0
    f4aa:	6000 0010      	braw f4bc <Lmuldf$a$0+0xe>

0000f4ae <Lmuldf$a$0>:
    f4ae:	2008           	movel %a0,%d0
    f4b0:	242e 0010      	movel %fp@(16),%d2
    f4b4:	262e 0014      	movel %fp@(20),%d3
    f4b8:	0882 001f      	bclr #31,%d2
    f4bc:	0c82 7ff0 0000 	cmpil #2146435072,%d2
    f4c2:	6c00 fad0      	bgew ef94 <Ld$inop>
    f4c6:	41f9 0001 330c 	lea 1330c <_fpCCR>,%a0
    f4cc:	30bc 0000      	movew #0,%a0@
    f4d0:	4cdf 00fc      	moveml %sp@+,%d2-%d7
    f4d4:	4e5e           	unlk %fp
    f4d6:	4e75           	rts

0000f4d8 <Lmuldf$a$den>:
    f4d8:	7801           	moveq #1,%d4
    f4da:	c086           	andl %d6,%d0
    f4dc:	d281           	addl %d1,%d1
    f4de:	d180           	addxl %d0,%d0
    f4e0:	5344           	subqw #1,%d4
    f4e2:	0800 0014      	btst #20,%d0
    f4e6:	6600 fede      	bnew f3c6 <Lmuldf$1>
    f4ea:	6000 fff0      	braw f4dc <Lmuldf$a$den+0x4>

0000f4ee <Lmuldf$b$den>:
    f4ee:	7a01           	moveq #1,%d5
    f4f0:	c486           	andl %d6,%d2
    f4f2:	d683           	addl %d3,%d3
    f4f4:	d582           	addxl %d2,%d2
    f4f6:	5345           	subqw #1,%d5
    f4f8:	0802 0014      	btst #20,%d2
    f4fc:	6600 feda      	bnew f3d8 <Lmuldf$2>
    f500:	6000 fff0      	braw f4f2 <Lmuldf$b$den+0x4>

0000f504 <__divdf3>:
    f504:	4e56 0000      	linkw %fp,#0
    f508:	48e7 3f00      	moveml %d2-%d7,%sp@-
    f50c:	202e 0008      	movel %fp@(8),%d0
    f510:	222e 000c      	movel %fp@(12),%d1
    f514:	242e 0010      	movel %fp@(16),%d2
    f518:	262e 0014      	movel %fp@(20),%d3
    f51c:	2e00           	movel %d0,%d7
    f51e:	b587           	eorl %d2,%d7
    f520:	0287 8000 0000 	andil #-2147483648,%d7
    f526:	2047           	moveal %d7,%a0
    f528:	2e3c 7ff0 0000 	movel #2146435072,%d7
    f52e:	2c07           	movel %d7,%d6
    f530:	4686           	notl %d6
    f532:	0880 001f      	bclr #31,%d0
    f536:	2800           	movel %d0,%d4
    f538:	8881           	orl %d1,%d4
    f53a:	6700 0112      	beqw f64e <Ldivdf$a$0>
    f53e:	2800           	movel %d0,%d4
    f540:	0882 001f      	bclr #31,%d2
    f544:	2a02           	movel %d2,%d5
    f546:	8a83           	orl %d3,%d5
    f548:	6700 013c      	beqw f686 <Ldivdf$b$0>
    f54c:	2a02           	movel %d2,%d5
    f54e:	b087           	cmpl %d7,%d0
    f550:	6200 00f6      	bhiw f648 <Ldivdf$inop>
    f554:	6700 0154      	beqw f6aa <Ldivdf$a$nf>
    f558:	b487           	cmpl %d7,%d2
    f55a:	6200 00ec      	bhiw f648 <Ldivdf$inop>
    f55e:	6700 013e      	beqw f69e <Ldivdf$b$nf>
    f562:	c887           	andl %d7,%d4
    f564:	6700 015c      	beqw f6c2 <Ldivdf$a$den>
    f568:	c086           	andl %d6,%d0
    f56a:	0080 0010 0000 	oril #1048576,%d0
    f570:	4844           	swap %d4
    f572:	e84c           	lsrw #4,%d4

0000f574 <Ldivdf$1>:
    f574:	ca87           	andl %d7,%d5
    f576:	6700 0160      	beqw f6d8 <Ldivdf$b$den>
    f57a:	c486           	andl %d6,%d2
    f57c:	0082 0010 0000 	oril #1048576,%d2
    f582:	4845           	swap %d5
    f584:	e84d           	lsrw #4,%d5

0000f586 <Ldivdf$2>:
    f586:	9845           	subw %d5,%d4
    f588:	0644 03fe      	addiw #1022,%d4
    f58c:	7c00           	moveq #0,%d6
    f58e:	2e06           	movel %d6,%d7
    f590:	227c 0000 0000 	moveal #0,%a1
    f596:	7a16           	moveq #22,%d5
    f598:	b480           	cmpl %d0,%d2
    f59a:	6200 000c      	bhiw f5a8 <Ldivdf$2+0x22>
    f59e:	6700 0014      	beqw f5b4 <Ldivdf$2+0x2e>
    f5a2:	9283           	subl %d3,%d1
    f5a4:	9182           	subxl %d2,%d0
    f5a6:	0bc6           	bset %d5,%d6
    f5a8:	d281           	addl %d1,%d1
    f5aa:	d180           	addxl %d0,%d0
    f5ac:	51cd ffea      	dbf %d5,f598 <Ldivdf$2+0x12>
    f5b0:	6000 000c      	braw f5be <Ldivdf$2+0x38>
    f5b4:	b681           	cmpl %d1,%d3
    f5b6:	6200 fff0      	bhiw f5a8 <Ldivdf$2+0x22>
    f5ba:	6000 ffe6      	braw f5a2 <Ldivdf$2+0x1c>
    f5be:	7a1f           	moveq #31,%d5
    f5c0:	b480           	cmpl %d0,%d2
    f5c2:	6200 000c      	bhiw f5d0 <Ldivdf$2+0x4a>
    f5c6:	6700 0014      	beqw f5dc <Ldivdf$2+0x56>
    f5ca:	9283           	subl %d3,%d1
    f5cc:	9182           	subxl %d2,%d0
    f5ce:	0bc7           	bset %d5,%d7
    f5d0:	d281           	addl %d1,%d1
    f5d2:	d180           	addxl %d0,%d0
    f5d4:	51cd ffea      	dbf %d5,f5c0 <Ldivdf$2+0x3a>
    f5d8:	6000 000c      	braw f5e6 <Ldivdf$2+0x60>
    f5dc:	b681           	cmpl %d1,%d3
    f5de:	6200 fff0      	bhiw f5d0 <Ldivdf$2+0x4a>
    f5e2:	6000 ffe6      	braw f5ca <Ldivdf$2+0x44>
    f5e6:	7a35           	moveq #53,%d5
    f5e8:	b082           	cmpl %d2,%d0
    f5ea:	6200 001c      	bhiw f608 <Ldivdf$2+0x82>
    f5ee:	6700 0012      	beqw f602 <Ldivdf$2+0x7c>
    f5f2:	d281           	addl %d1,%d1
    f5f4:	d180           	addxl %d0,%d0
    f5f6:	51cd fff0      	dbf %d5,f5e8 <Ldivdf$2+0x62>
    f5fa:	7400           	moveq #0,%d2
    f5fc:	2602           	movel %d2,%d3
    f5fe:	6000 0028      	braw f628 <Ldivdf$2+0xa2>
    f602:	b681           	cmpl %d1,%d3
    f604:	6200 ffec      	bhiw f5f2 <Ldivdf$2+0x6c>
    f608:	7400           	moveq #0,%d2
    f60a:	2602           	movel %d2,%d3
    f60c:	0445 0035      	subiw #53,%d5
    f610:	0645 003f      	addiw #63,%d5
    f614:	0c45 001f      	cmpiw #31,%d5
    f618:	6200 000c      	bhiw f626 <Ldivdf$2+0xa0>
    f61c:	0bc3           	bset %d5,%d3
    f61e:	6000 0008      	braw f628 <Ldivdf$2+0xa2>
    f622:	0445 0020      	subiw #32,%d5
    f626:	0bc2           	bset %d5,%d2
    f628:	2006           	movel %d6,%d0
    f62a:	2207           	movel %d7,%d1
    f62c:	7600           	moveq #0,%d3
    f62e:	0800 0016      	btst #22,%d0
    f632:	6700 000c      	beqw f640 <Ldivdf$2+0xba>
    f636:	e288           	lsrl #1,%d0
    f638:	e291           	roxrl #1,%d1
    f63a:	e292           	roxrl #1,%d2
    f63c:	e293           	roxrl #1,%d3
    f63e:	5244           	addqw #1,%d4
    f640:	2e08           	movel %a0,%d7
    f642:	7a03           	moveq #3,%d5
    f644:	6000 00a8      	braw f6ee <Lround$exit>

0000f648 <Ldivdf$inop>:
    f648:	7a03           	moveq #3,%d5
    f64a:	6000 f948      	braw ef94 <Ld$inop>

0000f64e <Ldivdf$a$0>:
    f64e:	7a03           	moveq #3,%d5
    f650:	0882 001f      	bclr #31,%d2
    f654:	2802           	movel %d2,%d4
    f656:	8883           	orl %d3,%d4
    f658:	6700 f93a      	beqw ef94 <Ld$inop>
    f65c:	0c82 7ff0 0000 	cmpil #2146435072,%d2
    f662:	6200 f930      	bhiw ef94 <Ld$inop>
    f666:	6d00 0008      	bltw f670 <Ldivdf$a$0+0x22>
    f66a:	4a83           	tstl %d3
    f66c:	6600 f926      	bnew ef94 <Ld$inop>
    f670:	2008           	movel %a0,%d0
    f672:	7200           	moveq #0,%d1
    f674:	41f9 0001 330c 	lea 1330c <_fpCCR>,%a0
    f67a:	30bc 0000      	movew #0,%a0@
    f67e:	4cdf 00fc      	moveml %sp@+,%d2-%d7
    f682:	4e5e           	unlk %fp
    f684:	4e75           	rts

0000f686 <Ldivdf$b$0>:
    f686:	7a03           	moveq #3,%d5
    f688:	2e08           	movel %a0,%d7
    f68a:	0c80 7ff0 0000 	cmpil #2146435072,%d0
    f690:	6200 f902      	bhiw ef94 <Ld$inop>
    f694:	4a81           	tstl %d1
    f696:	6600 f8fc      	bnew ef94 <Ld$inop>
    f69a:	6000 f908      	braw efa4 <Ld$div$0>

0000f69e <Ldivdf$b$nf>:
    f69e:	7a03           	moveq #3,%d5
    f6a0:	4a83           	tstl %d3
    f6a2:	6600 f8f0      	bnew ef94 <Ld$inop>
    f6a6:	6000 f8dc      	braw ef84 <Ld$underflow>

0000f6aa <Ldivdf$a$nf>:
    f6aa:	7a03           	moveq #3,%d5
    f6ac:	4a81           	tstl %d1
    f6ae:	6600 f8e4      	bnew ef94 <Ld$inop>
    f6b2:	b487           	cmpl %d7,%d2
    f6b4:	6c00 f8de      	bgew ef94 <Ld$inop>
    f6b8:	4a83           	tstl %d3
    f6ba:	6600 f8d8      	bnew ef94 <Ld$inop>
    f6be:	6000 f8ae      	braw ef6e <Ld$infty>

0000f6c2 <Ldivdf$a$den>:
    f6c2:	7801           	moveq #1,%d4
    f6c4:	c086           	andl %d6,%d0
    f6c6:	d281           	addl %d1,%d1
    f6c8:	d180           	addxl %d0,%d0
    f6ca:	5344           	subqw #1,%d4
    f6cc:	0800 0014      	btst #20,%d0
    f6d0:	6600 fea2      	bnew f574 <Ldivdf$1>
    f6d4:	6000 fff0      	braw f6c6 <Ldivdf$a$den+0x4>

0000f6d8 <Ldivdf$b$den>:
    f6d8:	7a01           	moveq #1,%d5
    f6da:	c486           	andl %d6,%d2
    f6dc:	d683           	addl %d3,%d3
    f6de:	d582           	addxl %d2,%d2
    f6e0:	5345           	subqw #1,%d5
    f6e2:	0802 0014      	btst #20,%d2
    f6e6:	6600 fe9e      	bnew f586 <Ldivdf$2>
    f6ea:	6000 fff0      	braw f6dc <Ldivdf$b$den+0x4>

0000f6ee <Lround$exit>:
    f6ee:	0c44 ffca      	cmpiw #-54,%d4
    f6f2:	6d00 f890      	bltw ef84 <Ld$underflow>
    f6f6:	2047           	moveal %d7,%a0
    f6f8:	7c00           	moveq #0,%d6
    f6fa:	2e06           	movel %d6,%d7
    f6fc:	0c44 0001      	cmpiw #1,%d4
    f700:	6c00 0020      	bgew f722 <Lround$exit+0x34>
    f704:	5244           	addqw #1,%d4
    f706:	e288           	lsrl #1,%d0
    f708:	e291           	roxrl #1,%d1
    f70a:	e292           	roxrl #1,%d2
    f70c:	e293           	roxrl #1,%d3
    f70e:	e296           	roxrl #1,%d6
    f710:	e297           	roxrl #1,%d7
    f712:	0c44 0001      	cmpiw #1,%d4
    f716:	6700 000a      	beqw f722 <Lround$exit+0x34>
    f71a:	6000 ffe8      	braw f704 <Lround$exit+0x16>
    f71e:	6000 f864      	braw ef84 <Ld$underflow>
    f722:	8486           	orl %d6,%d2
    f724:	8687           	orl %d7,%d3
    f726:	2e08           	movel %a0,%d7
    f728:	41fa 0020      	lea %pc@(f74a <Lround$0>),%a0
    f72c:	43f9 0001 330c 	lea 1330c <_fpCCR>,%a1
    f732:	3c29 0006      	movew %a1@(6),%d6
    f736:	6700 0190      	beqw f8c8 <Lround$to$nearest>
    f73a:	0c46 0002      	cmpiw #2,%d6
    f73e:	6200 01ec      	bhiw f92c <Lround$to$minus>
    f742:	6d00 01e8      	bltw f92c <Lround$to$minus>
    f746:	6000 01e4      	braw f92c <Lround$to$minus>

0000f74a <Lround$0>:
    f74a:	0c44 07ff      	cmpiw #2047,%d4
    f74e:	6c00 f81e      	bgew ef6e <Ld$infty>
    f752:	3804           	movew %d4,%d4
    f754:	6700 f80a      	beqw ef60 <Ld$den>
    f758:	e94c           	lslw #4,%d4
    f75a:	0880 0014      	bclr #20,%d0
    f75e:	4840           	swap %d0
    f760:	8044           	orw %d4,%d0
    f762:	4840           	swap %d0
    f764:	8087           	orl %d7,%d0
    f766:	41f9 0001 330c 	lea 1330c <_fpCCR>,%a0
    f76c:	30bc 0000      	movew #0,%a0@
    f770:	4cdf 00fc      	moveml %sp@+,%d2-%d7
    f774:	4e5e           	unlk %fp
    f776:	4e75           	rts

0000f778 <__negdf2>:
    f778:	4e56 0000      	linkw %fp,#0
    f77c:	48e7 3f00      	moveml %d2-%d7,%sp@-
    f780:	7a04           	moveq #4,%d5
    f782:	202e 0008      	movel %fp@(8),%d0
    f786:	222e 000c      	movel %fp@(12),%d1
    f78a:	0840 001f      	bchg #31,%d0
    f78e:	2400           	movel %d0,%d2
    f790:	0882 001f      	bclr #31,%d2
    f794:	2802           	movel %d2,%d4
    f796:	8881           	orl %d1,%d4
    f798:	6700 0034      	beqw f7ce <__negdf2+0x56>
    f79c:	0c82 7ff0 0000 	cmpil #2146435072,%d2
    f7a2:	6d00 0018      	bltw f7bc <__negdf2+0x44>
    f7a6:	6200 f7ec      	bhiw ef94 <Ld$inop>
    f7aa:	4a81           	tstl %d1
    f7ac:	6600 f7e6      	bnew ef94 <Ld$inop>
    f7b0:	2e00           	movel %d0,%d7
    f7b2:	0287 8000 0000 	andil #-2147483648,%d7
    f7b8:	6000 f7b4      	braw ef6e <Ld$infty>
    f7bc:	41f9 0001 330c 	lea 1330c <_fpCCR>,%a0
    f7c2:	30bc 0000      	movew #0,%a0@
    f7c6:	4cdf 00fc      	moveml %sp@+,%d2-%d7
    f7ca:	4e5e           	unlk %fp
    f7cc:	4e75           	rts
    f7ce:	0880 001f      	bclr #31,%d0
    f7d2:	6000 ffe8      	braw f7bc <__negdf2+0x44>

0000f7d6 <__cmpdf2_internal>:
    f7d6:	4e56 0000      	linkw %fp,#0
    f7da:	48e7 3f00      	moveml %d2-%d7,%sp@-
    f7de:	7a05           	moveq #5,%d5
    f7e0:	202e 0008      	movel %fp@(8),%d0
    f7e4:	222e 000c      	movel %fp@(12),%d1
    f7e8:	242e 0010      	movel %fp@(16),%d2
    f7ec:	262e 0014      	movel %fp@(20),%d3
    f7f0:	2c00           	movel %d0,%d6
    f7f2:	0880 001f      	bclr #31,%d0
    f7f6:	2e02           	movel %d2,%d7
    f7f8:	0882 001f      	bclr #31,%d2
    f7fc:	0c80 7ff0 0000 	cmpil #2146435072,%d0
    f802:	6200 0094      	bhiw f898 <Lcmpd$inop>
    f806:	6700 007c      	beqw f884 <Lcmpdf$a$nf>
    f80a:	2800           	movel %d0,%d4
    f80c:	8881           	orl %d1,%d4
    f80e:	6700 0064      	beqw f874 <Lcmpdf$a$0>

0000f812 <Lcmpdf$0>:
    f812:	0c82 7ff0 0000 	cmpil #2146435072,%d2
    f818:	6200 007e      	bhiw f898 <Lcmpd$inop>
    f81c:	6700 0070      	beqw f88e <Lcmpdf$b$nf>
    f820:	2802           	movel %d2,%d4
    f822:	8883           	orl %d3,%d4
    f824:	6700 0056      	beqw f87c <Lcmpdf$b$0>

0000f828 <Lcmpdf$1>:
    f828:	bd87           	eorl %d6,%d7
    f82a:	6a00 000c      	bplw f838 <Lcmpdf$1+0x10>
    f82e:	4a86           	tstl %d6
    f830:	6a00 002e      	bplw f860 <Lcmpdf$a$gt$b>
    f834:	6b00 0034      	bmiw f86a <Lcmpdf$b$gt$a>
    f838:	4a86           	tstl %d6
    f83a:	6a00 0006      	bplw f842 <Lcmpdf$1+0x1a>
    f83e:	c142           	exg %d0,%d2
    f840:	c343           	exg %d1,%d3
    f842:	b480           	cmpl %d0,%d2
    f844:	6200 0024      	bhiw f86a <Lcmpdf$b$gt$a>
    f848:	6600 0016      	bnew f860 <Lcmpdf$a$gt$b>
    f84c:	b681           	cmpl %d1,%d3
    f84e:	6200 001a      	bhiw f86a <Lcmpdf$b$gt$a>
    f852:	6600 000c      	bnew f860 <Lcmpdf$a$gt$b>
    f856:	7000           	moveq #0,%d0
    f858:	4cdf 00fc      	moveml %sp@+,%d2-%d7
    f85c:	4e5e           	unlk %fp
    f85e:	4e75           	rts

0000f860 <Lcmpdf$a$gt$b>:
    f860:	7001           	moveq #1,%d0
    f862:	4cdf 00fc      	moveml %sp@+,%d2-%d7
    f866:	4e5e           	unlk %fp
    f868:	4e75           	rts

0000f86a <Lcmpdf$b$gt$a>:
    f86a:	70ff           	moveq #-1,%d0
    f86c:	4cdf 00fc      	moveml %sp@+,%d2-%d7
    f870:	4e5e           	unlk %fp
    f872:	4e75           	rts

0000f874 <Lcmpdf$a$0>:
    f874:	0886 001f      	bclr #31,%d6
    f878:	6000 ff98      	braw f812 <Lcmpdf$0>

0000f87c <Lcmpdf$b$0>:
    f87c:	0887 001f      	bclr #31,%d7
    f880:	6000 ffa6      	braw f828 <Lcmpdf$1>

0000f884 <Lcmpdf$a$nf>:
    f884:	4a81           	tstl %d1
    f886:	6600 f70c      	bnew ef94 <Ld$inop>
    f88a:	6000 ff86      	braw f812 <Lcmpdf$0>

0000f88e <Lcmpdf$b$nf>:
    f88e:	4a83           	tstl %d3
    f890:	6600 f702      	bnew ef94 <Ld$inop>
    f894:	6000 ff92      	braw f828 <Lcmpdf$1>

0000f898 <Lcmpd$inop>:
    f898:	202e 0018      	movel %fp@(24),%d0
    f89c:	7e11           	moveq #17,%d7
    f89e:	7c02           	moveq #2,%d6
    f8a0:	4ef9 0000 f93e 	jmp f93e <$_exception_handler>

0000f8a6 <__cmpdf2>:
    f8a6:	4e56 0000      	linkw %fp,#0
    f8aa:	4878 0001      	pea 1 <ADD>
    f8ae:	2f2e 0014      	movel %fp@(20),%sp@-
    f8b2:	2f2e 0010      	movel %fp@(16),%sp@-
    f8b6:	2f2e 000c      	movel %fp@(12),%sp@-
    f8ba:	2f2e 0008      	movel %fp@(8),%sp@-
    f8be:	4eb9 0000 f7d6 	jsr f7d6 <__cmpdf2_internal>
    f8c4:	4e5e           	unlk %fp
    f8c6:	4e75           	rts

0000f8c8 <Lround$to$nearest>:
    f8c8:	0800 0015      	btst #21,%d0
    f8cc:	6600 0016      	bnew f8e4 <Lround$to$nearest+0x1c>
    f8d0:	0c44 0001      	cmpiw #1,%d4
    f8d4:	6700 000e      	beqw f8e4 <Lround$to$nearest+0x1c>
    f8d8:	d683           	addl %d3,%d3
    f8da:	d582           	addxl %d2,%d2
    f8dc:	d381           	addxl %d1,%d1
    f8de:	d180           	addxl %d0,%d0
    f8e0:	51cc ffe6      	dbf %d4,f8c8 <Lround$to$nearest>
    f8e4:	0801 0000      	btst #0,%d1
    f8e8:	6700 0022      	beqw f90c <Lround$to$nearest+0x44>
    f8ec:	8682           	orl %d2,%d3
    f8ee:	6600 0014      	bnew f904 <Lround$to$nearest+0x3c>
    f8f2:	2601           	movel %d1,%d3
    f8f4:	0283 0000 0002 	andil #2,%d3
    f8fa:	7400           	moveq #0,%d2
    f8fc:	d283           	addl %d3,%d1
    f8fe:	d182           	addxl %d2,%d0
    f900:	6000 000a      	braw f90c <Lround$to$nearest+0x44>
    f904:	7601           	moveq #1,%d3
    f906:	7400           	moveq #0,%d2
    f908:	d283           	addl %d3,%d1
    f90a:	d182           	addxl %d2,%d0
    f90c:	e288           	lsrl #1,%d0
    f90e:	e291           	roxrl #1,%d1
    f910:	0800 0015      	btst #21,%d0
    f914:	6700 0008      	beqw f91e <Lround$to$nearest+0x56>
    f918:	e288           	lsrl #1,%d0
    f91a:	e291           	roxrl #1,%d1
    f91c:	5244           	addqw #1,%d4
    f91e:	0800 0014      	btst #20,%d0
    f922:	6700 0004      	beqw f928 <Lround$to$nearest+0x60>
    f926:	4ed0           	jmp %a0@
    f928:	7800           	moveq #0,%d4
    f92a:	4ed0           	jmp %a0@

0000f92c <Lround$to$minus>:
    f92c:	4ed0           	jmp %a0@
	...

0000f930 <__clear_sticky_bit>:
    f930:	41f9 0001 330c 	lea 1330c <_fpCCR>,%a0
    f936:	317c 0000 0004 	movew #0,%a0@(4)
    f93c:	4e75           	rts

0000f93e <$_exception_handler>:
    f93e:	41f9 0001 330c 	lea 1330c <_fpCCR>,%a0
    f944:	3087           	movew %d7,%a0@
    f946:	8f68 0004      	orw %d7,%a0@(4)
    f94a:	3146 0008      	movew %d6,%a0@(8)
    f94e:	3145 000a      	movew %d5,%a0@(10)
    f952:	0c46 0001      	cmpiw #1,%d6
    f956:	6700 001e      	beqw f976 <$_exception_handler+0x38>
    f95a:	216e 0008 000c 	movel %fp@(8),%a0@(12)
    f960:	216e 000c 0010 	movel %fp@(12),%a0@(16)
    f966:	216e 0010 0014 	movel %fp@(16),%a0@(20)
    f96c:	216e 0014 0018 	movel %fp@(20),%a0@(24)
    f972:	6000 000e      	braw f982 <$_exception_handler+0x44>
    f976:	216e 0008 000c 	movel %fp@(8),%a0@(12)
    f97c:	216e 000c 0014 	movel %fp@(12),%a0@(20)
    f982:	ce68 0002      	andw %a0@(2),%d7
    f986:	6700 000a      	beqw f992 <$_exception_handler+0x54>
    f98a:	4879 0001 330c 	pea 1330c <_fpCCR>
    f990:	4e4f           	trap #15
    f992:	4cdf 00fc      	moveml %sp@+,%d2-%d7
    f996:	4e5e           	unlk %fp
    f998:	4e75           	rts
	...

0000f99c <__eqdf2>:
    f99c:	4e56 0000      	linkw %fp,#0
    f9a0:	4878 0001      	pea 1 <ADD>
    f9a4:	2f2e 0014      	movel %fp@(20),%sp@-
    f9a8:	2f2e 0010      	movel %fp@(16),%sp@-
    f9ac:	2f2e 000c      	movel %fp@(12),%sp@-
    f9b0:	2f2e 0008      	movel %fp@(8),%sp@-
    f9b4:	4eb9 0000 f7d6 	jsr f7d6 <__cmpdf2_internal>
    f9ba:	4e5e           	unlk %fp
    f9bc:	4e75           	rts
	...

0000f9c0 <__nedf2>:
    f9c0:	4e56 0000      	linkw %fp,#0
    f9c4:	4878 0001      	pea 1 <ADD>
    f9c8:	2f2e 0014      	movel %fp@(20),%sp@-
    f9cc:	2f2e 0010      	movel %fp@(16),%sp@-
    f9d0:	2f2e 000c      	movel %fp@(12),%sp@-
    f9d4:	2f2e 0008      	movel %fp@(8),%sp@-
    f9d8:	4eb9 0000 f7d6 	jsr f7d6 <__cmpdf2_internal>
    f9de:	4e5e           	unlk %fp
    f9e0:	4e75           	rts
	...

0000f9e4 <__gtdf2>:
    f9e4:	4e56 0000      	linkw %fp,#0
    f9e8:	4878 ffff      	pea ffffffff <LESS+0x0>
    f9ec:	2f2e 0014      	movel %fp@(20),%sp@-
    f9f0:	2f2e 0010      	movel %fp@(16),%sp@-
    f9f4:	2f2e 000c      	movel %fp@(12),%sp@-
    f9f8:	2f2e 0008      	movel %fp@(8),%sp@-
    f9fc:	4eb9 0000 f7d6 	jsr f7d6 <__cmpdf2_internal>
    fa02:	4e5e           	unlk %fp
    fa04:	4e75           	rts
	...

0000fa08 <__ltdf2>:
    fa08:	4e56 0000      	linkw %fp,#0
    fa0c:	4878 0001      	pea 1 <ADD>
    fa10:	2f2e 0014      	movel %fp@(20),%sp@-
    fa14:	2f2e 0010      	movel %fp@(16),%sp@-
    fa18:	2f2e 000c      	movel %fp@(12),%sp@-
    fa1c:	2f2e 0008      	movel %fp@(8),%sp@-
    fa20:	4eb9 0000 f7d6 	jsr f7d6 <__cmpdf2_internal>
    fa26:	4e5e           	unlk %fp
    fa28:	4e75           	rts
	...

0000fa2c <__ledf2>:
    fa2c:	4e56 0000      	linkw %fp,#0
    fa30:	4878 0001      	pea 1 <ADD>
    fa34:	2f2e 0014      	movel %fp@(20),%sp@-
    fa38:	2f2e 0010      	movel %fp@(16),%sp@-
    fa3c:	2f2e 000c      	movel %fp@(12),%sp@-
    fa40:	2f2e 0008      	movel %fp@(8),%sp@-
    fa44:	4eb9 0000 f7d6 	jsr f7d6 <__cmpdf2_internal>
    fa4a:	4e5e           	unlk %fp
    fa4c:	4e75           	rts
	...

0000fa50 <__floatsidf.part.0>:
    fa50:	48e7 3800      	moveml %d2-%d4,%sp@-
    fa54:	202f 0010      	movel %sp@(16),%d0
    fa58:	6b58           	bmis fab2 <__floatsidf.part.0+0x62>
    fa5a:	7400           	moveq #0,%d2
    fa5c:	223c 0000 041d 	movel #1053,%d1
    fa62:	0c80 00ff ffff 	cmpil #16777215,%d0
    fa68:	6e0c           	bgts fa76 <__floatsidf.part.0+0x26>
    fa6a:	e988           	lsll #4,%d0
    fa6c:	5981           	subql #4,%d1
    fa6e:	0c80 00ff ffff 	cmpil #16777215,%d0
    fa74:	6ff4           	bles fa6a <__floatsidf.part.0+0x1a>
    fa76:	0c80 3fff ffff 	cmpil #1073741823,%d0
    fa7c:	6e0c           	bgts fa8a <__floatsidf.part.0+0x3a>
    fa7e:	d080           	addl %d0,%d0
    fa80:	5381           	subql #1,%d1
    fa82:	0c80 3fff ffff 	cmpil #1073741823,%d0
    fa88:	6ff4           	bles fa7e <__floatsidf.part.0+0x2e>
    fa8a:	e949           	lslw #4,%d1
    fa8c:	4841           	swap %d1
    fa8e:	4241           	clrw %d1
    fa90:	8282           	orl %d2,%d1
    fa92:	2400           	movel %d0,%d2
    fa94:	760a           	moveq #10,%d3
    fa96:	e6a2           	asrl %d3,%d2
    fa98:	0882 0014      	bclr #20,%d2
    fa9c:	2801           	movel %d1,%d4
    fa9e:	8882           	orl %d2,%d4
    faa0:	2600           	movel %d0,%d3
    faa2:	ed4b           	lslw #6,%d3
    faa4:	4843           	swap %d3
    faa6:	4243           	clrw %d3
    faa8:	2004           	movel %d4,%d0
    faaa:	2203           	movel %d3,%d1
    faac:	4cdf 001c      	moveml %sp@+,%d2-%d4
    fab0:	4e75           	rts
    fab2:	4480           	negl %d0
    fab4:	6b16           	bmis facc <__floatsidf.part.0+0x7c>
    fab6:	243c 8000 0000 	movel #-2147483648,%d2
    fabc:	223c 0000 041d 	movel #1053,%d1
    fac2:	0c80 00ff ffff 	cmpil #16777215,%d0
    fac8:	6fa0           	bles fa6a <__floatsidf.part.0+0x1a>
    faca:	60aa           	bras fa76 <__floatsidf.part.0+0x26>
    facc:	203c c1e0 0000 	movel #-1042284544,%d0
    fad2:	4281           	clrl %d1
    fad4:	4cdf 001c      	moveml %sp@+,%d2-%d4
    fad8:	4e75           	rts

0000fada <__unordsf2>:
    fada:	202f 0004      	movel %sp@(4),%d0
    fade:	0280 7f80 0000 	andil #2139095040,%d0
    fae4:	0c80 7f80 0000 	cmpil #2139095040,%d0
    faea:	6716           	beqs fb02 <__unordsf2+0x28>
    faec:	202f 0008      	movel %sp@(8),%d0
    faf0:	0280 7f80 0000 	andil #2139095040,%d0
    faf6:	0c80 7f80 0000 	cmpil #2139095040,%d0
    fafc:	6714           	beqs fb12 <__unordsf2+0x38>
    fafe:	7000           	moveq #0,%d0
    fb00:	4e75           	rts
    fb02:	202f 0004      	movel %sp@(4),%d0
    fb06:	0280 007f ffff 	andil #8388607,%d0
    fb0c:	67de           	beqs faec <__unordsf2+0x12>
    fb0e:	7001           	moveq #1,%d0
    fb10:	4e75           	rts
    fb12:	202f 0008      	movel %sp@(8),%d0
    fb16:	0280 007f ffff 	andil #8388607,%d0
    fb1c:	56c0           	sne %d0
    fb1e:	4880           	extw %d0
    fb20:	48c0           	extl %d0
    fb22:	4480           	negl %d0
    fb24:	4e75           	rts

0000fb26 <__unorddf2>:
    fb26:	48e7 3800      	moveml %d2-%d4,%sp@-
    fb2a:	222f 0010      	movel %sp@(16),%d1
    fb2e:	262f 0014      	movel %sp@(20),%d3
    fb32:	202f 0018      	movel %sp@(24),%d0
    fb36:	282f 001c      	movel %sp@(28),%d4
    fb3a:	2401           	movel %d1,%d2
    fb3c:	0282 7ff0 0000 	andil #2146435072,%d2
    fb42:	0c82 7ff0 0000 	cmpil #2146435072,%d2
    fb48:	6718           	beqs fb62 <__unorddf2+0x3c>
    fb4a:	2200           	movel %d0,%d1
    fb4c:	0281 7ff0 0000 	andil #2146435072,%d1
    fb52:	0c81 7ff0 0000 	cmpil #2146435072,%d1
    fb58:	671a           	beqs fb74 <__unorddf2+0x4e>
    fb5a:	7000           	moveq #0,%d0
    fb5c:	4cdf 001c      	moveml %sp@+,%d2-%d4
    fb60:	4e75           	rts
    fb62:	0281 000f ffff 	andil #1048575,%d1
    fb68:	8283           	orl %d3,%d1
    fb6a:	67de           	beqs fb4a <__unorddf2+0x24>
    fb6c:	7001           	moveq #1,%d0
    fb6e:	4cdf 001c      	moveml %sp@+,%d2-%d4
    fb72:	4e75           	rts
    fb74:	0280 000f ffff 	andil #1048575,%d0
    fb7a:	8084           	orl %d4,%d0
    fb7c:	56c0           	sne %d0
    fb7e:	4880           	extw %d0
    fb80:	48c0           	extl %d0
    fb82:	4480           	negl %d0
    fb84:	4cdf 001c      	moveml %sp@+,%d2-%d4
    fb88:	4e75           	rts

0000fb8a <__floatunsidf>:
    fb8a:	48e7 3800      	moveml %d2-%d4,%sp@-
    fb8e:	202f 0010      	movel %sp@(16),%d0
    fb92:	6748           	beqs fbdc <__floatunsidf+0x52>
    fb94:	223c 0000 041e 	movel #1054,%d1
    fb9a:	0c80 01ff ffff 	cmpil #33554431,%d0
    fba0:	6244           	bhis fbe6 <__floatunsidf+0x5c>
    fba2:	e988           	lsll #4,%d0
    fba4:	5981           	subql #4,%d1
    fba6:	0c80 01ff ffff 	cmpil #33554431,%d0
    fbac:	63f4           	blss fba2 <__floatunsidf+0x18>
    fbae:	d080           	addl %d0,%d0
    fbb0:	5381           	subql #1,%d1
    fbb2:	4a80           	tstl %d0
    fbb4:	6cf8           	bges fbae <__floatunsidf+0x24>
    fbb6:	2400           	movel %d0,%d2
    fbb8:	760b           	moveq #11,%d3
    fbba:	e6aa           	lsrl %d3,%d2
    fbbc:	0882 0014      	bclr #20,%d2
    fbc0:	e949           	lslw #4,%d1
    fbc2:	4841           	swap %d1
    fbc4:	4241           	clrw %d1
    fbc6:	2802           	movel %d2,%d4
    fbc8:	8881           	orl %d1,%d4
    fbca:	2600           	movel %d0,%d3
    fbcc:	eb4b           	lslw #5,%d3
    fbce:	4843           	swap %d3
    fbd0:	4243           	clrw %d3
    fbd2:	2004           	movel %d4,%d0
    fbd4:	2203           	movel %d3,%d1
    fbd6:	4cdf 001c      	moveml %sp@+,%d2-%d4
    fbda:	4e75           	rts
    fbdc:	4280           	clrl %d0
    fbde:	4281           	clrl %d1
    fbe0:	4cdf 001c      	moveml %sp@+,%d2-%d4
    fbe4:	4e75           	rts
    fbe6:	4a80           	tstl %d0
    fbe8:	6cc4           	bges fbae <__floatunsidf+0x24>
    fbea:	2400           	movel %d0,%d2
    fbec:	760b           	moveq #11,%d3
    fbee:	e6aa           	lsrl %d3,%d2
    fbf0:	0882 0014      	bclr #20,%d2
    fbf4:	e949           	lslw #4,%d1
    fbf6:	4841           	swap %d1
    fbf8:	4241           	clrw %d1
    fbfa:	2802           	movel %d2,%d4
    fbfc:	8881           	orl %d1,%d4
    fbfe:	2600           	movel %d0,%d3
    fc00:	eb4b           	lslw #5,%d3
    fc02:	4843           	swap %d3
    fc04:	4243           	clrw %d3
    fc06:	2004           	movel %d4,%d0
    fc08:	2203           	movel %d3,%d1
    fc0a:	60ca           	bras fbd6 <__floatunsidf+0x4c>

0000fc0c <__floatsidf>:
    fc0c:	202f 0004      	movel %sp@(4),%d0
    fc10:	6708           	beqs fc1a <__floatsidf+0xe>
    fc12:	2f40 0004      	movel %d0,%sp@(4)
    fc16:	6000 fe38      	braw fa50 <__floatsidf.part.0>
    fc1a:	4280           	clrl %d0
    fc1c:	4281           	clrl %d1
    fc1e:	4e75           	rts

0000fc20 <__floatunsisf>:
    fc20:	48e7 3800      	moveml %d2-%d4,%sp@-
    fc24:	202f 0010      	movel %sp@(16),%d0
    fc28:	6750           	beqs fc7a <__floatunsisf+0x5a>
    fc2a:	223c 0000 041e 	movel #1054,%d1
    fc30:	0c80 01ff ffff 	cmpil #33554431,%d0
    fc36:	624a           	bhis fc82 <__floatunsisf+0x62>
    fc38:	e988           	lsll #4,%d0
    fc3a:	5981           	subql #4,%d1
    fc3c:	0c80 01ff ffff 	cmpil #33554431,%d0
    fc42:	63f4           	blss fc38 <__floatunsisf+0x18>
    fc44:	d080           	addl %d0,%d0
    fc46:	5381           	subql #1,%d1
    fc48:	4a80           	tstl %d0
    fc4a:	6cf8           	bges fc44 <__floatunsisf+0x24>
    fc4c:	2800           	movel %d0,%d4
    fc4e:	740b           	moveq #11,%d2
    fc50:	e4ac           	lsrl %d2,%d4
    fc52:	0884 0014      	bclr #20,%d4
    fc56:	e949           	lslw #4,%d1
    fc58:	4841           	swap %d1
    fc5a:	4241           	clrw %d1
    fc5c:	2404           	movel %d4,%d2
    fc5e:	8481           	orl %d1,%d2
    fc60:	2600           	movel %d0,%d3
    fc62:	eb4b           	lslw #5,%d3
    fc64:	4843           	swap %d3
    fc66:	4243           	clrw %d3
    fc68:	2f03           	movel %d3,%sp@-
    fc6a:	2f02           	movel %d2,%sp@-
    fc6c:	4eb9 0000 fd42 	jsr fd42 <__truncdfsf2>
    fc72:	508f           	addql #8,%sp
    fc74:	4cdf 001c      	moveml %sp@+,%d2-%d4
    fc78:	4e75           	rts
    fc7a:	7000           	moveq #0,%d0
    fc7c:	4cdf 001c      	moveml %sp@+,%d2-%d4
    fc80:	4e75           	rts
    fc82:	4a80           	tstl %d0
    fc84:	6cbe           	bges fc44 <__floatunsisf+0x24>
    fc86:	2800           	movel %d0,%d4
    fc88:	740b           	moveq #11,%d2
    fc8a:	e4ac           	lsrl %d2,%d4
    fc8c:	0884 0014      	bclr #20,%d4
    fc90:	e949           	lslw #4,%d1
    fc92:	4841           	swap %d1
    fc94:	4241           	clrw %d1
    fc96:	2404           	movel %d4,%d2
    fc98:	8481           	orl %d1,%d2
    fc9a:	2600           	movel %d0,%d3
    fc9c:	eb4b           	lslw #5,%d3
    fc9e:	4843           	swap %d3
    fca0:	4243           	clrw %d3
    fca2:	2f03           	movel %d3,%sp@-
    fca4:	2f02           	movel %d2,%sp@-
    fca6:	4eb9 0000 fd42 	jsr fd42 <__truncdfsf2>
    fcac:	508f           	addql #8,%sp
    fcae:	60c4           	bras fc74 <__floatunsisf+0x54>

0000fcb0 <__floatsisf>:
    fcb0:	202f 0004      	movel %sp@(4),%d0
    fcb4:	6714           	beqs fcca <__floatsisf+0x1a>
    fcb6:	2f00           	movel %d0,%sp@-
    fcb8:	4eba fd96      	jsr %pc@(fa50 <__floatsidf.part.0>)
    fcbc:	2e81           	movel %d1,%sp@
    fcbe:	2f00           	movel %d0,%sp@-
    fcc0:	4eb9 0000 fd42 	jsr fd42 <__truncdfsf2>
    fcc6:	508f           	addql #8,%sp
    fcc8:	4e75           	rts
    fcca:	7000           	moveq #0,%d0
    fccc:	4e75           	rts

0000fcce <__extendsfdf2>:
    fcce:	48e7 3800      	moveml %d2-%d4,%sp@-
    fcd2:	202f 0010      	movel %sp@(16),%d0
    fcd6:	2600           	movel %d0,%d3
    fcd8:	0283 8000 0000 	andil #-2147483648,%d3
    fcde:	2200           	movel %d0,%d1
    fce0:	0881 001f      	bclr #31,%d1
    fce4:	4a81           	tstl %d1
    fce6:	674e           	beqs fd36 <__extendsfdf2+0x68>
    fce8:	2400           	movel %d0,%d2
    fcea:	4842           	swap %d2
    fcec:	ee42           	asrw #7,%d2
    fcee:	48c2           	extl %d2
    fcf0:	7200           	moveq #0,%d1
    fcf2:	4601           	notb %d1
    fcf4:	c282           	andl %d2,%d1
    fcf6:	0280 007f ffff 	andil #8388607,%d0
    fcfc:	4a02           	tstb %d2
    fcfe:	6610           	bnes fd10 <__extendsfdf2+0x42>
    fd00:	7201           	moveq #1,%d1
    fd02:	d080           	addl %d0,%d0
    fd04:	5381           	subql #1,%d1
    fd06:	0800 0017      	btst #23,%d0
    fd0a:	67f6           	beqs fd02 <__extendsfdf2+0x34>
    fd0c:	0880 0017      	bclr #23,%d0
    fd10:	0681 0000 0380 	addil #896,%d1
    fd16:	e949           	lslw #4,%d1
    fd18:	4841           	swap %d1
    fd1a:	4241           	clrw %d1
    fd1c:	2400           	movel %d0,%d2
    fd1e:	e682           	asrl #3,%d2
    fd20:	8483           	orl %d3,%d2
    fd22:	2801           	movel %d1,%d4
    fd24:	8882           	orl %d2,%d4
    fd26:	2600           	movel %d0,%d3
    fd28:	721d           	moveq #29,%d1
    fd2a:	e3ab           	lsll %d1,%d3
    fd2c:	2004           	movel %d4,%d0
    fd2e:	2203           	movel %d3,%d1
    fd30:	4cdf 001c      	moveml %sp@+,%d2-%d4
    fd34:	4e75           	rts
    fd36:	91c8           	subal %a0,%a0
    fd38:	2003           	movel %d3,%d0
    fd3a:	2208           	movel %a0,%d1
    fd3c:	4cdf 001c      	moveml %sp@+,%d2-%d4
    fd40:	4e75           	rts

0000fd42 <__truncdfsf2>:
    fd42:	48e7 3e00      	moveml %d2-%d6,%sp@-
    fd46:	222f 0018      	movel %sp@(24),%d1
    fd4a:	202f 001c      	movel %sp@(28),%d0
    fd4e:	2601           	movel %d1,%d3
    fd50:	0283 8000 0000 	andil #-2147483648,%d3
    fd56:	2401           	movel %d1,%d2
    fd58:	0882 001f      	bclr #31,%d2
    fd5c:	8480           	orl %d0,%d2
    fd5e:	6700 00d8      	beqw fe38 <__truncdfsf2+0xf6>
    fd62:	2801           	movel %d1,%d4
    fd64:	4844           	swap %d4
    fd66:	e844           	asrw #4,%d4
    fd68:	48c4           	extl %d4
    fd6a:	0284 0000 07ff 	andil #2047,%d4
    fd70:	0684 ffff fc80 	addil #-896,%d4
    fd76:	740a           	moveq #10,%d2
    fd78:	e5a9           	lsll %d2,%d1
    fd7a:	0281 3fff fc00 	andil #1073740800,%d1
    fd80:	2400           	movel %d0,%d2
    fd82:	4242           	clrw %d2
    fd84:	4842           	swap %d2
    fd86:	ec4a           	lsrw #6,%d2
    fd88:	8282           	orl %d2,%d1
    fd8a:	0280 003f ffff 	andil #4194303,%d0
    fd90:	7a3f           	moveq #63,%d5
    fd92:	c485           	andl %d5,%d2
    fd94:	8082           	orl %d2,%d0
    fd96:	ec81           	asrl #6,%d1
    fd98:	2401           	movel %d1,%d2
    fd9a:	08c2 0018      	bset #24,%d2
    fd9e:	4a84           	tstl %d4
    fda0:	6f44           	bles fde6 <__truncdfsf2+0xa4>
    fda2:	0801 0000      	btst #0,%d1
    fda6:	6770           	beqs fe18 <__truncdfsf2+0xd6>
    fda8:	7a02           	moveq #2,%d5
    fdaa:	c285           	andl %d5,%d1
    fdac:	8280           	orl %d0,%d1
    fdae:	6768           	beqs fe18 <__truncdfsf2+0xd6>
    fdb0:	4205           	clrb %d5
    fdb2:	7202           	moveq #2,%d1
    fdb4:	5282           	addql #1,%d2
    fdb6:	203c 0200 0000 	movel #33554432,%d0
    fdbc:	4a05           	tstb %d5
    fdbe:	6706           	beqs fdc6 <__truncdfsf2+0x84>
    fdc0:	203c 0100 0000 	movel #16777216,%d0
    fdc6:	b480           	cmpl %d0,%d2
    fdc8:	6d4e           	blts fe18 <__truncdfsf2+0xd6>
    fdca:	2002           	movel %d2,%d0
    fdcc:	e2a0           	asrl %d1,%d0
    fdce:	0880 0017      	bclr #23,%d0
    fdd2:	5284           	addql #1,%d4
    fdd4:	2204           	movel %d4,%d1
    fdd6:	ef49           	lslw #7,%d1
    fdd8:	4841           	swap %d1
    fdda:	4241           	clrw %d1
    fddc:	8081           	orl %d1,%d0
    fdde:	8083           	orl %d3,%d0
    fde0:	4cdf 007c      	moveml %sp@+,%d2-%d6
    fde4:	4e75           	rts
    fde6:	72e8           	moveq #-24,%d1
    fde8:	b284           	cmpl %d4,%d1
    fdea:	6e42           	bgts fe2e <__truncdfsf2+0xec>
    fdec:	7c01           	moveq #1,%d6
    fdee:	9c84           	subl %d4,%d6
    fdf0:	2a02           	movel %d2,%d5
    fdf2:	eca5           	asrl %d6,%d5
    fdf4:	7201           	moveq #1,%d1
    fdf6:	c285           	andl %d5,%d1
    fdf8:	0805 0000      	btst #0,%d5
    fdfc:	6742           	beqs fe40 <__truncdfsf2+0xfe>
    fdfe:	7801           	moveq #1,%d4
    fe00:	edac           	lsll %d6,%d4
    fe02:	5384           	subql #1,%d4
    fe04:	c484           	andl %d4,%d2
    fe06:	8082           	orl %d2,%d0
    fe08:	7402           	moveq #2,%d2
    fe0a:	c485           	andl %d5,%d2
    fe0c:	8082           	orl %d2,%d0
    fe0e:	673a           	beqs fe4a <__truncdfsf2+0x108>
    fe10:	2405           	movel %d5,%d2
    fe12:	7a01           	moveq #1,%d5
    fe14:	7800           	moveq #0,%d4
    fe16:	609c           	bras fdb4 <__truncdfsf2+0x72>
    fe18:	2002           	movel %d2,%d0
    fe1a:	e280           	asrl #1,%d0
    fe1c:	0880 0017      	bclr #23,%d0
    fe20:	2204           	movel %d4,%d1
    fe22:	ef49           	lslw #7,%d1
    fe24:	4841           	swap %d1
    fe26:	4241           	clrw %d1
    fe28:	8081           	orl %d1,%d0
    fe2a:	8083           	orl %d3,%d0
    fe2c:	60b2           	bras fde0 <__truncdfsf2+0x9e>
    fe2e:	7200           	moveq #0,%d1
    fe30:	7000           	moveq #0,%d0
    fe32:	8081           	orl %d1,%d0
    fe34:	8083           	orl %d3,%d0
    fe36:	60a8           	bras fde0 <__truncdfsf2+0x9e>
    fe38:	2003           	movel %d3,%d0
    fe3a:	4cdf 007c      	moveml %sp@+,%d2-%d6
    fe3e:	4e75           	rts
    fe40:	2005           	movel %d5,%d0
    fe42:	e280           	asrl #1,%d0
    fe44:	8081           	orl %d1,%d0
    fe46:	8083           	orl %d3,%d0
    fe48:	6096           	bras fde0 <__truncdfsf2+0x9e>
    fe4a:	2005           	movel %d5,%d0
    fe4c:	e280           	asrl #1,%d0
    fe4e:	7200           	moveq #0,%d1
    fe50:	8081           	orl %d1,%d0
    fe52:	8083           	orl %d3,%d0
    fe54:	608a           	bras fde0 <__truncdfsf2+0x9e>

0000fe56 <__fixdfsi>:
    fe56:	48e7 3800      	moveml %d2-%d4,%sp@-
    fe5a:	222f 0010      	movel %sp@(16),%d1
    fe5e:	262f 0014      	movel %sp@(20),%d3
    fe62:	2001           	movel %d1,%d0
    fe64:	6724           	beqs fe8a <__fixdfsi+0x34>
    fe66:	2401           	movel %d1,%d2
    fe68:	4842           	swap %d2
    fe6a:	e842           	asrw #4,%d2
    fe6c:	48c2           	extl %d2
    fe6e:	0282 0000 07ff 	andil #2047,%d2
    fe74:	2042           	moveal %d2,%a0
    fe76:	41e8 fbe3      	lea %a0@(-1053),%a0
    fe7a:	b0fc 0000      	cmpaw #0,%a0
    fe7e:	6f10           	bles fe90 <__fixdfsi+0x3a>
    fe80:	4a81           	tstl %d1
    fe82:	6d4e           	blts fed2 <__fixdfsi+0x7c>
    fe84:	203c 7fff ffff 	movel #2147483647,%d0
    fe8a:	4cdf 001c      	moveml %sp@+,%d2-%d4
    fe8e:	4e75           	rts
    fe90:	78e1           	moveq #-31,%d4
    fe92:	b888           	cmpl %a0,%d4
    fe94:	6e48           	bgts fede <__fixdfsi+0x88>
    fe96:	780a           	moveq #10,%d4
    fe98:	e9a9           	lsll %d4,%d1
    fe9a:	0281 3fff fc00 	andil #1073740800,%d1
    fea0:	4243           	clrw %d3
    fea2:	4843           	swap %d3
    fea4:	ec4b           	lsrw #6,%d3
    fea6:	8283           	orl %d3,%d1
    fea8:	08c1 001e      	bset #30,%d1
    feac:	b0fc 0000      	cmpaw #0,%a0
    feb0:	670a           	beqs febc <__fixdfsi+0x66>
    feb2:	263c 0000 041d 	movel #1053,%d3
    feb8:	9682           	subl %d2,%d3
    feba:	e6a1           	asrl %d3,%d1
    febc:	4a80           	tstl %d0
    febe:	6d08           	blts fec8 <__fixdfsi+0x72>
    fec0:	2001           	movel %d1,%d0
    fec2:	4cdf 001c      	moveml %sp@+,%d2-%d4
    fec6:	4e75           	rts
    fec8:	2001           	movel %d1,%d0
    feca:	4480           	negl %d0
    fecc:	4cdf 001c      	moveml %sp@+,%d2-%d4
    fed0:	4e75           	rts
    fed2:	203c 8000 0000 	movel #-2147483648,%d0
    fed8:	4cdf 001c      	moveml %sp@+,%d2-%d4
    fedc:	4e75           	rts
    fede:	7000           	moveq #0,%d0
    fee0:	4cdf 001c      	moveml %sp@+,%d2-%d4
    fee4:	4e75           	rts

0000fee6 <__fixsfsi>:
    fee6:	48e7 3800      	moveml %d2-%d4,%sp@-
    feea:	2f2f 0010      	movel %sp@(16),%sp@-
    feee:	4eb9 0000 fcce 	jsr fcce <__extendsfdf2>
    fef4:	588f           	addql #4,%sp
    fef6:	2400           	movel %d0,%d2
    fef8:	2002           	movel %d2,%d0
    fefa:	6724           	beqs ff20 <__fixsfsi+0x3a>
    fefc:	2602           	movel %d2,%d3
    fefe:	4843           	swap %d3
    ff00:	e843           	asrw #4,%d3
    ff02:	48c3           	extl %d3
    ff04:	0283 0000 07ff 	andil #2047,%d3
    ff0a:	2043           	moveal %d3,%a0
    ff0c:	41e8 fbe3      	lea %a0@(-1053),%a0
    ff10:	b0fc 0000      	cmpaw #0,%a0
    ff14:	6f10           	bles ff26 <__fixsfsi+0x40>
    ff16:	4a82           	tstl %d2
    ff18:	6d4e           	blts ff68 <__fixsfsi+0x82>
    ff1a:	203c 7fff ffff 	movel #2147483647,%d0
    ff20:	4cdf 001c      	moveml %sp@+,%d2-%d4
    ff24:	4e75           	rts
    ff26:	78e1           	moveq #-31,%d4
    ff28:	b888           	cmpl %a0,%d4
    ff2a:	6e48           	bgts ff74 <__fixsfsi+0x8e>
    ff2c:	780a           	moveq #10,%d4
    ff2e:	e9aa           	lsll %d4,%d2
    ff30:	0282 3fff fc00 	andil #1073740800,%d2
    ff36:	4241           	clrw %d1
    ff38:	4841           	swap %d1
    ff3a:	ec49           	lsrw #6,%d1
    ff3c:	8481           	orl %d1,%d2
    ff3e:	08c2 001e      	bset #30,%d2
    ff42:	b0fc 0000      	cmpaw #0,%a0
    ff46:	670a           	beqs ff52 <__fixsfsi+0x6c>
    ff48:	223c 0000 041d 	movel #1053,%d1
    ff4e:	9283           	subl %d3,%d1
    ff50:	e2a2           	asrl %d1,%d2
    ff52:	4a80           	tstl %d0
    ff54:	6d08           	blts ff5e <__fixsfsi+0x78>
    ff56:	2002           	movel %d2,%d0
    ff58:	4cdf 001c      	moveml %sp@+,%d2-%d4
    ff5c:	4e75           	rts
    ff5e:	2002           	movel %d2,%d0
    ff60:	4480           	negl %d0
    ff62:	4cdf 001c      	moveml %sp@+,%d2-%d4
    ff66:	4e75           	rts
    ff68:	203c 8000 0000 	movel #-2147483648,%d0
    ff6e:	4cdf 001c      	moveml %sp@+,%d2-%d4
    ff72:	4e75           	rts
    ff74:	7000           	moveq #0,%d0
    ff76:	4cdf 001c      	moveml %sp@+,%d2-%d4
    ff7a:	4e75           	rts

0000ff7c <__unordxf2>:
    ff7c:	4fef ffb8      	lea %sp@(-72),%sp
    ff80:	202f 004c      	movel %sp@(76),%d0
    ff84:	0280 7fff 0000 	andil #2147418112,%d0
    ff8a:	0c80 7fff 0000 	cmpil #2147418112,%d0
    ff90:	671a           	beqs ffac <__unordxf2+0x30>
    ff92:	202f 0058      	movel %sp@(88),%d0
    ff96:	0280 7fff 0000 	andil #2147418112,%d0
    ff9c:	0c80 7fff 0000 	cmpil #2147418112,%d0
    ffa2:	6730           	beqs ffd4 <__unordxf2+0x58>
    ffa4:	7000           	moveq #0,%d0
    ffa6:	4fef 0048      	lea %sp@(72),%sp
    ffaa:	4e75           	rts
    ffac:	202f 0050      	movel %sp@(80),%d0
    ffb0:	0880 001f      	bclr #31,%d0
    ffb4:	2f6f 004c 0024 	movel %sp@(76),%sp@(36)
    ffba:	2f6f 0050 0028 	movel %sp@(80),%sp@(40)
    ffc0:	2f6f 0054 002c 	movel %sp@(84),%sp@(44)
    ffc6:	80af 002c      	orl %sp@(44),%d0
    ffca:	67c6           	beqs ff92 <__unordxf2+0x16>
    ffcc:	7001           	moveq #1,%d0
    ffce:	4fef 0048      	lea %sp@(72),%sp
    ffd2:	4e75           	rts
    ffd4:	202f 005c      	movel %sp@(92),%d0
    ffd8:	0880 001f      	bclr #31,%d0
    ffdc:	2eaf 0058      	movel %sp@(88),%sp@
    ffe0:	2f6f 005c 0004 	movel %sp@(92),%sp@(4)
    ffe6:	2f6f 0060 0008 	movel %sp@(96),%sp@(8)
    ffec:	80af 0008      	orl %sp@(8),%d0
    fff0:	56c0           	sne %d0
    fff2:	4880           	extw %d0
    fff4:	48c0           	extl %d0
    fff6:	4480           	negl %d0
    fff8:	4fef 0048      	lea %sp@(72),%sp
    fffc:	4e75           	rts

0000fffe <__extenddfxf2>:
    fffe:	4fef fff4      	lea %sp@(-12),%sp
   10002:	48e7 3c00      	moveml %d2-%d5,%sp@-
   10006:	2008           	movel %a0,%d0
   10008:	222f 0020      	movel %sp@(32),%d1
   1000c:	262f 0024      	movel %sp@(36),%d3
   10010:	2801           	movel %d1,%d4
   10012:	0284 8000 0000 	andil #-2147483648,%d4
   10018:	2f44 0010      	movel %d4,%sp@(16)
   1001c:	2401           	movel %d1,%d2
   1001e:	0882 001f      	bclr #31,%d2
   10022:	8483           	orl %d3,%d2
   10024:	6764           	beqs 1008a <__extenddfxf2+0x8c>
   10026:	2401           	movel %d1,%d2
   10028:	4842           	swap %d2
   1002a:	e842           	asrw #4,%d2
   1002c:	48c2           	extl %d2
   1002e:	0282 0000 07ff 	andil #2047,%d2
   10034:	0682 0000 3c00 	addil #15360,%d2
   1003a:	4842           	swap %d2
   1003c:	4242           	clrw %d2
   1003e:	8484           	orl %d4,%d2
   10040:	2f42 0010      	movel %d2,%sp@(16)
   10044:	740b           	moveq #11,%d2
   10046:	e5a9           	lsll %d2,%d1
   10048:	0281 7fff f800 	andil #2147481600,%d1
   1004e:	2403           	movel %d3,%d2
   10050:	4242           	clrw %d2
   10052:	4842           	swap %d2
   10054:	ea4a           	lsrw #5,%d2
   10056:	8282           	orl %d2,%d1
   10058:	08c1 001f      	bset #31,%d1
   1005c:	2f41 0014      	movel %d1,%sp@(20)
   10060:	720b           	moveq #11,%d1
   10062:	e3ab           	lsll %d1,%d3
   10064:	2f43 0018      	movel %d3,%sp@(24)
   10068:	262f 0010      	movel %sp@(16),%d3
   1006c:	282f 0014      	movel %sp@(20),%d4
   10070:	2a2f 0018      	movel %sp@(24),%d5
   10074:	2040           	moveal %d0,%a0
   10076:	2083           	movel %d3,%a0@
   10078:	2144 0004      	movel %d4,%a0@(4)
   1007c:	2145 0008      	movel %d5,%a0@(8)
   10080:	4cdf 003c      	moveml %sp@+,%d2-%d5
   10084:	4fef 000c      	lea %sp@(12),%sp
   10088:	4e75           	rts
   1008a:	42af 0014      	clrl %sp@(20)
   1008e:	42af 0018      	clrl %sp@(24)
   10092:	262f 0010      	movel %sp@(16),%d3
   10096:	282f 0014      	movel %sp@(20),%d4
   1009a:	2a2f 0018      	movel %sp@(24),%d5
   1009e:	2040           	moveal %d0,%a0
   100a0:	2083           	movel %d3,%a0@
   100a2:	2144 0004      	movel %d4,%a0@(4)
   100a6:	2145 0008      	movel %d5,%a0@(8)
   100aa:	4cdf 003c      	moveml %sp@+,%d2-%d5
   100ae:	4fef 000c      	lea %sp@(12),%sp
   100b2:	4e75           	rts

000100b4 <__truncxfdf2>:
   100b4:	4fef ffdc      	lea %sp@(-36),%sp
   100b8:	48e7 3c30      	moveml %d2-%d5/%a2-%a3,%sp@-
   100bc:	226f 0040      	moveal %sp@(64),%a1
   100c0:	246f 0044      	moveal %sp@(68),%a2
   100c4:	266f 0048      	moveal %sp@(72),%a3
   100c8:	2009           	movel %a1,%d0
   100ca:	2800           	movel %d0,%d4
   100cc:	0284 8000 0000 	andil #-2147483648,%d4
   100d2:	220a           	movel %a2,%d1
   100d4:	2f49 0018      	movel %a1,%sp@(24)
   100d8:	2f4a 001c      	movel %a2,%sp@(28)
   100dc:	2f4b 0020      	movel %a3,%sp@(32)
   100e0:	262f 0020      	movel %sp@(32),%d3
   100e4:	2400           	movel %d0,%d2
   100e6:	0882 001f      	bclr #31,%d2
   100ea:	2a0a           	movel %a2,%d5
   100ec:	8a83           	orl %d3,%d5
   100ee:	8485           	orl %d5,%d2
   100f0:	677a           	beqs 1016c <__truncxfdf2+0xb8>
   100f2:	4840           	swap %d0
   100f4:	48c0           	extl %d0
   100f6:	0280 0000 7fff 	andil #32767,%d0
   100fc:	0680 ffff c400 	addil #-15360,%d0
   10102:	0c80 0000 07fe 	cmpil #2046,%d0
   10108:	6e32           	bgts 1013c <__truncxfdf2+0x88>
   1010a:	e948           	lslw #4,%d0
   1010c:	4840           	swap %d0
   1010e:	4240           	clrw %d0
   10110:	2401           	movel %d1,%d2
   10112:	7a0b           	moveq #11,%d5
   10114:	eaaa           	lsrl %d5,%d2
   10116:	0282 000f ffff 	andil #1048575,%d2
   1011c:	8484           	orl %d4,%d2
   1011e:	eb49           	lslw #5,%d1
   10120:	4841           	swap %d1
   10122:	4241           	clrw %d1
   10124:	eaab           	lsrl %d5,%d3
   10126:	2a00           	movel %d0,%d5
   10128:	8a82           	orl %d2,%d5
   1012a:	2801           	movel %d1,%d4
   1012c:	8883           	orl %d3,%d4
   1012e:	2005           	movel %d5,%d0
   10130:	2204           	movel %d4,%d1
   10132:	4cdf 0c3c      	moveml %sp@+,%d2-%d5/%a2-%a3
   10136:	4fef 0024      	lea %sp@(36),%sp
   1013a:	4e75           	rts
   1013c:	203c 0000 07fe 	movel #2046,%d0
   10142:	e948           	lslw #4,%d0
   10144:	4840           	swap %d0
   10146:	4240           	clrw %d0
   10148:	2401           	movel %d1,%d2
   1014a:	7a0b           	moveq #11,%d5
   1014c:	eaaa           	lsrl %d5,%d2
   1014e:	0282 000f ffff 	andil #1048575,%d2
   10154:	8484           	orl %d4,%d2
   10156:	eb49           	lslw #5,%d1
   10158:	4841           	swap %d1
   1015a:	4241           	clrw %d1
   1015c:	eaab           	lsrl %d5,%d3
   1015e:	2a00           	movel %d0,%d5
   10160:	8a82           	orl %d2,%d5
   10162:	2801           	movel %d1,%d4
   10164:	8883           	orl %d3,%d4
   10166:	2005           	movel %d5,%d0
   10168:	2204           	movel %d4,%d1
   1016a:	60c6           	bras 10132 <__truncxfdf2+0x7e>
   1016c:	91c8           	subal %a0,%a0
   1016e:	2004           	movel %d4,%d0
   10170:	2208           	movel %a0,%d1
   10172:	4cdf 0c3c      	moveml %sp@+,%d2-%d5/%a2-%a3
   10176:	4fef 0024      	lea %sp@(36),%sp
   1017a:	4e75           	rts

0001017c <__extendsfxf2>:
   1017c:	4fef fff4      	lea %sp@(-12),%sp
   10180:	48e7 3020      	moveml %d2-%d3/%a2,%sp@-
   10184:	2448           	moveal %a0,%a2
   10186:	2f2f 001c      	movel %sp@(28),%sp@-
   1018a:	4eb9 0000 fcce 	jsr fcce <__extendsfdf2>
   10190:	2600           	movel %d0,%d3
   10192:	0283 8000 0000 	andil #-2147483648,%d3
   10198:	2f43 0010      	movel %d3,%sp@(16)
   1019c:	2400           	movel %d0,%d2
   1019e:	0882 001f      	bclr #31,%d2
   101a2:	8481           	orl %d1,%d2
   101a4:	588f           	addql #4,%sp
   101a6:	6764           	beqs 1020c <__extendsfxf2+0x90>
   101a8:	2400           	movel %d0,%d2
   101aa:	4842           	swap %d2
   101ac:	e842           	asrw #4,%d2
   101ae:	48c2           	extl %d2
   101b0:	0282 0000 07ff 	andil #2047,%d2
   101b6:	0682 0000 3c00 	addil #15360,%d2
   101bc:	4842           	swap %d2
   101be:	4242           	clrw %d2
   101c0:	8483           	orl %d3,%d2
   101c2:	2f42 000c      	movel %d2,%sp@(12)
   101c6:	740b           	moveq #11,%d2
   101c8:	e5a8           	lsll %d2,%d0
   101ca:	0280 7fff f800 	andil #2147481600,%d0
   101d0:	2401           	movel %d1,%d2
   101d2:	4242           	clrw %d2
   101d4:	4842           	swap %d2
   101d6:	ea4a           	lsrw #5,%d2
   101d8:	8082           	orl %d2,%d0
   101da:	08c0 001f      	bset #31,%d0
   101de:	2f40 0010      	movel %d0,%sp@(16)
   101e2:	700b           	moveq #11,%d0
   101e4:	e1a9           	lsll %d0,%d1
   101e6:	2f41 0014      	movel %d1,%sp@(20)
   101ea:	202f 000c      	movel %sp@(12),%d0
   101ee:	222f 0010      	movel %sp@(16),%d1
   101f2:	242f 0014      	movel %sp@(20),%d2
   101f6:	2480           	movel %d0,%a2@
   101f8:	2541 0004      	movel %d1,%a2@(4)
   101fc:	2542 0008      	movel %d2,%a2@(8)
   10200:	200a           	movel %a2,%d0
   10202:	4cdf 040c      	moveml %sp@+,%d2-%d3/%a2
   10206:	4fef 000c      	lea %sp@(12),%sp
   1020a:	4e75           	rts
   1020c:	42af 0010      	clrl %sp@(16)
   10210:	42af 0014      	clrl %sp@(20)
   10214:	202f 000c      	movel %sp@(12),%d0
   10218:	222f 0010      	movel %sp@(16),%d1
   1021c:	242f 0014      	movel %sp@(20),%d2
   10220:	2480           	movel %d0,%a2@
   10222:	2541 0004      	movel %d1,%a2@(4)
   10226:	2542 0008      	movel %d2,%a2@(8)
   1022a:	200a           	movel %a2,%d0
   1022c:	4cdf 040c      	moveml %sp@+,%d2-%d3/%a2
   10230:	4fef 000c      	lea %sp@(12),%sp
   10234:	4e75           	rts

00010236 <__truncxfsf2>:
   10236:	4fef ffdc      	lea %sp@(-36),%sp
   1023a:	48e7 3c30      	moveml %d2-%d5/%a2-%a3,%sp@-
   1023e:	226f 0040      	moveal %sp@(64),%a1
   10242:	246f 0044      	moveal %sp@(68),%a2
   10246:	266f 0048      	moveal %sp@(72),%a3
   1024a:	2009           	movel %a1,%d0
   1024c:	2f49 0030      	movel %a1,%sp@(48)
   10250:	2f4a 0034      	movel %a2,%sp@(52)
   10254:	2f4b 0038      	movel %a3,%sp@(56)
   10258:	2800           	movel %d0,%d4
   1025a:	0284 8000 0000 	andil #-2147483648,%d4
   10260:	220a           	movel %a2,%d1
   10262:	2f49 0024      	movel %a1,%sp@(36)
   10266:	2f4a 0028      	movel %a2,%sp@(40)
   1026a:	2f4b 002c      	movel %a3,%sp@(44)
   1026e:	2f49 0018      	movel %a1,%sp@(24)
   10272:	2f4a 001c      	movel %a2,%sp@(28)
   10276:	2f4b 0020      	movel %a3,%sp@(32)
   1027a:	262f 0020      	movel %sp@(32),%d3
   1027e:	2400           	movel %d0,%d2
   10280:	0882 001f      	bclr #31,%d2
   10284:	2a0a           	movel %a2,%d5
   10286:	8a83           	orl %d3,%d5
   10288:	8485           	orl %d5,%d2
   1028a:	6700 0088      	beqw 10314 <__truncxfsf2+0xde>
   1028e:	4840           	swap %d0
   10290:	48c0           	extl %d0
   10292:	0280 0000 7fff 	andil #32767,%d0
   10298:	0680 ffff c400 	addil #-15360,%d0
   1029e:	0c80 0000 07fe 	cmpil #2046,%d0
   102a4:	6e3e           	bgts 102e4 <__truncxfsf2+0xae>
   102a6:	e948           	lslw #4,%d0
   102a8:	4840           	swap %d0
   102aa:	4240           	clrw %d0
   102ac:	2401           	movel %d1,%d2
   102ae:	7a0b           	moveq #11,%d5
   102b0:	eaaa           	lsrl %d5,%d2
   102b2:	0282 000f ffff 	andil #1048575,%d2
   102b8:	8484           	orl %d4,%d2
   102ba:	eb49           	lslw #5,%d1
   102bc:	4841           	swap %d1
   102be:	4241           	clrw %d1
   102c0:	eaab           	lsrl %d5,%d3
   102c2:	2a00           	movel %d0,%d5
   102c4:	8a82           	orl %d2,%d5
   102c6:	2801           	movel %d1,%d4
   102c8:	8883           	orl %d3,%d4
   102ca:	2005           	movel %d5,%d0
   102cc:	2204           	movel %d4,%d1
   102ce:	2f40 0040      	movel %d0,%sp@(64)
   102d2:	2f41 0044      	movel %d1,%sp@(68)
   102d6:	4cdf 0c3c      	moveml %sp@+,%d2-%d5/%a2-%a3
   102da:	4fef 0024      	lea %sp@(36),%sp
   102de:	4ef9 0000 fd42 	jmp fd42 <__truncdfsf2>
   102e4:	203c 0000 07fe 	movel #2046,%d0
   102ea:	e948           	lslw #4,%d0
   102ec:	4840           	swap %d0
   102ee:	4240           	clrw %d0
   102f0:	2401           	movel %d1,%d2
   102f2:	7a0b           	moveq #11,%d5
   102f4:	eaaa           	lsrl %d5,%d2
   102f6:	0282 000f ffff 	andil #1048575,%d2
   102fc:	8484           	orl %d4,%d2
   102fe:	eb49           	lslw #5,%d1
   10300:	4841           	swap %d1
   10302:	4241           	clrw %d1
   10304:	eaab           	lsrl %d5,%d3
   10306:	2a00           	movel %d0,%d5
   10308:	8a82           	orl %d2,%d5
   1030a:	2801           	movel %d1,%d4
   1030c:	8883           	orl %d3,%d4
   1030e:	2005           	movel %d5,%d0
   10310:	2204           	movel %d4,%d1
   10312:	60ba           	bras 102ce <__truncxfsf2+0x98>
   10314:	91c8           	subal %a0,%a0
   10316:	2004           	movel %d4,%d0
   10318:	2208           	movel %a0,%d1
   1031a:	2f40 0040      	movel %d0,%sp@(64)
   1031e:	2f41 0044      	movel %d1,%sp@(68)
   10322:	4cdf 0c3c      	moveml %sp@+,%d2-%d5/%a2-%a3
   10326:	4fef 0024      	lea %sp@(36),%sp
   1032a:	4ef9 0000 fd42 	jmp fd42 <__truncdfsf2>

00010330 <__floatsixf>:
   10330:	4fef fff4      	lea %sp@(-12),%sp
   10334:	2f0a           	movel %a2,%sp@-
   10336:	2f02           	movel %d2,%sp@-
   10338:	2448           	moveal %a0,%a2
   1033a:	2f2f 0018      	movel %sp@(24),%sp@-
   1033e:	4eb9 0000 fc0c 	jsr fc0c <__floatsidf>
   10344:	2f01           	movel %d1,%sp@-
   10346:	2f00           	movel %d0,%sp@-
   10348:	41ef 0014      	lea %sp@(20),%a0
   1034c:	4eb9 0000 fffe 	jsr fffe <__extenddfxf2>
   10352:	202f 0014      	movel %sp@(20),%d0
   10356:	222f 0018      	movel %sp@(24),%d1
   1035a:	242f 001c      	movel %sp@(28),%d2
   1035e:	2480           	movel %d0,%a2@
   10360:	2541 0004      	movel %d1,%a2@(4)
   10364:	2542 0008      	movel %d2,%a2@(8)
   10368:	4fef 000c      	lea %sp@(12),%sp
   1036c:	200a           	movel %a2,%d0
   1036e:	241f           	movel %sp@+,%d2
   10370:	245f           	moveal %sp@+,%a2
   10372:	4fef 000c      	lea %sp@(12),%sp
   10376:	4e75           	rts

00010378 <__floatunsixf>:
   10378:	4fef fff4      	lea %sp@(-12),%sp
   1037c:	2f0a           	movel %a2,%sp@-
   1037e:	2f02           	movel %d2,%sp@-
   10380:	2448           	moveal %a0,%a2
   10382:	2f2f 0018      	movel %sp@(24),%sp@-
   10386:	4eb9 0000 fb8a 	jsr fb8a <__floatunsidf>
   1038c:	2f01           	movel %d1,%sp@-
   1038e:	2f00           	movel %d0,%sp@-
   10390:	41ef 0014      	lea %sp@(20),%a0
   10394:	4eb9 0000 fffe 	jsr fffe <__extenddfxf2>
   1039a:	202f 0014      	movel %sp@(20),%d0
   1039e:	222f 0018      	movel %sp@(24),%d1
   103a2:	242f 001c      	movel %sp@(28),%d2
   103a6:	2480           	movel %d0,%a2@
   103a8:	2541 0004      	movel %d1,%a2@(4)
   103ac:	2542 0008      	movel %d2,%a2@(8)
   103b0:	4fef 000c      	lea %sp@(12),%sp
   103b4:	200a           	movel %a2,%d0
   103b6:	241f           	movel %sp@+,%d2
   103b8:	245f           	moveal %sp@+,%a2
   103ba:	4fef 000c      	lea %sp@(12),%sp
   103be:	4e75           	rts

000103c0 <__fixxfsi>:
   103c0:	2f2f 000c      	movel %sp@(12),%sp@-
   103c4:	2f2f 000c      	movel %sp@(12),%sp@-
   103c8:	2f2f 000c      	movel %sp@(12),%sp@-
   103cc:	4eb9 0001 00b4 	jsr 100b4 <__truncxfdf2>
   103d2:	4fef 000c      	lea %sp@(12),%sp
   103d6:	2f40 0004      	movel %d0,%sp@(4)
   103da:	2f41 0008      	movel %d1,%sp@(8)
   103de:	4ef9 0000 fe56 	jmp fe56 <__fixdfsi>

000103e4 <__addxf3>:
   103e4:	4fef fff4      	lea %sp@(-12),%sp
   103e8:	48e7 3030      	moveml %d2-%d3/%a2-%a3,%sp@-
   103ec:	2448           	moveal %a0,%a2
   103ee:	47f9 0001 00b4 	lea 100b4 <__truncxfdf2>,%a3
   103f4:	2f2f 0028      	movel %sp@(40),%sp@-
   103f8:	2f2f 0028      	movel %sp@(40),%sp@-
   103fc:	2f2f 0028      	movel %sp@(40),%sp@-
   10400:	4e93           	jsr %a3@
   10402:	4fef 000c      	lea %sp@(12),%sp
   10406:	2400           	movel %d0,%d2
   10408:	2601           	movel %d1,%d3
   1040a:	2f2f 0034      	movel %sp@(52),%sp@-
   1040e:	2f2f 0034      	movel %sp@(52),%sp@-
   10412:	2f2f 0034      	movel %sp@(52),%sp@-
   10416:	4e93           	jsr %a3@
   10418:	508f           	addql #8,%sp
   1041a:	2e81           	movel %d1,%sp@
   1041c:	2f00           	movel %d0,%sp@-
   1041e:	2f03           	movel %d3,%sp@-
   10420:	2f02           	movel %d2,%sp@-
   10422:	4eb9 0000 efc0 	jsr efc0 <__adddf3>
   10428:	4fef 000c      	lea %sp@(12),%sp
   1042c:	2e81           	movel %d1,%sp@
   1042e:	2f00           	movel %d0,%sp@-
   10430:	41ef 0018      	lea %sp@(24),%a0
   10434:	4eb9 0000 fffe 	jsr fffe <__extenddfxf2>
   1043a:	508f           	addql #8,%sp
   1043c:	202f 0010      	movel %sp@(16),%d0
   10440:	222f 0014      	movel %sp@(20),%d1
   10444:	242f 0018      	movel %sp@(24),%d2
   10448:	2480           	movel %d0,%a2@
   1044a:	2541 0004      	movel %d1,%a2@(4)
   1044e:	2542 0008      	movel %d2,%a2@(8)
   10452:	200a           	movel %a2,%d0
   10454:	4cdf 0c0c      	moveml %sp@+,%d2-%d3/%a2-%a3
   10458:	4fef 000c      	lea %sp@(12),%sp
   1045c:	4e75           	rts

0001045e <__subxf3>:
   1045e:	4fef fff4      	lea %sp@(-12),%sp
   10462:	48e7 3030      	moveml %d2-%d3/%a2-%a3,%sp@-
   10466:	2448           	moveal %a0,%a2
   10468:	47f9 0001 00b4 	lea 100b4 <__truncxfdf2>,%a3
   1046e:	2f2f 0028      	movel %sp@(40),%sp@-
   10472:	2f2f 0028      	movel %sp@(40),%sp@-
   10476:	2f2f 0028      	movel %sp@(40),%sp@-
   1047a:	4e93           	jsr %a3@
   1047c:	4fef 000c      	lea %sp@(12),%sp
   10480:	2400           	movel %d0,%d2
   10482:	2601           	movel %d1,%d3
   10484:	2f2f 0034      	movel %sp@(52),%sp@-
   10488:	2f2f 0034      	movel %sp@(52),%sp@-
   1048c:	2f2f 0034      	movel %sp@(52),%sp@-
   10490:	4e93           	jsr %a3@
   10492:	508f           	addql #8,%sp
   10494:	2e81           	movel %d1,%sp@
   10496:	2f00           	movel %d0,%sp@-
   10498:	2f03           	movel %d3,%sp@-
   1049a:	2f02           	movel %d2,%sp@-
   1049c:	4eb9 0000 efba 	jsr efba <__subdf3>
   104a2:	4fef 000c      	lea %sp@(12),%sp
   104a6:	2e81           	movel %d1,%sp@
   104a8:	2f00           	movel %d0,%sp@-
   104aa:	41ef 0018      	lea %sp@(24),%a0
   104ae:	4eb9 0000 fffe 	jsr fffe <__extenddfxf2>
   104b4:	508f           	addql #8,%sp
   104b6:	202f 0010      	movel %sp@(16),%d0
   104ba:	222f 0014      	movel %sp@(20),%d1
   104be:	242f 0018      	movel %sp@(24),%d2
   104c2:	2480           	movel %d0,%a2@
   104c4:	2541 0004      	movel %d1,%a2@(4)
   104c8:	2542 0008      	movel %d2,%a2@(8)
   104cc:	200a           	movel %a2,%d0
   104ce:	4cdf 0c0c      	moveml %sp@+,%d2-%d3/%a2-%a3
   104d2:	4fef 000c      	lea %sp@(12),%sp
   104d6:	4e75           	rts

000104d8 <__mulxf3>:
   104d8:	4fef fff4      	lea %sp@(-12),%sp
   104dc:	48e7 3030      	moveml %d2-%d3/%a2-%a3,%sp@-
   104e0:	2448           	moveal %a0,%a2
   104e2:	47f9 0001 00b4 	lea 100b4 <__truncxfdf2>,%a3
   104e8:	2f2f 0028      	movel %sp@(40),%sp@-
   104ec:	2f2f 0028      	movel %sp@(40),%sp@-
   104f0:	2f2f 0028      	movel %sp@(40),%sp@-
   104f4:	4e93           	jsr %a3@
   104f6:	4fef 000c      	lea %sp@(12),%sp
   104fa:	2400           	movel %d0,%d2
   104fc:	2601           	movel %d1,%d3
   104fe:	2f2f 0034      	movel %sp@(52),%sp@-
   10502:	2f2f 0034      	movel %sp@(52),%sp@-
   10506:	2f2f 0034      	movel %sp@(52),%sp@-
   1050a:	4e93           	jsr %a3@
   1050c:	508f           	addql #8,%sp
   1050e:	2e81           	movel %d1,%sp@
   10510:	2f00           	movel %d0,%sp@-
   10512:	2f03           	movel %d3,%sp@-
   10514:	2f02           	movel %d2,%sp@-
   10516:	4eb9 0000 f356 	jsr f356 <__muldf3>
   1051c:	4fef 000c      	lea %sp@(12),%sp
   10520:	2e81           	movel %d1,%sp@
   10522:	2f00           	movel %d0,%sp@-
   10524:	41ef 0018      	lea %sp@(24),%a0
   10528:	4eb9 0000 fffe 	jsr fffe <__extenddfxf2>
   1052e:	508f           	addql #8,%sp
   10530:	202f 0010      	movel %sp@(16),%d0
   10534:	222f 0014      	movel %sp@(20),%d1
   10538:	242f 0018      	movel %sp@(24),%d2
   1053c:	2480           	movel %d0,%a2@
   1053e:	2541 0004      	movel %d1,%a2@(4)
   10542:	2542 0008      	movel %d2,%a2@(8)
   10546:	200a           	movel %a2,%d0
   10548:	4cdf 0c0c      	moveml %sp@+,%d2-%d3/%a2-%a3
   1054c:	4fef 000c      	lea %sp@(12),%sp
   10550:	4e75           	rts

00010552 <__divxf3>:
   10552:	4fef fff4      	lea %sp@(-12),%sp
   10556:	48e7 3030      	moveml %d2-%d3/%a2-%a3,%sp@-
   1055a:	2448           	moveal %a0,%a2
   1055c:	47f9 0001 00b4 	lea 100b4 <__truncxfdf2>,%a3
   10562:	2f2f 0028      	movel %sp@(40),%sp@-
   10566:	2f2f 0028      	movel %sp@(40),%sp@-
   1056a:	2f2f 0028      	movel %sp@(40),%sp@-
   1056e:	4e93           	jsr %a3@
   10570:	4fef 000c      	lea %sp@(12),%sp
   10574:	2400           	movel %d0,%d2
   10576:	2601           	movel %d1,%d3
   10578:	2f2f 0034      	movel %sp@(52),%sp@-
   1057c:	2f2f 0034      	movel %sp@(52),%sp@-
   10580:	2f2f 0034      	movel %sp@(52),%sp@-
   10584:	4e93           	jsr %a3@
   10586:	508f           	addql #8,%sp
   10588:	2e81           	movel %d1,%sp@
   1058a:	2f00           	movel %d0,%sp@-
   1058c:	2f03           	movel %d3,%sp@-
   1058e:	2f02           	movel %d2,%sp@-
   10590:	4eb9 0000 f504 	jsr f504 <__divdf3>
   10596:	4fef 000c      	lea %sp@(12),%sp
   1059a:	2e81           	movel %d1,%sp@
   1059c:	2f00           	movel %d0,%sp@-
   1059e:	41ef 0018      	lea %sp@(24),%a0
   105a2:	4eb9 0000 fffe 	jsr fffe <__extenddfxf2>
   105a8:	508f           	addql #8,%sp
   105aa:	202f 0010      	movel %sp@(16),%d0
   105ae:	222f 0014      	movel %sp@(20),%d1
   105b2:	242f 0018      	movel %sp@(24),%d2
   105b6:	2480           	movel %d0,%a2@
   105b8:	2541 0004      	movel %d1,%a2@(4)
   105bc:	2542 0008      	movel %d2,%a2@(8)
   105c0:	200a           	movel %a2,%d0
   105c2:	4cdf 0c0c      	moveml %sp@+,%d2-%d3/%a2-%a3
   105c6:	4fef 000c      	lea %sp@(12),%sp
   105ca:	4e75           	rts

000105cc <__negxf2>:
   105cc:	4fef fff4      	lea %sp@(-12),%sp
   105d0:	2f0a           	movel %a2,%sp@-
   105d2:	2f02           	movel %d2,%sp@-
   105d4:	2448           	moveal %a0,%a2
   105d6:	2f2f 0020      	movel %sp@(32),%sp@-
   105da:	2f2f 0020      	movel %sp@(32),%sp@-
   105de:	2f2f 0020      	movel %sp@(32),%sp@-
   105e2:	4eb9 0001 00b4 	jsr 100b4 <__truncxfdf2>
   105e8:	4fef 000c      	lea %sp@(12),%sp
   105ec:	2040           	moveal %d0,%a0
   105ee:	d1fc 8000 0000 	addal #-2147483648,%a0
   105f4:	2f01           	movel %d1,%sp@-
   105f6:	2f08           	movel %a0,%sp@-
   105f8:	41ef 0010      	lea %sp@(16),%a0
   105fc:	4eb9 0000 fffe 	jsr fffe <__extenddfxf2>
   10602:	508f           	addql #8,%sp
   10604:	202f 0008      	movel %sp@(8),%d0
   10608:	222f 000c      	movel %sp@(12),%d1
   1060c:	242f 0010      	movel %sp@(16),%d2
   10610:	2480           	movel %d0,%a2@
   10612:	2541 0004      	movel %d1,%a2@(4)
   10616:	2542 0008      	movel %d2,%a2@(8)
   1061a:	200a           	movel %a2,%d0
   1061c:	241f           	movel %sp@+,%d2
   1061e:	245f           	moveal %sp@+,%a2
   10620:	4fef 000c      	lea %sp@(12),%sp
   10624:	4e75           	rts

00010626 <__cmpxf2>:
   10626:	48e7 1c20      	moveml %d3-%d5/%a2,%sp@-
   1062a:	262f 0014      	movel %sp@(20),%d3
   1062e:	282f 0018      	movel %sp@(24),%d4
   10632:	2a2f 001c      	movel %sp@(28),%d5
   10636:	45f9 0001 00b4 	lea 100b4 <__truncxfdf2>,%a2
   1063c:	2f2f 0028      	movel %sp@(40),%sp@-
   10640:	2f2f 0028      	movel %sp@(40),%sp@-
   10644:	2f2f 0028      	movel %sp@(40),%sp@-
   10648:	4e92           	jsr %a2@
   1064a:	2f40 0028      	movel %d0,%sp@(40)
   1064e:	2f41 002c      	movel %d1,%sp@(44)
   10652:	2e83           	movel %d3,%sp@
   10654:	2f44 0004      	movel %d4,%sp@(4)
   10658:	2f45 0008      	movel %d5,%sp@(8)
   1065c:	4e92           	jsr %a2@
   1065e:	4fef 000c      	lea %sp@(12),%sp
   10662:	2f40 0014      	movel %d0,%sp@(20)
   10666:	2f41 0018      	movel %d1,%sp@(24)
   1066a:	4cdf 0438      	moveml %sp@+,%d3-%d5/%a2
   1066e:	4ef9 0000 f8a6 	jmp f8a6 <__cmpdf2>

00010674 <__eqxf2>:
   10674:	48e7 1c20      	moveml %d3-%d5/%a2,%sp@-
   10678:	262f 0014      	movel %sp@(20),%d3
   1067c:	282f 0018      	movel %sp@(24),%d4
   10680:	2a2f 001c      	movel %sp@(28),%d5
   10684:	45f9 0001 00b4 	lea 100b4 <__truncxfdf2>,%a2
   1068a:	2f2f 0028      	movel %sp@(40),%sp@-
   1068e:	2f2f 0028      	movel %sp@(40),%sp@-
   10692:	2f2f 0028      	movel %sp@(40),%sp@-
   10696:	4e92           	jsr %a2@
   10698:	2f40 0028      	movel %d0,%sp@(40)
   1069c:	2f41 002c      	movel %d1,%sp@(44)
   106a0:	2e83           	movel %d3,%sp@
   106a2:	2f44 0004      	movel %d4,%sp@(4)
   106a6:	2f45 0008      	movel %d5,%sp@(8)
   106aa:	4e92           	jsr %a2@
   106ac:	4fef 000c      	lea %sp@(12),%sp
   106b0:	2f40 0014      	movel %d0,%sp@(20)
   106b4:	2f41 0018      	movel %d1,%sp@(24)
   106b8:	4cdf 0438      	moveml %sp@+,%d3-%d5/%a2
   106bc:	4ef9 0000 f8a6 	jmp f8a6 <__cmpdf2>

000106c2 <__nexf2>:
   106c2:	48e7 1c20      	moveml %d3-%d5/%a2,%sp@-
   106c6:	262f 0014      	movel %sp@(20),%d3
   106ca:	282f 0018      	movel %sp@(24),%d4
   106ce:	2a2f 001c      	movel %sp@(28),%d5
   106d2:	45f9 0001 00b4 	lea 100b4 <__truncxfdf2>,%a2
   106d8:	2f2f 0028      	movel %sp@(40),%sp@-
   106dc:	2f2f 0028      	movel %sp@(40),%sp@-
   106e0:	2f2f 0028      	movel %sp@(40),%sp@-
   106e4:	4e92           	jsr %a2@
   106e6:	2f40 0028      	movel %d0,%sp@(40)
   106ea:	2f41 002c      	movel %d1,%sp@(44)
   106ee:	2e83           	movel %d3,%sp@
   106f0:	2f44 0004      	movel %d4,%sp@(4)
   106f4:	2f45 0008      	movel %d5,%sp@(8)
   106f8:	4e92           	jsr %a2@
   106fa:	4fef 000c      	lea %sp@(12),%sp
   106fe:	2f40 0014      	movel %d0,%sp@(20)
   10702:	2f41 0018      	movel %d1,%sp@(24)
   10706:	4cdf 0438      	moveml %sp@+,%d3-%d5/%a2
   1070a:	4ef9 0000 f8a6 	jmp f8a6 <__cmpdf2>

00010710 <__ltxf2>:
   10710:	48e7 1c20      	moveml %d3-%d5/%a2,%sp@-
   10714:	262f 0014      	movel %sp@(20),%d3
   10718:	282f 0018      	movel %sp@(24),%d4
   1071c:	2a2f 001c      	movel %sp@(28),%d5
   10720:	45f9 0001 00b4 	lea 100b4 <__truncxfdf2>,%a2
   10726:	2f2f 0028      	movel %sp@(40),%sp@-
   1072a:	2f2f 0028      	movel %sp@(40),%sp@-
   1072e:	2f2f 0028      	movel %sp@(40),%sp@-
   10732:	4e92           	jsr %a2@
   10734:	2f40 0028      	movel %d0,%sp@(40)
   10738:	2f41 002c      	movel %d1,%sp@(44)
   1073c:	2e83           	movel %d3,%sp@
   1073e:	2f44 0004      	movel %d4,%sp@(4)
   10742:	2f45 0008      	movel %d5,%sp@(8)
   10746:	4e92           	jsr %a2@
   10748:	4fef 000c      	lea %sp@(12),%sp
   1074c:	2f40 0014      	movel %d0,%sp@(20)
   10750:	2f41 0018      	movel %d1,%sp@(24)
   10754:	4cdf 0438      	moveml %sp@+,%d3-%d5/%a2
   10758:	4ef9 0000 f8a6 	jmp f8a6 <__cmpdf2>

0001075e <__lexf2>:
   1075e:	48e7 1c20      	moveml %d3-%d5/%a2,%sp@-
   10762:	262f 0014      	movel %sp@(20),%d3
   10766:	282f 0018      	movel %sp@(24),%d4
   1076a:	2a2f 001c      	movel %sp@(28),%d5
   1076e:	45f9 0001 00b4 	lea 100b4 <__truncxfdf2>,%a2
   10774:	2f2f 0028      	movel %sp@(40),%sp@-
   10778:	2f2f 0028      	movel %sp@(40),%sp@-
   1077c:	2f2f 0028      	movel %sp@(40),%sp@-
   10780:	4e92           	jsr %a2@
   10782:	2f40 0028      	movel %d0,%sp@(40)
   10786:	2f41 002c      	movel %d1,%sp@(44)
   1078a:	2e83           	movel %d3,%sp@
   1078c:	2f44 0004      	movel %d4,%sp@(4)
   10790:	2f45 0008      	movel %d5,%sp@(8)
   10794:	4e92           	jsr %a2@
   10796:	4fef 000c      	lea %sp@(12),%sp
   1079a:	2f40 0014      	movel %d0,%sp@(20)
   1079e:	2f41 0018      	movel %d1,%sp@(24)
   107a2:	4cdf 0438      	moveml %sp@+,%d3-%d5/%a2
   107a6:	4ef9 0000 f8a6 	jmp f8a6 <__cmpdf2>

000107ac <__gtxf2>:
   107ac:	48e7 1c20      	moveml %d3-%d5/%a2,%sp@-
   107b0:	262f 0014      	movel %sp@(20),%d3
   107b4:	282f 0018      	movel %sp@(24),%d4
   107b8:	2a2f 001c      	movel %sp@(28),%d5
   107bc:	45f9 0001 00b4 	lea 100b4 <__truncxfdf2>,%a2
   107c2:	2f2f 0028      	movel %sp@(40),%sp@-
   107c6:	2f2f 0028      	movel %sp@(40),%sp@-
   107ca:	2f2f 0028      	movel %sp@(40),%sp@-
   107ce:	4e92           	jsr %a2@
   107d0:	2f40 0028      	movel %d0,%sp@(40)
   107d4:	2f41 002c      	movel %d1,%sp@(44)
   107d8:	2e83           	movel %d3,%sp@
   107da:	2f44 0004      	movel %d4,%sp@(4)
   107de:	2f45 0008      	movel %d5,%sp@(8)
   107e2:	4e92           	jsr %a2@
   107e4:	4fef 000c      	lea %sp@(12),%sp
   107e8:	2f40 0014      	movel %d0,%sp@(20)
   107ec:	2f41 0018      	movel %d1,%sp@(24)
   107f0:	4cdf 0438      	moveml %sp@+,%d3-%d5/%a2
   107f4:	4ef9 0000 f8a6 	jmp f8a6 <__cmpdf2>

000107fa <__gexf2>:
   107fa:	48e7 1c20      	moveml %d3-%d5/%a2,%sp@-
   107fe:	262f 0014      	movel %sp@(20),%d3
   10802:	282f 0018      	movel %sp@(24),%d4
   10806:	2a2f 001c      	movel %sp@(28),%d5
   1080a:	45f9 0001 00b4 	lea 100b4 <__truncxfdf2>,%a2
   10810:	2f2f 0028      	movel %sp@(40),%sp@-
   10814:	2f2f 0028      	movel %sp@(40),%sp@-
   10818:	2f2f 0028      	movel %sp@(40),%sp@-
   1081c:	4e92           	jsr %a2@
   1081e:	2f40 0028      	movel %d0,%sp@(40)
   10822:	2f41 002c      	movel %d1,%sp@(44)
   10826:	2e83           	movel %d3,%sp@
   10828:	2f44 0004      	movel %d4,%sp@(4)
   1082c:	2f45 0008      	movel %d5,%sp@(8)
   10830:	4e92           	jsr %a2@
   10832:	4fef 000c      	lea %sp@(12),%sp
   10836:	2f40 0014      	movel %d0,%sp@(20)
   1083a:	2f41 0018      	movel %d1,%sp@(24)
   1083e:	4cdf 0438      	moveml %sp@+,%d3-%d5/%a2
   10842:	4ef9 0000 f8a6 	jmp f8a6 <__cmpdf2>

00010848 <__do_global_ctors_aux>:
   10848:	2f0a           	movel %a2,%sp@-
   1084a:	2079 0001 086c 	moveal 1086c <__CTOR_LIST__>,%a0
   10850:	70ff           	moveq #-1,%d0
   10852:	b088           	cmpl %a0,%d0
   10854:	6710           	beqs 10866 <__do_global_ctors_aux+0x1e>
   10856:	45f9 0001 086c 	lea 1086c <__CTOR_LIST__>,%a2
   1085c:	4e90           	jsr %a0@
   1085e:	2062           	moveal %a2@-,%a0
   10860:	70ff           	moveq #-1,%d0
   10862:	b088           	cmpl %a0,%d0
   10864:	66f6           	bnes 1085c <__do_global_ctors_aux+0x14>
   10866:	245f           	moveal %sp@+,%a2
   10868:	4e75           	rts

0001086a <call___do_global_ctors_aux>:
   1086a:	4e75           	rts

0001086c <__CTOR_LIST__>:
   1086c:	ffff ffff                                   ....

00010870 <__CTOR_END__>:
   10870:	0000 0000                                   ....

00010874 <__DTOR_LIST__>:
   10874:	ffff ffff                                   ....

00010878 <__DTOR_END__>:
   10878:	0000 0000                                   ....

0001087c <_dtors_end>:
   1087c:	416e           	.short 0x416e
   1087e:	7377           	.short 0x7377
   10880:	6572           	bcss 108f4 <_dtors_end+0x78>
   10882:	2028 696e      	movel %a0@(26990),%d0
   10886:	7428           	moveq #40,%d2
   10888:	352e 382a      	movew %fp@(14378),%a2@-
   1088c:	322e 3829      	movew %fp@(14377),%d1
   10890:	2073 686f      	moveal %a3@(6f,%d6:l),%a0
   10894:	756c           	.short 0x756c
   10896:	6420           	bccs 108b8 <_dtors_end+0x3c>
   10898:	6265           	bhis 108ff <_dtors_end+0x83>
   1089a:	2031 3629      	movel %a1@(29,%d3:w:8),%d0
   1089e:	3a20           	movew %a0@-,%d5
   108a0:	2564 0a00      	movel %a4@-,%a2@(2560)
   108a4:	416e           	.short 0x416e
   108a6:	7377           	.short 0x7377
   108a8:	6572           	bcss 1091c <_dtors_end+0xa0>
   108aa:	2028 352e      	movel %a0@(13614),%d0
   108ae:	382a 322e      	movew %a2@(12846),%d4
   108b2:	3829 2073      	movew %a1@(8307),%d4
   108b6:	686f           	bvcs 10927 <_dtors_end+0xab>
   108b8:	756c           	.short 0x756c
   108ba:	6420           	bccs 108dc <_dtors_end+0x60>
   108bc:	6265           	bhis 10923 <_dtors_end+0xa7>
   108be:	2031 362e      	movel %a1@(2e,%d3:w:8),%d0
   108c2:	3234 293a 2025 	movew %a4@(2025660a,%d2:l)@(49),%d1
   108c8:	660a 0049 
   108cc:	4e46           	trap #6
   108ce:	0069 6e66 004e 	oriw #28262,%a1@(78)
   108d4:	414e           	.short 0x414e
   108d6:	006e 616e 0030 	oriw #24942,%fp@(48)
   108dc:	3132 3334 3536 	movew %a2@(35363738)@(0,%d3:w:2),%a0@-
   108e2:	3738 
   108e4:	3941 4243      	movew %d1,%a4@(16963)
   108e8:	4445           	negw %d5
   108ea:	4600           	notb %d0
   108ec:	3031 3233      	movew %a1@(33,%d3:w:2),%d0
   108f0:	3435 3637      	movew %a5@(37,%d3:w:8),%d2
   108f4:	3839 6162 6364 	movew 61626364 <DUART_BASE_R2+0x606a62bc>,%d4
   108fa:	6566           	bcss 10962 <_dtors_end+0xe6>
   108fc:	0028 6e75 6c6c 	orib #117,%a0@(27756)
   10902:	2900           	movel %d0,%a4@-
   10904:	3000           	movew %d0,%d0
   10906:	496e           	.short 0x496e
   10908:	6669           	bnes 10973 <_dtors_end+0xf7>
   1090a:	6e69           	bgts 10975 <_dtors_end+0xf9>
   1090c:	7479           	moveq #121,%d2
   1090e:	004e           	.short 0x004e
   10910:	614e           	bsrs 10960 <_dtors_end+0xe4>
   10912:	0042 616c      	oriw #24940,%d2
   10916:	6c6f           	bges 10987 <_dtors_end+0x10b>
   10918:	6320           	blss 1093a <_dtors_end+0xbe>
   1091a:	7375           	.short 0x7375
   1091c:	6363           	blss 10981 <_dtors_end+0x105>
   1091e:	6565           	bcss 10985 <_dtors_end+0x109>
   10920:	6465           	bccs 10987 <_dtors_end+0x10b>
   10922:	6400 2e2e      	bccw 13752 <buffer+0x16>
   10926:	2f2e 2e2f      	movel %fp@(11823),%sp@-
   1092a:	2e2e 2f73      	movel %fp@(12147),%d7
   1092e:	7263           	moveq #99,%d1
   10930:	772f           	.short 0x772f
   10932:	6e65           	bgts 10999 <_dtors_end+0x11d>
   10934:	776c           	.short 0x776c
   10936:	6962           	bvss 1099a <_dtors_end+0x11e>
   10938:	2f6c 6962 632f 	movel %a4@(26978),%sp@(25391)
   1093e:	7374           	.short 0x7374
   10940:	646c           	bccs 109ae <_dtors_end+0x132>
   10942:	6962           	bvss 109a6 <_dtors_end+0x12a>
   10944:	2f64 746f      	movel %a4@-,%sp@(29807)
   10948:	612e           	bsrs 10978 <_dtors_end+0xfc>
   1094a:	6300 2e2e      	blsw 1377a <buffer+0x3e>
   1094e:	2f2e 2e2f      	movel %fp@(11823),%sp@-
   10952:	2e2e 2f73      	movel %fp@(12147),%d7
   10956:	7263           	moveq #99,%d1
   10958:	772f           	.short 0x772f
   1095a:	6e65           	bgts 109c1 <_dtors_end+0x145>
   1095c:	776c           	.short 0x776c
   1095e:	6962           	bvss 109c2 <_dtors_end+0x146>
   10960:	2f6c 6962 632f 	movel %a4@(26978),%sp@(25391)
   10966:	7374           	.short 0x7374
   10968:	646c           	bccs 109d6 <zeroes.0+0x2>
   1096a:	6962           	bvss 109ce <_dtors_end+0x152>
   1096c:	2f6d 7072 6563 	movel %a5@(28786),%sp@(25955)
   10972:	2e63           	moveal %a3@-,%sp
   10974:	0043 0050      	oriw #80,%d3
   10978:	4f53           	.short 0x4f53
   1097a:	4958           	.short 0x4958
   1097c:	002e 002c 2066 	orib #44,%fp@(8294)
   10982:	756e           	.short 0x756e
   10984:	6374           	blss 109fa <p05.0+0x6>
   10986:	696f           	bvss 109f7 <p05.0+0x3>
   10988:	6e3a           	bgts 109c4 <_dtors_end+0x148>
   1098a:	2000           	movel %d0,%d0
   1098c:	6173           	bsrs 10a01 <__mprec_tinytens+0x1>
   1098e:	7365           	.short 0x7365
   10990:	7274           	moveq #116,%d1
   10992:	696f           	bvss 10a03 <__mprec_tinytens+0x3>
   10994:	6e20           	bgts 109b6 <_dtors_end+0x13a>
   10996:	2225           	movel %a5@-,%d1
   10998:	7322           	.short 0x7322
   1099a:	2066           	moveal %fp@-,%a0
   1099c:	6169           	bsrs 10a07 <__mprec_tinytens+0x7>
   1099e:	6c65           	bges 10a05 <__mprec_tinytens+0x5>
   109a0:	643a           	bccs 109dc <zeroes.0+0x8>
   109a2:	2066           	moveal %fp@-,%a0
   109a4:	696c           	bvss 10a12 <__mprec_tinytens+0x12>
   109a6:	6520           	bcss 109c8 <_dtors_end+0x14c>
   109a8:	2225           	movel %a5@-,%d1
   109aa:	7322           	.short 0x7322
   109ac:	2c20           	movel %a0@-,%d6
   109ae:	6c69           	bges 10a19 <__mprec_tinytens+0x19>
   109b0:	6e65           	bgts 10a17 <__mprec_tinytens+0x17>
   109b2:	2025           	movel %a5@-,%d0
   109b4:	6425           	bccs 109db <zeroes.0+0x7>
   109b6:	7325           	.short 0x7325
   109b8:	730a           	.short 0x730a
   109ba:	002f 5344 2f00 	orib #68,%sp@(12032)
   109c0:	7374           	.short 0x7374
   109c2:	6469           	bccs 10a2d <__mprec_bigtens+0x5>
   109c4:	6e00 7374      	bgtw 17d3a <_fs+0x43ee>
   109c8:	646f           	bccs 10a39 <__mprec_bigtens+0x11>
   109ca:	7574           	.short 0x7574
   109cc:	Address 0x109d2 is out of bounds.


000109d4 <zeroes.0>:
   109d4:	3030 3030 3030 3030 3030 3030 3030 3030     0000000000000000

000109e4 <blanks.1>:
   109e4:	2020 2020 2020 2020 2020 2020 2020 2020                     

000109f4 <p05.0>:
   109f4:	0000 0005 0000 0019 0000 007d               ...........}

00010a00 <__mprec_tinytens>:
   10a00:	3c9c d2b2 97d8 89bc 3949 f623 d5a8 a733     <.......9I.#...3
   10a10:	32a5 0ffd 44f4 a73d 255b ba08 cf8c 979d     2...D..=%[......
   10a20:	0ac8 0628 64ac 6f43                         ...(d.oC

00010a28 <__mprec_bigtens>:
   10a28:	4341 c379 37e0 8000 4693 b8b5 b505 6e17     CA.y7...F.....n.
   10a38:	4d38 4f03 e93f f9f5 5a82 7748 f930 1d32     M8O..?..Z.wH.0.2
   10a48:	7515 4fdd 7f73 bf3c                         u.O..s.<

00010a50 <__mprec_tens>:
   10a50:	3ff0 0000 0000 0000 4024 0000 0000 0000     ?.......@$......
   10a60:	4059 0000 0000 0000 408f 4000 0000 0000     @Y......@.@.....
   10a70:	40c3 8800 0000 0000 40f8 6a00 0000 0000     @.......@.j.....
   10a80:	412e 8480 0000 0000 4163 12d0 0000 0000     A.......Ac......
   10a90:	4197 d784 0000 0000 41cd cd65 0000 0000     A.......A..e....
   10aa0:	4202 a05f 2000 0000 4237 4876 e800 0000     B.._ ...B7Hv....
   10ab0:	426d 1a94 a200 0000 42a2 309c e540 0000     Bm......B.0..@..
   10ac0:	42d6 bcc4 1e90 0000 430c 6bf5 2634 0000     B.......C.k.&4..
   10ad0:	4341 c379 37e0 8000 4376 3457 85d8 a000     CA.y7...Cv4W....
   10ae0:	43ab c16d 674e c800 43e1 58e4 6091 3d00     C..mgN..C.X.`.=.
   10af0:	4415 af1d 78b5 8c40 444b 1ae4 d6e2 ef50     D...x..@DK.....P
   10b00:	4480 f0cf 064d d592 44b5 2d02 c7e1 4af6     D....M..D.-...J.
   10b10:	44ea 7843 79d9 9db4                         D.xCy...

00010b18 <_ctype_>:
   10b18:	0020 2020 2020 2020 2020 2828 2828 2820     .         ((((( 
   10b28:	2020 2020 2020 2020 2020 2020 2020 2020                     
   10b38:	2088 1010 1010 1010 1010 1010 1010 1010      ...............
   10b48:	1004 0404 0404 0404 0404 0410 1010 1010     ................
   10b58:	1010 4141 4141 4141 0101 0101 0101 0101     ..AAAAAA........
   10b68:	0101 0101 0101 0101 0101 0101 1010 1010     ................
   10b78:	1010 4242 4242 4242 0202 0202 0202 0202     ..BBBBBB........
   10b88:	0202 0202 0202 0202 0202 0202 1010 1010     ................
   10b98:	2000 0000 0000 0000 0000 0000 0000 0000      ...............
	...

00010c19 <zeroes.0>:
   10c19:	3030 3030 3030 3030 3030 3030 3030 3030     0000000000000000

00010c29 <blanks.1>:
   10c29:	2020 2020 2020 2020 2020 2020 2020 2020                     
   10c39:	0000                                         ...

00010c3c <_init>:
   10c3c:	4e56 0000      	linkw %fp,#0
   10c40:	4eb9 0000 2172 	jsr 2172 <frame_dummy>
   10c46:	4eb9 0001 0848 	jsr 10848 <__do_global_ctors_aux>
   10c4c:	4e5e           	unlk %fp
   10c4e:	4e75           	rts

00010c50 <_fini>:
   10c50:	4e56 0000      	linkw %fp,#0
   10c54:	4eb9 0000 2100 	jsr 2100 <__do_global_dtors_aux>
   10c5a:	4e5e           	unlk %fp
   10c5c:	4e75           	rts
