
simple_020.elf:     file format elf32-m68k


Disassembly of section .text.reloc:

00002000 <_reloc>:
    2000:	41fa fffe      	lea %pc@(2000 <_reloc>),%a0
    2004:	43f9 0000 2000 	lea 2000 <_reloc>,%a1
    200a:	203c 0000 20a0 	movel #8352,%d0
    2010:	9089           	subl %a1,%d0
    2012:	e488           	lsrl #2,%d0
    2014:	5380           	subql #1,%d0
    2016:	22d8           	movel %a0@+,%a1@+
    2018:	51c8 fffc      	dbf %d0,2016 <_reloc+0x16>
    201c:	4ef9 0000 2024 	jmp 2024 <_postreloc>

Disassembly of section .text.postreloc:

00002024 <_postreloc>:
	...

00002030 <POSTRELOC>:
    2030:	203c 0001 3328 	movel #78632,%d0
    2036:	9089           	subl %a1,%d0
    2038:	e488           	lsrl #2,%d0
    203a:	2200           	movel %d0,%d1
    203c:	4841           	swap %d1
    203e:	6002           	bras 2042 <POSTRELOC+0x12>
    2040:	22d8           	movel %a0@+,%a1@+
    2042:	51c8 fffc      	dbf %d0,2040 <POSTRELOC+0x10>
    2046:	51c9 fff8      	dbf %d1,2040 <POSTRELOC+0x10>

0000204a <_enter>:
    204a:	2e78 0414      	moveal 414 <SDB_MEMSIZE>,%sp
    204e:	612c           	bsrs 207c <_bss_init>
    2050:	4eb9 0001 0c3c 	jsr 10c3c <_init>
    2056:	2f3c 0001 0c50 	movel #68688,%sp@-
    205c:	4eb9 0000 220c 	jsr 220c <atexit>
    2062:	2eb8 0000      	movel 0 <DUART_MR1A>,%sp@
    2066:	2f3c 0001 3328 	movel #78632,%sp@-
    206c:	41f9 0000 2194 	lea 2194 <main>,%a0
    2072:	4e90           	jsr %a0@
    2074:	2f00           	movel %d0,%sp@-
    2076:	4eb9 0000 2224 	jsr 2224 <exit>

0000207c <_bss_init>:
    207c:	203c 0002 9228 	movel #168488,%d0
    2082:	90bc 0001 3328 	subl #78632,%d0
    2088:	e488           	lsrl #2,%d0
    208a:	41f9 0001 3328 	lea 13328 <__TMC_END__>,%a0
    2090:	6002           	bras 2094 <_bss_init+0x18>
    2092:	4298           	clrl %a0@+
    2094:	51c8 fffc      	dbf %d0,2092 <_bss_init+0x16>
    2098:	4e75           	rts
    209a:	0000 0000      	orib #0,%d0
	...

Disassembly of section .text:

000020a4 <deregister_tm_clones>:
    20a4:	203c 0001 3328 	movel #78632,%d0
    20aa:	0c80 0001 3328 	cmpil #78632,%d0
    20b0:	6716           	beqs 20c8 <deregister_tm_clones+0x24>
    20b2:	41f9 0000 0000 	lea 0 <DUART_MR1A>,%a0
    20b8:	b0fc 0000      	cmpaw #0,%a0
    20bc:	670a           	beqs 20c8 <deregister_tm_clones+0x24>
    20be:	4879 0001 3328 	pea 13328 <__TMC_END__>
    20c4:	4e90           	jsr %a0@
    20c6:	588f           	addql #4,%sp
    20c8:	4e75           	rts

000020ca <register_tm_clones>:
    20ca:	203c 0001 3328 	movel #78632,%d0
    20d0:	0480 0001 3328 	subil #78632,%d0
    20d6:	2200           	movel %d0,%d1
    20d8:	e481           	asrl #2,%d1
    20da:	d080           	addl %d0,%d0
    20dc:	9180           	subxl %d0,%d0
    20de:	4480           	negl %d0
    20e0:	d081           	addl %d1,%d0
    20e2:	e280           	asrl #1,%d0
    20e4:	6718           	beqs 20fe <register_tm_clones+0x34>
    20e6:	41f9 0000 0000 	lea 0 <DUART_MR1A>,%a0
    20ec:	b0fc 0000      	cmpaw #0,%a0
    20f0:	670c           	beqs 20fe <register_tm_clones+0x34>
    20f2:	2f00           	movel %d0,%sp@-
    20f4:	4879 0001 3328 	pea 13328 <__TMC_END__>
    20fa:	4e90           	jsr %a0@
    20fc:	508f           	addql #8,%sp
    20fe:	4e75           	rts

00002100 <__do_global_dtors_aux>:
    2100:	2f0a           	movel %a2,%sp@-
    2102:	2f02           	movel %d2,%sp@-
    2104:	4a39 0001 332c 	tstb 1332c <completed.2>
    210a:	665e           	bnes 216a <__do_global_dtors_aux+0x6a>
    210c:	45f9 0001 0874 	lea 10874 <__DTOR_LIST__>,%a2
    2112:	2039 0001 332e 	movel 1332e <dtor_idx.1>,%d0
    2118:	243c 0001 0878 	movel #67704,%d2
    211e:	0482 0001 0874 	subil #67700,%d2
    2124:	e482           	asrl #2,%d2
    2126:	5382           	subql #1,%d2
    2128:	b480           	cmpl %d0,%d2
    212a:	631c           	blss 2148 <__do_global_dtors_aux+0x48>
    212c:	5280           	addql #1,%d0
    212e:	23c0 0001 332e 	movel %d0,1332e <dtor_idx.1>
    2134:	d080           	addl %d0,%d0
    2136:	d080           	addl %d0,%d0
    2138:	2072 0800      	moveal %a2@(0,%d0:l),%a0
    213c:	4e90           	jsr %a0@
    213e:	2039 0001 332e 	movel 1332e <dtor_idx.1>,%d0
    2144:	b480           	cmpl %d0,%d2
    2146:	62e4           	bhis 212c <__do_global_dtors_aux+0x2c>
    2148:	4eba ff5a      	jsr %pc@(20a4 <deregister_tm_clones>)
    214c:	41f9 0000 0000 	lea 0 <DUART_MR1A>,%a0
    2152:	b0fc 0000      	cmpaw #0,%a0
    2156:	670a           	beqs 2162 <__do_global_dtors_aux+0x62>
    2158:	4879 0000 20a0 	pea 20a0 <__EH_FRAME_BEGIN__>
    215e:	4e90           	jsr %a0@
    2160:	588f           	addql #4,%sp
    2162:	13fc 0001 0001 	moveb #1,1332c <completed.2>
    2168:	332c 
    216a:	241f           	movel %sp@+,%d2
    216c:	245f           	moveal %sp@+,%a2
    216e:	4e75           	rts

00002170 <call___do_global_dtors_aux>:
    2170:	4e75           	rts

00002172 <frame_dummy>:
    2172:	41f9 0000 0000 	lea 0 <DUART_MR1A>,%a0
    2178:	b0fc 0000      	cmpaw #0,%a0
    217c:	6710           	beqs 218e <frame_dummy+0x1c>
    217e:	4879 0001 3332 	pea 13332 <object.0>
    2184:	4879 0000 20a0 	pea 20a0 <__EH_FRAME_BEGIN__>
    218a:	4e90           	jsr %a0@
    218c:	508f           	addql #8,%sp
    218e:	6000 ff3a      	braw 20ca <register_tm_clones>

00002192 <call_frame_dummy>:
    2192:	4e75           	rts

00002194 <main>:
    2194:	4e56 fff0      	linkw %fp,#-16
    2198:	2d7c 4017 3333 	movel #1075262259,%fp@(-8)
    219e:	fff8 
    21a0:	2d7c 3333 3333 	movel #858993459,%fp@(-4)
    21a6:	fffc 
    21a8:	2d7c 4006 6666 	movel #1074161254,%fp@(-16)
    21ae:	fff0 
    21b0:	2d7c 6666 6666 	movel #1717986918,%fp@(-12)
    21b6:	fff4 
    21b8:	f22e 5480 fff8 	fmoved %fp@(-8),%fp1
    21be:	f22e 5400 fff0 	fmoved %fp@(-16),%fp0
    21c4:	f200 0423      	fmulx %fp1,%fp0
    21c8:	f200 0003      	fintrzx %fp0,%fp0
    21cc:	f200 6000      	fmovel %fp0,%d0
    21d0:	2f00           	movel %d0,%sp@-
    21d2:	4879 0001 087c 	pea 1087c <_dtors_end>
    21d8:	4eb9 0000 2270 	jsr 2270 <printf>
    21de:	508f           	addql #8,%sp
    21e0:	f22e 5480 fff8 	fmoved %fp@(-8),%fp1
    21e6:	f22e 5400 fff0 	fmoved %fp@(-16),%fp0
    21ec:	f200 0423      	fmulx %fp1,%fp0
    21f0:	f227 7400      	fmoved %fp0,%sp@-
    21f4:	4879 0001 08a4 	pea 108a4 <_dtors_end+0x28>
    21fa:	4eb9 0000 2270 	jsr 2270 <printf>
    2200:	4fef 000c      	lea %sp@(12),%sp
    2204:	4280           	clrl %d0
    2206:	4e5e           	unlk %fp
    2208:	4e75           	rts
	...

0000220c <atexit>:
    220c:	42a7           	clrl %sp@-
    220e:	42a7           	clrl %sp@-
    2210:	2f2f 000c      	movel %sp@(12),%sp@-
    2214:	42a7           	clrl %sp@-
    2216:	4eb9 0000 26b0 	jsr 26b0 <__register_exitproc>
    221c:	4fef 0010      	lea %sp@(16),%sp
    2220:	4e75           	rts
	...

00002224 <exit>:
    2224:	2f02           	movel %d2,%sp@-
    2226:	242f 0008      	movel %sp@(8),%d2
    222a:	42a7           	clrl %sp@-
    222c:	2f02           	movel %d2,%sp@-
    222e:	4eb9 0000 2748 	jsr 2748 <__call_exitprocs>
    2234:	2079 0001 3484 	moveal 13484 <__stdio_exit_handler>,%a0
    223a:	508f           	addql #8,%sp
    223c:	b0fc 0000      	cmpaw #0,%a0
    2240:	6702           	beqs 2244 <exit+0x20>
    2242:	4e90           	jsr %a0@
    2244:	2f02           	movel %d2,%sp@-
    2246:	4eb9 0000 a734 	jsr a734 <_exit>

0000224c <_printf_r>:
    224c:	4e56 0000      	linkw %fp,#0
    2250:	206e 0008      	moveal %fp@(8),%a0
    2254:	486e 0010      	pea %fp@(16)
    2258:	2f2e 000c      	movel %fp@(12),%sp@-
    225c:	2f28 0008      	movel %a0@(8),%sp@-
    2260:	2f08           	movel %a0,%sp@-
    2262:	4eb9 0000 3048 	jsr 3048 <_vfprintf_r>
    2268:	4fef 0010      	lea %sp@(16),%sp
    226c:	4e5e           	unlk %fp
    226e:	4e75           	rts

00002270 <printf>:
    2270:	4e56 0000      	linkw %fp,#0
    2274:	2079 0001 2c70 	moveal 12c70 <_impure_ptr>,%a0
    227a:	486e 000c      	pea %fp@(12)
    227e:	2f2e 0008      	movel %fp@(8),%sp@-
    2282:	2f28 0008      	movel %a0@(8),%sp@-
    2286:	2f08           	movel %a0,%sp@-
    2288:	4eb9 0000 3048 	jsr 3048 <_vfprintf_r>
    228e:	4fef 0010      	lea %sp@(16),%sp
    2292:	4e5e           	unlk %fp
    2294:	4e75           	rts
	...

00002298 <__fp_lock>:
    2298:	7000           	moveq #0,%d0
    229a:	4e75           	rts

0000229c <stdio_exit_handler>:
    229c:	4879 0001 2c64 	pea 12c64 <__sglue>
    22a2:	4879 0000 4e4c 	pea 4e4c <_fclose_r>
    22a8:	4879 0001 2c74 	pea 12c74 <_impure_data>
    22ae:	4eb9 0000 25e4 	jsr 25e4 <_fwalk_sglue>
    22b4:	4fef 000c      	lea %sp@(12),%sp
    22b8:	4e75           	rts

000022ba <cleanup_stdio>:
    22ba:	2f0a           	movel %a2,%sp@-
    22bc:	246f 0008      	moveal %sp@(8),%a2
    22c0:	202a 0004      	movel %a2@(4),%d0
    22c4:	0c80 0001 334c 	cmpil #78668,%d0
    22ca:	670c           	beqs 22d8 <cleanup_stdio+0x1e>
    22cc:	2f00           	movel %d0,%sp@-
    22ce:	2f0a           	movel %a2,%sp@-
    22d0:	4eb9 0000 4e4c 	jsr 4e4c <_fclose_r>
    22d6:	508f           	addql #8,%sp
    22d8:	202a 0008      	movel %a2@(8),%d0
    22dc:	0c80 0001 33b4 	cmpil #78772,%d0
    22e2:	670c           	beqs 22f0 <cleanup_stdio+0x36>
    22e4:	2f00           	movel %d0,%sp@-
    22e6:	2f0a           	movel %a2,%sp@-
    22e8:	4eb9 0000 4e4c 	jsr 4e4c <_fclose_r>
    22ee:	508f           	addql #8,%sp
    22f0:	202a 000c      	movel %a2@(12),%d0
    22f4:	0c80 0001 341c 	cmpil #78876,%d0
    22fa:	670c           	beqs 2308 <cleanup_stdio+0x4e>
    22fc:	2f00           	movel %d0,%sp@-
    22fe:	2f0a           	movel %a2,%sp@-
    2300:	4eb9 0000 4e4c 	jsr 4e4c <_fclose_r>
    2306:	508f           	addql #8,%sp
    2308:	245f           	moveal %sp@+,%a2
    230a:	4e75           	rts

0000230c <__fp_unlock>:
    230c:	7000           	moveq #0,%d0
    230e:	4e75           	rts

00002310 <global_stdio_init.part.0>:
    2310:	2f0b           	movel %a3,%sp@-
    2312:	2f0a           	movel %a2,%sp@-
    2314:	23fc 0000 229c 	movel #8860,13484 <__stdio_exit_handler>
    231a:	0001 3484 
    231e:	47f9 0001 334c 	lea 1334c <__sf>,%a3
    2324:	4293           	clrl %a3@
    2326:	42b9 0001 3350 	clrl 13350 <__sf+0x4>
    232c:	42b9 0001 3354 	clrl 13354 <__sf+0x8>
    2332:	42b9 0001 33b0 	clrl 133b0 <__sf+0x64>
    2338:	23fc 0004 0000 	movel #262144,13358 <__sf+0xc>
    233e:	0001 3358 
    2342:	42b9 0001 335c 	clrl 1335c <__sf+0x10>
    2348:	42b9 0001 3360 	clrl 13360 <__sf+0x14>
    234e:	42b9 0001 3364 	clrl 13364 <__sf+0x18>
    2354:	4878 0008      	pea 8 <DIVIDE_BY_ZERO>
    2358:	42a7           	clrl %sp@-
    235a:	4879 0001 33a8 	pea 133a8 <__sf+0x5c>
    2360:	45f9 0000 263c 	lea 263c <memset>,%a2
    2366:	4e92           	jsr %a2@
    2368:	23cb 0001 3368 	movel %a3,13368 <__sf+0x1c>
    236e:	23fc 0000 51ac 	movel #20908,1336c <__sf+0x20>
    2374:	0001 336c 
    2378:	23fc 0000 51e8 	movel #20968,13370 <__sf+0x24>
    237e:	0001 3370 
    2382:	23fc 0000 526e 	movel #21102,13374 <__sf+0x28>
    2388:	0001 3374 
    238c:	23fc 0000 52ae 	movel #21166,13378 <__sf+0x2c>
    2392:	0001 3378 
    2396:	42b9 0001 33b4 	clrl 133b4 <__sf+0x68>
    239c:	42b9 0001 33b8 	clrl 133b8 <__sf+0x6c>
    23a2:	42b9 0001 33bc 	clrl 133bc <__sf+0x70>
    23a8:	42b9 0001 3418 	clrl 13418 <__sf+0xcc>
    23ae:	23fc 0009 0001 	movel #589825,133c0 <__sf+0x74>
    23b4:	0001 33c0 
    23b8:	42b9 0001 33c4 	clrl 133c4 <__sf+0x78>
    23be:	42b9 0001 33c8 	clrl 133c8 <__sf+0x7c>
    23c4:	42b9 0001 33cc 	clrl 133cc <__sf+0x80>
    23ca:	4878 0008      	pea 8 <DIVIDE_BY_ZERO>
    23ce:	42a7           	clrl %sp@-
    23d0:	4879 0001 3410 	pea 13410 <__sf+0xc4>
    23d6:	4e92           	jsr %a2@
    23d8:	23fc 0001 33b4 	movel #78772,133d0 <__sf+0x84>
    23de:	0001 33d0 
    23e2:	23fc 0000 51ac 	movel #20908,133d4 <__sf+0x88>
    23e8:	0001 33d4 
    23ec:	23fc 0000 51e8 	movel #20968,133d8 <__sf+0x8c>
    23f2:	0001 33d8 
    23f6:	23fc 0000 526e 	movel #21102,133dc <__sf+0x90>
    23fc:	0001 33dc 
    2400:	23fc 0000 52ae 	movel #21166,133e0 <__sf+0x94>
    2406:	0001 33e0 
    240a:	42b9 0001 341c 	clrl 1341c <__sf+0xd0>
    2410:	42b9 0001 3420 	clrl 13420 <__sf+0xd4>
    2416:	42b9 0001 3424 	clrl 13424 <__sf+0xd8>
    241c:	42b9 0001 3480 	clrl 13480 <__sf+0x134>
    2422:	23fc 0012 0002 	movel #1179650,13428 <__sf+0xdc>
    2428:	0001 3428 
    242c:	42b9 0001 342c 	clrl 1342c <__sf+0xe0>
    2432:	42b9 0001 3430 	clrl 13430 <__sf+0xe4>
    2438:	42b9 0001 3434 	clrl 13434 <__sf+0xe8>
    243e:	4878 0008      	pea 8 <DIVIDE_BY_ZERO>
    2442:	42a7           	clrl %sp@-
    2444:	4879 0001 3478 	pea 13478 <__sf+0x12c>
    244a:	4e92           	jsr %a2@
    244c:	23fc 0001 341c 	movel #78876,13438 <__sf+0xec>
    2452:	0001 3438 
    2456:	23fc 0000 51ac 	movel #20908,1343c <__sf+0xf0>
    245c:	0001 343c 
    2460:	23fc 0000 51e8 	movel #20968,13440 <__sf+0xf4>
    2466:	0001 3440 
    246a:	23fc 0000 526e 	movel #21102,13444 <__sf+0xf8>
    2470:	0001 3444 
    2474:	23fc 0000 52ae 	movel #21166,13448 <__sf+0xfc>
    247a:	0001 3448 
    247e:	4fef 0024      	lea %sp@(36),%sp
    2482:	245f           	moveal %sp@+,%a2
    2484:	265f           	moveal %sp@+,%a3
    2486:	4e75           	rts

00002488 <__sfp>:
    2488:	2f0b           	movel %a3,%sp@-
    248a:	2f0a           	movel %a2,%sp@-
    248c:	4ab9 0001 3484 	tstl 13484 <__stdio_exit_handler>
    2492:	6700 00d2      	beqw 2566 <__sfp+0xde>
    2496:	47f9 0001 2c64 	lea 12c64 <__sglue>,%a3
    249c:	246b 0008      	moveal %a3@(8),%a2
    24a0:	202b 0004      	movel %a3@(4),%d0
    24a4:	5380           	subql #1,%d0
    24a6:	6b14           	bmis 24bc <__sfp+0x34>
    24a8:	4a6a 000c      	tstw %a2@(12)
    24ac:	6726           	beqs 24d4 <__sfp+0x4c>
    24ae:	45ea 0068      	lea %a2@(104),%a2
    24b2:	51c8 fff4      	dbf %d0,24a8 <__sfp+0x20>
    24b6:	4240           	clrw %d0
    24b8:	5380           	subql #1,%d0
    24ba:	64ec           	bccs 24a8 <__sfp+0x20>
    24bc:	2453           	moveal %a3@,%a2
    24be:	b4fc 0000      	cmpaw #0,%a2
    24c2:	6762           	beqs 2526 <__sfp+0x9e>
    24c4:	264a           	moveal %a2,%a3
    24c6:	246b 0008      	moveal %a3@(8),%a2
    24ca:	202b 0004      	movel %a3@(4),%d0
    24ce:	5380           	subql #1,%d0
    24d0:	6ad6           	bpls 24a8 <__sfp+0x20>
    24d2:	60e8           	bras 24bc <__sfp+0x34>
    24d4:	357c ffff 000e 	movew #-1,%a2@(14)
    24da:	357c 0001 000c 	movew #1,%a2@(12)
    24e0:	42aa 0064      	clrl %a2@(100)
    24e4:	4292           	clrl %a2@
    24e6:	42aa 0008      	clrl %a2@(8)
    24ea:	42aa 0004      	clrl %a2@(4)
    24ee:	42aa 0010      	clrl %a2@(16)
    24f2:	42aa 0014      	clrl %a2@(20)
    24f6:	42aa 0018      	clrl %a2@(24)
    24fa:	4878 0008      	pea 8 <DIVIDE_BY_ZERO>
    24fe:	42a7           	clrl %sp@-
    2500:	486a 005c      	pea %a2@(92)
    2504:	4eb9 0000 263c 	jsr 263c <memset>
    250a:	42aa 0030      	clrl %a2@(48)
    250e:	42aa 0034      	clrl %a2@(52)
    2512:	42aa 0044      	clrl %a2@(68)
    2516:	42aa 0048      	clrl %a2@(72)
    251a:	4fef 000c      	lea %sp@(12),%sp
    251e:	200a           	movel %a2,%d0
    2520:	245f           	moveal %sp@+,%a2
    2522:	265f           	moveal %sp@+,%a3
    2524:	4e75           	rts
    2526:	4878 01ac      	pea 1ac <DBL_MANT_DIG+0x177>
    252a:	2f2f 0010      	movel %sp@(16),%sp@-
    252e:	4eb9 0000 2804 	jsr 2804 <_malloc_r>
    2534:	2440           	moveal %d0,%a2
    2536:	508f           	addql #8,%sp
    2538:	4a80           	tstl %d0
    253a:	673a           	beqs 2576 <__sfp+0xee>
    253c:	4292           	clrl %a2@
    253e:	7004           	moveq #4,%d0
    2540:	2540 0004      	movel %d0,%a2@(4)
    2544:	41ea 000c      	lea %a2@(12),%a0
    2548:	2548 0008      	movel %a0,%a2@(8)
    254c:	4878 01a0      	pea 1a0 <DBL_MANT_DIG+0x16b>
    2550:	42a7           	clrl %sp@-
    2552:	2f08           	movel %a0,%sp@-
    2554:	4eb9 0000 263c 	jsr 263c <memset>
    255a:	268a           	movel %a2,%a3@
    255c:	4fef 000c      	lea %sp@(12),%sp
    2560:	264a           	moveal %a2,%a3
    2562:	6000 ff62      	braw 24c6 <__sfp+0x3e>
    2566:	4eb9 0000 2310 	jsr 2310 <global_stdio_init.part.0>
    256c:	47f9 0001 2c64 	lea 12c64 <__sglue>,%a3
    2572:	6000 ff28      	braw 249c <__sfp+0x14>
    2576:	4293           	clrl %a3@
    2578:	700c           	moveq #12,%d0
    257a:	206f 000c      	moveal %sp@(12),%a0
    257e:	2080           	movel %d0,%a0@
    2580:	200a           	movel %a2,%d0
    2582:	245f           	moveal %sp@+,%a2
    2584:	265f           	moveal %sp@+,%a3
    2586:	4e75           	rts

00002588 <__sinit>:
    2588:	206f 0004      	moveal %sp@(4),%a0
    258c:	4aa8 0032      	tstl %a0@(50)
    2590:	6702           	beqs 2594 <__sinit+0xc>
    2592:	4e75           	rts
    2594:	217c 0000 22ba 	movel #8890,%a0@(50)
    259a:	0032 
    259c:	4ab9 0001 3484 	tstl 13484 <__stdio_exit_handler>
    25a2:	66ee           	bnes 2592 <__sinit+0xa>
    25a4:	4ef9 0000 2310 	jmp 2310 <global_stdio_init.part.0>

000025aa <__sfp_lock_acquire>:
    25aa:	4e75           	rts

000025ac <__sfp_lock_release>:
    25ac:	4e75           	rts

000025ae <__fp_lock_all>:
    25ae:	4879 0001 2c64 	pea 12c64 <__sglue>
    25b4:	4879 0000 2298 	pea 2298 <__fp_lock>
    25ba:	42a7           	clrl %sp@-
    25bc:	4eb9 0000 25e4 	jsr 25e4 <_fwalk_sglue>
    25c2:	4fef 000c      	lea %sp@(12),%sp
    25c6:	4e75           	rts

000025c8 <__fp_unlock_all>:
    25c8:	4879 0001 2c64 	pea 12c64 <__sglue>
    25ce:	4879 0000 230c 	pea 230c <__fp_unlock>
    25d4:	42a7           	clrl %sp@-
    25d6:	4eb9 0000 25e4 	jsr 25e4 <_fwalk_sglue>
    25dc:	4fef 000c      	lea %sp@(12),%sp
    25e0:	4e75           	rts
	...

000025e4 <_fwalk_sglue>:
    25e4:	48e7 3838      	moveml %d2-%d4/%a2-%a4,%sp@-
    25e8:	282f 001c      	movel %sp@(28),%d4
    25ec:	286f 0020      	moveal %sp@(32),%a4
    25f0:	266f 0024      	moveal %sp@(36),%a3
    25f4:	7600           	moveq #0,%d3
    25f6:	246b 0008      	moveal %a3@(8),%a2
    25fa:	242b 0004      	movel %a3@(4),%d2
    25fe:	5382           	subql #1,%d2
    2600:	6b28           	bmis 262a <_fwalk_sglue+0x46>
    2602:	0c6a 0001 000c 	cmpiw #1,%a2@(12)
    2608:	6312           	blss 261c <_fwalk_sglue+0x38>
    260a:	0c6a ffff 000e 	cmpiw #-1,%a2@(14)
    2610:	670a           	beqs 261c <_fwalk_sglue+0x38>
    2612:	2f0a           	movel %a2,%sp@-
    2614:	2f04           	movel %d4,%sp@-
    2616:	4e94           	jsr %a4@
    2618:	8680           	orl %d0,%d3
    261a:	508f           	addql #8,%sp
    261c:	45ea 0068      	lea %a2@(104),%a2
    2620:	51ca ffe0      	dbf %d2,2602 <_fwalk_sglue+0x1e>
    2624:	4242           	clrw %d2
    2626:	5382           	subql #1,%d2
    2628:	64d8           	bccs 2602 <_fwalk_sglue+0x1e>
    262a:	2653           	moveal %a3@,%a3
    262c:	b6fc 0000      	cmpaw #0,%a3
    2630:	66c4           	bnes 25f6 <_fwalk_sglue+0x12>
    2632:	2003           	movel %d3,%d0
    2634:	4cdf 1c1c      	moveml %sp@+,%d2-%d4/%a2-%a4
    2638:	4e75           	rts
	...

0000263c <memset>:
    263c:	206f 0004      	moveal %sp@(4),%a0
    2640:	202f 0008      	movel %sp@(8),%d0
    2644:	222f 000c      	movel %sp@(12),%d1
    2648:	0c81 0000 0010 	cmpil #16,%d1
    264e:	6500 0054      	bcsw 26a4 <memset+0x68>
    2652:	2f02           	movel %d2,%sp@-
    2654:	1400           	moveb %d0,%d2
    2656:	e188           	lsll #8,%d0
    2658:	1002           	moveb %d2,%d0
    265a:	3400           	movew %d0,%d2
    265c:	4840           	swap %d0
    265e:	3002           	movew %d2,%d0
    2660:	2408           	movel %a0,%d2
    2662:	4482           	negl %d2
    2664:	0282 0000 0003 	andil #3,%d2
    266a:	6700 0014      	beqw 2680 <memset+0x44>
    266e:	9282           	subl %d2,%d1
    2670:	e28a           	lsrl #1,%d2
    2672:	6400 0004      	bccw 2678 <memset+0x3c>
    2676:	10c0           	moveb %d0,%a0@+
    2678:	e28a           	lsrl #1,%d2
    267a:	6400 0004      	bccw 2680 <memset+0x44>
    267e:	30c0           	movew %d0,%a0@+
    2680:	2401           	movel %d1,%d2
    2682:	e48a           	lsrl #2,%d2
    2684:	5382           	subql #1,%d2
    2686:	20c0           	movel %d0,%a0@+
    2688:	51ca fffc      	dbf %d2,2686 <memset+0x4a>
    268c:	0482 0001 0000 	subil #65536,%d2
    2692:	6a00 fff2      	bplw 2686 <memset+0x4a>
    2696:	0281 0000 0003 	andil #3,%d1
    269c:	241f           	movel %sp@+,%d2
    269e:	6000 0004      	braw 26a4 <memset+0x68>
    26a2:	10c0           	moveb %d0,%a0@+
    26a4:	51c9 fffc      	dbf %d1,26a2 <memset+0x66>
    26a8:	202f 0004      	movel %sp@(4),%d0
    26ac:	4e75           	rts
	...

000026b0 <__register_exitproc>:
    26b0:	2f03           	movel %d3,%sp@-
    26b2:	2f02           	movel %d2,%sp@-
    26b4:	222f 000c      	movel %sp@(12),%d1
    26b8:	2079 0001 3618 	moveal 13618 <__atexit>,%a0
    26be:	b0fc 0000      	cmpaw #0,%a0
    26c2:	674c           	beqs 2710 <__register_exitproc+0x60>
    26c4:	2028 0004      	movel %a0@(4),%d0
    26c8:	741f           	moveq #31,%d2
    26ca:	b480           	cmpl %d0,%d2
    26cc:	6d70           	blts 273e <__register_exitproc+0x8e>
    26ce:	4a81           	tstl %d1
    26d0:	6722           	beqs 26f4 <__register_exitproc+0x44>
    26d2:	2240           	moveal %d0,%a1
    26d4:	d3c0           	addal %d0,%a1
    26d6:	d3c9           	addal %a1,%a1
    26d8:	43f0 9800      	lea %a0@(0,%a1:l),%a1
    26dc:	236f 0014 0088 	movel %sp@(20),%a1@(136)
    26e2:	7401           	moveq #1,%d2
    26e4:	e1aa           	lsll %d0,%d2
    26e6:	85a8 0188      	orl %d2,%a0@(392)
    26ea:	236f 0018 0108 	movel %sp@(24),%a1@(264)
    26f0:	5581           	subql #2,%d1
    26f2:	672e           	beqs 2722 <__register_exitproc+0x72>
    26f4:	2200           	movel %d0,%d1
    26f6:	5281           	addql #1,%d1
    26f8:	2141 0004      	movel %d1,%a0@(4)
    26fc:	5480           	addql #2,%d0
    26fe:	d080           	addl %d0,%d0
    2700:	d080           	addl %d0,%d0
    2702:	21af 0010 0800 	movel %sp@(16),%a0@(0,%d0:l)
    2708:	7000           	moveq #0,%d0
    270a:	241f           	movel %sp@+,%d2
    270c:	261f           	movel %sp@+,%d3
    270e:	4e75           	rts
    2710:	23fc 0001 3488 	movel #78984,13618 <__atexit>
    2716:	0001 3618 
    271a:	41f9 0001 3488 	lea 13488 <__atexit0>,%a0
    2720:	60a2           	bras 26c4 <__register_exitproc+0x14>
    2722:	85a8 018c      	orl %d2,%a0@(396)
    2726:	2200           	movel %d0,%d1
    2728:	5281           	addql #1,%d1
    272a:	2141 0004      	movel %d1,%a0@(4)
    272e:	5480           	addql #2,%d0
    2730:	d080           	addl %d0,%d0
    2732:	d080           	addl %d0,%d0
    2734:	21af 0010 0800 	movel %sp@(16),%a0@(0,%d0:l)
    273a:	7000           	moveq #0,%d0
    273c:	60cc           	bras 270a <__register_exitproc+0x5a>
    273e:	70ff           	moveq #-1,%d0
    2740:	241f           	movel %sp@+,%d2
    2742:	261f           	movel %sp@+,%d3
    2744:	4e75           	rts
	...

00002748 <__call_exitprocs>:
    2748:	48e7 3e30      	moveml %d2-%d6/%a2-%a3,%sp@-
    274c:	2a2f 0020      	movel %sp@(32),%d5
    2750:	262f 0024      	movel %sp@(36),%d3
    2754:	2679 0001 3618 	moveal 13618 <__atexit>,%a3
    275a:	7801           	moveq #1,%d4
    275c:	b6fc 0000      	cmpaw #0,%a3
    2760:	675a           	beqs 27bc <__call_exitprocs+0x74>
    2762:	202b 0004      	movel %a3@(4),%d0
    2766:	2400           	movel %d0,%d2
    2768:	5382           	subql #1,%d2
    276a:	6b50           	bmis 27bc <__call_exitprocs+0x74>
    276c:	5280           	addql #1,%d0
    276e:	d080           	addl %d0,%d0
    2770:	d080           	addl %d0,%d0
    2772:	45f3 0800      	lea %a3@(0,%d0:l),%a2
    2776:	4a83           	tstl %d3
    2778:	6648           	bnes 27c2 <__call_exitprocs+0x7a>
    277a:	2052           	moveal %a2@,%a0
    277c:	202b 0004      	movel %a3@(4),%d0
    2780:	5380           	subql #1,%d0
    2782:	b480           	cmpl %d0,%d2
    2784:	6770           	beqs 27f6 <__call_exitprocs+0xae>
    2786:	4292           	clrl %a2@
    2788:	b0fc 0000      	cmpaw #0,%a0
    278c:	6722           	beqs 27b0 <__call_exitprocs+0x68>
    278e:	2c2b 0004      	movel %a3@(4),%d6
    2792:	2004           	movel %d4,%d0
    2794:	e5a8           	lsll %d2,%d0
    2796:	2200           	movel %d0,%d1
    2798:	c2ab 0188      	andl %a3@(392),%d1
    279c:	6644           	bnes 27e2 <__call_exitprocs+0x9a>
    279e:	4e90           	jsr %a0@
    27a0:	2039 0001 3618 	movel 13618 <__atexit>,%d0
    27a6:	bcab 0004      	cmpl %a3@(4),%d6
    27aa:	662e           	bnes 27da <__call_exitprocs+0x92>
    27ac:	b7c0           	cmpal %d0,%a3
    27ae:	662a           	bnes 27da <__call_exitprocs+0x92>
    27b0:	598a           	subql #4,%a2
    27b2:	51ca ffc2      	dbf %d2,2776 <__call_exitprocs+0x2e>
    27b6:	4242           	clrw %d2
    27b8:	5382           	subql #1,%d2
    27ba:	64ba           	bccs 2776 <__call_exitprocs+0x2e>
    27bc:	4cdf 0c7c      	moveml %sp@+,%d2-%d6/%a2-%a3
    27c0:	4e75           	rts
    27c2:	b6aa 0100      	cmpl %a2@(256),%d3
    27c6:	67b2           	beqs 277a <__call_exitprocs+0x32>
    27c8:	598a           	subql #4,%a2
    27ca:	51ca fff6      	dbf %d2,27c2 <__call_exitprocs+0x7a>
    27ce:	4242           	clrw %d2
    27d0:	5382           	subql #1,%d2
    27d2:	64ee           	bccs 27c2 <__call_exitprocs+0x7a>
    27d4:	4cdf 0c7c      	moveml %sp@+,%d2-%d6/%a2-%a3
    27d8:	4e75           	rts
    27da:	4a80           	tstl %d0
    27dc:	67de           	beqs 27bc <__call_exitprocs+0x74>
    27de:	2640           	moveal %d0,%a3
    27e0:	6080           	bras 2762 <__call_exitprocs+0x1a>
    27e2:	222a 0080      	movel %a2@(128),%d1
    27e6:	c0ab 018c      	andl %a3@(396),%d0
    27ea:	6610           	bnes 27fc <__call_exitprocs+0xb4>
    27ec:	2f01           	movel %d1,%sp@-
    27ee:	2f05           	movel %d5,%sp@-
    27f0:	4e90           	jsr %a0@
    27f2:	508f           	addql #8,%sp
    27f4:	60aa           	bras 27a0 <__call_exitprocs+0x58>
    27f6:	2742 0004      	movel %d2,%a3@(4)
    27fa:	608c           	bras 2788 <__call_exitprocs+0x40>
    27fc:	2f01           	movel %d1,%sp@-
    27fe:	4e90           	jsr %a0@
    2800:	588f           	addql #4,%sp
    2802:	609c           	bras 27a0 <__call_exitprocs+0x58>

00002804 <_malloc_r>:
    2804:	48e7 3e3e      	moveml %d2-%d6/%a2-%fp,%sp@-
    2808:	266f 002c      	moveal %sp@(44),%a3
    280c:	226f 0030      	moveal %sp@(48),%a1
    2810:	41e9 000b      	lea %a1@(11),%a0
    2814:	7016           	moveq #22,%d0
    2816:	b088           	cmpl %a0,%d0
    2818:	655e           	bcss 2878 <_malloc_r+0x74>
    281a:	7210           	moveq #16,%d1
    281c:	b289           	cmpl %a1,%d1
    281e:	6500 01e2      	bcsw 2a02 <_malloc_r+0x1fe>
    2822:	2f0b           	movel %a3,%sp@-
    2824:	4eb9 0000 4e10 	jsr 4e10 <__malloc_lock>
    282a:	588f           	addql #4,%sp
    282c:	307c 0018      	moveaw #24,%a0
    2830:	7602           	moveq #2,%d3
    2832:	7410           	moveq #16,%d2
    2834:	d1fc 0001 2d94 	addal #77204,%a0
    283a:	2468 0004      	moveal %a0@(4),%a2
    283e:	2008           	movel %a0,%d0
    2840:	5180           	subql #8,%d0
    2842:	b08a           	cmpl %a2,%d0
    2844:	6700 01ee      	beqw 2a34 <_malloc_r+0x230>
    2848:	70fc           	moveq #-4,%d0
    284a:	c0aa 0004      	andl %a2@(4),%d0
    284e:	206a 000c      	moveal %a2@(12),%a0
    2852:	226a 0008      	moveal %a2@(8),%a1
    2856:	2348 000c      	movel %a0,%a1@(12)
    285a:	2149 0008      	movel %a1,%a0@(8)
    285e:	7a01           	moveq #1,%d5
    2860:	8bb2 0804      	orl %d5,%a2@(4,%d0:l)
    2864:	2f0b           	movel %a3,%sp@-
    2866:	4eb9 0000 4e12 	jsr 4e12 <__malloc_unlock>
    286c:	200a           	movel %a2,%d0
    286e:	5080           	addql #8,%d0
    2870:	588f           	addql #4,%sp
    2872:	4cdf 7c7c      	moveml %sp@+,%d2-%d6/%a2-%fp
    2876:	4e75           	rts
    2878:	2408           	movel %a0,%d2
    287a:	76f8           	moveq #-8,%d3
    287c:	c483           	andl %d3,%d2
    287e:	b0fc 0000      	cmpaw #0,%a0
    2882:	6d00 017e      	bltw 2a02 <_malloc_r+0x1fe>
    2886:	b489           	cmpl %a1,%d2
    2888:	6500 0178      	bcsw 2a02 <_malloc_r+0x1fe>
    288c:	2f0b           	movel %a3,%sp@-
    288e:	4eb9 0000 4e10 	jsr 4e10 <__malloc_lock>
    2894:	588f           	addql #4,%sp
    2896:	2602           	movel %d2,%d3
    2898:	0c82 0000 01f7 	cmpil #503,%d2
    289e:	6300 041c      	blsw 2cbc <_malloc_r+0x4b8>
    28a2:	7c09           	moveq #9,%d6
    28a4:	ecab           	lsrl %d6,%d3
    28a6:	6700 0166      	beqw 2a0e <_malloc_r+0x20a>
    28aa:	7004           	moveq #4,%d0
    28ac:	b083           	cmpl %d3,%d0
    28ae:	6500 0324      	bcsw 2bd4 <_malloc_r+0x3d0>
    28b2:	2602           	movel %d2,%d3
    28b4:	ec8b           	lsrl #6,%d3
    28b6:	387c 0038      	moveaw #56,%a4
    28ba:	d9c3           	addal %d3,%a4
    28bc:	7239           	moveq #57,%d1
    28be:	d681           	addl %d1,%d3
    28c0:	2003           	movel %d3,%d0
    28c2:	e788           	lsll #3,%d0
    28c4:	2040           	moveal %d0,%a0
    28c6:	d1fc 0001 2d94 	addal #77204,%a0
    28cc:	43e8 fff8      	lea %a0@(-8),%a1
    28d0:	2468 0004      	moveal %a0@(4),%a2
    28d4:	b5c9           	cmpal %a1,%a2
    28d6:	6732           	beqs 290a <_malloc_r+0x106>
    28d8:	72fc           	moveq #-4,%d1
    28da:	c2aa 0004      	andl %a2@(4),%d1
    28de:	2001           	movel %d1,%d0
    28e0:	9082           	subl %d2,%d0
    28e2:	780f           	moveq #15,%d4
    28e4:	b880           	cmpl %d0,%d4
    28e6:	6d20           	blts 2908 <_malloc_r+0x104>
    28e8:	206a 000c      	moveal %a2@(12),%a0
    28ec:	4a80           	tstl %d0
    28ee:	6c00 0260      	bgew 2b50 <_malloc_r+0x34c>
    28f2:	b1c9           	cmpal %a1,%a0
    28f4:	6714           	beqs 290a <_malloc_r+0x106>
    28f6:	2448           	moveal %a0,%a2
    28f8:	72fc           	moveq #-4,%d1
    28fa:	c2aa 0004      	andl %a2@(4),%d1
    28fe:	2001           	movel %d1,%d0
    2900:	9082           	subl %d2,%d0
    2902:	780f           	moveq #15,%d4
    2904:	b880           	cmpl %d0,%d4
    2906:	6ce0           	bges 28e8 <_malloc_r+0xe4>
    2908:	260c           	movel %a4,%d3
    290a:	2479 0001 2da4 	moveal 12da4 <__malloc_av_+0x10>,%a2
    2910:	b5fc 0001 2d9c 	cmpal #77212,%a2
    2916:	6700 0138      	beqw 2a50 <_malloc_r+0x24c>
    291a:	70fc           	moveq #-4,%d0
    291c:	c0aa 0004      	andl %a2@(4),%d0
    2920:	2200           	movel %d0,%d1
    2922:	9282           	subl %d2,%d1
    2924:	7c0f           	moveq #15,%d6
    2926:	bc81           	cmpl %d1,%d6
    2928:	6d00 03b0      	bltw 2cda <_malloc_r+0x4d6>
    292c:	23fc 0001 2d9c 	movel #77212,12da8 <__malloc_av_+0x14>
    2932:	0001 2da8 
    2936:	23fc 0001 2d9c 	movel #77212,12da4 <__malloc_av_+0x10>
    293c:	0001 2da4 
    2940:	4a81           	tstl %d1
    2942:	6c00 0360      	bgew 2ca4 <_malloc_r+0x4a0>
    2946:	2239 0001 2d98 	movel 12d98 <__malloc_av_+0x4>,%d1
    294c:	0c80 0000 01ff 	cmpil #511,%d0
    2952:	6200 0220      	bhiw 2b74 <_malloc_r+0x370>
    2956:	e688           	lsrl #3,%d0
    2958:	2a00           	movel %d0,%d5
    295a:	e485           	asrl #2,%d5
    295c:	7801           	moveq #1,%d4
    295e:	ebac           	lsll %d5,%d4
    2960:	8284           	orl %d4,%d1
    2962:	23c1 0001 2d98 	movel %d1,12d98 <__malloc_av_+0x4>
    2968:	e788           	lsll #3,%d0
    296a:	2040           	moveal %d0,%a0
    296c:	d1fc 0001 2d9c 	addal #77212,%a0
    2972:	2250           	moveal %a0@,%a1
    2974:	49e8 fff8      	lea %a0@(-8),%a4
    2978:	254c 000c      	movel %a4,%a2@(12)
    297c:	2549 0008      	movel %a1,%a2@(8)
    2980:	208a           	movel %a2,%a0@
    2982:	234a 000c      	movel %a2,%a1@(12)
    2986:	2003           	movel %d3,%d0
    2988:	e480           	asrl #2,%d0
    298a:	7801           	moveq #1,%d4
    298c:	e1ac           	lsll %d0,%d4
    298e:	b284           	cmpl %d4,%d1
    2990:	6500 00d2      	bcsw 2a64 <_malloc_r+0x260>
    2994:	2004           	movel %d4,%d0
    2996:	c081           	andl %d1,%d0
    2998:	660e           	bnes 29a8 <_malloc_r+0x1a4>
    299a:	7afc           	moveq #-4,%d5
    299c:	c685           	andl %d5,%d3
    299e:	5883           	addql #4,%d3
    29a0:	d884           	addl %d4,%d4
    29a2:	2004           	movel %d4,%d0
    29a4:	c081           	andl %d1,%d0
    29a6:	67f6           	beqs 299e <_malloc_r+0x19a>
    29a8:	2003           	movel %d3,%d0
    29aa:	e788           	lsll #3,%d0
    29ac:	2840           	moveal %d0,%a4
    29ae:	d9fc 0001 2d94 	addal #77204,%a4
    29b4:	224c           	moveal %a4,%a1
    29b6:	2a03           	movel %d3,%d5
    29b8:	2069 000c      	moveal %a1@(12),%a0
    29bc:	b1c9           	cmpal %a1,%a0
    29be:	6700 0252      	beqw 2c12 <_malloc_r+0x40e>
    29c2:	72fc           	moveq #-4,%d1
    29c4:	c2a8 0004      	andl %a0@(4),%d1
    29c8:	2001           	movel %d1,%d0
    29ca:	9082           	subl %d2,%d0
    29cc:	2448           	moveal %a0,%a2
    29ce:	2068 000c      	moveal %a0@(12),%a0
    29d2:	7c0f           	moveq #15,%d6
    29d4:	bc80           	cmpl %d0,%d6
    29d6:	6d00 027a      	bltw 2c52 <_malloc_r+0x44e>
    29da:	4a80           	tstl %d0
    29dc:	6dde           	blts 29bc <_malloc_r+0x1b8>
    29de:	7a01           	moveq #1,%d5
    29e0:	8bb2 1804      	orl %d5,%a2@(4,%d1:l)
    29e4:	226a 0008      	moveal %a2@(8),%a1
    29e8:	2348 000c      	movel %a0,%a1@(12)
    29ec:	2149 0008      	movel %a1,%a0@(8)
    29f0:	2f0b           	movel %a3,%sp@-
    29f2:	4eb9 0000 4e12 	jsr 4e12 <__malloc_unlock>
    29f8:	200a           	movel %a2,%d0
    29fa:	5080           	addql #8,%d0
    29fc:	588f           	addql #4,%sp
    29fe:	6000 fe72      	braw 2872 <_malloc_r+0x6e>
    2a02:	780c           	moveq #12,%d4
    2a04:	2684           	movel %d4,%a3@
    2a06:	7000           	moveq #0,%d0
    2a08:	4cdf 7c7c      	moveml %sp@+,%d2-%d6/%a2-%fp
    2a0c:	4e75           	rts
    2a0e:	203c 0000 0200 	movel #512,%d0
    2a14:	7640           	moveq #64,%d3
    2a16:	387c 003f      	moveaw #63,%a4
    2a1a:	2040           	moveal %d0,%a0
    2a1c:	d1fc 0001 2d94 	addal #77204,%a0
    2a22:	43e8 fff8      	lea %a0@(-8),%a1
    2a26:	2468 0004      	moveal %a0@(4),%a2
    2a2a:	b5c9           	cmpal %a1,%a2
    2a2c:	6600 feaa      	bnew 28d8 <_malloc_r+0xd4>
    2a30:	6000 fed8      	braw 290a <_malloc_r+0x106>
    2a34:	2468 000c      	moveal %a0@(12),%a2
    2a38:	b5c8           	cmpal %a0,%a2
    2a3a:	6600 fe0c      	bnew 2848 <_malloc_r+0x44>
    2a3e:	5483           	addql #2,%d3
    2a40:	2479 0001 2da4 	moveal 12da4 <__malloc_av_+0x10>,%a2
    2a46:	b5fc 0001 2d9c 	cmpal #77212,%a2
    2a4c:	6600 fecc      	bnew 291a <_malloc_r+0x116>
    2a50:	2239 0001 2d98 	movel 12d98 <__malloc_av_+0x4>,%d1
    2a56:	2003           	movel %d3,%d0
    2a58:	e480           	asrl #2,%d0
    2a5a:	7801           	moveq #1,%d4
    2a5c:	e1ac           	lsll %d0,%d4
    2a5e:	b284           	cmpl %d4,%d1
    2a60:	6400 ff32      	bccw 2994 <_malloc_r+0x190>
    2a64:	2479 0001 2d9c 	moveal 12d9c <__malloc_av_+0x8>,%a2
    2a6a:	7afc           	moveq #-4,%d5
    2a6c:	caaa 0004      	andl %a2@(4),%d5
    2a70:	b485           	cmpl %d5,%d2
    2a72:	620c           	bhis 2a80 <_malloc_r+0x27c>
    2a74:	2005           	movel %d5,%d0
    2a76:	9082           	subl %d2,%d0
    2a78:	7c0f           	moveq #15,%d6
    2a7a:	bc80           	cmpl %d0,%d6
    2a7c:	6d00 00a6      	bltw 2b24 <_malloc_r+0x320>
    2a80:	280a           	movel %a2,%d4
    2a82:	d885           	addl %d5,%d4
    2a84:	2602           	movel %d2,%d3
    2a86:	d6b9 0001 364c 	addl 1364c <__malloc_top_pad>,%d3
    2a8c:	70ff           	moveq #-1,%d0
    2a8e:	b0b9 0001 2d8c 	cmpl 12d8c <__malloc_sbrk_base>,%d0
    2a94:	6700 03de      	beqw 2e74 <_malloc_r+0x670>
    2a98:	0683 0000 100f 	addil #4111,%d3
    2a9e:	0243 f000      	andiw #-4096,%d3
    2aa2:	2f03           	movel %d3,%sp@-
    2aa4:	2f0b           	movel %a3,%sp@-
    2aa6:	4df9 0000 5a9c 	lea 5a9c <_sbrk_r>,%fp
    2aac:	4e96           	jsr %fp@
    2aae:	2840           	moveal %d0,%a4
    2ab0:	508f           	addql #8,%sp
    2ab2:	7cff           	moveq #-1,%d6
    2ab4:	bc80           	cmpl %d0,%d6
    2ab6:	6700 0298      	beqw 2d50 <_malloc_r+0x54c>
    2aba:	b084           	cmpl %d4,%d0
    2abc:	6500 028a      	bcsw 2d48 <_malloc_r+0x544>
    2ac0:	4bf9 0001 361c 	lea 1361c <__malloc_current_mallinfo>,%a5
    2ac6:	2043           	moveal %d3,%a0
    2ac8:	d1d5           	addal %a5@,%a0
    2aca:	2008           	movel %a0,%d0
    2acc:	2a88           	movel %a0,%a5@
    2ace:	b9c4           	cmpal %d4,%a4
    2ad0:	6600 02e4      	bnew 2db6 <_malloc_r+0x5b2>
    2ad4:	220c           	movel %a4,%d1
    2ad6:	0281 0000 0fff 	andil #4095,%d1
    2adc:	6600 02d8      	bnew 2db6 <_malloc_r+0x5b2>
    2ae0:	2879 0001 2d9c 	moveal 12d9c <__malloc_av_+0x8>,%a4
    2ae6:	d685           	addl %d5,%d3
    2ae8:	7001           	moveq #1,%d0
    2aea:	8680           	orl %d0,%d3
    2aec:	2943 0004      	movel %d3,%a4@(4)
    2af0:	b1f9 0001 3648 	cmpal 13648 <__malloc_max_sbrked_mem>,%a0
    2af6:	6306           	blss 2afe <_malloc_r+0x2fa>
    2af8:	23c8 0001 3648 	movel %a0,13648 <__malloc_max_sbrked_mem>
    2afe:	b1f9 0001 3644 	cmpal 13644 <__malloc_max_total_mem>,%a0
    2b04:	6306           	blss 2b0c <_malloc_r+0x308>
    2b06:	23c8 0001 3644 	movel %a0,13644 <__malloc_max_total_mem>
    2b0c:	244c           	moveal %a4,%a2
    2b0e:	7cfc           	moveq #-4,%d6
    2b10:	c686           	andl %d6,%d3
    2b12:	2003           	movel %d3,%d0
    2b14:	9082           	subl %d2,%d0
    2b16:	b483           	cmpl %d3,%d2
    2b18:	6200 033c      	bhiw 2e56 <_malloc_r+0x652>
    2b1c:	720f           	moveq #15,%d1
    2b1e:	b280           	cmpl %d0,%d1
    2b20:	6c00 0334      	bgew 2e56 <_malloc_r+0x652>
    2b24:	7601           	moveq #1,%d3
    2b26:	8682           	orl %d2,%d3
    2b28:	2543 0004      	movel %d3,%a2@(4)
    2b2c:	41f2 2800      	lea %a2@(0,%d2:l),%a0
    2b30:	23c8 0001 2d9c 	movel %a0,12d9c <__malloc_av_+0x8>
    2b36:	7801           	moveq #1,%d4
    2b38:	8880           	orl %d0,%d4
    2b3a:	2144 0004      	movel %d4,%a0@(4)
    2b3e:	2f0b           	movel %a3,%sp@-
    2b40:	4eb9 0000 4e12 	jsr 4e12 <__malloc_unlock>
    2b46:	200a           	movel %a2,%d0
    2b48:	5080           	addql #8,%d0
    2b4a:	588f           	addql #4,%sp
    2b4c:	6000 fd24      	braw 2872 <_malloc_r+0x6e>
    2b50:	226a 0008      	moveal %a2@(8),%a1
    2b54:	2348 000c      	movel %a0,%a1@(12)
    2b58:	2149 0008      	movel %a1,%a0@(8)
    2b5c:	7a01           	moveq #1,%d5
    2b5e:	8bb2 1804      	orl %d5,%a2@(4,%d1:l)
    2b62:	2f0b           	movel %a3,%sp@-
    2b64:	4eb9 0000 4e12 	jsr 4e12 <__malloc_unlock>
    2b6a:	200a           	movel %a2,%d0
    2b6c:	5080           	addql #8,%d0
    2b6e:	588f           	addql #4,%sp
    2b70:	6000 fd00      	braw 2872 <_malloc_r+0x6e>
    2b74:	2800           	movel %d0,%d4
    2b76:	7a09           	moveq #9,%d5
    2b78:	eaac           	lsrl %d5,%d4
    2b7a:	7c04           	moveq #4,%d6
    2b7c:	bc84           	cmpl %d4,%d6
    2b7e:	6400 01a0      	bccw 2d20 <_malloc_r+0x51c>
    2b82:	7a14           	moveq #20,%d5
    2b84:	ba84           	cmpl %d4,%d5
    2b86:	6500 0316      	bcsw 2e9e <_malloc_r+0x69a>
    2b8a:	327c 005b      	moveaw #91,%a1
    2b8e:	d3c4           	addal %d4,%a1
    2b90:	7c5c           	moveq #92,%d6
    2b92:	d886           	addl %d6,%d4
    2b94:	e78c           	lsll #3,%d4
    2b96:	2044           	moveal %d4,%a0
    2b98:	d1fc 0001 2d94 	addal #77204,%a0
    2b9e:	49e8 fff8      	lea %a0@(-8),%a4
    2ba2:	2050           	moveal %a0@,%a0
    2ba4:	b1cc           	cmpal %a4,%a0
    2ba6:	6700 01de      	beqw 2d86 <_malloc_r+0x582>
    2baa:	78fc           	moveq #-4,%d4
    2bac:	c8a8 0004      	andl %a0@(4),%d4
    2bb0:	b084           	cmpl %d4,%d0
    2bb2:	6408           	bccs 2bbc <_malloc_r+0x3b8>
    2bb4:	2068 0008      	moveal %a0@(8),%a0
    2bb8:	b1cc           	cmpal %a4,%a0
    2bba:	66ee           	bnes 2baa <_malloc_r+0x3a6>
    2bbc:	2868 000c      	moveal %a0@(12),%a4
    2bc0:	254c 000c      	movel %a4,%a2@(12)
    2bc4:	2548 0008      	movel %a0,%a2@(8)
    2bc8:	294a 0008      	movel %a2,%a4@(8)
    2bcc:	214a 000c      	movel %a2,%a0@(12)
    2bd0:	6000 fdb4      	braw 2986 <_malloc_r+0x182>
    2bd4:	7814           	moveq #20,%d4
    2bd6:	b883           	cmpl %d3,%d4
    2bd8:	6400 0184      	bccw 2d5e <_malloc_r+0x55a>
    2bdc:	7c54           	moveq #84,%d6
    2bde:	bc83           	cmpl %d3,%d6
    2be0:	6500 02ee      	bcsw 2ed0 <_malloc_r+0x6cc>
    2be4:	2602           	movel %d2,%d3
    2be6:	700c           	moveq #12,%d0
    2be8:	e0ab           	lsrl %d0,%d3
    2bea:	387c 006e      	moveaw #110,%a4
    2bee:	d9c3           	addal %d3,%a4
    2bf0:	726f           	moveq #111,%d1
    2bf2:	d681           	addl %d1,%d3
    2bf4:	2003           	movel %d3,%d0
    2bf6:	e788           	lsll #3,%d0
    2bf8:	2040           	moveal %d0,%a0
    2bfa:	d1fc 0001 2d94 	addal #77204,%a0
    2c00:	43e8 fff8      	lea %a0@(-8),%a1
    2c04:	2468 0004      	moveal %a0@(4),%a2
    2c08:	b5c9           	cmpal %a1,%a2
    2c0a:	6600 fccc      	bnew 28d8 <_malloc_r+0xd4>
    2c0e:	6000 fcfa      	braw 290a <_malloc_r+0x106>
    2c12:	5089           	addql #8,%a1
    2c14:	5285           	addql #1,%d5
    2c16:	7003           	moveq #3,%d0
    2c18:	c085           	andl %d5,%d0
    2c1a:	6600 fd9c      	bnew 29b8 <_malloc_r+0x1b4>
    2c1e:	7003           	moveq #3,%d0
    2c20:	c083           	andl %d3,%d0
    2c22:	6700 040e      	beqw 3032 <_malloc_r+0x82e>
    2c26:	5383           	subql #1,%d3
    2c28:	518c           	subql #8,%a4
    2c2a:	b9ec 0008      	cmpal %a4@(8),%a4
    2c2e:	67ee           	beqs 2c1e <_malloc_r+0x41a>
    2c30:	2039 0001 2d98 	movel 12d98 <__malloc_av_+0x4>,%d0
    2c36:	d884           	addl %d4,%d4
    2c38:	b084           	cmpl %d4,%d0
    2c3a:	6500 fe28      	bcsw 2a64 <_malloc_r+0x260>
    2c3e:	4a84           	tstl %d4
    2c40:	6700 fe22      	beqw 2a64 <_malloc_r+0x260>
    2c44:	2204           	movel %d4,%d1
    2c46:	c280           	andl %d0,%d1
    2c48:	6600 03b0      	bnew 2ffa <_malloc_r+0x7f6>
    2c4c:	5885           	addql #4,%d5
    2c4e:	d884           	addl %d4,%d4
    2c50:	60f2           	bras 2c44 <_malloc_r+0x440>
    2c52:	43f2 2800      	lea %a2@(0,%d2:l),%a1
    2c56:	7601           	moveq #1,%d3
    2c58:	8682           	orl %d2,%d3
    2c5a:	2543 0004      	movel %d3,%a2@(4)
    2c5e:	286a 0008      	moveal %a2@(8),%a4
    2c62:	2948 000c      	movel %a0,%a4@(12)
    2c66:	214c 0008      	movel %a4,%a0@(8)
    2c6a:	23c9 0001 2da8 	movel %a1,12da8 <__malloc_av_+0x14>
    2c70:	23c9 0001 2da4 	movel %a1,12da4 <__malloc_av_+0x10>
    2c76:	237c 0001 2d9c 	movel #77212,%a1@(12)
    2c7c:	000c 
    2c7e:	237c 0001 2d9c 	movel #77212,%a1@(8)
    2c84:	0008 
    2c86:	7801           	moveq #1,%d4
    2c88:	8880           	orl %d0,%d4
    2c8a:	2344 0004      	movel %d4,%a1@(4)
    2c8e:	2580 1800      	movel %d0,%a2@(0,%d1:l)
    2c92:	2f0b           	movel %a3,%sp@-
    2c94:	4eb9 0000 4e12 	jsr 4e12 <__malloc_unlock>
    2c9a:	200a           	movel %a2,%d0
    2c9c:	5080           	addql #8,%d0
    2c9e:	588f           	addql #4,%sp
    2ca0:	6000 fbd0      	braw 2872 <_malloc_r+0x6e>
    2ca4:	7a01           	moveq #1,%d5
    2ca6:	8bb2 0804      	orl %d5,%a2@(4,%d0:l)
    2caa:	2f0b           	movel %a3,%sp@-
    2cac:	4eb9 0000 4e12 	jsr 4e12 <__malloc_unlock>
    2cb2:	200a           	movel %a2,%d0
    2cb4:	5080           	addql #8,%d0
    2cb6:	588f           	addql #4,%sp
    2cb8:	6000 fbb8      	braw 2872 <_malloc_r+0x6e>
    2cbc:	e68b           	lsrl #3,%d3
    2cbe:	2042           	moveal %d2,%a0
    2cc0:	5088           	addql #8,%a0
    2cc2:	d1fc 0001 2d94 	addal #77204,%a0
    2cc8:	2468 0004      	moveal %a0@(4),%a2
    2ccc:	2008           	movel %a0,%d0
    2cce:	5180           	subql #8,%d0
    2cd0:	b08a           	cmpl %a2,%d0
    2cd2:	6600 fb74      	bnew 2848 <_malloc_r+0x44>
    2cd6:	6000 fd5c      	braw 2a34 <_malloc_r+0x230>
    2cda:	41f2 2800      	lea %a2@(0,%d2:l),%a0
    2cde:	7601           	moveq #1,%d3
    2ce0:	8682           	orl %d2,%d3
    2ce2:	2543 0004      	movel %d3,%a2@(4)
    2ce6:	23c8 0001 2da8 	movel %a0,12da8 <__malloc_av_+0x14>
    2cec:	23c8 0001 2da4 	movel %a0,12da4 <__malloc_av_+0x10>
    2cf2:	217c 0001 2d9c 	movel #77212,%a0@(12)
    2cf8:	000c 
    2cfa:	217c 0001 2d9c 	movel #77212,%a0@(8)
    2d00:	0008 
    2d02:	7801           	moveq #1,%d4
    2d04:	8881           	orl %d1,%d4
    2d06:	2144 0004      	movel %d4,%a0@(4)
    2d0a:	2581 0800      	movel %d1,%a2@(0,%d0:l)
    2d0e:	2f0b           	movel %a3,%sp@-
    2d10:	4eb9 0000 4e12 	jsr 4e12 <__malloc_unlock>
    2d16:	200a           	movel %a2,%d0
    2d18:	5080           	addql #8,%d0
    2d1a:	588f           	addql #4,%sp
    2d1c:	6000 fb54      	braw 2872 <_malloc_r+0x6e>
    2d20:	2800           	movel %d0,%d4
    2d22:	ec8c           	lsrl #6,%d4
    2d24:	2044           	moveal %d4,%a0
    2d26:	43e8 0038      	lea %a0@(56),%a1
    2d2a:	41e8 0039      	lea %a0@(57),%a0
    2d2e:	2808           	movel %a0,%d4
    2d30:	e78c           	lsll #3,%d4
    2d32:	2044           	moveal %d4,%a0
    2d34:	d1fc 0001 2d94 	addal #77204,%a0
    2d3a:	49e8 fff8      	lea %a0@(-8),%a4
    2d3e:	2050           	moveal %a0@,%a0
    2d40:	b1cc           	cmpal %a4,%a0
    2d42:	6600 fe66      	bnew 2baa <_malloc_r+0x3a6>
    2d46:	603e           	bras 2d86 <_malloc_r+0x582>
    2d48:	b5fc 0001 2d94 	cmpal #77204,%a2
    2d4e:	675a           	beqs 2daa <_malloc_r+0x5a6>
    2d50:	2479 0001 2d9c 	moveal 12d9c <__malloc_av_+0x8>,%a2
    2d56:	262a 0004      	movel %a2@(4),%d3
    2d5a:	6000 fdb2      	braw 2b0e <_malloc_r+0x30a>
    2d5e:	387c 005b      	moveaw #91,%a4
    2d62:	d9c3           	addal %d3,%a4
    2d64:	7a5c           	moveq #92,%d5
    2d66:	d685           	addl %d5,%d3
    2d68:	2003           	movel %d3,%d0
    2d6a:	e788           	lsll #3,%d0
    2d6c:	2040           	moveal %d0,%a0
    2d6e:	d1fc 0001 2d94 	addal #77204,%a0
    2d74:	43e8 fff8      	lea %a0@(-8),%a1
    2d78:	2468 0004      	moveal %a0@(4),%a2
    2d7c:	b5c9           	cmpal %a1,%a2
    2d7e:	6600 fb58      	bnew 28d8 <_malloc_r+0xd4>
    2d82:	6000 fb86      	braw 290a <_malloc_r+0x106>
    2d86:	2009           	movel %a1,%d0
    2d88:	e480           	asrl #2,%d0
    2d8a:	7801           	moveq #1,%d4
    2d8c:	e1ac           	lsll %d0,%d4
    2d8e:	8284           	orl %d4,%d1
    2d90:	23c1 0001 2d98 	movel %d1,12d98 <__malloc_av_+0x4>
    2d96:	254c 000c      	movel %a4,%a2@(12)
    2d9a:	2548 0008      	movel %a0,%a2@(8)
    2d9e:	294a 0008      	movel %a2,%a4@(8)
    2da2:	214a 000c      	movel %a2,%a0@(12)
    2da6:	6000 fbde      	braw 2986 <_malloc_r+0x182>
    2daa:	4bf9 0001 361c 	lea 1361c <__malloc_current_mallinfo>,%a5
    2db0:	2003           	movel %d3,%d0
    2db2:	d095           	addl %a5@,%d0
    2db4:	2a80           	movel %d0,%a5@
    2db6:	72ff           	moveq #-1,%d1
    2db8:	b2b9 0001 2d8c 	cmpl 12d8c <__malloc_sbrk_base>,%d1
    2dbe:	6700 0146      	beqw 2f06 <_malloc_r+0x702>
    2dc2:	220c           	movel %a4,%d1
    2dc4:	9284           	subl %d4,%d1
    2dc6:	d280           	addl %d0,%d1
    2dc8:	2a81           	movel %d1,%a5@
    2dca:	2c0c           	movel %a4,%d6
    2dcc:	7807           	moveq #7,%d4
    2dce:	cc84           	andl %d4,%d6
    2dd0:	6700 00aa      	beqw 2e7c <_malloc_r+0x678>
    2dd4:	7008           	moveq #8,%d0
    2dd6:	9086           	subl %d6,%d0
    2dd8:	d9c0           	addal %d0,%a4
    2dda:	d68c           	addl %a4,%d3
    2ddc:	283c 0000 1008 	movel #4104,%d4
    2de2:	9886           	subl %d6,%d4
    2de4:	9883           	subl %d3,%d4
    2de6:	0284 0000 0fff 	andil #4095,%d4
    2dec:	2f04           	movel %d4,%sp@-
    2dee:	2f0b           	movel %a3,%sp@-
    2df0:	4e96           	jsr %fp@
    2df2:	508f           	addql #8,%sp
    2df4:	72ff           	moveq #-1,%d1
    2df6:	b280           	cmpl %d0,%d1
    2df8:	676c           	beqs 2e66 <_malloc_r+0x662>
    2dfa:	908c           	subl %a4,%d0
    2dfc:	2600           	movel %d0,%d3
    2dfe:	d684           	addl %d4,%d3
    2e00:	2044           	moveal %d4,%a0
    2e02:	d1d5           	addal %a5@,%a0
    2e04:	2a88           	movel %a0,%a5@
    2e06:	23cc 0001 2d9c 	movel %a4,12d9c <__malloc_av_+0x8>
    2e0c:	7001           	moveq #1,%d0
    2e0e:	8680           	orl %d0,%d3
    2e10:	2943 0004      	movel %d3,%a4@(4)
    2e14:	b5fc 0001 2d94 	cmpal #77204,%a2
    2e1a:	6700 fcd4      	beqw 2af0 <_malloc_r+0x2ec>
    2e1e:	720f           	moveq #15,%d1
    2e20:	b285           	cmpl %d5,%d1
    2e22:	642e           	bccs 2e52 <_malloc_r+0x64e>
    2e24:	72f4           	moveq #-12,%d1
    2e26:	d285           	addl %d5,%d1
    2e28:	76f8           	moveq #-8,%d3
    2e2a:	c283           	andl %d3,%d1
    2e2c:	7001           	moveq #1,%d0
    2e2e:	c0aa 0004      	andl %a2@(4),%d0
    2e32:	8081           	orl %d1,%d0
    2e34:	2540 0004      	movel %d0,%a2@(4)
    2e38:	7805           	moveq #5,%d4
    2e3a:	2584 1804      	movel %d4,%a2@(4,%d1:l)
    2e3e:	2584 1808      	movel %d4,%a2@(8,%d1:l)
    2e42:	7a0f           	moveq #15,%d5
    2e44:	ba81           	cmpl %d1,%d5
    2e46:	6500 0138      	bcsw 2f80 <_malloc_r+0x77c>
    2e4a:	262c 0004      	movel %a4@(4),%d3
    2e4e:	6000 fca0      	braw 2af0 <_malloc_r+0x2ec>
    2e52:	2940 0004      	movel %d0,%a4@(4)
    2e56:	2f0b           	movel %a3,%sp@-
    2e58:	4eb9 0000 4e12 	jsr 4e12 <__malloc_unlock>
    2e5e:	588f           	addql #4,%sp
    2e60:	7000           	moveq #0,%d0
    2e62:	6000 fba4      	braw 2a08 <_malloc_r+0x204>
    2e66:	2243           	moveal %d3,%a1
    2e68:	41f1 68f8      	lea %a1@(fffffffffffffff8,%d6:l),%a0
    2e6c:	2608           	movel %a0,%d3
    2e6e:	968c           	subl %a4,%d3
    2e70:	7800           	moveq #0,%d4
    2e72:	608c           	bras 2e00 <_malloc_r+0x5fc>
    2e74:	7210           	moveq #16,%d1
    2e76:	d681           	addl %d1,%d3
    2e78:	6000 fc28      	braw 2aa2 <_malloc_r+0x29e>
    2e7c:	280c           	movel %a4,%d4
    2e7e:	d883           	addl %d3,%d4
    2e80:	4484           	negl %d4
    2e82:	0284 0000 0fff 	andil #4095,%d4
    2e88:	2f04           	movel %d4,%sp@-
    2e8a:	2f0b           	movel %a3,%sp@-
    2e8c:	4e96           	jsr %fp@
    2e8e:	508f           	addql #8,%sp
    2e90:	7cff           	moveq #-1,%d6
    2e92:	bc80           	cmpl %d0,%d6
    2e94:	6600 ff64      	bnew 2dfa <_malloc_r+0x5f6>
    2e98:	7800           	moveq #0,%d4
    2e9a:	6000 ff64      	braw 2e00 <_malloc_r+0x5fc>
    2e9e:	7a54           	moveq #84,%d5
    2ea0:	ba84           	cmpl %d4,%d5
    2ea2:	656c           	bcss 2f10 <_malloc_r+0x70c>
    2ea4:	2c00           	movel %d0,%d6
    2ea6:	780c           	moveq #12,%d4
    2ea8:	e8ae           	lsrl %d4,%d6
    2eaa:	2046           	moveal %d6,%a0
    2eac:	43e8 006e      	lea %a0@(110),%a1
    2eb0:	41e8 006f      	lea %a0@(111),%a0
    2eb4:	2808           	movel %a0,%d4
    2eb6:	e78c           	lsll #3,%d4
    2eb8:	2044           	moveal %d4,%a0
    2eba:	d1fc 0001 2d94 	addal #77204,%a0
    2ec0:	49e8 fff8      	lea %a0@(-8),%a4
    2ec4:	2050           	moveal %a0@,%a0
    2ec6:	b1cc           	cmpal %a4,%a0
    2ec8:	6600 fce0      	bnew 2baa <_malloc_r+0x3a6>
    2ecc:	6000 feb8      	braw 2d86 <_malloc_r+0x582>
    2ed0:	0c83 0000 0154 	cmpil #340,%d3
    2ed6:	626e           	bhis 2f46 <_malloc_r+0x742>
    2ed8:	2602           	movel %d2,%d3
    2eda:	780f           	moveq #15,%d4
    2edc:	e8ab           	lsrl %d4,%d3
    2ede:	387c 0077      	moveaw #119,%a4
    2ee2:	d9c3           	addal %d3,%a4
    2ee4:	7a78           	moveq #120,%d5
    2ee6:	d685           	addl %d5,%d3
    2ee8:	2003           	movel %d3,%d0
    2eea:	e788           	lsll #3,%d0
    2eec:	2040           	moveal %d0,%a0
    2eee:	d1fc 0001 2d94 	addal #77204,%a0
    2ef4:	43e8 fff8      	lea %a0@(-8),%a1
    2ef8:	2468 0004      	moveal %a0@(4),%a2
    2efc:	b5c9           	cmpal %a1,%a2
    2efe:	6600 f9d8      	bnew 28d8 <_malloc_r+0xd4>
    2f02:	6000 fa06      	braw 290a <_malloc_r+0x106>
    2f06:	23cc 0001 2d8c 	movel %a4,12d8c <__malloc_sbrk_base>
    2f0c:	6000 febc      	braw 2dca <_malloc_r+0x5c6>
    2f10:	0c84 0000 0154 	cmpil #340,%d4
    2f16:	6200 0086      	bhiw 2f9e <_malloc_r+0x79a>
    2f1a:	2a00           	movel %d0,%d5
    2f1c:	7c0f           	moveq #15,%d6
    2f1e:	ecad           	lsrl %d6,%d5
    2f20:	2045           	moveal %d5,%a0
    2f22:	43e8 0077      	lea %a0@(119),%a1
    2f26:	41e8 0078      	lea %a0@(120),%a0
    2f2a:	2808           	movel %a0,%d4
    2f2c:	e78c           	lsll #3,%d4
    2f2e:	2044           	moveal %d4,%a0
    2f30:	d1fc 0001 2d94 	addal #77204,%a0
    2f36:	49e8 fff8      	lea %a0@(-8),%a4
    2f3a:	2050           	moveal %a0@,%a0
    2f3c:	b1cc           	cmpal %a4,%a0
    2f3e:	6600 fc6a      	bnew 2baa <_malloc_r+0x3a6>
    2f42:	6000 fe42      	braw 2d86 <_malloc_r+0x582>
    2f46:	0c83 0000 0554 	cmpil #1364,%d3
    2f4c:	6200 0086      	bhiw 2fd4 <_malloc_r+0x7d0>
    2f50:	2602           	movel %d2,%d3
    2f52:	4243           	clrw %d3
    2f54:	4843           	swap %d3
    2f56:	e44b           	lsrw #2,%d3
    2f58:	387c 007c      	moveaw #124,%a4
    2f5c:	d9c3           	addal %d3,%a4
    2f5e:	7c7d           	moveq #125,%d6
    2f60:	d686           	addl %d6,%d3
    2f62:	2003           	movel %d3,%d0
    2f64:	e788           	lsll #3,%d0
    2f66:	2040           	moveal %d0,%a0
    2f68:	d1fc 0001 2d94 	addal #77204,%a0
    2f6e:	43e8 fff8      	lea %a0@(-8),%a1
    2f72:	2468 0004      	moveal %a0@(4),%a2
    2f76:	b5c9           	cmpal %a1,%a2
    2f78:	6600 f95e      	bnew 28d8 <_malloc_r+0xd4>
    2f7c:	6000 f98c      	braw 290a <_malloc_r+0x106>
    2f80:	486a 0008      	pea %a2@(8)
    2f84:	2f0b           	movel %a3,%sp@-
    2f86:	4eb9 0000 7766 	jsr 7766 <_free_r>
    2f8c:	2055           	moveal %a5@,%a0
    2f8e:	2879 0001 2d9c 	moveal 12d9c <__malloc_av_+0x8>,%a4
    2f94:	262c 0004      	movel %a4@(4),%d3
    2f98:	508f           	addql #8,%sp
    2f9a:	6000 fb54      	braw 2af0 <_malloc_r+0x2ec>
    2f9e:	0c84 0000 0554 	cmpil #1364,%d4
    2fa4:	626a           	bhis 3010 <_malloc_r+0x80c>
    2fa6:	2800           	movel %d0,%d4
    2fa8:	4244           	clrw %d4
    2faa:	4844           	swap %d4
    2fac:	e44c           	lsrw #2,%d4
    2fae:	2044           	moveal %d4,%a0
    2fb0:	43e8 007c      	lea %a0@(124),%a1
    2fb4:	41e8 007d      	lea %a0@(125),%a0
    2fb8:	2808           	movel %a0,%d4
    2fba:	e78c           	lsll #3,%d4
    2fbc:	2044           	moveal %d4,%a0
    2fbe:	d1fc 0001 2d94 	addal #77204,%a0
    2fc4:	49e8 fff8      	lea %a0@(-8),%a4
    2fc8:	2050           	moveal %a0@,%a0
    2fca:	b1cc           	cmpal %a4,%a0
    2fcc:	6600 fbdc      	bnew 2baa <_malloc_r+0x3a6>
    2fd0:	6000 fdb4      	braw 2d86 <_malloc_r+0x582>
    2fd4:	203c 0000 03f8 	movel #1016,%d0
    2fda:	767f           	moveq #127,%d3
    2fdc:	387c 007e      	moveaw #126,%a4
    2fe0:	2040           	moveal %d0,%a0
    2fe2:	d1fc 0001 2d94 	addal #77204,%a0
    2fe8:	43e8 fff8      	lea %a0@(-8),%a1
    2fec:	2468 0004      	moveal %a0@(4),%a2
    2ff0:	b5c9           	cmpal %a1,%a2
    2ff2:	6600 f8e4      	bnew 28d8 <_malloc_r+0xd4>
    2ff6:	6000 f912      	braw 290a <_malloc_r+0x106>
    2ffa:	2605           	movel %d5,%d3
    2ffc:	2003           	movel %d3,%d0
    2ffe:	e788           	lsll #3,%d0
    3000:	2840           	moveal %d0,%a4
    3002:	d9fc 0001 2d94 	addal #77204,%a4
    3008:	224c           	moveal %a4,%a1
    300a:	2a03           	movel %d3,%d5
    300c:	6000 f9aa      	braw 29b8 <_malloc_r+0x1b4>
    3010:	283c 0000 03f8 	movel #1016,%d4
    3016:	327c 007e      	moveaw #126,%a1
    301a:	2044           	moveal %d4,%a0
    301c:	d1fc 0001 2d94 	addal #77204,%a0
    3022:	49e8 fff8      	lea %a0@(-8),%a4
    3026:	2050           	moveal %a0@,%a0
    3028:	b1cc           	cmpal %a4,%a0
    302a:	6600 fb7e      	bnew 2baa <_malloc_r+0x3a6>
    302e:	6000 fd56      	braw 2d86 <_malloc_r+0x582>
    3032:	2004           	movel %d4,%d0
    3034:	4680           	notl %d0
    3036:	c0b9 0001 2d98 	andl 12d98 <__malloc_av_+0x4>,%d0
    303c:	23c0 0001 2d98 	movel %d0,12d98 <__malloc_av_+0x4>
    3042:	6000 fbf2      	braw 2c36 <_malloc_r+0x432>
	...

00003048 <_vfprintf_r>:
    3048:	4e56 ff20      	linkw %fp,#-224
    304c:	48e7 3f3c      	moveml %d2-%d7/%a2-%a5,%sp@-
    3050:	2d6e 0008 ff30 	movel %fp@(8),%fp@(-208)
    3056:	2d6e 000c ff2c 	movel %fp@(12),%fp@(-212)
    305c:	2d6e 0010 ff28 	movel %fp@(16),%fp@(-216)
    3062:	2d6e 0014 ff38 	movel %fp@(20),%fp@(-200)
    3068:	2f2e ff30      	movel %fp@(-208),%sp@-
    306c:	4eb9 0000 5940 	jsr 5940 <_localeconv_r>
    3072:	2040           	moveal %d0,%a0
    3074:	2d50 ff50      	movel %a0@,%fp@(-176)
    3078:	2f2e ff50      	movel %fp@(-176),%sp@-
    307c:	4eb9 0000 5afc 	jsr 5afc <strlen>
    3082:	2d40 ff4c      	movel %d0,%fp@(-180)
    3086:	508f           	addql #8,%sp
    3088:	4aae ff30      	tstl %fp@(-208)
    308c:	670c           	beqs 309a <_vfprintf_r+0x52>
    308e:	226e ff30      	moveal %fp@(-208),%a1
    3092:	4aa9 0032      	tstl %a1@(50)
    3096:	6700 1198      	beqw 4230 <_vfprintf_r+0x11e8>
    309a:	206e ff2c      	moveal %fp@(-212),%a0
    309e:	2028 0064      	movel %a0@(100),%d0
    30a2:	3228 000c      	movew %a0@(12),%d1
    30a6:	0801 000d      	btst #13,%d1
    30aa:	6610           	bnes 30bc <_vfprintf_r+0x74>
    30ac:	0041 2000      	oriw #8192,%d1
    30b0:	3141 000c      	movew %d1,%a0@(12)
    30b4:	0240 dfff      	andiw #-8193,%d0
    30b8:	2140 0064      	movel %d0,%a0@(100)
    30bc:	0800 000d      	btst #13,%d0
    30c0:	6600 189c      	bnew 495e <_vfprintf_r+0x1916>
    30c4:	206e ff2c      	moveal %fp@(-212),%a0
    30c8:	3028 000c      	movew %a0@(12),%d0
    30cc:	0800 0003      	btst #3,%d0
    30d0:	6700 01de      	beqw 32b0 <_vfprintf_r+0x268>
    30d4:	4aa8 0010      	tstl %a0@(16)
    30d8:	6700 01d6      	beqw 32b0 <_vfprintf_r+0x268>
    30dc:	0240 001a      	andiw #26,%d0
    30e0:	0c40 000a      	cmpiw #10,%d0
    30e4:	6700 0490      	beqw 3576 <_vfprintf_r+0x52e>
    30e8:	43ee ffc0      	lea %fp@(-64),%a1
    30ec:	2d49 ff8c      	movel %a1,%fp@(-116)
    30f0:	42ae ff94      	clrl %fp@(-108)
    30f4:	42ae ff90      	clrl %fp@(-112)
    30f8:	42ae ff40      	clrl %fp@(-192)
    30fc:	42ae ff44      	clrl %fp@(-188)
    3100:	42ae ff48      	clrl %fp@(-184)
    3104:	2d49 ff24      	movel %a1,%fp@(-220)
    3108:	2849           	moveal %a1,%a4
    310a:	42ae ff58      	clrl %fp@(-168)
    310e:	42ae ff54      	clrl %fp@(-172)
    3112:	42ae ff34      	clrl %fp@(-204)
    3116:	2d6e ff28 ff20 	movel %fp@(-216),%fp@(-224)
    311c:	226e ff20      	moveal %fp@(-224),%a1
    3120:	1011           	moveb %a1@,%d0
    3122:	6700 0226      	beqw 334a <_vfprintf_r+0x302>
    3126:	246e ff20      	moveal %fp@(-224),%a2
    312a:	0c00 0025      	cmpib #37,%d0
    312e:	6700 01c4      	beqw 32f4 <_vfprintf_r+0x2ac>
    3132:	528a           	addql #1,%a2
    3134:	1012           	moveb %a2@,%d0
    3136:	66f2           	bnes 312a <_vfprintf_r+0xe2>
    3138:	264a           	moveal %a2,%a3
    313a:	97ee ff20      	subal %fp@(-224),%a3
    313e:	b5ee ff20      	cmpal %fp@(-224),%a2
    3142:	6700 0206      	beqw 334a <_vfprintf_r+0x302>
    3146:	28ae ff20      	movel %fp@(-224),%a4@
    314a:	294b 0004      	movel %a3,%a4@(4)
    314e:	200b           	movel %a3,%d0
    3150:	d1ae ff94      	addl %d0,%fp@(-108)
    3154:	202e ff90      	movel %fp@(-112),%d0
    3158:	5280           	addql #1,%d0
    315a:	2d40 ff90      	movel %d0,%fp@(-112)
    315e:	7207           	moveq #7,%d1
    3160:	b280           	cmpl %d0,%d1
    3162:	6d00 01be      	bltw 3322 <_vfprintf_r+0x2da>
    3166:	508c           	addql #8,%a4
    3168:	240b           	movel %a3,%d2
    316a:	d5ae ff34      	addl %d2,%fp@(-204)
    316e:	1012           	moveb %a2@,%d0
    3170:	6700 01d8      	beqw 334a <_vfprintf_r+0x302>
    3174:	528a           	addql #1,%a2
    3176:	422e ff71      	clrb %fp@(-143)
    317a:	74ff           	moveq #-1,%d2
    317c:	7600           	moveq #0,%d3
    317e:	7c00           	moveq #0,%d6
    3180:	2d4a ff28      	movel %a2,%fp@(-216)
    3184:	206e ff28      	moveal %fp@(-216),%a0
    3188:	52ae ff28      	addql #1,%fp@(-216)
    318c:	1018           	moveb %a0@+,%d0
    318e:	4880           	extw %d0
    3190:	3640           	moveaw %d0,%a3
    3192:	41eb ffe0      	lea %a3@(-32),%a0
    3196:	7058           	moveq #88,%d0
    3198:	b088           	cmpl %a0,%d0
    319a:	6500 01d2      	bcsw 336e <_vfprintf_r+0x326>
    319e:	2008           	movel %a0,%d0
    31a0:	d080           	addl %d0,%d0
    31a2:	303b 0806      	movew %pc@(31aa <_vfprintf_r+0x162>,%d0:l),%d0
    31a6:	4efb 0002      	jmp %pc@(31aa <_vfprintf_r+0x162>,%d0:w)
    31aa:	0926           	btst %d4,%fp@-
    31ac:	01c4           	bset %d0,%d4
    31ae:	01c4           	bset %d0,%d4
    31b0:	0910           	btst %d4,%a0@
    31b2:	01c4           	bset %d0,%d4
    31b4:	01c4           	bset %d0,%d4
    31b6:	01c4           	bset %d0,%d4
    31b8:	01c4           	bset %d0,%d4
    31ba:	01c4           	bset %d0,%d4
    31bc:	01c4           	bset %d0,%d4
    31be:	0864 08f8      	bchg #-8,%a4@-
    31c2:	01c4           	bset %d0,%d4
    31c4:	0874 088a 01c4 	bchg #-118,@(0)@(0)
    31ca:	08e0 00b2      	bset #-78,%a0@-
    31ce:	00b2 00b2 00b2 	oril #11665586,%a2@(ffffffffffffffb2,%d0:w)
    31d4:	00b2 
    31d6:	00b2 00b2 00b2 	oril #11665586,%a2@(ffffffffffffffb2,%d0:w)
    31dc:	00b2 
    31de:	01c4           	bset %d0,%d4
    31e0:	01c4           	bset %d0,%d4
    31e2:	01c4           	bset %d0,%d4
    31e4:	01c4           	bset %d0,%d4
    31e6:	01c4           	bset %d0,%d4
    31e8:	01c4           	bset %d0,%d4
    31ea:	01c4           	bset %d0,%d4
    31ec:	01c4           	bset %d0,%d4
    31ee:	01c4           	bset %d0,%d4
    31f0:	01c4           	bset %d0,%d4
    31f2:	07c2           	bset %d3,%d2
    31f4:	02d6           	.short 0x02d6
    31f6:	01c4           	bset %d0,%d4
    31f8:	02d6           	.short 0x02d6
    31fa:	01c4           	bset %d0,%d4
    31fc:	01c4           	bset %d0,%d4
    31fe:	01c4           	bset %d0,%d4
    3200:	01c4           	bset %d0,%d4
    3202:	097c           	.short 0x097c
    3204:	01c4           	bset %d0,%d4
    3206:	01c4           	bset %d0,%d4
    3208:	09e6           	bset %d4,%fp@-
    320a:	01c4           	bset %d0,%d4
    320c:	01c4           	bset %d0,%d4
    320e:	01c4           	bset %d0,%d4
    3210:	01c4           	bset %d0,%d4
    3212:	01c4           	bset %d0,%d4
    3214:	0992           	bclr %d4,%a2@
    3216:	01c4           	bset %d0,%d4
    3218:	01c4           	bset %d0,%d4
    321a:	10dc           	moveb %a4@+,%a0@+
    321c:	01c4           	bset %d0,%d4
    321e:	01c4           	bset %d0,%d4
    3220:	01c4           	bset %d0,%d4
    3222:	01c4           	bset %d0,%d4
    3224:	01c4           	bset %d0,%d4
    3226:	01c4           	bset %d0,%d4
    3228:	01c4           	bset %d0,%d4
    322a:	01c4           	bset %d0,%d4
    322c:	01c4           	bset %d0,%d4
    322e:	01c4           	bset %d0,%d4
    3230:	0946           	bchg %d4,%d6
    3232:	0748 02d6      	movepl %a0@(726),%d3
    3236:	02d6           	.short 0x02d6
    3238:	02d6           	.short 0x02d6
    323a:	0a02 0748      	eorib #72,%d2
    323e:	01c4           	bset %d0,%d4
    3240:	01c4           	bset %d0,%d4
    3242:	0134 01c4      	btst %d0,@(0)@(0)
    3246:	0af8           	.short 0x0af8
    3248:	0acc           	.short 0x0acc
    324a:	0aa0 0134 01c4 	eoril #20185540,%a0@-
    3250:	0a44 01c4      	eoriw #452,%d4
    3254:	0a18 01c4      	eorib #-60,%a0@+
    3258:	01c4           	bset %d0,%d4
    325a:	112c 7600      	moveb %a4@(30208),%a0@-
    325e:	41eb ffd0      	lea %a3@(-48),%a0
    3262:	2003           	movel %d3,%d0
    3264:	d083           	addl %d3,%d0
    3266:	d080           	addl %d0,%d0
    3268:	d680           	addl %d0,%d3
    326a:	d683           	addl %d3,%d3
    326c:	d688           	addl %a0,%d3
    326e:	206e ff28      	moveal %fp@(-216),%a0
    3272:	52ae ff28      	addql #1,%fp@(-216)
    3276:	1018           	moveb %a0@+,%d0
    3278:	4880           	extw %d0
    327a:	3640           	moveaw %d0,%a3
    327c:	41eb ffd0      	lea %a3@(-48),%a0
    3280:	7009           	moveq #9,%d0
    3282:	b088           	cmpl %a0,%d0
    3284:	6500 ff0c      	bcsw 3192 <_vfprintf_r+0x14a>
    3288:	2003           	movel %d3,%d0
    328a:	d083           	addl %d3,%d0
    328c:	d080           	addl %d0,%d0
    328e:	d680           	addl %d0,%d3
    3290:	d683           	addl %d3,%d3
    3292:	d688           	addl %a0,%d3
    3294:	206e ff28      	moveal %fp@(-216),%a0
    3298:	52ae ff28      	addql #1,%fp@(-216)
    329c:	1018           	moveb %a0@+,%d0
    329e:	4880           	extw %d0
    32a0:	3640           	moveaw %d0,%a3
    32a2:	41eb ffd0      	lea %a3@(-48),%a0
    32a6:	7009           	moveq #9,%d0
    32a8:	b088           	cmpl %a0,%d0
    32aa:	64b6           	bccs 3262 <_vfprintf_r+0x21a>
    32ac:	6000 fee4      	braw 3192 <_vfprintf_r+0x14a>
    32b0:	2f2e ff2c      	movel %fp@(-212),%sp@-
    32b4:	2f2e ff30      	movel %fp@(-208),%sp@-
    32b8:	4eb9 0000 5678 	jsr 5678 <__swsetup_r>
    32be:	508f           	addql #8,%sp
    32c0:	4a80           	tstl %d0
    32c2:	6600 169a      	bnew 495e <_vfprintf_r+0x1916>
    32c6:	226e ff2c      	moveal %fp@(-212),%a1
    32ca:	3029 000c      	movew %a1@(12),%d0
    32ce:	0240 001a      	andiw #26,%d0
    32d2:	0c40 000a      	cmpiw #10,%d0
    32d6:	6600 fe10      	bnew 30e8 <_vfprintf_r+0xa0>
    32da:	6000 029a      	braw 3576 <_vfprintf_r+0x52e>
    32de:	7a10           	moveq #16,%d5
    32e0:	8c85           	orl %d5,%d6
    32e2:	206e ff28      	moveal %fp@(-216),%a0
    32e6:	52ae ff28      	addql #1,%fp@(-216)
    32ea:	1018           	moveb %a0@+,%d0
    32ec:	4880           	extw %d0
    32ee:	3640           	moveaw %d0,%a3
    32f0:	6000 fea0      	braw 3192 <_vfprintf_r+0x14a>
    32f4:	264a           	moveal %a2,%a3
    32f6:	97ee ff20      	subal %fp@(-224),%a3
    32fa:	b5ee ff20      	cmpal %fp@(-224),%a2
    32fe:	6700 fe6e      	beqw 316e <_vfprintf_r+0x126>
    3302:	28ae ff20      	movel %fp@(-224),%a4@
    3306:	294b 0004      	movel %a3,%a4@(4)
    330a:	200b           	movel %a3,%d0
    330c:	d1ae ff94      	addl %d0,%fp@(-108)
    3310:	202e ff90      	movel %fp@(-112),%d0
    3314:	5280           	addql #1,%d0
    3316:	2d40 ff90      	movel %d0,%fp@(-112)
    331a:	7207           	moveq #7,%d1
    331c:	b280           	cmpl %d0,%d1
    331e:	6c00 fe46      	bgew 3166 <_vfprintf_r+0x11e>
    3322:	486e ff8c      	pea %fp@(-116)
    3326:	2f2e ff2c      	movel %fp@(-212),%sp@-
    332a:	2f2e ff30      	movel %fp@(-208),%sp@-
    332e:	4eb9 0000 4e14 	jsr 4e14 <__sprint_r>
    3334:	4fef 000c      	lea %sp@(12),%sp
    3338:	4a80           	tstl %d0
    333a:	6616           	bnes 3352 <_vfprintf_r+0x30a>
    333c:	49ee ffc0      	lea %fp@(-64),%a4
    3340:	240b           	movel %a3,%d2
    3342:	d5ae ff34      	addl %d2,%fp@(-204)
    3346:	6000 fe26      	braw 316e <_vfprintf_r+0x126>
    334a:	4aae ff94      	tstl %fp@(-108)
    334e:	6600 15b2      	bnew 4902 <_vfprintf_r+0x18ba>
    3352:	206e ff2c      	moveal %fp@(-212),%a0
    3356:	0828 0006 000d 	btst #6,%a0@(13)
    335c:	6600 1600      	bnew 495e <_vfprintf_r+0x1916>
    3360:	202e ff34      	movel %fp@(-204),%d0
    3364:	4cee 3cfc fef8 	moveml %fp@(-264),%d2-%d7/%a2-%a5
    336a:	4e5e           	unlk %fp
    336c:	4e75           	rts
    336e:	2d6e ff28 ff20 	movel %fp@(-216),%fp@(-224)
    3374:	b6fc 0000      	cmpaw #0,%a3
    3378:	67d0           	beqs 334a <_vfprintf_r+0x302>
    337a:	340b           	movew %a3,%d2
    337c:	1d42 ff98      	moveb %d2,%fp@(-104)
    3380:	422e ff71      	clrb %fp@(-143)
    3384:	7801           	moveq #1,%d4
    3386:	2d44 ff28      	movel %d4,%fp@(-216)
    338a:	7a01           	moveq #1,%d5
    338c:	7e98           	moveq #-104,%d7
    338e:	de8e           	addl %fp,%d7
    3390:	2806           	movel %d6,%d4
    3392:	7400           	moveq #0,%d2
    3394:	42ae ff3c      	clrl %fp@(-196)
    3398:	9bcd           	subal %a5,%a5
    339a:	7c7b           	moveq #123,%d6
    339c:	4606           	notb %d6
    339e:	cc84           	andl %d4,%d6
    33a0:	246e ff94      	moveal %fp@(-108),%a2
    33a4:	660e           	bnes 33b4 <_vfprintf_r+0x36c>
    33a6:	2243           	moveal %d3,%a1
    33a8:	93ee ff28      	subal %fp@(-216),%a1
    33ac:	b2fc 0000      	cmpaw #0,%a1
    33b0:	6e00 0430      	bgtw 37e2 <_vfprintf_r+0x79a>
    33b4:	4a2e ff71      	tstb %fp@(-143)
    33b8:	6726           	beqs 33e0 <_vfprintf_r+0x398>
    33ba:	41ee ff71      	lea %fp@(-143),%a0
    33be:	2888           	movel %a0,%a4@
    33c0:	7001           	moveq #1,%d0
    33c2:	2940 0004      	movel %d0,%a4@(4)
    33c6:	528a           	addql #1,%a2
    33c8:	2d4a ff94      	movel %a2,%fp@(-108)
    33cc:	202e ff90      	movel %fp@(-112),%d0
    33d0:	5280           	addql #1,%d0
    33d2:	2d40 ff90      	movel %d0,%fp@(-112)
    33d6:	7207           	moveq #7,%d1
    33d8:	b280           	cmpl %d0,%d1
    33da:	6d00 0af6      	bltw 3ed2 <_vfprintf_r+0xe8a>
    33de:	508c           	addql #8,%a4
    33e0:	bafc 0000      	cmpaw #0,%a5
    33e4:	6726           	beqs 340c <_vfprintf_r+0x3c4>
    33e6:	41ee ff72      	lea %fp@(-142),%a0
    33ea:	2888           	movel %a0,%a4@
    33ec:	7002           	moveq #2,%d0
    33ee:	2940 0004      	movel %d0,%a4@(4)
    33f2:	548a           	addql #2,%a2
    33f4:	2d4a ff94      	movel %a2,%fp@(-108)
    33f8:	202e ff90      	movel %fp@(-112),%d0
    33fc:	5280           	addql #1,%d0
    33fe:	2d40 ff90      	movel %d0,%fp@(-112)
    3402:	7207           	moveq #7,%d1
    3404:	b280           	cmpl %d0,%d1
    3406:	6d00 0a98      	bltw 3ea0 <_vfprintf_r+0xe58>
    340a:	508c           	addql #8,%a4
    340c:	0c86 0000 0080 	cmpil #128,%d6
    3412:	6700 0192      	beqw 35a6 <_vfprintf_r+0x55e>
    3416:	2a42           	moveal %d2,%a5
    3418:	9bc5           	subal %d5,%a5
    341a:	bafc 0000      	cmpaw #0,%a5
    341e:	6e00 0218      	bgtw 3638 <_vfprintf_r+0x5f0>
    3422:	0804 0008      	btst #8,%d4
    3426:	6600 0278      	bnew 36a0 <_vfprintf_r+0x658>
    342a:	2887           	movel %d7,%a4@
    342c:	2945 0004      	movel %d5,%a4@(4)
    3430:	d5c5           	addal %d5,%a2
    3432:	2d4a ff94      	movel %a2,%fp@(-108)
    3436:	202e ff90      	movel %fp@(-112),%d0
    343a:	5280           	addql #1,%d0
    343c:	2d40 ff90      	movel %d0,%fp@(-112)
    3440:	7a07           	moveq #7,%d5
    3442:	ba80           	cmpl %d0,%d5
    3444:	6d00 034c      	bltw 3792 <_vfprintf_r+0x74a>
    3448:	508c           	addql #8,%a4
    344a:	0804 0002      	btst #2,%d4
    344e:	670e           	beqs 345e <_vfprintf_r+0x416>
    3450:	2a43           	moveal %d3,%a5
    3452:	9bee ff28      	subal %fp@(-216),%a5
    3456:	bafc 0000      	cmpaw #0,%a5
    345a:	6e00 040a      	bgtw 3866 <_vfprintf_r+0x81e>
    345e:	b6ae ff28      	cmpl %fp@(-216),%d3
    3462:	6c04           	bges 3468 <_vfprintf_r+0x420>
    3464:	262e ff28      	movel %fp@(-216),%d3
    3468:	d7ae ff34      	addl %d3,%fp@(-204)
    346c:	b4fc 0000      	cmpaw #0,%a2
    3470:	6600 0348      	bnew 37ba <_vfprintf_r+0x772>
    3474:	42ae ff90      	clrl %fp@(-112)
    3478:	49ee ffc0      	lea %fp@(-64),%a4
    347c:	6000 fc9e      	braw 311c <_vfprintf_r+0xd4>
    3480:	2d6e ff28 ff20 	movel %fp@(-216),%fp@(-224)
    3486:	0806 0003      	btst #3,%d6
    348a:	6700 0d90      	beqw 421c <_vfprintf_r+0x11d4>
    348e:	246e ff38      	moveal %fp@(-200),%a2
    3492:	9ffc 0000 000c 	subal #12,%sp
    3498:	2e9a           	movel %a2@+,%sp@
    349a:	2f5a 0004      	movel %a2@+,%sp@(4)
    349e:	2f5a 0008      	movel %a2@+,%sp@(8)
    34a2:	4eb9 0001 00b4 	jsr 100b4 <__truncxfdf2>
    34a8:	4fef 000c      	lea %sp@(12),%sp
    34ac:	2040           	moveal %d0,%a0
    34ae:	2241           	moveal %d1,%a1
    34b0:	2d48 ff44      	movel %a0,%fp@(-188)
    34b4:	2d49 ff48      	movel %a1,%fp@(-184)
    34b8:	2d4a ff38      	movel %a2,%fp@(-200)
    34bc:	202e ff44      	movel %fp@(-188),%d0
    34c0:	0880 001f      	bclr #31,%d0
    34c4:	2d40 ff60      	movel %d0,%fp@(-160)
    34c8:	2d6e ff48 ff64 	movel %fp@(-184),%fp@(-156)
    34ce:	283c 7fef ffff 	movel #2146435071,%d4
    34d4:	7aff           	moveq #-1,%d5
    34d6:	45f9 0000 fb26 	lea fb26 <__unorddf2>,%a2
    34dc:	2f05           	movel %d5,%sp@-
    34de:	2f04           	movel %d4,%sp@-
    34e0:	2f2e ff64      	movel %fp@(-156),%sp@-
    34e4:	2f2e ff60      	movel %fp@(-160),%sp@-
    34e8:	4e92           	jsr %a2@
    34ea:	4fef 0010      	lea %sp@(16),%sp
    34ee:	4a80           	tstl %d0
    34f0:	6600 0ff8      	bnew 44ea <_vfprintf_r+0x14a2>
    34f4:	2f05           	movel %d5,%sp@-
    34f6:	2f04           	movel %d4,%sp@-
    34f8:	2f2e ff64      	movel %fp@(-156),%sp@-
    34fc:	2f2e ff60      	movel %fp@(-160),%sp@-
    3500:	4eb9 0000 fa2c 	jsr fa2c <__ledf2>
    3506:	4fef 0010      	lea %sp@(16),%sp
    350a:	4a80           	tstl %d0
    350c:	6f00 0fdc      	blew 44ea <_vfprintf_r+0x14a2>
    3510:	42a7           	clrl %sp@-
    3512:	42a7           	clrl %sp@-
    3514:	2f2e ff48      	movel %fp@(-184),%sp@-
    3518:	2f2e ff44      	movel %fp@(-188),%sp@-
    351c:	4eb9 0000 fa08 	jsr fa08 <__ltdf2>
    3522:	4fef 0010      	lea %sp@(16),%sp
    3526:	4a80           	tstl %d0
    3528:	6d00 11fc      	bltw 4726 <_vfprintf_r+0x16de>
    352c:	122e ff71      	moveb %fp@(-143),%d1
    3530:	3a41           	moveaw %d1,%a5
    3532:	7447           	moveq #71,%d2
    3534:	b48b           	cmpl %a3,%d2
    3536:	6d00 11d2      	bltw 470a <_vfprintf_r+0x16c2>
    353a:	2e3c 0001 08cb 	movel #67787,%d7
    3540:	7880           	moveq #-128,%d4
    3542:	4604           	notb %d4
    3544:	c886           	andl %d6,%d4
    3546:	7a03           	moveq #3,%d5
    3548:	2d45 ff28      	movel %d5,%fp@(-216)
    354c:	7400           	moveq #0,%d2
    354e:	42ae ff3c      	clrl %fp@(-196)
    3552:	320d           	movew %a5,%d1
    3554:	4a01           	tstb %d1
    3556:	6704           	beqs 355c <_vfprintf_r+0x514>
    3558:	52ae ff28      	addql #1,%fp@(-216)
    355c:	7002           	moveq #2,%d0
    355e:	c084           	andl %d4,%d0
    3560:	2a40           	moveal %d0,%a5
    3562:	0804 0001      	btst #1,%d4
    3566:	6700 fe32      	beqw 339a <_vfprintf_r+0x352>
    356a:	54ae ff28      	addql #2,%fp@(-216)
    356e:	3a7c 0002      	moveaw #2,%a5
    3572:	6000 fe26      	braw 339a <_vfprintf_r+0x352>
    3576:	206e ff2c      	moveal %fp@(-212),%a0
    357a:	4a68 000e      	tstw %a0@(14)
    357e:	6d00 fb68      	bltw 30e8 <_vfprintf_r+0xa0>
    3582:	2d6e ff38 0014 	movel %fp@(-200),%fp@(20)
    3588:	2d6e ff28 0010 	movel %fp@(-216),%fp@(16)
    358e:	2d48 000c      	movel %a0,%fp@(12)
    3592:	2d6e ff30 0008 	movel %fp@(-208),%fp@(8)
    3598:	4cee 3cfc fef8 	moveml %fp@(-264),%d2-%d7/%a2-%a5
    359e:	4e5e           	unlk %fp
    35a0:	4ef9 0000 4d6a 	jmp 4d6a <__sbprintf>
    35a6:	2a43           	moveal %d3,%a5
    35a8:	9bee ff28      	subal %fp@(-216),%a5
    35ac:	bafc 0000      	cmpaw #0,%a5
    35b0:	6f00 fe64      	blew 3416 <_vfprintf_r+0x3ce>
    35b4:	202e ff90      	movel %fp@(-112),%d0
    35b8:	7210           	moveq #16,%d1
    35ba:	b28d           	cmpl %a5,%d1
    35bc:	6c4e           	bges 360c <_vfprintf_r+0x5c4>
    35be:	7c8c           	moveq #-116,%d6
    35c0:	dc8e           	addl %fp,%d6
    35c2:	204c           	moveal %a4,%a0
    35c4:	2845           	moveal %d5,%a4
    35c6:	2a03           	movel %d3,%d5
    35c8:	224a           	moveal %a2,%a1
    35ca:	2442           	moveal %d2,%a2
    35cc:	242e ff30      	movel %fp@(-208),%d2
    35d0:	262e ff2c      	movel %fp@(-212),%d3
    35d4:	20bc 0001 09d4 	movel #68052,%a0@
    35da:	7210           	moveq #16,%d1
    35dc:	2141 0004      	movel %d1,%a0@(4)
    35e0:	43e9 0010      	lea %a1@(16),%a1
    35e4:	2d49 ff94      	movel %a1,%fp@(-108)
    35e8:	5280           	addql #1,%d0
    35ea:	2d40 ff90      	movel %d0,%fp@(-112)
    35ee:	7207           	moveq #7,%d1
    35f0:	b280           	cmpl %d0,%d1
    35f2:	6d00 077a      	bltw 3d6e <_vfprintf_r+0xd26>
    35f6:	5088           	addql #8,%a0
    35f8:	4bed fff0      	lea %a5@(-16),%a5
    35fc:	7210           	moveq #16,%d1
    35fe:	b28d           	cmpl %a5,%d1
    3600:	6dd2           	blts 35d4 <_vfprintf_r+0x58c>
    3602:	2605           	movel %d5,%d3
    3604:	240a           	movel %a2,%d2
    3606:	2a0c           	movel %a4,%d5
    3608:	2848           	moveal %a0,%a4
    360a:	2449           	moveal %a1,%a2
    360c:	28bc 0001 09d4 	movel #68052,%a4@
    3612:	294d 0004      	movel %a5,%a4@(4)
    3616:	d5cd           	addal %a5,%a2
    3618:	2d4a ff94      	movel %a2,%fp@(-108)
    361c:	5280           	addql #1,%d0
    361e:	2d40 ff90      	movel %d0,%fp@(-112)
    3622:	7207           	moveq #7,%d1
    3624:	b280           	cmpl %d0,%d1
    3626:	6d00 0fce      	bltw 45f6 <_vfprintf_r+0x15ae>
    362a:	508c           	addql #8,%a4
    362c:	2a42           	moveal %d2,%a5
    362e:	9bc5           	subal %d5,%a5
    3630:	bafc 0000      	cmpaw #0,%a5
    3634:	6f00 fdec      	blew 3422 <_vfprintf_r+0x3da>
    3638:	202e ff90      	movel %fp@(-112),%d0
    363c:	7410           	moveq #16,%d2
    363e:	b48d           	cmpl %a5,%d2
    3640:	6c36           	bges 3678 <_vfprintf_r+0x630>
    3642:	242e ff30      	movel %fp@(-208),%d2
    3646:	2c2e ff2c      	movel %fp@(-212),%d6
    364a:	28bc 0001 09d4 	movel #68052,%a4@
    3650:	7210           	moveq #16,%d1
    3652:	2941 0004      	movel %d1,%a4@(4)
    3656:	45ea 0010      	lea %a2@(16),%a2
    365a:	2d4a ff94      	movel %a2,%fp@(-108)
    365e:	5280           	addql #1,%d0
    3660:	2d40 ff90      	movel %d0,%fp@(-112)
    3664:	7207           	moveq #7,%d1
    3666:	b280           	cmpl %d0,%d1
    3668:	6d00 066e      	bltw 3cd8 <_vfprintf_r+0xc90>
    366c:	508c           	addql #8,%a4
    366e:	4bed fff0      	lea %a5@(-16),%a5
    3672:	7210           	moveq #16,%d1
    3674:	b28d           	cmpl %a5,%d1
    3676:	6dd2           	blts 364a <_vfprintf_r+0x602>
    3678:	28bc 0001 09d4 	movel #68052,%a4@
    367e:	294d 0004      	movel %a5,%a4@(4)
    3682:	d5cd           	addal %a5,%a2
    3684:	2d4a ff94      	movel %a2,%fp@(-108)
    3688:	5280           	addql #1,%d0
    368a:	2d40 ff90      	movel %d0,%fp@(-112)
    368e:	7407           	moveq #7,%d2
    3690:	b480           	cmpl %d0,%d2
    3692:	6d00 0a4e      	bltw 40e2 <_vfprintf_r+0x109a>
    3696:	508c           	addql #8,%a4
    3698:	0804 0008      	btst #8,%d4
    369c:	6700 fd8c      	beqw 342a <_vfprintf_r+0x3e2>
    36a0:	7065           	moveq #101,%d0
    36a2:	b08b           	cmpl %a3,%d0
    36a4:	6c00 06fa      	bgew 3da0 <_vfprintf_r+0xd58>
    36a8:	42a7           	clrl %sp@-
    36aa:	42a7           	clrl %sp@-
    36ac:	2f2e ff48      	movel %fp@(-184),%sp@-
    36b0:	2f2e ff44      	movel %fp@(-188),%sp@-
    36b4:	4eb9 0000 f99c 	jsr f99c <__eqdf2>
    36ba:	4fef 0010      	lea %sp@(16),%sp
    36be:	4a80           	tstl %d0
    36c0:	6600 0838      	bnew 3efa <_vfprintf_r+0xeb2>
    36c4:	28bc 0001 0904 	movel #67844,%a4@
    36ca:	7201           	moveq #1,%d1
    36cc:	2941 0004      	movel %d1,%a4@(4)
    36d0:	528a           	addql #1,%a2
    36d2:	2d4a ff94      	movel %a2,%fp@(-108)
    36d6:	202e ff90      	movel %fp@(-112),%d0
    36da:	5280           	addql #1,%d0
    36dc:	2d40 ff90      	movel %d0,%fp@(-112)
    36e0:	7407           	moveq #7,%d2
    36e2:	b480           	cmpl %d0,%d2
    36e4:	6d00 0edc      	bltw 45c2 <_vfprintf_r+0x157a>
    36e8:	508c           	addql #8,%a4
    36ea:	2a2e ff40      	movel %fp@(-192),%d5
    36ee:	baae ff74      	cmpl %fp@(-140),%d5
    36f2:	6f00 0a8a      	blew 417e <_vfprintf_r+0x1136>
    36f6:	28ae ff50      	movel %fp@(-176),%a4@
    36fa:	296e ff4c 0004 	movel %fp@(-180),%a4@(4)
    3700:	d5ee ff4c      	addal %fp@(-180),%a2
    3704:	2d4a ff94      	movel %a2,%fp@(-108)
    3708:	202e ff90      	movel %fp@(-112),%d0
    370c:	5280           	addql #1,%d0
    370e:	2d40 ff90      	movel %d0,%fp@(-112)
    3712:	7e07           	moveq #7,%d7
    3714:	be80           	cmpl %d0,%d7
    3716:	6d00 0b46      	bltw 425e <_vfprintf_r+0x1216>
    371a:	508c           	addql #8,%a4
    371c:	2a6e ff40      	moveal %fp@(-192),%a5
    3720:	538d           	subql #1,%a5
    3722:	bafc 0000      	cmpaw #0,%a5
    3726:	6f00 fd22      	blew 344a <_vfprintf_r+0x402>
    372a:	202e ff90      	movel %fp@(-112),%d0
    372e:	7210           	moveq #16,%d1
    3730:	b28d           	cmpl %a5,%d1
    3732:	6c40           	bges 3774 <_vfprintf_r+0x72c>
    3734:	748c           	moveq #-116,%d2
    3736:	d48e           	addl %fp,%d2
    3738:	47f9 0000 4e14 	lea 4e14 <__sprint_r>,%a3
    373e:	2a2e ff30      	movel %fp@(-208),%d5
    3742:	2c2e ff2c      	movel %fp@(-212),%d6
    3746:	28bc 0001 09d4 	movel #68052,%a4@
    374c:	7e10           	moveq #16,%d7
    374e:	2947 0004      	movel %d7,%a4@(4)
    3752:	45ea 0010      	lea %a2@(16),%a2
    3756:	2d4a ff94      	movel %a2,%fp@(-108)
    375a:	5280           	addql #1,%d0
    375c:	2d40 ff90      	movel %d0,%fp@(-112)
    3760:	7207           	moveq #7,%d1
    3762:	b280           	cmpl %d0,%d1
    3764:	6d00 0c76      	bltw 43dc <_vfprintf_r+0x1394>
    3768:	508c           	addql #8,%a4
    376a:	4bed fff0      	lea %a5@(-16),%a5
    376e:	7e10           	moveq #16,%d7
    3770:	be8d           	cmpl %a5,%d7
    3772:	6dd2           	blts 3746 <_vfprintf_r+0x6fe>
    3774:	28bc 0001 09d4 	movel #68052,%a4@
    377a:	294d 0004      	movel %a5,%a4@(4)
    377e:	d5cd           	addal %a5,%a2
    3780:	2d4a ff94      	movel %a2,%fp@(-108)
    3784:	5280           	addql #1,%d0
    3786:	2d40 ff90      	movel %d0,%fp@(-112)
    378a:	7207           	moveq #7,%d1
    378c:	b280           	cmpl %d0,%d1
    378e:	6c00 fcb8      	bgew 3448 <_vfprintf_r+0x400>
    3792:	486e ff8c      	pea %fp@(-116)
    3796:	2f2e ff2c      	movel %fp@(-212),%sp@-
    379a:	2f2e ff30      	movel %fp@(-208),%sp@-
    379e:	4eb9 0000 4e14 	jsr 4e14 <__sprint_r>
    37a4:	4fef 000c      	lea %sp@(12),%sp
    37a8:	4a80           	tstl %d0
    37aa:	6600 fba6      	bnew 3352 <_vfprintf_r+0x30a>
    37ae:	246e ff94      	moveal %fp@(-108),%a2
    37b2:	49ee ffc0      	lea %fp@(-64),%a4
    37b6:	6000 fc92      	braw 344a <_vfprintf_r+0x402>
    37ba:	486e ff8c      	pea %fp@(-116)
    37be:	2f2e ff2c      	movel %fp@(-212),%sp@-
    37c2:	2f2e ff30      	movel %fp@(-208),%sp@-
    37c6:	4eb9 0000 4e14 	jsr 4e14 <__sprint_r>
    37cc:	4fef 000c      	lea %sp@(12),%sp
    37d0:	4a80           	tstl %d0
    37d2:	6600 fb7e      	bnew 3352 <_vfprintf_r+0x30a>
    37d6:	42ae ff90      	clrl %fp@(-112)
    37da:	49ee ffc0      	lea %fp@(-64),%a4
    37de:	6000 f93c      	braw 311c <_vfprintf_r+0xd4>
    37e2:	202e ff90      	movel %fp@(-112),%d0
    37e6:	7210           	moveq #16,%d1
    37e8:	b289           	cmpl %a1,%d1
    37ea:	6c56           	bges 3842 <_vfprintf_r+0x7fa>
    37ec:	2d42 ff5c      	movel %d2,%fp@(-164)
    37f0:	204c           	moveal %a4,%a0
    37f2:	2845           	moveal %d5,%a4
    37f4:	2a03           	movel %d3,%d5
    37f6:	220a           	movel %a2,%d1
    37f8:	2449           	moveal %a1,%a2
    37fa:	242e ff30      	movel %fp@(-208),%d2
    37fe:	262e ff2c      	movel %fp@(-212),%d3
    3802:	2241           	moveal %d1,%a1
    3804:	20bc 0001 09e4 	movel #68068,%a0@
    380a:	7210           	moveq #16,%d1
    380c:	2141 0004      	movel %d1,%a0@(4)
    3810:	43e9 0010      	lea %a1@(16),%a1
    3814:	2d49 ff94      	movel %a1,%fp@(-108)
    3818:	5280           	addql #1,%d0
    381a:	2d40 ff90      	movel %d0,%fp@(-112)
    381e:	7207           	moveq #7,%d1
    3820:	b280           	cmpl %d0,%d1
    3822:	6d00 04e8      	bltw 3d0c <_vfprintf_r+0xcc4>
    3826:	5088           	addql #8,%a0
    3828:	45ea fff0      	lea %a2@(-16),%a2
    382c:	7210           	moveq #16,%d1
    382e:	b28a           	cmpl %a2,%d1
    3830:	6dd2           	blts 3804 <_vfprintf_r+0x7bc>
    3832:	2605           	movel %d5,%d3
    3834:	242e ff5c      	movel %fp@(-164),%d2
    3838:	2a0c           	movel %a4,%d5
    383a:	2848           	moveal %a0,%a4
    383c:	2209           	movel %a1,%d1
    383e:	224a           	moveal %a2,%a1
    3840:	2441           	moveal %d1,%a2
    3842:	28bc 0001 09e4 	movel #68068,%a4@
    3848:	2949 0004      	movel %a1,%a4@(4)
    384c:	d5c9           	addal %a1,%a2
    384e:	2d4a ff94      	movel %a2,%fp@(-108)
    3852:	5280           	addql #1,%d0
    3854:	2d40 ff90      	movel %d0,%fp@(-112)
    3858:	7207           	moveq #7,%d1
    385a:	b280           	cmpl %d0,%d1
    385c:	6d00 0c64      	bltw 44c2 <_vfprintf_r+0x147a>
    3860:	508c           	addql #8,%a4
    3862:	6000 fb50      	braw 33b4 <_vfprintf_r+0x36c>
    3866:	202e ff90      	movel %fp@(-112),%d0
    386a:	7210           	moveq #16,%d1
    386c:	b28d           	cmpl %a5,%d1
    386e:	6c40           	bges 38b0 <_vfprintf_r+0x868>
    3870:	748c           	moveq #-116,%d2
    3872:	d48e           	addl %fp,%d2
    3874:	47f9 0000 4e14 	lea 4e14 <__sprint_r>,%a3
    387a:	282e ff30      	movel %fp@(-208),%d4
    387e:	2a2e ff2c      	movel %fp@(-212),%d5
    3882:	28bc 0001 09e4 	movel #68068,%a4@
    3888:	7e10           	moveq #16,%d7
    388a:	2947 0004      	movel %d7,%a4@(4)
    388e:	45ea 0010      	lea %a2@(16),%a2
    3892:	2d4a ff94      	movel %a2,%fp@(-108)
    3896:	5280           	addql #1,%d0
    3898:	2d40 ff90      	movel %d0,%fp@(-112)
    389c:	7207           	moveq #7,%d1
    389e:	b280           	cmpl %d0,%d1
    38a0:	6d00 049e      	bltw 3d40 <_vfprintf_r+0xcf8>
    38a4:	508c           	addql #8,%a4
    38a6:	4bed fff0      	lea %a5@(-16),%a5
    38aa:	7e10           	moveq #16,%d7
    38ac:	be8d           	cmpl %a5,%d7
    38ae:	6dd2           	blts 3882 <_vfprintf_r+0x83a>
    38b0:	28bc 0001 09e4 	movel #68068,%a4@
    38b6:	294d 0004      	movel %a5,%a4@(4)
    38ba:	d5cd           	addal %a5,%a2
    38bc:	2d4a ff94      	movel %a2,%fp@(-108)
    38c0:	5280           	addql #1,%d0
    38c2:	2d40 ff90      	movel %d0,%fp@(-112)
    38c6:	7207           	moveq #7,%d1
    38c8:	b280           	cmpl %d0,%d1
    38ca:	6c00 fb92      	bgew 345e <_vfprintf_r+0x416>
    38ce:	486e ff8c      	pea %fp@(-116)
    38d2:	2f2e ff2c      	movel %fp@(-212),%sp@-
    38d6:	2f2e ff30      	movel %fp@(-208),%sp@-
    38da:	4eb9 0000 4e14 	jsr 4e14 <__sprint_r>
    38e0:	4fef 000c      	lea %sp@(12),%sp
    38e4:	4a80           	tstl %d0
    38e6:	6600 fa6a      	bnew 3352 <_vfprintf_r+0x30a>
    38ea:	246e ff94      	moveal %fp@(-108),%a2
    38ee:	6000 fb6e      	braw 345e <_vfprintf_r+0x416>
    38f2:	2d6e ff28 ff20 	movel %fp@(-216),%fp@(-224)
    38f8:	206e ff38      	moveal %fp@(-200),%a0
    38fc:	58ae ff38      	addql #4,%fp@(-200)
    3900:	2018           	movel %a0@+,%d0
    3902:	0806 0004      	btst #4,%d6
    3906:	6678           	bnes 3980 <_vfprintf_r+0x938>
    3908:	0806 0006      	btst #6,%d6
    390c:	6772           	beqs 3980 <_vfprintf_r+0x938>
    390e:	48c0           	extl %d0
    3910:	2a00           	movel %d0,%d5
    3912:	6b70           	bmis 3984 <_vfprintf_r+0x93c>
    3914:	122e ff71      	moveb %fp@(-143),%d1
    3918:	3a41           	moveaw %d1,%a5
    391a:	4a82           	tstl %d2
    391c:	6d00 00d4      	bltw 39f2 <_vfprintf_r+0x9aa>
    3920:	7880           	moveq #-128,%d4
    3922:	4604           	notb %d4
    3924:	c886           	andl %d6,%d4
    3926:	4a80           	tstl %d0
    3928:	6600 00c6      	bnew 39f0 <_vfprintf_r+0x9a8>
    392c:	7001           	moveq #1,%d0
    392e:	4a82           	tstl %d2
    3930:	6600 0226      	bnew 3b58 <_vfprintf_r+0xb10>
    3934:	4a80           	tstl %d0
    3936:	6600 072a      	bnew 4062 <_vfprintf_r+0x101a>
    393a:	7a01           	moveq #1,%d5
    393c:	ca86           	andl %d6,%d5
    393e:	0806 0000      	btst #0,%d6
    3942:	6700 08d0      	beqw 4214 <_vfprintf_r+0x11cc>
    3946:	1d7c 0030 ffbf 	moveb #48,%fp@(-65)
    394c:	7ebf           	moveq #-65,%d7
    394e:	de8e           	addl %fp,%d7
    3950:	2d42 ff28      	movel %d2,%fp@(-216)
    3954:	ba82           	cmpl %d2,%d5
    3956:	6f04           	bles 395c <_vfprintf_r+0x914>
    3958:	2d45 ff28      	movel %d5,%fp@(-216)
    395c:	42ae ff3c      	clrl %fp@(-196)
    3960:	320d           	movew %a5,%d1
    3962:	4a01           	tstb %d1
    3964:	6600 fbf2      	bnew 3558 <_vfprintf_r+0x510>
    3968:	6000 fbf2      	braw 355c <_vfprintf_r+0x514>
    396c:	2d6e ff28 ff20 	movel %fp@(-216),%fp@(-224)
    3972:	7810           	moveq #16,%d4
    3974:	8c84           	orl %d4,%d6
    3976:	206e ff38      	moveal %fp@(-200),%a0
    397a:	58ae ff38      	addql #4,%fp@(-200)
    397e:	2018           	movel %a0@+,%d0
    3980:	2a00           	movel %d0,%d5
    3982:	6a90           	bpls 3914 <_vfprintf_r+0x8cc>
    3984:	2a00           	movel %d0,%d5
    3986:	4485           	negl %d5
    3988:	3a7c 002d      	moveaw #45,%a5
    398c:	7001           	moveq #1,%d0
    398e:	380d           	movew %a5,%d4
    3990:	1d44 ff71      	moveb %d4,%fp@(-143)
    3994:	4a82           	tstl %d2
    3996:	6d0c           	blts 39a4 <_vfprintf_r+0x95c>
    3998:	7880           	moveq #-128,%d4
    399a:	4604           	notb %d4
    399c:	c886           	andl %d6,%d4
    399e:	4a85           	tstl %d5
    39a0:	678c           	beqs 392e <_vfprintf_r+0x8e6>
    39a2:	2c04           	movel %d4,%d6
    39a4:	7e01           	moveq #1,%d7
    39a6:	be80           	cmpl %d0,%d7
    39a8:	6748           	beqs 39f2 <_vfprintf_r+0x9aa>
    39aa:	5580           	subql #2,%d0
    39ac:	6700 01be      	beqw 3b6c <_vfprintf_r+0xb24>
    39b0:	7ec0           	moveq #-64,%d7
    39b2:	41f6 7800      	lea %fp@(0,%d7:l),%a0
    39b6:	2208           	movel %a0,%d1
    39b8:	1005           	moveb %d5,%d0
    39ba:	0200 0007      	andib #7,%d0
    39be:	0600 0030      	addib #48,%d0
    39c2:	1100           	moveb %d0,%a0@-
    39c4:	e68d           	lsrl #3,%d5
    39c6:	66ee           	bnes 39b6 <_vfprintf_r+0x96e>
    39c8:	2e08           	movel %a0,%d7
    39ca:	0806 0000      	btst #0,%d6
    39ce:	6700 01b4      	beqw 3b84 <_vfprintf_r+0xb3c>
    39d2:	0c00 0030      	cmpib #48,%d0
    39d6:	6700 01ac      	beqw 3b84 <_vfprintf_r+0xb3c>
    39da:	5581           	subql #2,%d1
    39dc:	117c 0030 ffff 	moveb #48,%a0@(-1)
    39e2:	2a2e ff24      	movel %fp@(-220),%d5
    39e6:	9a81           	subl %d1,%d5
    39e8:	2806           	movel %d6,%d4
    39ea:	2e01           	movel %d1,%d7
    39ec:	6000 ff62      	braw 3950 <_vfprintf_r+0x908>
    39f0:	2c04           	movel %d4,%d6
    39f2:	7009           	moveq #9,%d0
    39f4:	b085           	cmpl %d5,%d0
    39f6:	6500 07b6      	bcsw 41ae <_vfprintf_r+0x1166>
    39fa:	0605 0030      	addib #48,%d5
    39fe:	1d45 ffbf      	moveb %d5,%fp@(-65)
    3a02:	2806           	movel %d6,%d4
    3a04:	7a01           	moveq #1,%d5
    3a06:	7ebf           	moveq #-65,%d7
    3a08:	de8e           	addl %fp,%d7
    3a0a:	6000 ff44      	braw 3950 <_vfprintf_r+0x908>
    3a0e:	206e ff38      	moveal %fp@(-200),%a0
    3a12:	2618           	movel %a0@+,%d3
    3a14:	6a00 07e8      	bplw 41fe <_vfprintf_r+0x11b6>
    3a18:	4483           	negl %d3
    3a1a:	2d48 ff38      	movel %a0,%fp@(-200)
    3a1e:	7204           	moveq #4,%d1
    3a20:	8c81           	orl %d1,%d6
    3a22:	206e ff28      	moveal %fp@(-216),%a0
    3a26:	52ae ff28      	addql #1,%fp@(-216)
    3a2a:	1018           	moveb %a0@+,%d0
    3a2c:	4880           	extw %d0
    3a2e:	3640           	moveaw %d0,%a3
    3a30:	6000 f760      	braw 3192 <_vfprintf_r+0x14a>
    3a34:	206e ff28      	moveal %fp@(-216),%a0
    3a38:	52ae ff28      	addql #1,%fp@(-216)
    3a3c:	1018           	moveb %a0@+,%d0
    3a3e:	4880           	extw %d0
    3a40:	3640           	moveaw %d0,%a3
    3a42:	0c40 002a      	cmpiw #42,%d0
    3a46:	6700 07ac      	beqw 41f4 <_vfprintf_r+0x11ac>
    3a4a:	41eb ffd0      	lea %a3@(-48),%a0
    3a4e:	7400           	moveq #0,%d2
    3a50:	7009           	moveq #9,%d0
    3a52:	b088           	cmpl %a0,%d0
    3a54:	6500 f73c      	bcsw 3192 <_vfprintf_r+0x14a>
    3a58:	2002           	movel %d2,%d0
    3a5a:	d082           	addl %d2,%d0
    3a5c:	d080           	addl %d0,%d0
    3a5e:	d082           	addl %d2,%d0
    3a60:	d080           	addl %d0,%d0
    3a62:	2400           	movel %d0,%d2
    3a64:	d488           	addl %a0,%d2
    3a66:	206e ff28      	moveal %fp@(-216),%a0
    3a6a:	52ae ff28      	addql #1,%fp@(-216)
    3a6e:	1018           	moveb %a0@+,%d0
    3a70:	4880           	extw %d0
    3a72:	3640           	moveaw %d0,%a3
    3a74:	41eb ffd0      	lea %a3@(-48),%a0
    3a78:	7009           	moveq #9,%d0
    3a7a:	b088           	cmpl %a0,%d0
    3a7c:	64da           	bccs 3a58 <_vfprintf_r+0xa10>
    3a7e:	4a82           	tstl %d2
    3a80:	6c00 f710      	bgew 3192 <_vfprintf_r+0x14a>
    3a84:	74ff           	moveq #-1,%d2
    3a86:	6000 f70a      	braw 3192 <_vfprintf_r+0x14a>
    3a8a:	727f           	moveq #127,%d1
    3a8c:	4601           	notb %d1
    3a8e:	8c81           	orl %d1,%d6
    3a90:	206e ff28      	moveal %fp@(-216),%a0
    3a94:	52ae ff28      	addql #1,%fp@(-216)
    3a98:	1018           	moveb %a0@+,%d0
    3a9a:	4880           	extw %d0
    3a9c:	3640           	moveaw %d0,%a3
    3a9e:	6000 f6f2      	braw 3192 <_vfprintf_r+0x14a>
    3aa2:	1d7c 002b ff71 	moveb #43,%fp@(-143)
    3aa8:	206e ff28      	moveal %fp@(-216),%a0
    3aac:	52ae ff28      	addql #1,%fp@(-216)
    3ab0:	1018           	moveb %a0@+,%d0
    3ab2:	4880           	extw %d0
    3ab4:	3640           	moveaw %d0,%a3
    3ab6:	6000 f6da      	braw 3192 <_vfprintf_r+0x14a>
    3aba:	7001           	moveq #1,%d0
    3abc:	8c80           	orl %d0,%d6
    3abe:	206e ff28      	moveal %fp@(-216),%a0
    3ac2:	52ae ff28      	addql #1,%fp@(-216)
    3ac6:	1018           	moveb %a0@+,%d0
    3ac8:	4880           	extw %d0
    3aca:	3640           	moveaw %d0,%a3
    3acc:	6000 f6c4      	braw 3192 <_vfprintf_r+0x14a>
    3ad0:	4a2e ff71      	tstb %fp@(-143)
    3ad4:	6600 f6ae      	bnew 3184 <_vfprintf_r+0x13c>
    3ad8:	1d7c 0020 ff71 	moveb #32,%fp@(-143)
    3ade:	206e ff28      	moveal %fp@(-216),%a0
    3ae2:	52ae ff28      	addql #1,%fp@(-216)
    3ae6:	1018           	moveb %a0@+,%d0
    3ae8:	4880           	extw %d0
    3aea:	3640           	moveaw %d0,%a3
    3aec:	6000 f6a4      	braw 3192 <_vfprintf_r+0x14a>
    3af0:	2d6e ff28 ff20 	movel %fp@(-216),%fp@(-224)
    3af6:	206e ff38      	moveal %fp@(-200),%a0
    3afa:	2248           	moveal %a0,%a1
    3afc:	5888           	addql #4,%a0
    3afe:	1d69 0003 ff98 	moveb %a1@(3),%fp@(-104)
    3b04:	422e ff71      	clrb %fp@(-143)
    3b08:	2d48 ff38      	movel %a0,%fp@(-200)
    3b0c:	7201           	moveq #1,%d1
    3b0e:	2d41 ff28      	movel %d1,%fp@(-216)
    3b12:	7a01           	moveq #1,%d5
    3b14:	7e98           	moveq #-104,%d7
    3b16:	de8e           	addl %fp,%d7
    3b18:	2806           	movel %d6,%d4
    3b1a:	7400           	moveq #0,%d2
    3b1c:	42ae ff3c      	clrl %fp@(-196)
    3b20:	9bcd           	subal %a5,%a5
    3b22:	6000 f876      	braw 339a <_vfprintf_r+0x352>
    3b26:	7208           	moveq #8,%d1
    3b28:	8c81           	orl %d1,%d6
    3b2a:	206e ff28      	moveal %fp@(-216),%a0
    3b2e:	52ae ff28      	addql #1,%fp@(-216)
    3b32:	1018           	moveb %a0@+,%d0
    3b34:	4880           	extw %d0
    3b36:	3640           	moveaw %d0,%a3
    3b38:	6000 f658      	braw 3192 <_vfprintf_r+0x14a>
    3b3c:	2d6e ff28 ff20 	movel %fp@(-216),%fp@(-224)
    3b42:	7810           	moveq #16,%d4
    3b44:	8c84           	orl %d4,%d6
    3b46:	206e ff38      	moveal %fp@(-200),%a0
    3b4a:	58ae ff38      	addql #4,%fp@(-200)
    3b4e:	2a18           	movel %a0@+,%d5
    3b50:	7001           	moveq #1,%d0
    3b52:	9bcd           	subal %a5,%a5
    3b54:	6000 fe38      	braw 398e <_vfprintf_r+0x946>
    3b58:	7a01           	moveq #1,%d5
    3b5a:	ba80           	cmpl %d0,%d5
    3b5c:	6700 0efe      	beqw 4a5c <_vfprintf_r+0x1a14>
    3b60:	7e02           	moveq #2,%d7
    3b62:	2c04           	movel %d4,%d6
    3b64:	7a00           	moveq #0,%d5
    3b66:	be80           	cmpl %d0,%d7
    3b68:	6600 fe46      	bnew 39b0 <_vfprintf_r+0x968>
    3b6c:	7ec0           	moveq #-64,%d7
    3b6e:	226e ff58      	moveal %fp@(-168),%a1
    3b72:	41f6 7800      	lea %fp@(0,%d7:l),%a0
    3b76:	700f           	moveq #15,%d0
    3b78:	c085           	andl %d5,%d0
    3b7a:	1131 0800      	moveb %a1@(0,%d0:l),%a0@-
    3b7e:	e88d           	lsrl #4,%d5
    3b80:	66f4           	bnes 3b76 <_vfprintf_r+0xb2e>
    3b82:	2e08           	movel %a0,%d7
    3b84:	2a2e ff24      	movel %fp@(-220),%d5
    3b88:	9a87           	subl %d7,%d5
    3b8a:	2806           	movel %d6,%d4
    3b8c:	6000 fdc2      	braw 3950 <_vfprintf_r+0x908>
    3b90:	2d6e ff28 ff20 	movel %fp@(-216),%fp@(-224)
    3b96:	7010           	moveq #16,%d0
    3b98:	8c80           	orl %d0,%d6
    3b9a:	206e ff38      	moveal %fp@(-200),%a0
    3b9e:	58ae ff38      	addql #4,%fp@(-200)
    3ba2:	2a18           	movel %a0@+,%d5
    3ba4:	7000           	moveq #0,%d0
    3ba6:	9bcd           	subal %a5,%a5
    3ba8:	6000 fde4      	braw 398e <_vfprintf_r+0x946>
    3bac:	7840           	moveq #64,%d4
    3bae:	8c84           	orl %d4,%d6
    3bb0:	206e ff28      	moveal %fp@(-216),%a0
    3bb4:	52ae ff28      	addql #1,%fp@(-216)
    3bb8:	1018           	moveb %a0@+,%d0
    3bba:	4880           	extw %d0
    3bbc:	3640           	moveaw %d0,%a3
    3bbe:	6000 f5d2      	braw 3192 <_vfprintf_r+0x14a>
    3bc2:	2d6e ff28 ff20 	movel %fp@(-216),%fp@(-224)
    3bc8:	206e ff38      	moveal %fp@(-200),%a0
    3bcc:	58ae ff38      	addql #4,%fp@(-200)
    3bd0:	2a18           	movel %a0@+,%d5
    3bd2:	0806 0004      	btst #4,%d6
    3bd6:	6600 ff78      	bnew 3b50 <_vfprintf_r+0xb08>
    3bda:	0806 0006      	btst #6,%d6
    3bde:	6700 ff70      	beqw 3b50 <_vfprintf_r+0xb08>
    3be2:	0285 0000 ffff 	andil #65535,%d5
    3be8:	7001           	moveq #1,%d0
    3bea:	6000 ff66      	braw 3b52 <_vfprintf_r+0xb0a>
    3bee:	2d6e ff28 ff20 	movel %fp@(-216),%fp@(-224)
    3bf4:	246e ff38      	moveal %fp@(-200),%a2
    3bf8:	2e1a           	movel %a2@+,%d7
    3bfa:	422e ff71      	clrb %fp@(-143)
    3bfe:	4a87           	tstl %d7
    3c00:	6700 06e4      	beqw 42e6 <_vfprintf_r+0x129e>
    3c04:	4a82           	tstl %d2
    3c06:	6d00 0778      	bltw 4380 <_vfprintf_r+0x1338>
    3c0a:	2f02           	movel %d2,%sp@-
    3c0c:	42a7           	clrl %sp@-
    3c0e:	2f07           	movel %d7,%sp@-
    3c10:	4eb9 0000 57a0 	jsr 57a0 <memchr>
    3c16:	4fef 000c      	lea %sp@(12),%sp
    3c1a:	4a80           	tstl %d0
    3c1c:	6700 0ec6      	beqw 4ae4 <_vfprintf_r+0x1a9c>
    3c20:	2a00           	movel %d0,%d5
    3c22:	9a87           	subl %d7,%d5
    3c24:	102e ff71      	moveb %fp@(-143),%d0
    3c28:	3a40           	moveaw %d0,%a5
    3c2a:	2d45 ff28      	movel %d5,%fp@(-216)
    3c2e:	6b00 076a      	bmiw 439a <_vfprintf_r+0x1352>
    3c32:	2d4a ff38      	movel %a2,%fp@(-200)
    3c36:	2806           	movel %d6,%d4
    3c38:	7400           	moveq #0,%d2
    3c3a:	42ae ff3c      	clrl %fp@(-196)
    3c3e:	320d           	movew %a5,%d1
    3c40:	4a01           	tstb %d1
    3c42:	6600 f914      	bnew 3558 <_vfprintf_r+0x510>
    3c46:	6000 f914      	braw 355c <_vfprintf_r+0x514>
    3c4a:	2d6e ff28 ff20 	movel %fp@(-216),%fp@(-224)
    3c50:	206e ff38      	moveal %fp@(-200),%a0
    3c54:	2a18           	movel %a0@+,%d5
    3c56:	7002           	moveq #2,%d0
    3c58:	8c80           	orl %d0,%d6
    3c5a:	3d7c 3078 ff72 	movew #12408,%fp@(-142)
    3c60:	2d48 ff38      	movel %a0,%fp@(-200)
    3c64:	2d7c 0001 08ec 	movel #67820,%fp@(-168)
    3c6a:	ff58 
    3c6c:	367c 0078      	moveaw #120,%a3
    3c70:	9bcd           	subal %a5,%a5
    3c72:	6000 fd1a      	braw 398e <_vfprintf_r+0x946>
    3c76:	2d6e ff28 ff20 	movel %fp@(-216),%fp@(-224)
    3c7c:	226e ff38      	moveal %fp@(-200),%a1
    3c80:	58ae ff38      	addql #4,%fp@(-200)
    3c84:	2a19           	movel %a1@+,%d5
    3c86:	0806 0004      	btst #4,%d6
    3c8a:	6600 ff18      	bnew 3ba4 <_vfprintf_r+0xb5c>
    3c8e:	0806 0006      	btst #6,%d6
    3c92:	6700 ff10      	beqw 3ba4 <_vfprintf_r+0xb5c>
    3c96:	0285 0000 ffff 	andil #65535,%d5
    3c9c:	7000           	moveq #0,%d0
    3c9e:	6000 ff06      	braw 3ba6 <_vfprintf_r+0xb5e>
    3ca2:	2d6e ff28 ff20 	movel %fp@(-216),%fp@(-224)
    3ca8:	0806 0004      	btst #4,%d6
    3cac:	6618           	bnes 3cc6 <_vfprintf_r+0xc7e>
    3cae:	0806 0006      	btst #6,%d6
    3cb2:	6712           	beqs 3cc6 <_vfprintf_r+0xc7e>
    3cb4:	226e ff38      	moveal %fp@(-200),%a1
    3cb8:	2051           	moveal %a1@,%a0
    3cba:	30ae ff36      	movew %fp@(-202),%a0@
    3cbe:	58ae ff38      	addql #4,%fp@(-200)
    3cc2:	6000 f458      	braw 311c <_vfprintf_r+0xd4>
    3cc6:	226e ff38      	moveal %fp@(-200),%a1
    3cca:	2051           	moveal %a1@,%a0
    3ccc:	20ae ff34      	movel %fp@(-204),%a0@
    3cd0:	58ae ff38      	addql #4,%fp@(-200)
    3cd4:	6000 f446      	braw 311c <_vfprintf_r+0xd4>
    3cd8:	486e ff8c      	pea %fp@(-116)
    3cdc:	2f06           	movel %d6,%sp@-
    3cde:	2f02           	movel %d2,%sp@-
    3ce0:	4eb9 0000 4e14 	jsr 4e14 <__sprint_r>
    3ce6:	4fef 000c      	lea %sp@(12),%sp
    3cea:	4a80           	tstl %d0
    3cec:	6600 f664      	bnew 3352 <_vfprintf_r+0x30a>
    3cf0:	246e ff94      	moveal %fp@(-108),%a2
    3cf4:	202e ff90      	movel %fp@(-112),%d0
    3cf8:	49ee ffc0      	lea %fp@(-64),%a4
    3cfc:	4bed fff0      	lea %a5@(-16),%a5
    3d00:	7210           	moveq #16,%d1
    3d02:	b28d           	cmpl %a5,%d1
    3d04:	6d00 f944      	bltw 364a <_vfprintf_r+0x602>
    3d08:	6000 f96e      	braw 3678 <_vfprintf_r+0x630>
    3d0c:	486e ff8c      	pea %fp@(-116)
    3d10:	2f03           	movel %d3,%sp@-
    3d12:	2f02           	movel %d2,%sp@-
    3d14:	4eb9 0000 4e14 	jsr 4e14 <__sprint_r>
    3d1a:	4fef 000c      	lea %sp@(12),%sp
    3d1e:	4a80           	tstl %d0
    3d20:	6600 f630      	bnew 3352 <_vfprintf_r+0x30a>
    3d24:	226e ff94      	moveal %fp@(-108),%a1
    3d28:	202e ff90      	movel %fp@(-112),%d0
    3d2c:	41ee ffc0      	lea %fp@(-64),%a0
    3d30:	45ea fff0      	lea %a2@(-16),%a2
    3d34:	7210           	moveq #16,%d1
    3d36:	b28a           	cmpl %a2,%d1
    3d38:	6d00 faca      	bltw 3804 <_vfprintf_r+0x7bc>
    3d3c:	6000 faf4      	braw 3832 <_vfprintf_r+0x7ea>
    3d40:	2f02           	movel %d2,%sp@-
    3d42:	2f05           	movel %d5,%sp@-
    3d44:	2f04           	movel %d4,%sp@-
    3d46:	4e93           	jsr %a3@
    3d48:	4fef 000c      	lea %sp@(12),%sp
    3d4c:	4a80           	tstl %d0
    3d4e:	6600 f602      	bnew 3352 <_vfprintf_r+0x30a>
    3d52:	246e ff94      	moveal %fp@(-108),%a2
    3d56:	202e ff90      	movel %fp@(-112),%d0
    3d5a:	49ee ffc0      	lea %fp@(-64),%a4
    3d5e:	4bed fff0      	lea %a5@(-16),%a5
    3d62:	7e10           	moveq #16,%d7
    3d64:	be8d           	cmpl %a5,%d7
    3d66:	6d00 fb1a      	bltw 3882 <_vfprintf_r+0x83a>
    3d6a:	6000 fb44      	braw 38b0 <_vfprintf_r+0x868>
    3d6e:	2f06           	movel %d6,%sp@-
    3d70:	2f03           	movel %d3,%sp@-
    3d72:	2f02           	movel %d2,%sp@-
    3d74:	4eb9 0000 4e14 	jsr 4e14 <__sprint_r>
    3d7a:	4fef 000c      	lea %sp@(12),%sp
    3d7e:	4a80           	tstl %d0
    3d80:	6600 f5d0      	bnew 3352 <_vfprintf_r+0x30a>
    3d84:	226e ff94      	moveal %fp@(-108),%a1
    3d88:	202e ff90      	movel %fp@(-112),%d0
    3d8c:	41ee ffc0      	lea %fp@(-64),%a0
    3d90:	4bed fff0      	lea %a5@(-16),%a5
    3d94:	7210           	moveq #16,%d1
    3d96:	b28d           	cmpl %a5,%d1
    3d98:	6d00 f83a      	bltw 35d4 <_vfprintf_r+0x58c>
    3d9c:	6000 f864      	braw 3602 <_vfprintf_r+0x5ba>
    3da0:	528a           	addql #1,%a2
    3da2:	242e ff90      	movel %fp@(-112),%d2
    3da6:	5282           	addql #1,%d2
    3da8:	47ec 0008      	lea %a4@(8),%a3
    3dac:	7a01           	moveq #1,%d5
    3dae:	baae ff40      	cmpl %fp@(-192),%d5
    3db2:	6c00 00a4      	bgew 3e58 <_vfprintf_r+0xe10>
    3db6:	2887           	movel %d7,%a4@
    3db8:	7001           	moveq #1,%d0
    3dba:	2940 0004      	movel %d0,%a4@(4)
    3dbe:	2d4a ff94      	movel %a2,%fp@(-108)
    3dc2:	2d42 ff90      	movel %d2,%fp@(-112)
    3dc6:	7207           	moveq #7,%d1
    3dc8:	b282           	cmpl %d2,%d1
    3dca:	6d00 033e      	bltw 410a <_vfprintf_r+0x10c2>
    3dce:	26ae ff50      	movel %fp@(-176),%a3@
    3dd2:	276e ff4c 0004 	movel %fp@(-180),%a3@(4)
    3dd8:	d5ee ff4c      	addal %fp@(-180),%a2
    3ddc:	2d4a ff94      	movel %a2,%fp@(-108)
    3de0:	5282           	addql #1,%d2
    3de2:	2d42 ff90      	movel %d2,%fp@(-112)
    3de6:	7a07           	moveq #7,%d5
    3de8:	ba82           	cmpl %d2,%d5
    3dea:	6d00 0366      	bltw 4152 <_vfprintf_r+0x110a>
    3dee:	508b           	addql #8,%a3
    3df0:	2a6e ff40      	moveal %fp@(-192),%a5
    3df4:	538d           	subql #1,%a5
    3df6:	42a7           	clrl %sp@-
    3df8:	42a7           	clrl %sp@-
    3dfa:	2f2e ff48      	movel %fp@(-184),%sp@-
    3dfe:	2f2e ff44      	movel %fp@(-188),%sp@-
    3e02:	4eb9 0000 f9c0 	jsr f9c0 <__nedf2>
    3e08:	4fef 0010      	lea %sp@(16),%sp
    3e0c:	4a80           	tstl %d0
    3e0e:	6700 025c      	beqw 406c <_vfprintf_r+0x1024>
    3e12:	5282           	addql #1,%d2
    3e14:	5287           	addql #1,%d7
    3e16:	2687           	movel %d7,%a3@
    3e18:	274d 0004      	movel %a5,%a3@(4)
    3e1c:	d5cd           	addal %a5,%a2
    3e1e:	2d4a ff94      	movel %a2,%fp@(-108)
    3e22:	2d42 ff90      	movel %d2,%fp@(-112)
    3e26:	7e07           	moveq #7,%d7
    3e28:	be82           	cmpl %d2,%d7
    3e2a:	6d4a           	blts 3e76 <_vfprintf_r+0xe2e>
    3e2c:	508b           	addql #8,%a3
    3e2e:	41ee ff7c      	lea %fp@(-132),%a0
    3e32:	2688           	movel %a0,%a3@
    3e34:	276e ff54 0004 	movel %fp@(-172),%a3@(4)
    3e3a:	d5ee ff54      	addal %fp@(-172),%a2
    3e3e:	2d4a ff94      	movel %a2,%fp@(-108)
    3e42:	5282           	addql #1,%d2
    3e44:	2d42 ff90      	movel %d2,%fp@(-112)
    3e48:	7007           	moveq #7,%d0
    3e4a:	b082           	cmpl %d2,%d0
    3e4c:	6d00 f944      	bltw 3792 <_vfprintf_r+0x74a>
    3e50:	49eb 0008      	lea %a3@(8),%a4
    3e54:	6000 f5f4      	braw 344a <_vfprintf_r+0x402>
    3e58:	0804 0000      	btst #0,%d4
    3e5c:	6600 ff58      	bnew 3db6 <_vfprintf_r+0xd6e>
    3e60:	2887           	movel %d7,%a4@
    3e62:	7a01           	moveq #1,%d5
    3e64:	2945 0004      	movel %d5,%a4@(4)
    3e68:	2d4a ff94      	movel %a2,%fp@(-108)
    3e6c:	2d42 ff90      	movel %d2,%fp@(-112)
    3e70:	7e07           	moveq #7,%d7
    3e72:	be82           	cmpl %d2,%d7
    3e74:	6cb8           	bges 3e2e <_vfprintf_r+0xde6>
    3e76:	486e ff8c      	pea %fp@(-116)
    3e7a:	2f2e ff2c      	movel %fp@(-212),%sp@-
    3e7e:	2f2e ff30      	movel %fp@(-208),%sp@-
    3e82:	4eb9 0000 4e14 	jsr 4e14 <__sprint_r>
    3e88:	4fef 000c      	lea %sp@(12),%sp
    3e8c:	4a80           	tstl %d0
    3e8e:	6600 f4c2      	bnew 3352 <_vfprintf_r+0x30a>
    3e92:	246e ff94      	moveal %fp@(-108),%a2
    3e96:	242e ff90      	movel %fp@(-112),%d2
    3e9a:	47ee ffc0      	lea %fp@(-64),%a3
    3e9e:	608e           	bras 3e2e <_vfprintf_r+0xde6>
    3ea0:	486e ff8c      	pea %fp@(-116)
    3ea4:	2f2e ff2c      	movel %fp@(-212),%sp@-
    3ea8:	2f2e ff30      	movel %fp@(-208),%sp@-
    3eac:	4eb9 0000 4e14 	jsr 4e14 <__sprint_r>
    3eb2:	4fef 000c      	lea %sp@(12),%sp
    3eb6:	4a80           	tstl %d0
    3eb8:	6600 f498      	bnew 3352 <_vfprintf_r+0x30a>
    3ebc:	246e ff94      	moveal %fp@(-108),%a2
    3ec0:	49ee ffc0      	lea %fp@(-64),%a4
    3ec4:	0c86 0000 0080 	cmpil #128,%d6
    3eca:	6600 f54a      	bnew 3416 <_vfprintf_r+0x3ce>
    3ece:	6000 f6d6      	braw 35a6 <_vfprintf_r+0x55e>
    3ed2:	486e ff8c      	pea %fp@(-116)
    3ed6:	2f2e ff2c      	movel %fp@(-212),%sp@-
    3eda:	2f2e ff30      	movel %fp@(-208),%sp@-
    3ede:	4eb9 0000 4e14 	jsr 4e14 <__sprint_r>
    3ee4:	4fef 000c      	lea %sp@(12),%sp
    3ee8:	4a80           	tstl %d0
    3eea:	6600 f466      	bnew 3352 <_vfprintf_r+0x30a>
    3eee:	246e ff94      	moveal %fp@(-108),%a2
    3ef2:	49ee ffc0      	lea %fp@(-64),%a4
    3ef6:	6000 f4e8      	braw 33e0 <_vfprintf_r+0x398>
    3efa:	222e ff74      	movel %fp@(-140),%d1
    3efe:	6f00 0540      	blew 4440 <_vfprintf_r+0x13f8>
    3f02:	242e ff40      	movel %fp@(-192),%d2
    3f06:	b4ae ff3c      	cmpl %fp@(-196),%d2
    3f0a:	6e00 0332      	bgtw 423e <_vfprintf_r+0x11f6>
    3f0e:	4a82           	tstl %d2
    3f10:	6f20           	bles 3f32 <_vfprintf_r+0xeea>
    3f12:	2887           	movel %d7,%a4@
    3f14:	2942 0004      	movel %d2,%a4@(4)
    3f18:	d5c2           	addal %d2,%a2
    3f1a:	2d4a ff94      	movel %a2,%fp@(-108)
    3f1e:	202e ff90      	movel %fp@(-112),%d0
    3f22:	5280           	addql #1,%d0
    3f24:	2d40 ff90      	movel %d0,%fp@(-112)
    3f28:	7207           	moveq #7,%d1
    3f2a:	b280           	cmpl %d0,%d1
    3f2c:	6d00 0b46      	bltw 4a74 <_vfprintf_r+0x1a2c>
    3f30:	508c           	addql #8,%a4
    3f32:	4a82           	tstl %d2
    3f34:	6d00 0314      	bltw 424a <_vfprintf_r+0x1202>
    3f38:	2a6e ff3c      	moveal %fp@(-196),%a5
    3f3c:	9bc2           	subal %d2,%a5
    3f3e:	bafc 0000      	cmpaw #0,%a5
    3f42:	6e00 03c8      	bgtw 430c <_vfprintf_r+0x12c4>
    3f46:	222e ff74      	movel %fp@(-140),%d1
    3f4a:	b2ae ff40      	cmpl %fp@(-192),%d1
    3f4e:	6d06           	blts 3f56 <_vfprintf_r+0xf0e>
    3f50:	0804 0000      	btst #0,%d4
    3f54:	6726           	beqs 3f7c <_vfprintf_r+0xf34>
    3f56:	28ae ff50      	movel %fp@(-176),%a4@
    3f5a:	296e ff4c 0004 	movel %fp@(-180),%a4@(4)
    3f60:	d5ee ff4c      	addal %fp@(-180),%a2
    3f64:	2d4a ff94      	movel %a2,%fp@(-108)
    3f68:	202e ff90      	movel %fp@(-112),%d0
    3f6c:	5280           	addql #1,%d0
    3f6e:	2d40 ff90      	movel %d0,%fp@(-112)
    3f72:	7a07           	moveq #7,%d5
    3f74:	ba80           	cmpl %d0,%d5
    3f76:	6d00 0ab8      	bltw 4a30 <_vfprintf_r+0x19e8>
    3f7a:	508c           	addql #8,%a4
    3f7c:	202e ff40      	movel %fp@(-192),%d0
    3f80:	9081           	subl %d1,%d0
    3f82:	242e ff40      	movel %fp@(-192),%d2
    3f86:	94ae ff3c      	subl %fp@(-196),%d2
    3f8a:	b082           	cmpl %d2,%d0
    3f8c:	6c02           	bges 3f90 <_vfprintf_r+0xf48>
    3f8e:	2400           	movel %d0,%d2
    3f90:	4a82           	tstl %d2
    3f92:	6f24           	bles 3fb8 <_vfprintf_r+0xf70>
    3f94:	deae ff3c      	addl %fp@(-196),%d7
    3f98:	2887           	movel %d7,%a4@
    3f9a:	2942 0004      	movel %d2,%a4@(4)
    3f9e:	d5c2           	addal %d2,%a2
    3fa0:	2d4a ff94      	movel %a2,%fp@(-108)
    3fa4:	222e ff90      	movel %fp@(-112),%d1
    3fa8:	5281           	addql #1,%d1
    3faa:	2d41 ff90      	movel %d1,%fp@(-112)
    3fae:	7e07           	moveq #7,%d7
    3fb0:	be81           	cmpl %d1,%d7
    3fb2:	6d00 0aee      	bltw 4aa2 <_vfprintf_r+0x1a5a>
    3fb6:	508c           	addql #8,%a4
    3fb8:	4a82           	tstl %d2
    3fba:	6d00 03be      	bltw 437a <_vfprintf_r+0x1332>
    3fbe:	2a40           	moveal %d0,%a5
    3fc0:	9bc2           	subal %d2,%a5
    3fc2:	bafc 0000      	cmpaw #0,%a5
    3fc6:	6f00 f482      	blew 344a <_vfprintf_r+0x402>
    3fca:	202e ff90      	movel %fp@(-112),%d0
    3fce:	7210           	moveq #16,%d1
    3fd0:	b28d           	cmpl %a5,%d1
    3fd2:	6c00 f7a0      	bgew 3774 <_vfprintf_r+0x72c>
    3fd6:	748c           	moveq #-116,%d2
    3fd8:	d48e           	addl %fp,%d2
    3fda:	47f9 0000 4e14 	lea 4e14 <__sprint_r>,%a3
    3fe0:	2a2e ff30      	movel %fp@(-208),%d5
    3fe4:	2c2e ff2c      	movel %fp@(-212),%d6
    3fe8:	28bc 0001 09d4 	movel #68052,%a4@
    3fee:	7e10           	moveq #16,%d7
    3ff0:	2947 0004      	movel %d7,%a4@(4)
    3ff4:	45ea 0010      	lea %a2@(16),%a2
    3ff8:	2d4a ff94      	movel %a2,%fp@(-108)
    3ffc:	5280           	addql #1,%d0
    3ffe:	2d40 ff90      	movel %d0,%fp@(-112)
    4002:	7207           	moveq #7,%d1
    4004:	b280           	cmpl %d0,%d1
    4006:	6d2e           	blts 4036 <_vfprintf_r+0xfee>
    4008:	508c           	addql #8,%a4
    400a:	4bed fff0      	lea %a5@(-16),%a5
    400e:	7e10           	moveq #16,%d7
    4010:	be8d           	cmpl %a5,%d7
    4012:	6c00 f760      	bgew 3774 <_vfprintf_r+0x72c>
    4016:	28bc 0001 09d4 	movel #68052,%a4@
    401c:	7e10           	moveq #16,%d7
    401e:	2947 0004      	movel %d7,%a4@(4)
    4022:	45ea 0010      	lea %a2@(16),%a2
    4026:	2d4a ff94      	movel %a2,%fp@(-108)
    402a:	5280           	addql #1,%d0
    402c:	2d40 ff90      	movel %d0,%fp@(-112)
    4030:	7207           	moveq #7,%d1
    4032:	b280           	cmpl %d0,%d1
    4034:	6cd2           	bges 4008 <_vfprintf_r+0xfc0>
    4036:	2f02           	movel %d2,%sp@-
    4038:	2f06           	movel %d6,%sp@-
    403a:	2f05           	movel %d5,%sp@-
    403c:	4e93           	jsr %a3@
    403e:	4fef 000c      	lea %sp@(12),%sp
    4042:	4a80           	tstl %d0
    4044:	6600 f30c      	bnew 3352 <_vfprintf_r+0x30a>
    4048:	246e ff94      	moveal %fp@(-108),%a2
    404c:	202e ff90      	movel %fp@(-112),%d0
    4050:	49ee ffc0      	lea %fp@(-64),%a4
    4054:	4bed fff0      	lea %a5@(-16),%a5
    4058:	7e10           	moveq #16,%d7
    405a:	be8d           	cmpl %a5,%d7
    405c:	6db8           	blts 4016 <_vfprintf_r+0xfce>
    405e:	6000 f714      	braw 3774 <_vfprintf_r+0x72c>
    4062:	7a00           	moveq #0,%d5
    4064:	7ec0           	moveq #-64,%d7
    4066:	de8e           	addl %fp,%d7
    4068:	6000 f8e6      	braw 3950 <_vfprintf_r+0x908>
    406c:	7001           	moveq #1,%d0
    406e:	b0ae ff40      	cmpl %fp@(-192),%d0
    4072:	6c00 fdba      	bgew 3e2e <_vfprintf_r+0xde6>
    4076:	7211           	moveq #17,%d1
    4078:	b2ae ff40      	cmpl %fp@(-192),%d1
    407c:	6c40           	bges 40be <_vfprintf_r+0x1076>
    407e:	7a8c           	moveq #-116,%d5
    4080:	da8e           	addl %fp,%d5
    4082:	49f9 0000 4e14 	lea 4e14 <__sprint_r>,%a4
    4088:	2c2e ff30      	movel %fp@(-208),%d6
    408c:	2e2e ff2c      	movel %fp@(-212),%d7
    4090:	26bc 0001 09d4 	movel #68052,%a3@
    4096:	7010           	moveq #16,%d0
    4098:	2740 0004      	movel %d0,%a3@(4)
    409c:	45ea 0010      	lea %a2@(16),%a2
    40a0:	2d4a ff94      	movel %a2,%fp@(-108)
    40a4:	5282           	addql #1,%d2
    40a6:	2d42 ff90      	movel %d2,%fp@(-112)
    40aa:	7207           	moveq #7,%d1
    40ac:	b282           	cmpl %d2,%d1
    40ae:	6d00 02fe      	bltw 43ae <_vfprintf_r+0x1366>
    40b2:	508b           	addql #8,%a3
    40b4:	4bed fff0      	lea %a5@(-16),%a5
    40b8:	7010           	moveq #16,%d0
    40ba:	b08d           	cmpl %a5,%d0
    40bc:	6dd2           	blts 4090 <_vfprintf_r+0x1048>
    40be:	26bc 0001 09d4 	movel #68052,%a3@
    40c4:	274d 0004      	movel %a5,%a3@(4)
    40c8:	d5cd           	addal %a5,%a2
    40ca:	2d4a ff94      	movel %a2,%fp@(-108)
    40ce:	5282           	addql #1,%d2
    40d0:	2d42 ff90      	movel %d2,%fp@(-112)
    40d4:	7207           	moveq #7,%d1
    40d6:	b282           	cmpl %d2,%d1
    40d8:	6d00 fd9c      	bltw 3e76 <_vfprintf_r+0xe2e>
    40dc:	508b           	addql #8,%a3
    40de:	6000 fd4e      	braw 3e2e <_vfprintf_r+0xde6>
    40e2:	486e ff8c      	pea %fp@(-116)
    40e6:	2f2e ff2c      	movel %fp@(-212),%sp@-
    40ea:	2f2e ff30      	movel %fp@(-208),%sp@-
    40ee:	4eb9 0000 4e14 	jsr 4e14 <__sprint_r>
    40f4:	4fef 000c      	lea %sp@(12),%sp
    40f8:	4a80           	tstl %d0
    40fa:	6600 f256      	bnew 3352 <_vfprintf_r+0x30a>
    40fe:	246e ff94      	moveal %fp@(-108),%a2
    4102:	49ee ffc0      	lea %fp@(-64),%a4
    4106:	6000 f31a      	braw 3422 <_vfprintf_r+0x3da>
    410a:	486e ff8c      	pea %fp@(-116)
    410e:	2f2e ff2c      	movel %fp@(-212),%sp@-
    4112:	2f2e ff30      	movel %fp@(-208),%sp@-
    4116:	4eb9 0000 4e14 	jsr 4e14 <__sprint_r>
    411c:	4fef 000c      	lea %sp@(12),%sp
    4120:	4a80           	tstl %d0
    4122:	6600 f22e      	bnew 3352 <_vfprintf_r+0x30a>
    4126:	246e ff94      	moveal %fp@(-108),%a2
    412a:	242e ff90      	movel %fp@(-112),%d2
    412e:	47ee ffc0      	lea %fp@(-64),%a3
    4132:	26ae ff50      	movel %fp@(-176),%a3@
    4136:	276e ff4c 0004 	movel %fp@(-180),%a3@(4)
    413c:	d5ee ff4c      	addal %fp@(-180),%a2
    4140:	2d4a ff94      	movel %a2,%fp@(-108)
    4144:	5282           	addql #1,%d2
    4146:	2d42 ff90      	movel %d2,%fp@(-112)
    414a:	7a07           	moveq #7,%d5
    414c:	ba82           	cmpl %d2,%d5
    414e:	6c00 fc9e      	bgew 3dee <_vfprintf_r+0xda6>
    4152:	486e ff8c      	pea %fp@(-116)
    4156:	2f2e ff2c      	movel %fp@(-212),%sp@-
    415a:	2f2e ff30      	movel %fp@(-208),%sp@-
    415e:	4eb9 0000 4e14 	jsr 4e14 <__sprint_r>
    4164:	4fef 000c      	lea %sp@(12),%sp
    4168:	4a80           	tstl %d0
    416a:	6600 f1e6      	bnew 3352 <_vfprintf_r+0x30a>
    416e:	246e ff94      	moveal %fp@(-108),%a2
    4172:	242e ff90      	movel %fp@(-112),%d2
    4176:	47ee ffc0      	lea %fp@(-64),%a3
    417a:	6000 fc74      	braw 3df0 <_vfprintf_r+0xda8>
    417e:	0804 0000      	btst #0,%d4
    4182:	6700 f2c6      	beqw 344a <_vfprintf_r+0x402>
    4186:	28ae ff50      	movel %fp@(-176),%a4@
    418a:	296e ff4c 0004 	movel %fp@(-180),%a4@(4)
    4190:	d5ee ff4c      	addal %fp@(-180),%a2
    4194:	2d4a ff94      	movel %a2,%fp@(-108)
    4198:	202e ff90      	movel %fp@(-112),%d0
    419c:	5280           	addql #1,%d0
    419e:	2d40 ff90      	movel %d0,%fp@(-112)
    41a2:	7e07           	moveq #7,%d7
    41a4:	be80           	cmpl %d0,%d7
    41a6:	6c00 f572      	bgew 371a <_vfprintf_r+0x6d2>
    41aa:	6000 00b2      	braw 425e <_vfprintf_r+0x1216>
    41ae:	7ec0           	moveq #-64,%d7
    41b0:	45f9 0000 ee74 	lea ee74 <__udivsi3>,%a2
    41b6:	280b           	movel %a3,%d4
    41b8:	47f6 7800      	lea %fp@(0,%d7:l),%a3
    41bc:	4878 000a      	pea a <DUART_IMR>
    41c0:	2f05           	movel %d5,%sp@-
    41c2:	4eb9 0000 ef00 	jsr ef00 <__umodsi3>
    41c8:	508f           	addql #8,%sp
    41ca:	0600 0030      	addib #48,%d0
    41ce:	1700           	moveb %d0,%a3@-
    41d0:	2e05           	movel %d5,%d7
    41d2:	4878 000a      	pea a <DUART_IMR>
    41d6:	2f05           	movel %d5,%sp@-
    41d8:	4e92           	jsr %a2@
    41da:	508f           	addql #8,%sp
    41dc:	2a00           	movel %d0,%d5
    41de:	7209           	moveq #9,%d1
    41e0:	b287           	cmpl %d7,%d1
    41e2:	65d8           	bcss 41bc <_vfprintf_r+0x1174>
    41e4:	2e0b           	movel %a3,%d7
    41e6:	2644           	moveal %d4,%a3
    41e8:	2a2e ff24      	movel %fp@(-220),%d5
    41ec:	9a87           	subl %d7,%d5
    41ee:	2806           	movel %d6,%d4
    41f0:	6000 f75e      	braw 3950 <_vfprintf_r+0x908>
    41f4:	206e ff38      	moveal %fp@(-200),%a0
    41f8:	2418           	movel %a0@+,%d2
    41fa:	6a02           	bpls 41fe <_vfprintf_r+0x11b6>
    41fc:	74ff           	moveq #-1,%d2
    41fe:	2d48 ff38      	movel %a0,%fp@(-200)
    4202:	206e ff28      	moveal %fp@(-216),%a0
    4206:	52ae ff28      	addql #1,%fp@(-216)
    420a:	1018           	moveb %a0@+,%d0
    420c:	4880           	extw %d0
    420e:	3640           	moveaw %d0,%a3
    4210:	6000 ef80      	braw 3192 <_vfprintf_r+0x14a>
    4214:	7ec0           	moveq #-64,%d7
    4216:	de8e           	addl %fp,%d7
    4218:	6000 f736      	braw 3950 <_vfprintf_r+0x908>
    421c:	206e ff38      	moveal %fp@(-200),%a0
    4220:	2d58 ff44      	movel %a0@+,%fp@(-188)
    4224:	2d58 ff48      	movel %a0@+,%fp@(-184)
    4228:	2d48 ff38      	movel %a0,%fp@(-200)
    422c:	6000 f28e      	braw 34bc <_vfprintf_r+0x474>
    4230:	2f09           	movel %a1,%sp@-
    4232:	4eb9 0000 2588 	jsr 2588 <__sinit>
    4238:	588f           	addql #4,%sp
    423a:	6000 ee5e      	braw 309a <_vfprintf_r+0x52>
    423e:	242e ff3c      	movel %fp@(-196),%d2
    4242:	6e00 fcce      	bgtw 3f12 <_vfprintf_r+0xeca>
    4246:	6000 fcea      	braw 3f32 <_vfprintf_r+0xeea>
    424a:	7400           	moveq #0,%d2
    424c:	2a6e ff3c      	moveal %fp@(-196),%a5
    4250:	9bc2           	subal %d2,%a5
    4252:	bafc 0000      	cmpaw #0,%a5
    4256:	6f00 fcee      	blew 3f46 <_vfprintf_r+0xefe>
    425a:	6000 00b0      	braw 430c <_vfprintf_r+0x12c4>
    425e:	486e ff8c      	pea %fp@(-116)
    4262:	2f2e ff2c      	movel %fp@(-212),%sp@-
    4266:	2f2e ff30      	movel %fp@(-208),%sp@-
    426a:	4eb9 0000 4e14 	jsr 4e14 <__sprint_r>
    4270:	4fef 000c      	lea %sp@(12),%sp
    4274:	4a80           	tstl %d0
    4276:	6600 f0da      	bnew 3352 <_vfprintf_r+0x30a>
    427a:	246e ff94      	moveal %fp@(-108),%a2
    427e:	49ee ffc0      	lea %fp@(-64),%a4
    4282:	6000 f498      	braw 371c <_vfprintf_r+0x6d4>
    4286:	2d6e ff28 ff20 	movel %fp@(-216),%fp@(-224)
    428c:	2d7c 0001 08db 	movel #67803,%fp@(-168)
    4292:	ff58 
    4294:	226e ff38      	moveal %fp@(-200),%a1
    4298:	58ae ff38      	addql #4,%fp@(-200)
    429c:	2a19           	movel %a1@+,%d5
    429e:	0806 0004      	btst #4,%d6
    42a2:	660c           	bnes 42b0 <_vfprintf_r+0x1268>
    42a4:	0806 0006      	btst #6,%d6
    42a8:	6706           	beqs 42b0 <_vfprintf_r+0x1268>
    42aa:	0285 0000 ffff 	andil #65535,%d5
    42b0:	0806 0000      	btst #0,%d6
    42b4:	6700 0154      	beqw 440a <_vfprintf_r+0x13c2>
    42b8:	4a85           	tstl %d5
    42ba:	6700 014e      	beqw 440a <_vfprintf_r+0x13c2>
    42be:	1d7c 0030 ff72 	moveb #48,%fp@(-142)
    42c4:	300b           	movew %a3,%d0
    42c6:	1d40 ff73      	moveb %d0,%fp@(-141)
    42ca:	7202           	moveq #2,%d1
    42cc:	8c81           	orl %d1,%d6
    42ce:	7002           	moveq #2,%d0
    42d0:	9bcd           	subal %a5,%a5
    42d2:	6000 f6ba      	braw 398e <_vfprintf_r+0x946>
    42d6:	2d6e ff28 ff20 	movel %fp@(-216),%fp@(-224)
    42dc:	2d7c 0001 08ec 	movel #67820,%fp@(-168)
    42e2:	ff58 
    42e4:	60ae           	bras 4294 <_vfprintf_r+0x124c>
    42e6:	2a02           	movel %d2,%d5
    42e8:	7206           	moveq #6,%d1
    42ea:	b282           	cmpl %d2,%d1
    42ec:	6500 0472      	bcsw 4760 <_vfprintf_r+0x1718>
    42f0:	2d45 ff28      	movel %d5,%fp@(-216)
    42f4:	2d4a ff38      	movel %a2,%fp@(-200)
    42f8:	2e3c 0001 08fd 	movel #67837,%d7
    42fe:	2806           	movel %d6,%d4
    4300:	7400           	moveq #0,%d2
    4302:	42ae ff3c      	clrl %fp@(-196)
    4306:	9bcd           	subal %a5,%a5
    4308:	6000 f090      	braw 339a <_vfprintf_r+0x352>
    430c:	202e ff90      	movel %fp@(-112),%d0
    4310:	7410           	moveq #16,%d2
    4312:	b48d           	cmpl %a5,%d2
    4314:	6c40           	bges 4356 <_vfprintf_r+0x130e>
    4316:	748c           	moveq #-116,%d2
    4318:	d48e           	addl %fp,%d2
    431a:	47f9 0000 4e14 	lea 4e14 <__sprint_r>,%a3
    4320:	2a2e ff30      	movel %fp@(-208),%d5
    4324:	2c2e ff2c      	movel %fp@(-212),%d6
    4328:	28bc 0001 09d4 	movel #68052,%a4@
    432e:	7210           	moveq #16,%d1
    4330:	2941 0004      	movel %d1,%a4@(4)
    4334:	45ea 0010      	lea %a2@(16),%a2
    4338:	2d4a ff94      	movel %a2,%fp@(-108)
    433c:	5280           	addql #1,%d0
    433e:	2d40 ff90      	movel %d0,%fp@(-112)
    4342:	7207           	moveq #7,%d1
    4344:	b280           	cmpl %d0,%d1
    4346:	6d00 00ca      	bltw 4412 <_vfprintf_r+0x13ca>
    434a:	508c           	addql #8,%a4
    434c:	4bed fff0      	lea %a5@(-16),%a5
    4350:	7210           	moveq #16,%d1
    4352:	b28d           	cmpl %a5,%d1
    4354:	6dd2           	blts 4328 <_vfprintf_r+0x12e0>
    4356:	28bc 0001 09d4 	movel #68052,%a4@
    435c:	294d 0004      	movel %a5,%a4@(4)
    4360:	d5cd           	addal %a5,%a2
    4362:	2d4a ff94      	movel %a2,%fp@(-108)
    4366:	5280           	addql #1,%d0
    4368:	2d40 ff90      	movel %d0,%fp@(-112)
    436c:	7407           	moveq #7,%d2
    436e:	b480           	cmpl %d0,%d2
    4370:	6d00 0600      	bltw 4972 <_vfprintf_r+0x192a>
    4374:	508c           	addql #8,%a4
    4376:	6000 fbce      	braw 3f46 <_vfprintf_r+0xefe>
    437a:	7400           	moveq #0,%d2
    437c:	6000 fc40      	braw 3fbe <_vfprintf_r+0xf76>
    4380:	2f07           	movel %d7,%sp@-
    4382:	4eb9 0000 5afc 	jsr 5afc <strlen>
    4388:	2a00           	movel %d0,%d5
    438a:	122e ff71      	moveb %fp@(-143),%d1
    438e:	3a41           	moveaw %d1,%a5
    4390:	2d40 ff28      	movel %d0,%fp@(-216)
    4394:	588f           	addql #4,%sp
    4396:	6a00 f89a      	bplw 3c32 <_vfprintf_r+0xbea>
    439a:	42ae ff28      	clrl %fp@(-216)
    439e:	2d4a ff38      	movel %a2,%fp@(-200)
    43a2:	2806           	movel %d6,%d4
    43a4:	7400           	moveq #0,%d2
    43a6:	42ae ff3c      	clrl %fp@(-196)
    43aa:	6000 f892      	braw 3c3e <_vfprintf_r+0xbf6>
    43ae:	2f05           	movel %d5,%sp@-
    43b0:	2f07           	movel %d7,%sp@-
    43b2:	2f06           	movel %d6,%sp@-
    43b4:	4e94           	jsr %a4@
    43b6:	4fef 000c      	lea %sp@(12),%sp
    43ba:	4a80           	tstl %d0
    43bc:	6600 ef94      	bnew 3352 <_vfprintf_r+0x30a>
    43c0:	246e ff94      	moveal %fp@(-108),%a2
    43c4:	242e ff90      	movel %fp@(-112),%d2
    43c8:	47ee ffc0      	lea %fp@(-64),%a3
    43cc:	4bed fff0      	lea %a5@(-16),%a5
    43d0:	7010           	moveq #16,%d0
    43d2:	b08d           	cmpl %a5,%d0
    43d4:	6d00 fcba      	bltw 4090 <_vfprintf_r+0x1048>
    43d8:	6000 fce4      	braw 40be <_vfprintf_r+0x1076>
    43dc:	2f02           	movel %d2,%sp@-
    43de:	2f06           	movel %d6,%sp@-
    43e0:	2f05           	movel %d5,%sp@-
    43e2:	4e93           	jsr %a3@
    43e4:	4fef 000c      	lea %sp@(12),%sp
    43e8:	4a80           	tstl %d0
    43ea:	6600 ef66      	bnew 3352 <_vfprintf_r+0x30a>
    43ee:	246e ff94      	moveal %fp@(-108),%a2
    43f2:	202e ff90      	movel %fp@(-112),%d0
    43f6:	49ee ffc0      	lea %fp@(-64),%a4
    43fa:	4bed fff0      	lea %a5@(-16),%a5
    43fe:	7e10           	moveq #16,%d7
    4400:	be8d           	cmpl %a5,%d7
    4402:	6d00 f342      	bltw 3746 <_vfprintf_r+0x6fe>
    4406:	6000 f36c      	braw 3774 <_vfprintf_r+0x72c>
    440a:	7002           	moveq #2,%d0
    440c:	9bcd           	subal %a5,%a5
    440e:	6000 f57e      	braw 398e <_vfprintf_r+0x946>
    4412:	2f02           	movel %d2,%sp@-
    4414:	2f06           	movel %d6,%sp@-
    4416:	2f05           	movel %d5,%sp@-
    4418:	4e93           	jsr %a3@
    441a:	4fef 000c      	lea %sp@(12),%sp
    441e:	4a80           	tstl %d0
    4420:	6600 ef30      	bnew 3352 <_vfprintf_r+0x30a>
    4424:	246e ff94      	moveal %fp@(-108),%a2
    4428:	202e ff90      	movel %fp@(-112),%d0
    442c:	49ee ffc0      	lea %fp@(-64),%a4
    4430:	4bed fff0      	lea %a5@(-16),%a5
    4434:	7210           	moveq #16,%d1
    4436:	b28d           	cmpl %a5,%d1
    4438:	6d00 feee      	bltw 4328 <_vfprintf_r+0x12e0>
    443c:	6000 ff18      	braw 4356 <_vfprintf_r+0x130e>
    4440:	28bc 0001 0904 	movel #67844,%a4@
    4446:	7401           	moveq #1,%d2
    4448:	2942 0004      	movel %d2,%a4@(4)
    444c:	528a           	addql #1,%a2
    444e:	2d4a ff94      	movel %a2,%fp@(-108)
    4452:	202e ff90      	movel %fp@(-112),%d0
    4456:	5280           	addql #1,%d0
    4458:	2d40 ff90      	movel %d0,%fp@(-112)
    445c:	7a07           	moveq #7,%d5
    445e:	ba80           	cmpl %d0,%d5
    4460:	6d00 02d2      	bltw 4734 <_vfprintf_r+0x16ec>
    4464:	508c           	addql #8,%a4
    4466:	4a81           	tstl %d1
    4468:	6600 01c0      	bnew 462a <_vfprintf_r+0x15e2>
    446c:	7001           	moveq #1,%d0
    446e:	c084           	andl %d4,%d0
    4470:	80ae ff40      	orl %fp@(-192),%d0
    4474:	6700 efd4      	beqw 344a <_vfprintf_r+0x402>
    4478:	28ae ff50      	movel %fp@(-176),%a4@
    447c:	296e ff4c 0004 	movel %fp@(-180),%a4@(4)
    4482:	d5ee ff4c      	addal %fp@(-180),%a2
    4486:	2d4a ff94      	movel %a2,%fp@(-108)
    448a:	202e ff90      	movel %fp@(-112),%d0
    448e:	5280           	addql #1,%d0
    4490:	2d40 ff90      	movel %d0,%fp@(-112)
    4494:	7207           	moveq #7,%d1
    4496:	b280           	cmpl %d0,%d1
    4498:	6d00 048e      	bltw 4928 <_vfprintf_r+0x18e0>
    449c:	508c           	addql #8,%a4
    449e:	2887           	movel %d7,%a4@
    44a0:	296e ff40 0004 	movel %fp@(-192),%a4@(4)
    44a6:	d5ee ff40      	addal %fp@(-192),%a2
    44aa:	2d4a ff94      	movel %a2,%fp@(-108)
    44ae:	5280           	addql #1,%d0
    44b0:	2d40 ff90      	movel %d0,%fp@(-112)
    44b4:	7a07           	moveq #7,%d5
    44b6:	ba80           	cmpl %d0,%d5
    44b8:	6d00 f2d8      	bltw 3792 <_vfprintf_r+0x74a>
    44bc:	508c           	addql #8,%a4
    44be:	6000 ef8a      	braw 344a <_vfprintf_r+0x402>
    44c2:	486e ff8c      	pea %fp@(-116)
    44c6:	2f2e ff2c      	movel %fp@(-212),%sp@-
    44ca:	2f2e ff30      	movel %fp@(-208),%sp@-
    44ce:	4eb9 0000 4e14 	jsr 4e14 <__sprint_r>
    44d4:	4fef 000c      	lea %sp@(12),%sp
    44d8:	4a80           	tstl %d0
    44da:	6600 ee76      	bnew 3352 <_vfprintf_r+0x30a>
    44de:	246e ff94      	moveal %fp@(-108),%a2
    44e2:	49ee ffc0      	lea %fp@(-64),%a4
    44e6:	6000 eecc      	braw 33b4 <_vfprintf_r+0x36c>
    44ea:	2f2e ff48      	movel %fp@(-184),%sp@-
    44ee:	2f2e ff44      	movel %fp@(-188),%sp@-
    44f2:	2f2e ff48      	movel %fp@(-184),%sp@-
    44f6:	2f2e ff44      	movel %fp@(-188),%sp@-
    44fa:	4e92           	jsr %a2@
    44fc:	4fef 0010      	lea %sp@(16),%sp
    4500:	4a80           	tstl %d0
    4502:	6600 0732      	bnew 4c36 <_vfprintf_r+0x1bee>
    4506:	222e ff44      	movel %fp@(-188),%d1
    450a:	2001           	movel %d1,%d0
    450c:	2a0b           	movel %a3,%d5
    450e:	78df           	moveq #-33,%d4
    4510:	ca84           	andl %d4,%d5
    4512:	2806           	movel %d6,%d4
    4514:	0044 0100      	oriw #256,%d4
    4518:	7eff           	moveq #-1,%d7
    451a:	be82           	cmpl %d2,%d7
    451c:	6700 05ba      	beqw 4ad8 <_vfprintf_r+0x1a90>
    4520:	7e47           	moveq #71,%d7
    4522:	be85           	cmpl %d5,%d7
    4524:	6700 02c4      	beqw 47ea <_vfprintf_r+0x17a2>
    4528:	4a80           	tstl %d0
    452a:	6d00 02a0      	bltw 47cc <_vfprintf_r+0x1784>
    452e:	2d6e ff44 ff68 	movel %fp@(-188),%fp@(-152)
    4534:	2d6e ff48 ff6c 	movel %fp@(-184),%fp@(-148)
    453a:	422e ff5c      	clrb %fp@(-164)
    453e:	7066           	moveq #102,%d0
    4540:	b08b           	cmpl %a3,%d0
    4542:	6600 0620      	bnew 4b64 <_vfprintf_r+0x1b1c>
    4546:	2442           	moveal %d2,%a2
    4548:	7003           	moveq #3,%d0
    454a:	486e ff84      	pea %fp@(-124)
    454e:	486e ff78      	pea %fp@(-136)
    4552:	486e ff74      	pea %fp@(-140)
    4556:	2f0a           	movel %a2,%sp@-
    4558:	2f00           	movel %d0,%sp@-
    455a:	2f2e ff6c      	movel %fp@(-148),%sp@-
    455e:	2f2e ff68      	movel %fp@(-152),%sp@-
    4562:	2f2e ff30      	movel %fp@(-208),%sp@-
    4566:	4eb9 0000 5d22 	jsr 5d22 <_dtoa_r>
    456c:	2e00           	movel %d0,%d7
    456e:	4bf2 0800      	lea %a2@(0,%d0:l),%a5
    4572:	4fef 0020      	lea %sp@(32),%sp
    4576:	7066           	moveq #102,%d0
    4578:	b08b           	cmpl %a3,%d0
    457a:	6610           	bnes 458c <_vfprintf_r+0x1544>
    457c:	2047           	moveal %d7,%a0
    457e:	0c10 0030      	cmpib #48,%a0@
    4582:	6700 0680      	beqw 4c04 <_vfprintf_r+0x1bbc>
    4586:	202e ff74      	movel %fp@(-140),%d0
    458a:	dbc0           	addal %d0,%a5
    458c:	42a7           	clrl %sp@-
    458e:	42a7           	clrl %sp@-
    4590:	2f2e ff6c      	movel %fp@(-148),%sp@-
    4594:	2f2e ff68      	movel %fp@(-152),%sp@-
    4598:	4eb9 0000 f99c 	jsr f99c <__eqdf2>
    459e:	4fef 0010      	lea %sp@(16),%sp
    45a2:	4a80           	tstl %d0
    45a4:	6700 01ce      	beqw 4774 <_vfprintf_r+0x172c>
    45a8:	202e ff84      	movel %fp@(-124),%d0
    45ac:	b08d           	cmpl %a5,%d0
    45ae:	6400 0462      	bccw 4a12 <_vfprintf_r+0x19ca>
    45b2:	2200           	movel %d0,%d1
    45b4:	5281           	addql #1,%d1
    45b6:	2d41 ff84      	movel %d1,%fp@(-124)
    45ba:	2040           	moveal %d0,%a0
    45bc:	10bc 0030      	moveb #48,%a0@
    45c0:	60e6           	bras 45a8 <_vfprintf_r+0x1560>
    45c2:	486e ff8c      	pea %fp@(-116)
    45c6:	2f2e ff2c      	movel %fp@(-212),%sp@-
    45ca:	2f2e ff30      	movel %fp@(-208),%sp@-
    45ce:	4eb9 0000 4e14 	jsr 4e14 <__sprint_r>
    45d4:	4fef 000c      	lea %sp@(12),%sp
    45d8:	4a80           	tstl %d0
    45da:	6600 ed76      	bnew 3352 <_vfprintf_r+0x30a>
    45de:	246e ff94      	moveal %fp@(-108),%a2
    45e2:	49ee ffc0      	lea %fp@(-64),%a4
    45e6:	2a2e ff40      	movel %fp@(-192),%d5
    45ea:	baae ff74      	cmpl %fp@(-140),%d5
    45ee:	6e00 f106      	bgtw 36f6 <_vfprintf_r+0x6ae>
    45f2:	6000 fb8a      	braw 417e <_vfprintf_r+0x1136>
    45f6:	486e ff8c      	pea %fp@(-116)
    45fa:	2f2e ff2c      	movel %fp@(-212),%sp@-
    45fe:	2f2e ff30      	movel %fp@(-208),%sp@-
    4602:	4eb9 0000 4e14 	jsr 4e14 <__sprint_r>
    4608:	4fef 000c      	lea %sp@(12),%sp
    460c:	4a80           	tstl %d0
    460e:	6600 ed42      	bnew 3352 <_vfprintf_r+0x30a>
    4612:	246e ff94      	moveal %fp@(-108),%a2
    4616:	49ee ffc0      	lea %fp@(-64),%a4
    461a:	2a42           	moveal %d2,%a5
    461c:	9bc5           	subal %d5,%a5
    461e:	bafc 0000      	cmpaw #0,%a5
    4622:	6f00 edfe      	blew 3422 <_vfprintf_r+0x3da>
    4626:	6000 f010      	braw 3638 <_vfprintf_r+0x5f0>
    462a:	28ae ff50      	movel %fp@(-176),%a4@
    462e:	296e ff4c 0004 	movel %fp@(-180),%a4@(4)
    4634:	d5ee ff4c      	addal %fp@(-180),%a2
    4638:	2d4a ff94      	movel %a2,%fp@(-108)
    463c:	202e ff90      	movel %fp@(-112),%d0
    4640:	5280           	addql #1,%d0
    4642:	2d40 ff90      	movel %d0,%fp@(-112)
    4646:	7407           	moveq #7,%d2
    4648:	b480           	cmpl %d0,%d2
    464a:	6d00 02dc      	bltw 4928 <_vfprintf_r+0x18e0>
    464e:	508c           	addql #8,%a4
    4650:	4a81           	tstl %d1
    4652:	6c00 fe4a      	bgew 449e <_vfprintf_r+0x1456>
    4656:	2a01           	movel %d1,%d5
    4658:	4485           	negl %d5
    465a:	2a45           	moveal %d5,%a5
    465c:	74f0           	moveq #-16,%d2
    465e:	b481           	cmpl %d1,%d2
    4660:	6f40           	bles 46a2 <_vfprintf_r+0x165a>
    4662:	748c           	moveq #-116,%d2
    4664:	d48e           	addl %fp,%d2
    4666:	47f9 0000 4e14 	lea 4e14 <__sprint_r>,%a3
    466c:	2a2e ff30      	movel %fp@(-208),%d5
    4670:	2c2e ff2c      	movel %fp@(-212),%d6
    4674:	28bc 0001 09d4 	movel #68052,%a4@
    467a:	7210           	moveq #16,%d1
    467c:	2941 0004      	movel %d1,%a4@(4)
    4680:	45ea 0010      	lea %a2@(16),%a2
    4684:	2d4a ff94      	movel %a2,%fp@(-108)
    4688:	5280           	addql #1,%d0
    468a:	2d40 ff90      	movel %d0,%fp@(-112)
    468e:	7207           	moveq #7,%d1
    4690:	b280           	cmpl %d0,%d1
    4692:	6d00 0350      	bltw 49e4 <_vfprintf_r+0x199c>
    4696:	508c           	addql #8,%a4
    4698:	4bed fff0      	lea %a5@(-16),%a5
    469c:	7210           	moveq #16,%d1
    469e:	b28d           	cmpl %a5,%d1
    46a0:	6dd2           	blts 4674 <_vfprintf_r+0x162c>
    46a2:	28bc 0001 09d4 	movel #68052,%a4@
    46a8:	294d 0004      	movel %a5,%a4@(4)
    46ac:	d5cd           	addal %a5,%a2
    46ae:	2d4a ff94      	movel %a2,%fp@(-108)
    46b2:	5280           	addql #1,%d0
    46b4:	2d40 ff90      	movel %d0,%fp@(-112)
    46b8:	7407           	moveq #7,%d2
    46ba:	b480           	cmpl %d0,%d2
    46bc:	6c00 fdde      	bgew 449c <_vfprintf_r+0x1454>
    46c0:	486e ff8c      	pea %fp@(-116)
    46c4:	2f2e ff2c      	movel %fp@(-212),%sp@-
    46c8:	2f2e ff30      	movel %fp@(-208),%sp@-
    46cc:	4eb9 0000 4e14 	jsr 4e14 <__sprint_r>
    46d2:	4fef 000c      	lea %sp@(12),%sp
    46d6:	4a80           	tstl %d0
    46d8:	6600 ec78      	bnew 3352 <_vfprintf_r+0x30a>
    46dc:	246e ff94      	moveal %fp@(-108),%a2
    46e0:	202e ff90      	movel %fp@(-112),%d0
    46e4:	49ee ffc0      	lea %fp@(-64),%a4
    46e8:	2887           	movel %d7,%a4@
    46ea:	296e ff40 0004 	movel %fp@(-192),%a4@(4)
    46f0:	d5ee ff40      	addal %fp@(-192),%a2
    46f4:	2d4a ff94      	movel %a2,%fp@(-108)
    46f8:	5280           	addql #1,%d0
    46fa:	2d40 ff90      	movel %d0,%fp@(-112)
    46fe:	7a07           	moveq #7,%d5
    4700:	ba80           	cmpl %d0,%d5
    4702:	6c00 fdb8      	bgew 44bc <_vfprintf_r+0x1474>
    4706:	6000 f08a      	braw 3792 <_vfprintf_r+0x74a>
    470a:	2e3c 0001 08cf 	movel #67791,%d7
    4710:	7880           	moveq #-128,%d4
    4712:	4604           	notb %d4
    4714:	c886           	andl %d6,%d4
    4716:	7a03           	moveq #3,%d5
    4718:	2d45 ff28      	movel %d5,%fp@(-216)
    471c:	7400           	moveq #0,%d2
    471e:	42ae ff3c      	clrl %fp@(-196)
    4722:	6000 ee2e      	braw 3552 <_vfprintf_r+0x50a>
    4726:	1d7c 002d ff71 	moveb #45,%fp@(-143)
    472c:	3a7c 002d      	moveaw #45,%a5
    4730:	6000 ee00      	braw 3532 <_vfprintf_r+0x4ea>
    4734:	486e ff8c      	pea %fp@(-116)
    4738:	2f2e ff2c      	movel %fp@(-212),%sp@-
    473c:	2f2e ff30      	movel %fp@(-208),%sp@-
    4740:	4eb9 0000 4e14 	jsr 4e14 <__sprint_r>
    4746:	4fef 000c      	lea %sp@(12),%sp
    474a:	4a80           	tstl %d0
    474c:	6600 ec04      	bnew 3352 <_vfprintf_r+0x30a>
    4750:	222e ff74      	movel %fp@(-140),%d1
    4754:	246e ff94      	moveal %fp@(-108),%a2
    4758:	49ee ffc0      	lea %fp@(-64),%a4
    475c:	6000 fd08      	braw 4466 <_vfprintf_r+0x141e>
    4760:	7a06           	moveq #6,%d5
    4762:	2d45 ff28      	movel %d5,%fp@(-216)
    4766:	2d4a ff38      	movel %a2,%fp@(-200)
    476a:	2e3c 0001 08fd 	movel #67837,%d7
    4770:	6000 fb8c      	braw 42fe <_vfprintf_r+0x12b6>
    4774:	2d6e ff74 ff3c 	movel %fp@(-140),%fp@(-196)
    477a:	200d           	movel %a5,%d0
    477c:	9087           	subl %d7,%d0
    477e:	2d40 ff40      	movel %d0,%fp@(-192)
    4782:	7047           	moveq #71,%d0
    4784:	b085           	cmpl %d5,%d0
    4786:	6700 00c0      	beqw 4848 <_vfprintf_r+0x1800>
    478a:	7a66           	moveq #102,%d5
    478c:	ba8b           	cmpl %a3,%d5
    478e:	6600 0240      	bnew 49d0 <_vfprintf_r+0x1988>
    4792:	7001           	moveq #1,%d0
    4794:	c086           	andl %d6,%d0
    4796:	8082           	orl %d2,%d0
    4798:	4aae ff3c      	tstl %fp@(-196)
    479c:	6f00 0580      	blew 4d1e <_vfprintf_r+0x1cd6>
    47a0:	4a80           	tstl %d0
    47a2:	6600 0506      	bnew 4caa <_vfprintf_r+0x1c62>
    47a6:	2d6e ff3c ff28 	movel %fp@(-196),%fp@(-216)
    47ac:	2a2e ff3c      	movel %fp@(-196),%d5
    47b0:	367c 0066      	moveaw #102,%a3
    47b4:	4a2e ff5c      	tstb %fp@(-164)
    47b8:	6700 0262      	beqw 4a1c <_vfprintf_r+0x19d4>
    47bc:	1d7c 002d ff71 	moveb #45,%fp@(-143)
    47c2:	7400           	moveq #0,%d2
    47c4:	52ae ff28      	addql #1,%fp@(-216)
    47c8:	6000 ed92      	braw 355c <_vfprintf_r+0x514>
    47cc:	2e2e ff44      	movel %fp@(-188),%d7
    47d0:	0687 8000 0000 	addil #-2147483648,%d7
    47d6:	2d47 ff68      	movel %d7,%fp@(-152)
    47da:	2d6e ff48 ff6c 	movel %fp@(-184),%fp@(-148)
    47e0:	1d7c 002d ff5c 	moveb #45,%fp@(-164)
    47e6:	6000 fd56      	braw 453e <_vfprintf_r+0x14f6>
    47ea:	4a82           	tstl %d2
    47ec:	6700 03b4      	beqw 4ba2 <_vfprintf_r+0x1b5a>
    47f0:	4a81           	tstl %d1
    47f2:	6d00 047c      	bltw 4c70 <_vfprintf_r+0x1c28>
    47f6:	2d6e ff44 ff68 	movel %fp@(-188),%fp@(-152)
    47fc:	2d6e ff48 ff6c 	movel %fp@(-184),%fp@(-148)
    4802:	422e ff5c      	clrb %fp@(-164)
    4806:	486e ff84      	pea %fp@(-124)
    480a:	486e ff78      	pea %fp@(-136)
    480e:	486e ff74      	pea %fp@(-140)
    4812:	2f02           	movel %d2,%sp@-
    4814:	4878 0002      	pea 2 <DOUBLE_FLOAT>
    4818:	2f2e ff6c      	movel %fp@(-148),%sp@-
    481c:	2f2e ff68      	movel %fp@(-152),%sp@-
    4820:	2f2e ff30      	movel %fp@(-208),%sp@-
    4824:	4eb9 0000 5d22 	jsr 5d22 <_dtoa_r>
    482a:	2e00           	movel %d0,%d7
    482c:	4fef 0020      	lea %sp@(32),%sp
    4830:	0806 0000      	btst #0,%d6
    4834:	6600 030a      	bnew 4b40 <_vfprintf_r+0x1af8>
    4838:	2a2e ff84      	movel %fp@(-124),%d5
    483c:	9a80           	subl %d0,%d5
    483e:	2d45 ff40      	movel %d5,%fp@(-192)
    4842:	2d6e ff74 ff3c 	movel %fp@(-140),%fp@(-196)
    4848:	72fd           	moveq #-3,%d1
    484a:	b2ae ff3c      	cmpl %fp@(-196),%d1
    484e:	6f00 0176      	blew 49c6 <_vfprintf_r+0x197e>
    4852:	558b           	subql #2,%a3
    4854:	222e ff3c      	movel %fp@(-196),%d1
    4858:	5381           	subql #1,%d1
    485a:	300b           	movew %a3,%d0
    485c:	7a01           	moveq #1,%d5
    485e:	9aae ff3c      	subl %fp@(-196),%d5
    4862:	742d           	moveq #45,%d2
    4864:	2d41 ff74      	movel %d1,%fp@(-140)
    4868:	e148           	lslw #8,%d0
    486a:	1002           	moveb %d2,%d0
    486c:	3d40 ff7c      	movew %d0,%fp@(-132)
    4870:	7009           	moveq #9,%d0
    4872:	b085           	cmpl %d5,%d0
    4874:	6c00 0300      	bgew 4b76 <_vfprintf_r+0x1b2e>
    4878:	41ee ff8b      	lea %fp@(-117),%a0
    487c:	2d48 ff28      	movel %a0,%fp@(-216)
    4880:	2448           	moveal %a0,%a2
    4882:	240a           	movel %a2,%d2
    4884:	4878 000a      	pea a <DUART_IMR>
    4888:	2f05           	movel %d5,%sp@-
    488a:	4eb9 0000 ef30 	jsr ef30 <__modsi3>
    4890:	508f           	addql #8,%sp
    4892:	0600 0030      	addib #48,%d0
    4896:	1500           	moveb %d0,%a2@-
    4898:	2a45           	moveal %d5,%a5
    489a:	4878 000a      	pea a <DUART_IMR>
    489e:	2f05           	movel %d5,%sp@-
    48a0:	4eb9 0000 eed0 	jsr eed0 <__divsi3>
    48a6:	508f           	addql #8,%sp
    48a8:	2a00           	movel %d0,%d5
    48aa:	7063           	moveq #99,%d0
    48ac:	b08d           	cmpl %a5,%d0
    48ae:	6dd2           	blts 4882 <_vfprintf_r+0x183a>
    48b0:	2242           	moveal %d2,%a1
    48b2:	5589           	subql #2,%a1
    48b4:	0605 0030      	addib #48,%d5
    48b8:	1545 ffff      	moveb %d5,%a2@(-1)
    48bc:	b3ee ff28      	cmpal %fp@(-216),%a1
    48c0:	6400 043e      	bccw 4d00 <_vfprintf_r+0x1cb8>
    48c4:	45ee ff7e      	lea %fp@(-130),%a2
    48c8:	14d9           	moveb %a1@+,%a2@+
    48ca:	b3ee ff28      	cmpal %fp@(-216),%a1
    48ce:	66f8           	bnes 48c8 <_vfprintf_r+0x1880>
    48d0:	224e           	moveal %fp,%a1
    48d2:	93c2           	subal %d2,%a1
    48d4:	43e9 ff8f      	lea %a1@(-113),%a1
    48d8:	2d49 ff54      	movel %a1,%fp@(-172)
    48dc:	2a2e ff40      	movel %fp@(-192),%d5
    48e0:	daae ff54      	addl %fp@(-172),%d5
    48e4:	7001           	moveq #1,%d0
    48e6:	b0ae ff40      	cmpl %fp@(-192),%d0
    48ea:	6c00 00ae      	bgew 499a <_vfprintf_r+0x1952>
    48ee:	daae ff4c      	addl %fp@(-180),%d5
    48f2:	2d45 ff28      	movel %d5,%fp@(-216)
    48f6:	6b00 00c2      	bmiw 49ba <_vfprintf_r+0x1972>
    48fa:	42ae ff3c      	clrl %fp@(-196)
    48fe:	6000 feb4      	braw 47b4 <_vfprintf_r+0x176c>
    4902:	486e ff8c      	pea %fp@(-116)
    4906:	2f2e ff2c      	movel %fp@(-212),%sp@-
    490a:	2f2e ff30      	movel %fp@(-208),%sp@-
    490e:	4eb9 0000 4e14 	jsr 4e14 <__sprint_r>
    4914:	4fef 000c      	lea %sp@(12),%sp
    4918:	206e ff2c      	moveal %fp@(-212),%a0
    491c:	0828 0006 000d 	btst #6,%a0@(13)
    4922:	6700 ea3c      	beqw 3360 <_vfprintf_r+0x318>
    4926:	6036           	bras 495e <_vfprintf_r+0x1916>
    4928:	486e ff8c      	pea %fp@(-116)
    492c:	2f2e ff2c      	movel %fp@(-212),%sp@-
    4930:	2f2e ff30      	movel %fp@(-208),%sp@-
    4934:	4eb9 0000 4e14 	jsr 4e14 <__sprint_r>
    493a:	4fef 000c      	lea %sp@(12),%sp
    493e:	4a80           	tstl %d0
    4940:	6600 ea10      	bnew 3352 <_vfprintf_r+0x30a>
    4944:	222e ff74      	movel %fp@(-140),%d1
    4948:	246e ff94      	moveal %fp@(-108),%a2
    494c:	202e ff90      	movel %fp@(-112),%d0
    4950:	49ee ffc0      	lea %fp@(-64),%a4
    4954:	4a81           	tstl %d1
    4956:	6c00 fb46      	bgew 449e <_vfprintf_r+0x1456>
    495a:	6000 fcfa      	braw 4656 <_vfprintf_r+0x160e>
    495e:	74ff           	moveq #-1,%d2
    4960:	2d42 ff34      	movel %d2,%fp@(-204)
    4964:	202e ff34      	movel %fp@(-204),%d0
    4968:	4cee 3cfc fef8 	moveml %fp@(-264),%d2-%d7/%a2-%a5
    496e:	4e5e           	unlk %fp
    4970:	4e75           	rts
    4972:	486e ff8c      	pea %fp@(-116)
    4976:	2f2e ff2c      	movel %fp@(-212),%sp@-
    497a:	2f2e ff30      	movel %fp@(-208),%sp@-
    497e:	4eb9 0000 4e14 	jsr 4e14 <__sprint_r>
    4984:	4fef 000c      	lea %sp@(12),%sp
    4988:	4a80           	tstl %d0
    498a:	6600 e9c6      	bnew 3352 <_vfprintf_r+0x30a>
    498e:	246e ff94      	moveal %fp@(-108),%a2
    4992:	49ee ffc0      	lea %fp@(-64),%a4
    4996:	6000 f5ae      	braw 3f46 <_vfprintf_r+0xefe>
    499a:	7201           	moveq #1,%d1
    499c:	c286           	andl %d6,%d1
    499e:	2d41 ff3c      	movel %d1,%fp@(-196)
    49a2:	0806 0000      	btst #0,%d6
    49a6:	6600 ff46      	bnew 48ee <_vfprintf_r+0x18a6>
    49aa:	2d45 ff28      	movel %d5,%fp@(-216)
    49ae:	6a00 fe04      	bplw 47b4 <_vfprintf_r+0x176c>
    49b2:	42ae ff28      	clrl %fp@(-216)
    49b6:	6000 fdfc      	braw 47b4 <_vfprintf_r+0x176c>
    49ba:	42ae ff28      	clrl %fp@(-216)
    49be:	42ae ff3c      	clrl %fp@(-196)
    49c2:	6000 fdf0      	braw 47b4 <_vfprintf_r+0x176c>
    49c6:	b4ae ff3c      	cmpl %fp@(-196),%d2
    49ca:	6c00 013c      	bgew 4b08 <_vfprintf_r+0x1ac0>
    49ce:	558b           	subql #2,%a3
    49d0:	2a2e ff3c      	movel %fp@(-196),%d5
    49d4:	5385           	subql #1,%d5
    49d6:	300b           	movew %a3,%d0
    49d8:	2205           	movel %d5,%d1
    49da:	6b00 fe80      	bmiw 485c <_vfprintf_r+0x1814>
    49de:	742b           	moveq #43,%d2
    49e0:	6000 fe82      	braw 4864 <_vfprintf_r+0x181c>
    49e4:	2f02           	movel %d2,%sp@-
    49e6:	2f06           	movel %d6,%sp@-
    49e8:	2f05           	movel %d5,%sp@-
    49ea:	4e93           	jsr %a3@
    49ec:	4fef 000c      	lea %sp@(12),%sp
    49f0:	4a80           	tstl %d0
    49f2:	6600 e95e      	bnew 3352 <_vfprintf_r+0x30a>
    49f6:	246e ff94      	moveal %fp@(-108),%a2
    49fa:	202e ff90      	movel %fp@(-112),%d0
    49fe:	49ee ffc0      	lea %fp@(-64),%a4
    4a02:	4bed fff0      	lea %a5@(-16),%a5
    4a06:	7210           	moveq #16,%d1
    4a08:	b28d           	cmpl %a5,%d1
    4a0a:	6d00 fc68      	bltw 4674 <_vfprintf_r+0x162c>
    4a0e:	6000 fc92      	braw 46a2 <_vfprintf_r+0x165a>
    4a12:	2d6e ff74 ff3c 	movel %fp@(-140),%fp@(-196)
    4a18:	6000 fd62      	braw 477c <_vfprintf_r+0x1734>
    4a1c:	102e ff71      	moveb %fp@(-143),%d0
    4a20:	3a40           	moveaw %d0,%a5
    4a22:	7400           	moveq #0,%d2
    4a24:	320d           	movew %a5,%d1
    4a26:	4a01           	tstb %d1
    4a28:	6600 eb2e      	bnew 3558 <_vfprintf_r+0x510>
    4a2c:	6000 eb2e      	braw 355c <_vfprintf_r+0x514>
    4a30:	486e ff8c      	pea %fp@(-116)
    4a34:	2f2e ff2c      	movel %fp@(-212),%sp@-
    4a38:	2f2e ff30      	movel %fp@(-208),%sp@-
    4a3c:	4eb9 0000 4e14 	jsr 4e14 <__sprint_r>
    4a42:	4fef 000c      	lea %sp@(12),%sp
    4a46:	4a80           	tstl %d0
    4a48:	6600 e908      	bnew 3352 <_vfprintf_r+0x30a>
    4a4c:	222e ff74      	movel %fp@(-140),%d1
    4a50:	246e ff94      	moveal %fp@(-108),%a2
    4a54:	49ee ffc0      	lea %fp@(-64),%a4
    4a58:	6000 f522      	braw 3f7c <_vfprintf_r+0xf34>
    4a5c:	2c04           	movel %d4,%d6
    4a5e:	7a00           	moveq #0,%d5
    4a60:	0605 0030      	addib #48,%d5
    4a64:	1d45 ffbf      	moveb %d5,%fp@(-65)
    4a68:	2806           	movel %d6,%d4
    4a6a:	7a01           	moveq #1,%d5
    4a6c:	7ebf           	moveq #-65,%d7
    4a6e:	de8e           	addl %fp,%d7
    4a70:	6000 eede      	braw 3950 <_vfprintf_r+0x908>
    4a74:	486e ff8c      	pea %fp@(-116)
    4a78:	2f2e ff2c      	movel %fp@(-212),%sp@-
    4a7c:	2f2e ff30      	movel %fp@(-208),%sp@-
    4a80:	4eb9 0000 4e14 	jsr 4e14 <__sprint_r>
    4a86:	4fef 000c      	lea %sp@(12),%sp
    4a8a:	4a80           	tstl %d0
    4a8c:	6600 e8c4      	bnew 3352 <_vfprintf_r+0x30a>
    4a90:	246e ff94      	moveal %fp@(-108),%a2
    4a94:	49ee ffc0      	lea %fp@(-64),%a4
    4a98:	4a82           	tstl %d2
    4a9a:	6c00 f49c      	bgew 3f38 <_vfprintf_r+0xef0>
    4a9e:	6000 f7aa      	braw 424a <_vfprintf_r+0x1202>
    4aa2:	486e ff8c      	pea %fp@(-116)
    4aa6:	2f2e ff2c      	movel %fp@(-212),%sp@-
    4aaa:	2f2e ff30      	movel %fp@(-208),%sp@-
    4aae:	4eb9 0000 4e14 	jsr 4e14 <__sprint_r>
    4ab4:	4fef 000c      	lea %sp@(12),%sp
    4ab8:	4a80           	tstl %d0
    4aba:	6600 e896      	bnew 3352 <_vfprintf_r+0x30a>
    4abe:	202e ff40      	movel %fp@(-192),%d0
    4ac2:	90ae ff74      	subl %fp@(-140),%d0
    4ac6:	246e ff94      	moveal %fp@(-108),%a2
    4aca:	49ee ffc0      	lea %fp@(-64),%a4
    4ace:	4a82           	tstl %d2
    4ad0:	6c00 f4ec      	bgew 3fbe <_vfprintf_r+0xf76>
    4ad4:	6000 f8a4      	braw 437a <_vfprintf_r+0x1332>
    4ad8:	7406           	moveq #6,%d2
    4ada:	4a80           	tstl %d0
    4adc:	6c00 fa50      	bgew 452e <_vfprintf_r+0x14e6>
    4ae0:	6000 fcea      	braw 47cc <_vfprintf_r+0x1784>
    4ae4:	182e ff71      	moveb %fp@(-143),%d4
    4ae8:	3a44           	moveaw %d4,%a5
    4aea:	2d42 ff28      	movel %d2,%fp@(-216)
    4aee:	2d4a ff38      	movel %a2,%fp@(-200)
    4af2:	2a02           	movel %d2,%d5
    4af4:	2806           	movel %d6,%d4
    4af6:	7400           	moveq #0,%d2
    4af8:	42ae ff3c      	clrl %fp@(-196)
    4afc:	320d           	movew %a5,%d1
    4afe:	4a01           	tstb %d1
    4b00:	6600 ea56      	bnew 3558 <_vfprintf_r+0x510>
    4b04:	6000 ea56      	braw 355c <_vfprintf_r+0x514>
    4b08:	242e ff40      	movel %fp@(-192),%d2
    4b0c:	b4ae ff3c      	cmpl %fp@(-196),%d2
    4b10:	6e00 00ac      	bgtw 4bbe <_vfprintf_r+0x1b76>
    4b14:	0806 0000      	btst #0,%d6
    4b18:	6600 00c0      	bnew 4bda <_vfprintf_r+0x1b92>
    4b1c:	2d6e ff3c ff28 	movel %fp@(-196),%fp@(-216)
    4b22:	6b0c           	bmis 4b30 <_vfprintf_r+0x1ae8>
    4b24:	2a2e ff3c      	movel %fp@(-196),%d5
    4b28:	367c 0067      	moveaw #103,%a3
    4b2c:	6000 fc86      	braw 47b4 <_vfprintf_r+0x176c>
    4b30:	42ae ff28      	clrl %fp@(-216)
    4b34:	2a2e ff3c      	movel %fp@(-196),%d5
    4b38:	367c 0067      	moveaw #103,%a3
    4b3c:	6000 fc76      	braw 47b4 <_vfprintf_r+0x176c>
    4b40:	2a40           	moveal %d0,%a5
    4b42:	dbc2           	addal %d2,%a5
    4b44:	42a7           	clrl %sp@-
    4b46:	42a7           	clrl %sp@-
    4b48:	2f2e ff6c      	movel %fp@(-148),%sp@-
    4b4c:	2f2e ff68      	movel %fp@(-152),%sp@-
    4b50:	4eb9 0000 f99c 	jsr f99c <__eqdf2>
    4b56:	4fef 0010      	lea %sp@(16),%sp
    4b5a:	4a80           	tstl %d0
    4b5c:	6600 fa4a      	bnew 45a8 <_vfprintf_r+0x1560>
    4b60:	6000 fc12      	braw 4774 <_vfprintf_r+0x172c>
    4b64:	7245           	moveq #69,%d1
    4b66:	b285           	cmpl %d5,%d1
    4b68:	6600 fc9c      	bnew 4806 <_vfprintf_r+0x17be>
    4b6c:	2442           	moveal %d2,%a2
    4b6e:	528a           	addql #1,%a2
    4b70:	7002           	moveq #2,%d0
    4b72:	6000 f9d6      	braw 454a <_vfprintf_r+0x1502>
    4b76:	1d7c 0030 ff7e 	moveb #48,%fp@(-130)
    4b7c:	0605 0030      	addib #48,%d5
    4b80:	1d45 ff7f      	moveb %d5,%fp@(-129)
    4b84:	307c 0004      	moveaw #4,%a0
    4b88:	2d48 ff54      	movel %a0,%fp@(-172)
    4b8c:	2a2e ff40      	movel %fp@(-192),%d5
    4b90:	daae ff54      	addl %fp@(-172),%d5
    4b94:	7001           	moveq #1,%d0
    4b96:	b0ae ff40      	cmpl %fp@(-192),%d0
    4b9a:	6d00 fd52      	bltw 48ee <_vfprintf_r+0x18a6>
    4b9e:	6000 fdfa      	braw 499a <_vfprintf_r+0x1952>
    4ba2:	4a81           	tstl %d1
    4ba4:	6d00 00e4      	bltw 4c8a <_vfprintf_r+0x1c42>
    4ba8:	2d6e ff44 ff68 	movel %fp@(-188),%fp@(-152)
    4bae:	2d6e ff48 ff6c 	movel %fp@(-184),%fp@(-148)
    4bb4:	422e ff5c      	clrb %fp@(-164)
    4bb8:	7401           	moveq #1,%d2
    4bba:	6000 fc4a      	braw 4806 <_vfprintf_r+0x17be>
    4bbe:	2a2e ff40      	movel %fp@(-192),%d5
    4bc2:	daae ff4c      	addl %fp@(-180),%d5
    4bc6:	4aae ff3c      	tstl %fp@(-196)
    4bca:	6f28           	bles 4bf4 <_vfprintf_r+0x1bac>
    4bcc:	2d45 ff28      	movel %d5,%fp@(-216)
    4bd0:	6b16           	bmis 4be8 <_vfprintf_r+0x1ba0>
    4bd2:	367c 0067      	moveaw #103,%a3
    4bd6:	6000 fbdc      	braw 47b4 <_vfprintf_r+0x176c>
    4bda:	2a2e ff3c      	movel %fp@(-196),%d5
    4bde:	daae ff4c      	addl %fp@(-180),%d5
    4be2:	2d45 ff28      	movel %d5,%fp@(-216)
    4be6:	6aea           	bpls 4bd2 <_vfprintf_r+0x1b8a>
    4be8:	42ae ff28      	clrl %fp@(-216)
    4bec:	367c 0067      	moveaw #103,%a3
    4bf0:	6000 fbc2      	braw 47b4 <_vfprintf_r+0x176c>
    4bf4:	7001           	moveq #1,%d0
    4bf6:	90ae ff3c      	subl %fp@(-196),%d0
    4bfa:	da80           	addl %d0,%d5
    4bfc:	2d45 ff28      	movel %d5,%fp@(-216)
    4c00:	6ad0           	bpls 4bd2 <_vfprintf_r+0x1b8a>
    4c02:	60e4           	bras 4be8 <_vfprintf_r+0x1ba0>
    4c04:	42a7           	clrl %sp@-
    4c06:	42a7           	clrl %sp@-
    4c08:	2f2e ff6c      	movel %fp@(-148),%sp@-
    4c0c:	2f2e ff68      	movel %fp@(-152),%sp@-
    4c10:	4eb9 0000 f9c0 	jsr f9c0 <__nedf2>
    4c16:	4fef 0010      	lea %sp@(16),%sp
    4c1a:	4a80           	tstl %d0
    4c1c:	6600 00d4      	bnew 4cf2 <_vfprintf_r+0x1caa>
    4c20:	2d6e ff74 ff3c 	movel %fp@(-140),%fp@(-196)
    4c26:	202e ff3c      	movel %fp@(-196),%d0
    4c2a:	d08d           	addl %a5,%d0
    4c2c:	9087           	subl %d7,%d0
    4c2e:	2d40 ff40      	movel %d0,%fp@(-192)
    4c32:	6000 fb5e      	braw 4792 <_vfprintf_r+0x174a>
    4c36:	4aae ff44      	tstl %fp@(-188)
    4c3a:	6d00 00a8      	bltw 4ce4 <_vfprintf_r+0x1c9c>
    4c3e:	1e2e ff71      	moveb %fp@(-143),%d7
    4c42:	3a47           	moveaw %d7,%a5
    4c44:	7047           	moveq #71,%d0
    4c46:	b08b           	cmpl %a3,%d0
    4c48:	6d7e           	blts 4cc8 <_vfprintf_r+0x1c80>
    4c4a:	2e3c 0001 08d3 	movel #67795,%d7
    4c50:	7880           	moveq #-128,%d4
    4c52:	4604           	notb %d4
    4c54:	c886           	andl %d6,%d4
    4c56:	7203           	moveq #3,%d1
    4c58:	2d41 ff28      	movel %d1,%fp@(-216)
    4c5c:	7a03           	moveq #3,%d5
    4c5e:	7400           	moveq #0,%d2
    4c60:	42ae ff3c      	clrl %fp@(-196)
    4c64:	320d           	movew %a5,%d1
    4c66:	4a01           	tstb %d1
    4c68:	6600 e8ee      	bnew 3558 <_vfprintf_r+0x510>
    4c6c:	6000 e8ee      	braw 355c <_vfprintf_r+0x514>
    4c70:	0680 8000 0000 	addil #-2147483648,%d0
    4c76:	2d40 ff68      	movel %d0,%fp@(-152)
    4c7a:	2d6e ff48 ff6c 	movel %fp@(-184),%fp@(-148)
    4c80:	1d7c 002d ff5c 	moveb #45,%fp@(-164)
    4c86:	6000 fb7e      	braw 4806 <_vfprintf_r+0x17be>
    4c8a:	222e ff44      	movel %fp@(-188),%d1
    4c8e:	0681 8000 0000 	addil #-2147483648,%d1
    4c94:	2d41 ff68      	movel %d1,%fp@(-152)
    4c98:	2d6e ff48 ff6c 	movel %fp@(-184),%fp@(-148)
    4c9e:	1d7c 002d ff5c 	moveb #45,%fp@(-164)
    4ca4:	7401           	moveq #1,%d2
    4ca6:	6000 fb5e      	braw 4806 <_vfprintf_r+0x17be>
    4caa:	d4ae ff3c      	addl %fp@(-196),%d2
    4cae:	2a02           	movel %d2,%d5
    4cb0:	daae ff4c      	addl %fp@(-180),%d5
    4cb4:	2d45 ff28      	movel %d5,%fp@(-216)
    4cb8:	6a00 faf6      	bplw 47b0 <_vfprintf_r+0x1768>
    4cbc:	42ae ff28      	clrl %fp@(-216)
    4cc0:	367c 0066      	moveaw #102,%a3
    4cc4:	6000 faee      	braw 47b4 <_vfprintf_r+0x176c>
    4cc8:	2e3c 0001 08d7 	movel #67799,%d7
    4cce:	7880           	moveq #-128,%d4
    4cd0:	4604           	notb %d4
    4cd2:	c886           	andl %d6,%d4
    4cd4:	7203           	moveq #3,%d1
    4cd6:	2d41 ff28      	movel %d1,%fp@(-216)
    4cda:	7a03           	moveq #3,%d5
    4cdc:	7400           	moveq #0,%d2
    4cde:	42ae ff3c      	clrl %fp@(-196)
    4ce2:	6080           	bras 4c64 <_vfprintf_r+0x1c1c>
    4ce4:	1d7c 002d ff71 	moveb #45,%fp@(-143)
    4cea:	3a7c 002d      	moveaw #45,%a5
    4cee:	6000 ff54      	braw 4c44 <_vfprintf_r+0x1bfc>
    4cf2:	7001           	moveq #1,%d0
    4cf4:	908a           	subl %a2,%d0
    4cf6:	2d40 ff74      	movel %d0,%fp@(-140)
    4cfa:	dbc0           	addal %d0,%a5
    4cfc:	6000 f88e      	braw 458c <_vfprintf_r+0x1544>
    4d00:	327c 0002      	moveaw #2,%a1
    4d04:	2d49 ff54      	movel %a1,%fp@(-172)
    4d08:	2a2e ff40      	movel %fp@(-192),%d5
    4d0c:	daae ff54      	addl %fp@(-172),%d5
    4d10:	7001           	moveq #1,%d0
    4d12:	b0ae ff40      	cmpl %fp@(-192),%d0
    4d16:	6d00 fbd6      	bltw 48ee <_vfprintf_r+0x18a6>
    4d1a:	6000 fc7e      	braw 499a <_vfprintf_r+0x1952>
    4d1e:	4a80           	tstl %d0
    4d20:	6610           	bnes 4d32 <_vfprintf_r+0x1cea>
    4d22:	7201           	moveq #1,%d1
    4d24:	2d41 ff28      	movel %d1,%fp@(-216)
    4d28:	367c 0066      	moveaw #102,%a3
    4d2c:	7a01           	moveq #1,%d5
    4d2e:	6000 fa84      	braw 47b4 <_vfprintf_r+0x176c>
    4d32:	206e ff4c      	moveal %fp@(-180),%a0
    4d36:	41f0 2801      	lea %a0@(1,%d2:l),%a0
    4d3a:	2a08           	movel %a0,%d5
    4d3c:	2d48 ff28      	movel %a0,%fp@(-216)
    4d40:	6b00 ff7a      	bmiw 4cbc <_vfprintf_r+0x1c74>
    4d44:	367c 0066      	moveaw #102,%a3
    4d48:	6000 fa6a      	braw 47b4 <_vfprintf_r+0x176c>

00004d4c <vfprintf>:
    4d4c:	2f2f 000c      	movel %sp@(12),%sp@-
    4d50:	2f2f 000c      	movel %sp@(12),%sp@-
    4d54:	2f2f 000c      	movel %sp@(12),%sp@-
    4d58:	2f39 0001 2c70 	movel 12c70 <_impure_ptr>,%sp@-
    4d5e:	4eb9 0000 3048 	jsr 3048 <_vfprintf_r>
    4d64:	4fef 0010      	lea %sp@(16),%sp
    4d68:	4e75           	rts

00004d6a <__sbprintf>:
    4d6a:	4fef fb98      	lea %sp@(-1128),%sp
    4d6e:	48e7 3820      	moveml %d2-%d4/%a2,%sp@-
    4d72:	262f 047c      	movel %sp@(1148),%d3
    4d76:	246f 0480      	moveal %sp@(1152),%a2
    4d7a:	302a 000c      	movew %a2@(12),%d0
    4d7e:	0240 fffd      	andiw #-3,%d0
    4d82:	3f40 001c      	movew %d0,%sp@(28)
    4d86:	2f6a 0064 0074 	movel %a2@(100),%sp@(116)
    4d8c:	3f6a 000e 001e 	movew %a2@(14),%sp@(30)
    4d92:	2f6a 001c 002c 	movel %a2@(28),%sp@(44)
    4d98:	2f6a 0024 0034 	movel %a2@(36),%sp@(52)
    4d9e:	7078           	moveq #120,%d0
    4da0:	d08f           	addl %sp,%d0
    4da2:	2f40 0010      	movel %d0,%sp@(16)
    4da6:	7078           	moveq #120,%d0
    4da8:	d08f           	addl %sp,%d0
    4daa:	2f40 0020      	movel %d0,%sp@(32)
    4dae:	2f7c 0000 0400 	movel #1024,%sp@(24)
    4db4:	0018 
    4db6:	2f7c 0000 0400 	movel #1024,%sp@(36)
    4dbc:	0024 
    4dbe:	42af 0028      	clrl %sp@(40)
    4dc2:	2f2f 0488      	movel %sp@(1160),%sp@-
    4dc6:	2f2f 0488      	movel %sp@(1160),%sp@-
    4dca:	7818           	moveq #24,%d4
    4dcc:	d88f           	addl %sp,%d4
    4dce:	2f04           	movel %d4,%sp@-
    4dd0:	2f03           	movel %d3,%sp@-
    4dd2:	4eb9 0000 3048 	jsr 3048 <_vfprintf_r>
    4dd8:	2400           	movel %d0,%d2
    4dda:	4fef 0010      	lea %sp@(16),%sp
    4dde:	6a1a           	bpls 4dfa <__sbprintf+0x90>
    4de0:	082f 0006 001d 	btst #6,%sp@(29)
    4de6:	6706           	beqs 4dee <__sbprintf+0x84>
    4de8:	006a 0040 000c 	oriw #64,%a2@(12)
    4dee:	2002           	movel %d2,%d0
    4df0:	4cdf 041c      	moveml %sp@+,%d2-%d4/%a2
    4df4:	4fef 0468      	lea %sp@(1128),%sp
    4df8:	4e75           	rts
    4dfa:	2f04           	movel %d4,%sp@-
    4dfc:	2f03           	movel %d3,%sp@-
    4dfe:	4eb9 0000 50f2 	jsr 50f2 <_fflush_r>
    4e04:	508f           	addql #8,%sp
    4e06:	4a80           	tstl %d0
    4e08:	67d6           	beqs 4de0 <__sbprintf+0x76>
    4e0a:	74ff           	moveq #-1,%d2
    4e0c:	60d2           	bras 4de0 <__sbprintf+0x76>
	...

00004e10 <__malloc_lock>:
    4e10:	4e75           	rts

00004e12 <__malloc_unlock>:
    4e12:	4e75           	rts

00004e14 <__sprint_r>:
    4e14:	2f0a           	movel %a2,%sp@-
    4e16:	246f 0010      	moveal %sp@(16),%a2
    4e1a:	4aaa 0008      	tstl %a2@(8)
    4e1e:	660a           	bnes 4e2a <__sprint_r+0x16>
    4e20:	7000           	moveq #0,%d0
    4e22:	42aa 0004      	clrl %a2@(4)
    4e26:	245f           	moveal %sp@+,%a2
    4e28:	4e75           	rts
    4e2a:	2f0a           	movel %a2,%sp@-
    4e2c:	2f2f 0010      	movel %sp@(16),%sp@-
    4e30:	2f2f 0010      	movel %sp@(16),%sp@-
    4e34:	4eb9 0000 52c0 	jsr 52c0 <__sfvwrite_r>
    4e3a:	42aa 0008      	clrl %a2@(8)
    4e3e:	4fef 000c      	lea %sp@(12),%sp
    4e42:	42aa 0004      	clrl %a2@(4)
    4e46:	245f           	moveal %sp@+,%a2
    4e48:	4e75           	rts
	...

00004e4c <_fclose_r>:
    4e4c:	48e7 2030      	moveml %d2/%a2-%a3,%sp@-
    4e50:	266f 0010      	moveal %sp@(16),%a3
    4e54:	246f 0014      	moveal %sp@(20),%a2
    4e58:	b4fc 0000      	cmpaw #0,%a2
    4e5c:	6714           	beqs 4e72 <_fclose_r+0x26>
    4e5e:	b6fc 0000      	cmpaw #0,%a3
    4e62:	6708           	beqs 4e6c <_fclose_r+0x20>
    4e64:	4aab 0032      	tstl %a3@(50)
    4e68:	6700 00a4      	beqw 4f0e <_fclose_r+0xc2>
    4e6c:	4a6a 000c      	tstw %a2@(12)
    4e70:	660a           	bnes 4e7c <_fclose_r+0x30>
    4e72:	7400           	moveq #0,%d2
    4e74:	2002           	movel %d2,%d0
    4e76:	4cdf 0c04      	moveml %sp@+,%d2/%a2-%a3
    4e7a:	4e75           	rts
    4e7c:	2f0a           	movel %a2,%sp@-
    4e7e:	2f0b           	movel %a3,%sp@-
    4e80:	4eb9 0000 4f38 	jsr 4f38 <__sflush_r>
    4e86:	2400           	movel %d0,%d2
    4e88:	206a 002c      	moveal %a2@(44),%a0
    4e8c:	508f           	addql #8,%sp
    4e8e:	b0fc 0000      	cmpaw #0,%a0
    4e92:	670e           	beqs 4ea2 <_fclose_r+0x56>
    4e94:	2f2a 001c      	movel %a2@(28),%sp@-
    4e98:	2f0b           	movel %a3,%sp@-
    4e9a:	4e90           	jsr %a0@
    4e9c:	508f           	addql #8,%sp
    4e9e:	4a80           	tstl %d0
    4ea0:	6d62           	blts 4f04 <_fclose_r+0xb8>
    4ea2:	4a2a 000d      	tstb %a2@(13)
    4ea6:	6b4c           	bmis 4ef4 <_fclose_r+0xa8>
    4ea8:	202a 0030      	movel %a2@(48),%d0
    4eac:	6718           	beqs 4ec6 <_fclose_r+0x7a>
    4eae:	41ea 0040      	lea %a2@(64),%a0
    4eb2:	b1c0           	cmpal %d0,%a0
    4eb4:	670c           	beqs 4ec2 <_fclose_r+0x76>
    4eb6:	2f00           	movel %d0,%sp@-
    4eb8:	2f0b           	movel %a3,%sp@-
    4eba:	4eb9 0000 7766 	jsr 7766 <_free_r>
    4ec0:	508f           	addql #8,%sp
    4ec2:	42aa 0030      	clrl %a2@(48)
    4ec6:	202a 0044      	movel %a2@(68),%d0
    4eca:	6710           	beqs 4edc <_fclose_r+0x90>
    4ecc:	2f00           	movel %d0,%sp@-
    4ece:	2f0b           	movel %a3,%sp@-
    4ed0:	4eb9 0000 7766 	jsr 7766 <_free_r>
    4ed6:	42aa 0044      	clrl %a2@(68)
    4eda:	508f           	addql #8,%sp
    4edc:	4eb9 0000 25aa 	jsr 25aa <__sfp_lock_acquire>
    4ee2:	426a 000c      	clrw %a2@(12)
    4ee6:	4eb9 0000 25ac 	jsr 25ac <__sfp_lock_release>
    4eec:	2002           	movel %d2,%d0
    4eee:	4cdf 0c04      	moveml %sp@+,%d2/%a2-%a3
    4ef2:	4e75           	rts
    4ef4:	2f2a 0010      	movel %a2@(16),%sp@-
    4ef8:	2f0b           	movel %a3,%sp@-
    4efa:	4eb9 0000 7766 	jsr 7766 <_free_r>
    4f00:	508f           	addql #8,%sp
    4f02:	60a4           	bras 4ea8 <_fclose_r+0x5c>
    4f04:	74ff           	moveq #-1,%d2
    4f06:	4a2a 000d      	tstb %a2@(13)
    4f0a:	6a9c           	bpls 4ea8 <_fclose_r+0x5c>
    4f0c:	60e6           	bras 4ef4 <_fclose_r+0xa8>
    4f0e:	2f0b           	movel %a3,%sp@-
    4f10:	4eb9 0000 2588 	jsr 2588 <__sinit>
    4f16:	588f           	addql #4,%sp
    4f18:	4a6a 000c      	tstw %a2@(12)
    4f1c:	6700 ff54      	beqw 4e72 <_fclose_r+0x26>
    4f20:	6000 ff5a      	braw 4e7c <_fclose_r+0x30>

00004f24 <fclose>:
    4f24:	2f2f 0004      	movel %sp@(4),%sp@-
    4f28:	2f39 0001 2c70 	movel 12c70 <_impure_ptr>,%sp@-
    4f2e:	4eb9 0000 4e4c 	jsr 4e4c <_fclose_r>
    4f34:	508f           	addql #8,%sp
    4f36:	4e75           	rts

00004f38 <__sflush_r>:
    4f38:	48e7 3830      	moveml %d2-%d4/%a2-%a3,%sp@-
    4f3c:	266f 0018      	moveal %sp@(24),%a3
    4f40:	246f 001c      	moveal %sp@(28),%a2
    4f44:	322a 000c      	movew %a2@(12),%d1
    4f48:	0801 0003      	btst #3,%d1
    4f4c:	6600 00c0      	bnew 500e <__sflush_r+0xd6>
    4f50:	3401           	movew %d1,%d2
    4f52:	0042 0800      	oriw #2048,%d2
    4f56:	3542 000c      	movew %d2,%a2@(12)
    4f5a:	4aaa 0004      	tstl %a2@(4)
    4f5e:	6f00 0118      	blew 5078 <__sflush_r+0x140>
    4f62:	206a 0028      	moveal %a2@(40),%a0
    4f66:	b0fc 0000      	cmpaw #0,%a0
    4f6a:	6700 009a      	beqw 5006 <__sflush_r+0xce>
    4f6e:	2613           	movel %a3@,%d3
    4f70:	4293           	clrl %a3@
    4f72:	202a 001c      	movel %a2@(28),%d0
    4f76:	0801 000c      	btst #12,%d1
    4f7a:	6700 0116      	beqw 5092 <__sflush_r+0x15a>
    4f7e:	202a 0050      	movel %a2@(80),%d0
    4f82:	0802 0002      	btst #2,%d2
    4f86:	670e           	beqs 4f96 <__sflush_r+0x5e>
    4f88:	90aa 0004      	subl %a2@(4),%d0
    4f8c:	4aaa 0030      	tstl %a2@(48)
    4f90:	6704           	beqs 4f96 <__sflush_r+0x5e>
    4f92:	90aa 003c      	subl %a2@(60),%d0
    4f96:	42a7           	clrl %sp@-
    4f98:	2f00           	movel %d0,%sp@-
    4f9a:	2f2a 001c      	movel %a2@(28),%sp@-
    4f9e:	2f0b           	movel %a3,%sp@-
    4fa0:	4e90           	jsr %a0@
    4fa2:	4fef 0010      	lea %sp@(16),%sp
    4fa6:	72ff           	moveq #-1,%d1
    4fa8:	b280           	cmpl %d0,%d1
    4faa:	6600 0120      	bnew 50cc <__sflush_r+0x194>
    4fae:	2413           	movel %a3@,%d2
    4fb0:	322a 000c      	movew %a2@(12),%d1
    4fb4:	781d           	moveq #29,%d4
    4fb6:	b882           	cmpl %d2,%d4
    4fb8:	6500 00ae      	bcsw 5068 <__sflush_r+0x130>
    4fbc:	283c 2040 0001 	movel #541065217,%d4
    4fc2:	0504           	btst %d2,%d4
    4fc4:	6700 00a2      	beqw 5068 <__sflush_r+0x130>
    4fc8:	3801           	movew %d1,%d4
    4fca:	0244 f7ff      	andiw #-2049,%d4
    4fce:	3544 000c      	movew %d4,%a2@(12)
    4fd2:	42aa 0004      	clrl %a2@(4)
    4fd6:	24aa 0010      	movel %a2@(16),%a2@
    4fda:	0801 000c      	btst #12,%d1
    4fde:	6706           	beqs 4fe6 <__sflush_r+0xae>
    4fe0:	4a82           	tstl %d2
    4fe2:	6700 0106      	beqw 50ea <__sflush_r+0x1b2>
    4fe6:	2683           	movel %d3,%a3@
    4fe8:	202a 0030      	movel %a2@(48),%d0
    4fec:	6718           	beqs 5006 <__sflush_r+0xce>
    4fee:	41ea 0040      	lea %a2@(64),%a0
    4ff2:	b1c0           	cmpal %d0,%a0
    4ff4:	670c           	beqs 5002 <__sflush_r+0xca>
    4ff6:	2f00           	movel %d0,%sp@-
    4ff8:	2f0b           	movel %a3,%sp@-
    4ffa:	4eb9 0000 7766 	jsr 7766 <_free_r>
    5000:	508f           	addql #8,%sp
    5002:	42aa 0030      	clrl %a2@(48)
    5006:	7000           	moveq #0,%d0
    5008:	4cdf 0c1c      	moveml %sp@+,%d2-%d4/%a2-%a3
    500c:	4e75           	rts
    500e:	262a 0010      	movel %a2@(16),%d3
    5012:	67f2           	beqs 5006 <__sflush_r+0xce>
    5014:	2412           	movel %a2@,%d2
    5016:	9483           	subl %d3,%d2
    5018:	2483           	movel %d3,%a2@
    501a:	0241 0003      	andiw #3,%d1
    501e:	6664           	bnes 5084 <__sflush_r+0x14c>
    5020:	202a 0014      	movel %a2@(20),%d0
    5024:	2540 0008      	movel %d0,%a2@(8)
    5028:	4a82           	tstl %d2
    502a:	6fda           	bles 5006 <__sflush_r+0xce>
    502c:	2f02           	movel %d2,%sp@-
    502e:	2f03           	movel %d3,%sp@-
    5030:	2f2a 001c      	movel %a2@(28),%sp@-
    5034:	2f0b           	movel %a3,%sp@-
    5036:	206a 0024      	moveal %a2@(36),%a0
    503a:	4e90           	jsr %a0@
    503c:	4fef 0010      	lea %sp@(16),%sp
    5040:	4a80           	tstl %d0
    5042:	6f20           	bles 5064 <__sflush_r+0x12c>
    5044:	d680           	addl %d0,%d3
    5046:	9480           	subl %d0,%d2
    5048:	4a82           	tstl %d2
    504a:	6fba           	bles 5006 <__sflush_r+0xce>
    504c:	2f02           	movel %d2,%sp@-
    504e:	2f03           	movel %d3,%sp@-
    5050:	2f2a 001c      	movel %a2@(28),%sp@-
    5054:	2f0b           	movel %a3,%sp@-
    5056:	206a 0024      	moveal %a2@(36),%a0
    505a:	4e90           	jsr %a0@
    505c:	4fef 0010      	lea %sp@(16),%sp
    5060:	4a80           	tstl %d0
    5062:	6ee0           	bgts 5044 <__sflush_r+0x10c>
    5064:	322a 000c      	movew %a2@(12),%d1
    5068:	0041 0040      	oriw #64,%d1
    506c:	3541 000c      	movew %d1,%a2@(12)
    5070:	70ff           	moveq #-1,%d0
    5072:	4cdf 0c1c      	moveml %sp@+,%d2-%d4/%a2-%a3
    5076:	4e75           	rts
    5078:	4aaa 003c      	tstl %a2@(60)
    507c:	6e00 fee4      	bgtw 4f62 <__sflush_r+0x2a>
    5080:	7000           	moveq #0,%d0
    5082:	6084           	bras 5008 <__sflush_r+0xd0>
    5084:	7000           	moveq #0,%d0
    5086:	2540 0008      	movel %d0,%a2@(8)
    508a:	4a82           	tstl %d2
    508c:	6e9e           	bgts 502c <__sflush_r+0xf4>
    508e:	6000 ff76      	braw 5006 <__sflush_r+0xce>
    5092:	4878 0001      	pea 1 <ADD>
    5096:	42a7           	clrl %sp@-
    5098:	2f00           	movel %d0,%sp@-
    509a:	2f0b           	movel %a3,%sp@-
    509c:	4e90           	jsr %a0@
    509e:	4fef 0010      	lea %sp@(16),%sp
    50a2:	72ff           	moveq #-1,%d1
    50a4:	b280           	cmpl %d0,%d1
    50a6:	670c           	beqs 50b4 <__sflush_r+0x17c>
    50a8:	342a 000c      	movew %a2@(12),%d2
    50ac:	206a 0028      	moveal %a2@(40),%a0
    50b0:	6000 fed0      	braw 4f82 <__sflush_r+0x4a>
    50b4:	2213           	movel %a3@,%d1
    50b6:	67f0           	beqs 50a8 <__sflush_r+0x170>
    50b8:	741d           	moveq #29,%d2
    50ba:	b481           	cmpl %d1,%d2
    50bc:	6706           	beqs 50c4 <__sflush_r+0x18c>
    50be:	7816           	moveq #22,%d4
    50c0:	b881           	cmpl %d1,%d4
    50c2:	66a0           	bnes 5064 <__sflush_r+0x12c>
    50c4:	2683           	movel %d3,%a3@
    50c6:	7000           	moveq #0,%d0
    50c8:	6000 ff3e      	braw 5008 <__sflush_r+0xd0>
    50cc:	322a 000c      	movew %a2@(12),%d1
    50d0:	3401           	movew %d1,%d2
    50d2:	0242 f7ff      	andiw #-2049,%d2
    50d6:	3542 000c      	movew %d2,%a2@(12)
    50da:	42aa 0004      	clrl %a2@(4)
    50de:	24aa 0010      	movel %a2@(16),%a2@
    50e2:	0801 000c      	btst #12,%d1
    50e6:	6700 fefe      	beqw 4fe6 <__sflush_r+0xae>
    50ea:	2540 0050      	movel %d0,%a2@(80)
    50ee:	6000 fef6      	braw 4fe6 <__sflush_r+0xae>

000050f2 <_fflush_r>:
    50f2:	2f0b           	movel %a3,%sp@-
    50f4:	2f0a           	movel %a2,%sp@-
    50f6:	246f 000c      	moveal %sp@(12),%a2
    50fa:	266f 0010      	moveal %sp@(16),%a3
    50fe:	b4fc 0000      	cmpaw #0,%a2
    5102:	6706           	beqs 510a <_fflush_r+0x18>
    5104:	4aaa 0032      	tstl %a2@(50)
    5108:	6720           	beqs 512a <_fflush_r+0x38>
    510a:	4a6b 000c      	tstw %a3@(12)
    510e:	6608           	bnes 5118 <_fflush_r+0x26>
    5110:	7000           	moveq #0,%d0
    5112:	245f           	moveal %sp@+,%a2
    5114:	265f           	moveal %sp@+,%a3
    5116:	4e75           	rts
    5118:	2f4b 0010      	movel %a3,%sp@(16)
    511c:	2f4a 000c      	movel %a2,%sp@(12)
    5120:	245f           	moveal %sp@+,%a2
    5122:	265f           	moveal %sp@+,%a3
    5124:	4ef9 0000 4f38 	jmp 4f38 <__sflush_r>
    512a:	2f0a           	movel %a2,%sp@-
    512c:	4eb9 0000 2588 	jsr 2588 <__sinit>
    5132:	588f           	addql #4,%sp
    5134:	60d4           	bras 510a <_fflush_r+0x18>

00005136 <fflush>:
    5136:	2f0b           	movel %a3,%sp@-
    5138:	2f0a           	movel %a2,%sp@-
    513a:	246f 000c      	moveal %sp@(12),%a2
    513e:	b4fc 0000      	cmpaw #0,%a2
    5142:	6744           	beqs 5188 <fflush+0x52>
    5144:	2679 0001 2c70 	moveal 12c70 <_impure_ptr>,%a3
    514a:	b6fc 0000      	cmpaw #0,%a3
    514e:	6706           	beqs 5156 <fflush+0x20>
    5150:	4aab 0032      	tstl %a3@(50)
    5154:	6720           	beqs 5176 <fflush+0x40>
    5156:	4a6a 000c      	tstw %a2@(12)
    515a:	6608           	bnes 5164 <fflush+0x2e>
    515c:	7000           	moveq #0,%d0
    515e:	245f           	moveal %sp@+,%a2
    5160:	265f           	moveal %sp@+,%a3
    5162:	4e75           	rts
    5164:	2f0a           	movel %a2,%sp@-
    5166:	2f0b           	movel %a3,%sp@-
    5168:	4eb9 0000 4f38 	jsr 4f38 <__sflush_r>
    516e:	508f           	addql #8,%sp
    5170:	245f           	moveal %sp@+,%a2
    5172:	265f           	moveal %sp@+,%a3
    5174:	4e75           	rts
    5176:	2f0b           	movel %a3,%sp@-
    5178:	4eb9 0000 2588 	jsr 2588 <__sinit>
    517e:	588f           	addql #4,%sp
    5180:	4a6a 000c      	tstw %a2@(12)
    5184:	67d6           	beqs 515c <fflush+0x26>
    5186:	60dc           	bras 5164 <fflush+0x2e>
    5188:	4879 0001 2c64 	pea 12c64 <__sglue>
    518e:	4879 0000 50f2 	pea 50f2 <_fflush_r>
    5194:	4879 0001 2c74 	pea 12c74 <_impure_data>
    519a:	4eb9 0000 25e4 	jsr 25e4 <_fwalk_sglue>
    51a0:	4fef 000c      	lea %sp@(12),%sp
    51a4:	245f           	moveal %sp@+,%a2
    51a6:	265f           	moveal %sp@+,%a3
    51a8:	4e75           	rts
	...

000051ac <__sread>:
    51ac:	2f0a           	movel %a2,%sp@-
    51ae:	246f 000c      	moveal %sp@(12),%a2
    51b2:	2f2f 0014      	movel %sp@(20),%sp@-
    51b6:	2f2f 0014      	movel %sp@(20),%sp@-
    51ba:	306a 000e      	moveaw %a2@(14),%a0
    51be:	2f08           	movel %a0,%sp@-
    51c0:	2f2f 0014      	movel %sp@(20),%sp@-
    51c4:	4eb9 0000 5a68 	jsr 5a68 <_read_r>
    51ca:	4fef 0010      	lea %sp@(16),%sp
    51ce:	4a80           	tstl %d0
    51d0:	6d08           	blts 51da <__sread+0x2e>
    51d2:	d1aa 0050      	addl %d0,%a2@(80)
    51d6:	245f           	moveal %sp@+,%a2
    51d8:	4e75           	rts
    51da:	026a efff 000c 	andiw #-4097,%a2@(12)
    51e0:	245f           	moveal %sp@+,%a2
    51e2:	4e75           	rts

000051e4 <__seofread>:
    51e4:	7000           	moveq #0,%d0
    51e6:	4e75           	rts

000051e8 <__swrite>:
    51e8:	48e7 3820      	moveml %d2-%d4/%a2,%sp@-
    51ec:	242f 0014      	movel %sp@(20),%d2
    51f0:	246f 0018      	moveal %sp@(24),%a2
    51f4:	262f 001c      	movel %sp@(28),%d3
    51f8:	282f 0020      	movel %sp@(32),%d4
    51fc:	302a 000c      	movew %a2@(12),%d0
    5200:	0800 0008      	btst #8,%d0
    5204:	6626           	bnes 522c <__swrite+0x44>
    5206:	0240 efff      	andiw #-4097,%d0
    520a:	3540 000c      	movew %d0,%a2@(12)
    520e:	2f44 0020      	movel %d4,%sp@(32)
    5212:	2f43 001c      	movel %d3,%sp@(28)
    5216:	346a 000e      	moveaw %a2@(14),%a2
    521a:	2f4a 0018      	movel %a2,%sp@(24)
    521e:	2f42 0014      	movel %d2,%sp@(20)
    5222:	4cdf 041c      	moveml %sp@+,%d2-%d4/%a2
    5226:	4ef9 0000 5ac8 	jmp 5ac8 <_write_r>
    522c:	4878 0002      	pea 2 <DOUBLE_FLOAT>
    5230:	42a7           	clrl %sp@-
    5232:	306a 000e      	moveaw %a2@(14),%a0
    5236:	2f08           	movel %a0,%sp@-
    5238:	2f02           	movel %d2,%sp@-
    523a:	4eb9 0000 5a34 	jsr 5a34 <_lseek_r>
    5240:	302a 000c      	movew %a2@(12),%d0
    5244:	4fef 0010      	lea %sp@(16),%sp
    5248:	0240 efff      	andiw #-4097,%d0
    524c:	3540 000c      	movew %d0,%a2@(12)
    5250:	2f44 0020      	movel %d4,%sp@(32)
    5254:	2f43 001c      	movel %d3,%sp@(28)
    5258:	346a 000e      	moveaw %a2@(14),%a2
    525c:	2f4a 0018      	movel %a2,%sp@(24)
    5260:	2f42 0014      	movel %d2,%sp@(20)
    5264:	4cdf 041c      	moveml %sp@+,%d2-%d4/%a2
    5268:	4ef9 0000 5ac8 	jmp 5ac8 <_write_r>

0000526e <__sseek>:
    526e:	2f0a           	movel %a2,%sp@-
    5270:	246f 000c      	moveal %sp@(12),%a2
    5274:	2f2f 0014      	movel %sp@(20),%sp@-
    5278:	2f2f 0014      	movel %sp@(20),%sp@-
    527c:	306a 000e      	moveaw %a2@(14),%a0
    5280:	2f08           	movel %a0,%sp@-
    5282:	2f2f 0014      	movel %sp@(20),%sp@-
    5286:	4eb9 0000 5a34 	jsr 5a34 <_lseek_r>
    528c:	4fef 0010      	lea %sp@(16),%sp
    5290:	72ff           	moveq #-1,%d1
    5292:	b280           	cmpl %d0,%d1
    5294:	670e           	beqs 52a4 <__sseek+0x36>
    5296:	006a 1000 000c 	oriw #4096,%a2@(12)
    529c:	2540 0050      	movel %d0,%a2@(80)
    52a0:	245f           	moveal %sp@+,%a2
    52a2:	4e75           	rts
    52a4:	026a efff 000c 	andiw #-4097,%a2@(12)
    52aa:	245f           	moveal %sp@+,%a2
    52ac:	4e75           	rts

000052ae <__sclose>:
    52ae:	206f 0008      	moveal %sp@(8),%a0
    52b2:	3068 000e      	moveaw %a0@(14),%a0
    52b6:	2f48 0008      	movel %a0,%sp@(8)
    52ba:	4ef9 0000 5950 	jmp 5950 <_close_r>

000052c0 <__sfvwrite_r>:
    52c0:	48e7 3f3e      	moveml %d2-%d7/%a2-%fp,%sp@-
    52c4:	2c6f 0030      	moveal %sp@(48),%fp
    52c8:	246f 0034      	moveal %sp@(52),%a2
    52cc:	2a6f 0038      	moveal %sp@(56),%a5
    52d0:	4aad 0008      	tstl %a5@(8)
    52d4:	6700 00fa      	beqw 53d0 <__sfvwrite_r+0x110>
    52d8:	302a 000c      	movew %a2@(12),%d0
    52dc:	0800 0003      	btst #3,%d0
    52e0:	6700 00f6      	beqw 53d8 <__sfvwrite_r+0x118>
    52e4:	4aaa 0010      	tstl %a2@(16)
    52e8:	6700 00ee      	beqw 53d8 <__sfvwrite_r+0x118>
    52ec:	2655           	moveal %a5@,%a3
    52ee:	0800 0001      	btst #1,%d0
    52f2:	675e           	beqs 5352 <__sfvwrite_r+0x92>
    52f4:	7600           	moveq #0,%d3
    52f6:	7400           	moveq #0,%d2
    52f8:	226a 0024      	moveal %a2@(36),%a1
    52fc:	206a 001c      	moveal %a2@(28),%a0
    5300:	283c 7fff fc00 	movel #2147482624,%d4
    5306:	4a82           	tstl %d2
    5308:	673e           	beqs 5348 <__sfvwrite_r+0x88>
    530a:	2202           	movel %d2,%d1
    530c:	0c82 7fff fc00 	cmpil #2147482624,%d2
    5312:	6302           	blss 5316 <__sfvwrite_r+0x56>
    5314:	2204           	movel %d4,%d1
    5316:	2f01           	movel %d1,%sp@-
    5318:	2f03           	movel %d3,%sp@-
    531a:	2f08           	movel %a0,%sp@-
    531c:	2f0e           	movel %fp,%sp@-
    531e:	4e91           	jsr %a1@
    5320:	4fef 0010      	lea %sp@(16),%sp
    5324:	4a80           	tstl %d0
    5326:	6f00 00d4      	blew 53fc <__sfvwrite_r+0x13c>
    532a:	d680           	addl %d0,%d3
    532c:	9480           	subl %d0,%d2
    532e:	222d 0008      	movel %a5@(8),%d1
    5332:	9280           	subl %d0,%d1
    5334:	2b41 0008      	movel %d1,%a5@(8)
    5338:	6700 0096      	beqw 53d0 <__sfvwrite_r+0x110>
    533c:	226a 0024      	moveal %a2@(36),%a1
    5340:	206a 001c      	moveal %a2@(28),%a0
    5344:	4a82           	tstl %d2
    5346:	66c2           	bnes 530a <__sfvwrite_r+0x4a>
    5348:	2613           	movel %a3@,%d3
    534a:	242b 0004      	movel %a3@(4),%d2
    534e:	508b           	addql #8,%a3
    5350:	60b4           	bras 5306 <__sfvwrite_r+0x46>
    5352:	7600           	moveq #0,%d3
    5354:	0800 0000      	btst #0,%d0
    5358:	6700 0108      	beqw 5462 <__sfvwrite_r+0x1a2>
    535c:	7000           	moveq #0,%d0
    535e:	7800           	moveq #0,%d4
    5360:	7e00           	moveq #0,%d7
    5362:	2a3c 0000 583c 	movel #22588,%d5
    5368:	49f9 0000 50f2 	lea 50f2 <_fflush_r>,%a4
    536e:	4a87           	tstl %d7
    5370:	6700 009e      	beqw 5410 <__sfvwrite_r+0x150>
    5374:	4a80           	tstl %d0
    5376:	6700 00a4      	beqw 541c <__sfvwrite_r+0x15c>
    537a:	2003           	movel %d3,%d0
    537c:	2c07           	movel %d7,%d6
    537e:	b087           	cmpl %d7,%d0
    5380:	6402           	bccs 5384 <__sfvwrite_r+0xc4>
    5382:	2c00           	movel %d0,%d6
    5384:	242a 0008      	movel %a2@(8),%d2
    5388:	202a 0014      	movel %a2@(20),%d0
    538c:	2212           	movel %a2@,%d1
    538e:	b2aa 0010      	cmpl %a2@(16),%d1
    5392:	6308           	blss 539c <__sfvwrite_r+0xdc>
    5394:	d480           	addl %d0,%d2
    5396:	b486           	cmpl %d6,%d2
    5398:	6d00 00a6      	bltw 5440 <__sfvwrite_r+0x180>
    539c:	bc80           	cmpl %d0,%d6
    539e:	6d00 0262      	bltw 5602 <__sfvwrite_r+0x342>
    53a2:	2f00           	movel %d0,%sp@-
    53a4:	2f04           	movel %d4,%sp@-
    53a6:	2f2a 001c      	movel %a2@(28),%sp@-
    53aa:	2f0e           	movel %fp,%sp@-
    53ac:	206a 0024      	moveal %a2@(36),%a0
    53b0:	4e90           	jsr %a0@
    53b2:	2400           	movel %d0,%d2
    53b4:	4fef 0010      	lea %sp@(16),%sp
    53b8:	6f42           	bles 53fc <__sfvwrite_r+0x13c>
    53ba:	9682           	subl %d2,%d3
    53bc:	6732           	beqs 53f0 <__sfvwrite_r+0x130>
    53be:	7001           	moveq #1,%d0
    53c0:	d882           	addl %d2,%d4
    53c2:	9e82           	subl %d2,%d7
    53c4:	222d 0008      	movel %a5@(8),%d1
    53c8:	9282           	subl %d2,%d1
    53ca:	2b41 0008      	movel %d1,%a5@(8)
    53ce:	669e           	bnes 536e <__sfvwrite_r+0xae>
    53d0:	7000           	moveq #0,%d0
    53d2:	4cdf 7cfc      	moveml %sp@+,%d2-%d7/%a2-%fp
    53d6:	4e75           	rts
    53d8:	2f0a           	movel %a2,%sp@-
    53da:	2f0e           	movel %fp,%sp@-
    53dc:	4eb9 0000 5678 	jsr 5678 <__swsetup_r>
    53e2:	508f           	addql #8,%sp
    53e4:	4a80           	tstl %d0
    53e6:	6620           	bnes 5408 <__sfvwrite_r+0x148>
    53e8:	302a 000c      	movew %a2@(12),%d0
    53ec:	6000 fefe      	braw 52ec <__sfvwrite_r+0x2c>
    53f0:	2f0a           	movel %a2,%sp@-
    53f2:	2f0e           	movel %fp,%sp@-
    53f4:	4e94           	jsr %a4@
    53f6:	508f           	addql #8,%sp
    53f8:	4a80           	tstl %d0
    53fa:	67c4           	beqs 53c0 <__sfvwrite_r+0x100>
    53fc:	302a 000c      	movew %a2@(12),%d0
    5400:	0040 0040      	oriw #64,%d0
    5404:	3540 000c      	movew %d0,%a2@(12)
    5408:	70ff           	moveq #-1,%d0
    540a:	4cdf 7cfc      	moveml %sp@+,%d2-%d7/%a2-%fp
    540e:	4e75           	rts
    5410:	2e2b 0004      	movel %a3@(4),%d7
    5414:	204b           	moveal %a3,%a0
    5416:	508b           	addql #8,%a3
    5418:	67f6           	beqs 5410 <__sfvwrite_r+0x150>
    541a:	2810           	movel %a0@,%d4
    541c:	2f07           	movel %d7,%sp@-
    541e:	4878 000a      	pea a <DUART_IMR>
    5422:	2f04           	movel %d4,%sp@-
    5424:	4eb9 0000 57a0 	jsr 57a0 <memchr>
    542a:	4fef 000c      	lea %sp@(12),%sp
    542e:	4a80           	tstl %d0
    5430:	6700 0226      	beqw 5658 <__sfvwrite_r+0x398>
    5434:	5280           	addql #1,%d0
    5436:	2600           	movel %d0,%d3
    5438:	9684           	subl %d4,%d3
    543a:	2003           	movel %d3,%d0
    543c:	6000 ff3e      	braw 537c <__sfvwrite_r+0xbc>
    5440:	2f02           	movel %d2,%sp@-
    5442:	2f04           	movel %d4,%sp@-
    5444:	2f01           	movel %d1,%sp@-
    5446:	2045           	moveal %d5,%a0
    5448:	4e90           	jsr %a0@
    544a:	d592           	addl %d2,%a2@
    544c:	2f0a           	movel %a2,%sp@-
    544e:	2f0e           	movel %fp,%sp@-
    5450:	4e94           	jsr %a4@
    5452:	4fef 0014      	lea %sp@(20),%sp
    5456:	4a80           	tstl %d0
    5458:	6700 ff60      	beqw 53ba <__sfvwrite_r+0xfa>
    545c:	302a 000c      	movew %a2@(12),%d0
    5460:	609e           	bras 5400 <__sfvwrite_r+0x140>
    5462:	99cc           	subal %a4,%a4
    5464:	2212           	movel %a2@,%d1
    5466:	242a 0008      	movel %a2@(8),%d2
    546a:	283c 0000 583c 	movel #22588,%d4
    5470:	2a3c 0000 ef30 	movel #61232,%d5
    5476:	2041           	moveal %d1,%a0
    5478:	2c02           	movel %d2,%d6
    547a:	b8fc 0000      	cmpaw #0,%a4
    547e:	6700 00d2      	beqw 5552 <__sfvwrite_r+0x292>
    5482:	0800 0009      	btst #9,%d0
    5486:	6700 00d6      	beqw 555e <__sfvwrite_r+0x29e>
    548a:	b9c2           	cmpal %d2,%a4
    548c:	6500 0154      	bcsw 55e2 <__sfvwrite_r+0x322>
    5490:	3e00           	movew %d0,%d7
    5492:	0247 0480      	andiw #1152,%d7
    5496:	677c           	beqs 5514 <__sfvwrite_r+0x254>
    5498:	206a 0010      	moveal %a2@(16),%a0
    549c:	2401           	movel %d1,%d2
    549e:	9488           	subl %a0,%d2
    54a0:	222a 0014      	movel %a2@(20),%d1
    54a4:	2e01           	movel %d1,%d7
    54a6:	de81           	addl %d1,%d7
    54a8:	de81           	addl %d1,%d7
    54aa:	2e07           	movel %d7,%d7
    54ac:	6a02           	bpls 54b0 <__sfvwrite_r+0x1f0>
    54ae:	5287           	addql #1,%d7
    54b0:	e287           	asrl #1,%d7
    54b2:	43f4 2801      	lea %a4@(1,%d2:l),%a1
    54b6:	2207           	movel %d7,%d1
    54b8:	be89           	cmpl %a1,%d7
    54ba:	6404           	bccs 54c0 <__sfvwrite_r+0x200>
    54bc:	2e09           	movel %a1,%d7
    54be:	2209           	movel %a1,%d1
    54c0:	0800 000a      	btst #10,%d0
    54c4:	6700 0156      	beqw 561c <__sfvwrite_r+0x35c>
    54c8:	2f01           	movel %d1,%sp@-
    54ca:	2f0e           	movel %fp,%sp@-
    54cc:	4eb9 0000 2804 	jsr 2804 <_malloc_r>
    54d2:	2c00           	movel %d0,%d6
    54d4:	508f           	addql #8,%sp
    54d6:	6700 018a      	beqw 5662 <__sfvwrite_r+0x3a2>
    54da:	2f02           	movel %d2,%sp@-
    54dc:	2f2a 0010      	movel %a2@(16),%sp@-
    54e0:	2f00           	movel %d0,%sp@-
    54e2:	4eb9 0000 5b10 	jsr 5b10 <memcpy>
    54e8:	302a 000c      	movew %a2@(12),%d0
    54ec:	0240 fb7f      	andiw #-1153,%d0
    54f0:	0040 0080      	oriw #128,%d0
    54f4:	3540 000c      	movew %d0,%a2@(12)
    54f8:	4fef 000c      	lea %sp@(12),%sp
    54fc:	2546 0010      	movel %d6,%a2@(16)
    5500:	2046           	moveal %d6,%a0
    5502:	d1c2           	addal %d2,%a0
    5504:	2488           	movel %a0,%a2@
    5506:	2547 0014      	movel %d7,%a2@(20)
    550a:	2c0c           	movel %a4,%d6
    550c:	9e82           	subl %d2,%d7
    550e:	2547 0008      	movel %d7,%a2@(8)
    5512:	240c           	movel %a4,%d2
    5514:	2f02           	movel %d2,%sp@-
    5516:	2f03           	movel %d3,%sp@-
    5518:	2f08           	movel %a0,%sp@-
    551a:	2044           	moveal %d4,%a0
    551c:	4e90           	jsr %a0@
    551e:	9daa 0008      	subl %d6,%a2@(8)
    5522:	d592           	addl %d2,%a2@
    5524:	4fef 000c      	lea %sp@(12),%sp
    5528:	240c           	movel %a4,%d2
    552a:	99cc           	subal %a4,%a4
    552c:	d682           	addl %d2,%d3
    552e:	202d 0008      	movel %a5@(8),%d0
    5532:	9082           	subl %d2,%d0
    5534:	2b40 0008      	movel %d0,%a5@(8)
    5538:	6700 fe96      	beqw 53d0 <__sfvwrite_r+0x110>
    553c:	302a 000c      	movew %a2@(12),%d0
    5540:	2212           	movel %a2@,%d1
    5542:	242a 0008      	movel %a2@(8),%d2
    5546:	2041           	moveal %d1,%a0
    5548:	2c02           	movel %d2,%d6
    554a:	b8fc 0000      	cmpaw #0,%a4
    554e:	6600 ff32      	bnew 5482 <__sfvwrite_r+0x1c2>
    5552:	2613           	movel %a3@,%d3
    5554:	286b 0004      	moveal %a3@(4),%a4
    5558:	508b           	addql #8,%a3
    555a:	6000 ff1a      	braw 5476 <__sfvwrite_r+0x1b6>
    555e:	b2aa 0010      	cmpl %a2@(16),%d1
    5562:	6242           	bhis 55a6 <__sfvwrite_r+0x2e6>
    5564:	202a 0014      	movel %a2@(20),%d0
    5568:	b9c0           	cmpal %d0,%a4
    556a:	653a           	bcss 55a6 <__sfvwrite_r+0x2e6>
    556c:	240c           	movel %a4,%d2
    556e:	b9fc 7fff ffff 	cmpal #2147483647,%a4
    5574:	6306           	blss 557c <__sfvwrite_r+0x2bc>
    5576:	243c 7fff ffff 	movel #2147483647,%d2
    557c:	2f00           	movel %d0,%sp@-
    557e:	2f02           	movel %d2,%sp@-
    5580:	2045           	moveal %d5,%a0
    5582:	4e90           	jsr %a0@
    5584:	508f           	addql #8,%sp
    5586:	9480           	subl %d0,%d2
    5588:	2f02           	movel %d2,%sp@-
    558a:	2f03           	movel %d3,%sp@-
    558c:	2f2a 001c      	movel %a2@(28),%sp@-
    5590:	2f0e           	movel %fp,%sp@-
    5592:	206a 0024      	moveal %a2@(36),%a0
    5596:	4e90           	jsr %a0@
    5598:	2400           	movel %d0,%d2
    559a:	4fef 0010      	lea %sp@(16),%sp
    559e:	6f00 fe5c      	blew 53fc <__sfvwrite_r+0x13c>
    55a2:	99c2           	subal %d2,%a4
    55a4:	6086           	bras 552c <__sfvwrite_r+0x26c>
    55a6:	b9c2           	cmpal %d2,%a4
    55a8:	6402           	bccs 55ac <__sfvwrite_r+0x2ec>
    55aa:	240c           	movel %a4,%d2
    55ac:	2f02           	movel %d2,%sp@-
    55ae:	2f03           	movel %d3,%sp@-
    55b0:	2f01           	movel %d1,%sp@-
    55b2:	2044           	moveal %d4,%a0
    55b4:	4e90           	jsr %a0@
    55b6:	202a 0008      	movel %a2@(8),%d0
    55ba:	9082           	subl %d2,%d0
    55bc:	2540 0008      	movel %d0,%a2@(8)
    55c0:	d592           	addl %d2,%a2@
    55c2:	4fef 000c      	lea %sp@(12),%sp
    55c6:	4a80           	tstl %d0
    55c8:	66d8           	bnes 55a2 <__sfvwrite_r+0x2e2>
    55ca:	2f0a           	movel %a2,%sp@-
    55cc:	2f0e           	movel %fp,%sp@-
    55ce:	4eb9 0000 50f2 	jsr 50f2 <_fflush_r>
    55d4:	508f           	addql #8,%sp
    55d6:	4a80           	tstl %d0
    55d8:	6600 fe22      	bnew 53fc <__sfvwrite_r+0x13c>
    55dc:	99c2           	subal %d2,%a4
    55de:	6000 ff4c      	braw 552c <__sfvwrite_r+0x26c>
    55e2:	2c0c           	movel %a4,%d6
    55e4:	240c           	movel %a4,%d2
    55e6:	2f02           	movel %d2,%sp@-
    55e8:	2f03           	movel %d3,%sp@-
    55ea:	2f08           	movel %a0,%sp@-
    55ec:	2044           	moveal %d4,%a0
    55ee:	4e90           	jsr %a0@
    55f0:	9daa 0008      	subl %d6,%a2@(8)
    55f4:	d592           	addl %d2,%a2@
    55f6:	4fef 000c      	lea %sp@(12),%sp
    55fa:	240c           	movel %a4,%d2
    55fc:	99cc           	subal %a4,%a4
    55fe:	6000 ff2c      	braw 552c <__sfvwrite_r+0x26c>
    5602:	2f06           	movel %d6,%sp@-
    5604:	2f04           	movel %d4,%sp@-
    5606:	2f01           	movel %d1,%sp@-
    5608:	2045           	moveal %d5,%a0
    560a:	4e90           	jsr %a0@
    560c:	9daa 0008      	subl %d6,%a2@(8)
    5610:	dd92           	addl %d6,%a2@
    5612:	4fef 000c      	lea %sp@(12),%sp
    5616:	2406           	movel %d6,%d2
    5618:	6000 fda0      	braw 53ba <__sfvwrite_r+0xfa>
    561c:	2f01           	movel %d1,%sp@-
    561e:	2f08           	movel %a0,%sp@-
    5620:	2f0e           	movel %fp,%sp@-
    5622:	4eb9 0000 8ae4 	jsr 8ae4 <_realloc_r>
    5628:	2c00           	movel %d0,%d6
    562a:	4fef 000c      	lea %sp@(12),%sp
    562e:	6600 fecc      	bnew 54fc <__sfvwrite_r+0x23c>
    5632:	2f2a 0010      	movel %a2@(16),%sp@-
    5636:	2f0e           	movel %fp,%sp@-
    5638:	4eb9 0000 7766 	jsr 7766 <_free_r>
    563e:	302a 000c      	movew %a2@(12),%d0
    5642:	0240 ff7f      	andiw #-129,%d0
    5646:	720c           	moveq #12,%d1
    5648:	2c81           	movel %d1,%fp@
    564a:	508f           	addql #8,%sp
    564c:	0040 0040      	oriw #64,%d0
    5650:	3540 000c      	movew %d0,%a2@(12)
    5654:	6000 fdb2      	braw 5408 <__sfvwrite_r+0x148>
    5658:	2007           	movel %d7,%d0
    565a:	5280           	addql #1,%d0
    565c:	2600           	movel %d0,%d3
    565e:	6000 fd1c      	braw 537c <__sfvwrite_r+0xbc>
    5662:	700c           	moveq #12,%d0
    5664:	2c80           	movel %d0,%fp@
    5666:	302a 000c      	movew %a2@(12),%d0
    566a:	0040 0040      	oriw #64,%d0
    566e:	3540 000c      	movew %d0,%a2@(12)
    5672:	6000 fd94      	braw 5408 <__sfvwrite_r+0x148>
	...

00005678 <__swsetup_r>:
    5678:	2f0a           	movel %a2,%sp@-
    567a:	2f02           	movel %d2,%sp@-
    567c:	246f 0010      	moveal %sp@(16),%a2
    5680:	2079 0001 2c70 	moveal 12c70 <_impure_ptr>,%a0
    5686:	b0fc 0000      	cmpaw #0,%a0
    568a:	6708           	beqs 5694 <__swsetup_r+0x1c>
    568c:	4aa8 0032      	tstl %a0@(50)
    5690:	6700 00ea      	beqw 577c <__swsetup_r+0x104>
    5694:	322a 000c      	movew %a2@(12),%d1
    5698:	0801 0003      	btst #3,%d1
    569c:	6778           	beqs 5716 <__swsetup_r+0x9e>
    569e:	202a 0010      	movel %a2@(16),%d0
    56a2:	6748           	beqs 56ec <__swsetup_r+0x74>
    56a4:	0801 0000      	btst #0,%d1
    56a8:	661c           	bnes 56c6 <__swsetup_r+0x4e>
    56aa:	0801 0001      	btst #1,%d1
    56ae:	6600 0086      	bnew 5736 <__swsetup_r+0xbe>
    56b2:	206a 0014      	moveal %a2@(20),%a0
    56b6:	2548 0008      	movel %a0,%a2@(8)
    56ba:	4a80           	tstl %d0
    56bc:	671a           	beqs 56d8 <__swsetup_r+0x60>
    56be:	7000           	moveq #0,%d0
    56c0:	241f           	movel %sp@+,%d2
    56c2:	245f           	moveal %sp@+,%a2
    56c4:	4e75           	rts
    56c6:	42aa 0008      	clrl %a2@(8)
    56ca:	242a 0014      	movel %a2@(20),%d2
    56ce:	4482           	negl %d2
    56d0:	2542 0018      	movel %d2,%a2@(24)
    56d4:	4a80           	tstl %d0
    56d6:	66e6           	bnes 56be <__swsetup_r+0x46>
    56d8:	4a01           	tstb %d1
    56da:	6ae4           	bpls 56c0 <__swsetup_r+0x48>
    56dc:	0041 0040      	oriw #64,%d1
    56e0:	3541 000c      	movew %d1,%a2@(12)
    56e4:	70ff           	moveq #-1,%d0
    56e6:	241f           	movel %sp@+,%d2
    56e8:	245f           	moveal %sp@+,%a2
    56ea:	4e75           	rts
    56ec:	3401           	movew %d1,%d2
    56ee:	0242 0280      	andiw #640,%d2
    56f2:	0c42 0200      	cmpiw #512,%d2
    56f6:	67ac           	beqs 56a4 <__swsetup_r+0x2c>
    56f8:	2f0a           	movel %a2,%sp@-
    56fa:	2f2f 0010      	movel %sp@(16),%sp@-
    56fe:	4eb9 0000 8910 	jsr 8910 <__smakebuf_r>
    5704:	322a 000c      	movew %a2@(12),%d1
    5708:	202a 0010      	movel %a2@(16),%d0
    570c:	508f           	addql #8,%sp
    570e:	0801 0000      	btst #0,%d1
    5712:	6796           	beqs 56aa <__swsetup_r+0x32>
    5714:	60b0           	bras 56c6 <__swsetup_r+0x4e>
    5716:	0801 0004      	btst #4,%d1
    571a:	676e           	beqs 578a <__swsetup_r+0x112>
    571c:	0801 0002      	btst #2,%d1
    5720:	661e           	bnes 5740 <__swsetup_r+0xc8>
    5722:	202a 0010      	movel %a2@(16),%d0
    5726:	0041 0008      	oriw #8,%d1
    572a:	3541 000c      	movew %d1,%a2@(12)
    572e:	4a80           	tstl %d0
    5730:	6600 ff72      	bnew 56a4 <__swsetup_r+0x2c>
    5734:	60b6           	bras 56ec <__swsetup_r+0x74>
    5736:	91c8           	subal %a0,%a0
    5738:	2548 0008      	movel %a0,%a2@(8)
    573c:	6000 ff7c      	braw 56ba <__swsetup_r+0x42>
    5740:	202a 0030      	movel %a2@(48),%d0
    5744:	671e           	beqs 5764 <__swsetup_r+0xec>
    5746:	41ea 0040      	lea %a2@(64),%a0
    574a:	b1c0           	cmpal %d0,%a0
    574c:	6712           	beqs 5760 <__swsetup_r+0xe8>
    574e:	2f00           	movel %d0,%sp@-
    5750:	2f2f 0010      	movel %sp@(16),%sp@-
    5754:	4eb9 0000 7766 	jsr 7766 <_free_r>
    575a:	322a 000c      	movew %a2@(12),%d1
    575e:	508f           	addql #8,%sp
    5760:	42aa 0030      	clrl %a2@(48)
    5764:	0241 ffdb      	andiw #-37,%d1
    5768:	42aa 0004      	clrl %a2@(4)
    576c:	202a 0010      	movel %a2@(16),%d0
    5770:	2480           	movel %d0,%a2@
    5772:	0041 0008      	oriw #8,%d1
    5776:	3541 000c      	movew %d1,%a2@(12)
    577a:	60b2           	bras 572e <__swsetup_r+0xb6>
    577c:	2f08           	movel %a0,%sp@-
    577e:	4eb9 0000 2588 	jsr 2588 <__sinit>
    5784:	588f           	addql #4,%sp
    5786:	6000 ff0c      	braw 5694 <__swsetup_r+0x1c>
    578a:	7009           	moveq #9,%d0
    578c:	206f 000c      	moveal %sp@(12),%a0
    5790:	2080           	movel %d0,%a0@
    5792:	0041 0040      	oriw #64,%d1
    5796:	3541 000c      	movew %d1,%a2@(12)
    579a:	70ff           	moveq #-1,%d0
    579c:	6000 ff48      	braw 56e6 <__swsetup_r+0x6e>

000057a0 <memchr>:
    57a0:	48e7 3820      	moveml %d2-%d4/%a2,%sp@-
    57a4:	202f 0014      	movel %sp@(20),%d0
    57a8:	142f 001b      	moveb %sp@(27),%d2
    57ac:	2200           	movel %d0,%d1
    57ae:	7603           	moveq #3,%d3
    57b0:	c680           	andl %d0,%d3
    57b2:	206f 001c      	moveal %sp@(28),%a0
    57b6:	672a           	beqs 57e2 <memchr+0x42>
    57b8:	5388           	subql #1,%a0
    57ba:	4aaf 001c      	tstl %sp@(28)
    57be:	6716           	beqs 57d6 <memchr+0x36>
    57c0:	2241           	moveal %d1,%a1
    57c2:	5281           	addql #1,%d1
    57c4:	b411           	cmpb %a1@,%d2
    57c6:	6710           	beqs 57d8 <memchr+0x38>
    57c8:	7003           	moveq #3,%d0
    57ca:	c081           	andl %d1,%d0
    57cc:	6712           	beqs 57e0 <memchr+0x40>
    57ce:	5388           	subql #1,%a0
    57d0:	70ff           	moveq #-1,%d0
    57d2:	b088           	cmpl %a0,%d0
    57d4:	66ea           	bnes 57c0 <memchr+0x20>
    57d6:	93c9           	subal %a1,%a1
    57d8:	2009           	movel %a1,%d0
    57da:	4cdf 041c      	moveml %sp@+,%d2-%d4/%a2
    57de:	4e75           	rts
    57e0:	2001           	movel %d1,%d0
    57e2:	7203           	moveq #3,%d1
    57e4:	b288           	cmpl %a0,%d1
    57e6:	643c           	bccs 5824 <memchr+0x84>
    57e8:	7200           	moveq #0,%d1
    57ea:	4601           	notb %d1
    57ec:	c2af 0018      	andl %sp@(24),%d1
    57f0:	2801           	movel %d1,%d4
    57f2:	e18c           	lsll #8,%d4
    57f4:	d881           	addl %d1,%d4
    57f6:	2204           	movel %d4,%d1
    57f8:	4841           	swap %d1
    57fa:	4241           	clrw %d1
    57fc:	d881           	addl %d1,%d4
    57fe:	2240           	moveal %d0,%a1
    5800:	2009           	movel %a1,%d0
    5802:	2619           	movel %a1@+,%d3
    5804:	b983           	eorl %d4,%d3
    5806:	2203           	movel %d3,%d1
    5808:	0681 fefe feff 	addil #-16843009,%d1
    580e:	4683           	notl %d3
    5810:	c283           	andl %d3,%d1
    5812:	0281 8080 8080 	andil #-2139062144,%d1
    5818:	6610           	bnes 582a <memchr+0x8a>
    581a:	5988           	subql #4,%a0
    581c:	7003           	moveq #3,%d0
    581e:	b088           	cmpl %a0,%d0
    5820:	65de           	bcss 5800 <memchr+0x60>
    5822:	2009           	movel %a1,%d0
    5824:	b0fc 0000      	cmpaw #0,%a0
    5828:	67ac           	beqs 57d6 <memchr+0x36>
    582a:	2440           	moveal %d0,%a2
    582c:	d088           	addl %a0,%d0
    582e:	224a           	moveal %a2,%a1
    5830:	b41a           	cmpb %a2@+,%d2
    5832:	67a4           	beqs 57d8 <memchr+0x38>
    5834:	b08a           	cmpl %a2,%d0
    5836:	66f6           	bnes 582e <memchr+0x8e>
    5838:	93c9           	subal %a1,%a1
    583a:	609c           	bras 57d8 <memchr+0x38>

0000583c <memmove>:
    583c:	48e7 3038      	moveml %d2-%d3/%a2-%a4,%sp@-
    5840:	202f 0018      	movel %sp@(24),%d0
    5844:	206f 001c      	moveal %sp@(28),%a0
    5848:	222f 0020      	movel %sp@(32),%d1
    584c:	b1c0           	cmpal %d0,%a0
    584e:	6420           	bccs 5870 <memmove+0x34>
    5850:	43f0 1800      	lea %a0@(0,%d1:l),%a1
    5854:	b089           	cmpl %a1,%d0
    5856:	6418           	bccs 5870 <memmove+0x34>
    5858:	4a81           	tstl %d1
    585a:	670e           	beqs 586a <memmove+0x2e>
    585c:	2640           	moveal %d0,%a3
    585e:	45f3 18ff      	lea %a3@(ffffffffffffffff,%d1:l),%a2
    5862:	14a1           	moveb %a1@-,%a2@
    5864:	538a           	subql #1,%a2
    5866:	b3c8           	cmpal %a0,%a1
    5868:	66f8           	bnes 5862 <memmove+0x26>
    586a:	4cdf 1c0c      	moveml %sp@+,%d2-%d3/%a2-%a4
    586e:	4e75           	rts
    5870:	740f           	moveq #15,%d2
    5872:	b481           	cmpl %d1,%d2
    5874:	6400 0096      	bccw 590c <memmove+0xd0>
    5878:	2408           	movel %a0,%d2
    587a:	8480           	orl %d0,%d2
    587c:	7603           	moveq #3,%d3
    587e:	c483           	andl %d3,%d2
    5880:	6600 0098      	bnew 591a <memmove+0xde>
    5884:	387c fff0      	moveaw #-16,%a4
    5888:	d9c1           	addal %d1,%a4
    588a:	240c           	movel %a4,%d2
    588c:	76f0           	moveq #-16,%d3
    588e:	c483           	andl %d3,%d2
    5890:	2842           	moveal %d2,%a4
    5892:	49ec 0010      	lea %a4@(16),%a4
    5896:	43f4 0800      	lea %a4@(0,%d0:l),%a1
    589a:	2648           	moveal %a0,%a3
    589c:	2440           	moveal %d0,%a2
    589e:	2493           	movel %a3@,%a2@
    58a0:	256b 0004 0004 	movel %a3@(4),%a2@(4)
    58a6:	256b 0008 0008 	movel %a3@(8),%a2@(8)
    58ac:	47eb 0010      	lea %a3@(16),%a3
    58b0:	45ea 0010      	lea %a2@(16),%a2
    58b4:	256b fffc fffc 	movel %a3@(-4),%a2@(-4)
    58ba:	b3ca           	cmpal %a2,%a1
    58bc:	66e0           	bnes 589e <memmove+0x62>
    58be:	d1cc           	addal %a4,%a0
    58c0:	740f           	moveq #15,%d2
    58c2:	c481           	andl %d1,%d2
    58c4:	760c           	moveq #12,%d3
    58c6:	c681           	andl %d1,%d3
    58c8:	675c           	beqs 5926 <memmove+0xea>
    58ca:	2649           	moveal %a1,%a3
    58cc:	2448           	moveal %a0,%a2
    58ce:	26da           	movel %a2@+,%a3@+
    58d0:	2842           	moveal %d2,%a4
    58d2:	99ca           	subal %a2,%a4
    58d4:	49f0 c800      	lea %a0@(0,%a4:l),%a4
    58d8:	7603           	moveq #3,%d3
    58da:	b68c           	cmpl %a4,%d3
    58dc:	65f0           	bcss 58ce <memmove+0x92>
    58de:	c283           	andl %d3,%d1
    58e0:	5982           	subql #4,%d2
    58e2:	76fc           	moveq #-4,%d3
    58e4:	c483           	andl %d3,%d2
    58e6:	5882           	addql #4,%d2
    58e8:	d3c2           	addal %d2,%a1
    58ea:	d1c2           	addal %d2,%a0
    58ec:	2401           	movel %d1,%d2
    58ee:	5382           	subql #1,%d2
    58f0:	4a81           	tstl %d1
    58f2:	6700 ff76      	beqw 586a <memmove+0x2e>
    58f6:	45f0 2801      	lea %a0@(1,%d2:l),%a2
    58fa:	12d8           	moveb %a0@+,%a1@+
    58fc:	b5c8           	cmpal %a0,%a2
    58fe:	6700 ff6a      	beqw 586a <memmove+0x2e>
    5902:	12d8           	moveb %a0@+,%a1@+
    5904:	b5c8           	cmpal %a0,%a2
    5906:	66f2           	bnes 58fa <memmove+0xbe>
    5908:	6000 ff60      	braw 586a <memmove+0x2e>
    590c:	2240           	moveal %d0,%a1
    590e:	2401           	movel %d1,%d2
    5910:	5382           	subql #1,%d2
    5912:	4a81           	tstl %d1
    5914:	66e0           	bnes 58f6 <memmove+0xba>
    5916:	6000 ff52      	braw 586a <memmove+0x2e>
    591a:	2401           	movel %d1,%d2
    591c:	5382           	subql #1,%d2
    591e:	2240           	moveal %d0,%a1
    5920:	45f0 2801      	lea %a0@(1,%d2:l),%a2
    5924:	60d4           	bras 58fa <memmove+0xbe>
    5926:	2202           	movel %d2,%d1
    5928:	2401           	movel %d1,%d2
    592a:	5382           	subql #1,%d2
    592c:	4a81           	tstl %d1
    592e:	66c6           	bnes 58f6 <memmove+0xba>
    5930:	6000 ff38      	braw 586a <memmove+0x2e>

00005934 <__localeconv_l>:
    5934:	202f 0004      	movel %sp@(4),%d0
    5938:	0680 0000 00f0 	addil #240,%d0
    593e:	4e75           	rts

00005940 <_localeconv_r>:
    5940:	203c 0001 328c 	movel #78476,%d0
    5946:	4e75           	rts

00005948 <localeconv>:
    5948:	203c 0001 328c 	movel #78476,%d0
    594e:	4e75           	rts

00005950 <_close_r>:
    5950:	42b9 0001 3650 	clrl 13650 <errno>
    5956:	2f2f 0008      	movel %sp@(8),%sp@-
    595a:	4eb9 0000 a73c 	jsr a73c <_close>
    5960:	588f           	addql #4,%sp
    5962:	72ff           	moveq #-1,%d1
    5964:	b280           	cmpl %d0,%d1
    5966:	6702           	beqs 596a <_close_r+0x1a>
    5968:	4e75           	rts
    596a:	2239 0001 3650 	movel 13650 <errno>,%d1
    5970:	67f6           	beqs 5968 <_close_r+0x18>
    5972:	206f 0004      	moveal %sp@(4),%a0
    5976:	2081           	movel %d1,%a0@
    5978:	4e75           	rts
	...

0000597c <_reclaim_reent>:
    597c:	48e7 2038      	moveml %d2/%a2-%a4,%sp@-
    5980:	266f 0014      	moveal %sp@(20),%a3
    5984:	b7f9 0001 2c70 	cmpal 12c70 <_impure_ptr>,%a3
    598a:	6700 00a0      	beqw 5a2c <_reclaim_reent+0xb0>
    598e:	206b 0042      	moveal %a3@(66),%a0
    5992:	b0fc 0000      	cmpaw #0,%a0
    5996:	673a           	beqs 59d2 <_reclaim_reent+0x56>
    5998:	7400           	moveq #0,%d2
    599a:	49f9 0000 7766 	lea 7766 <_free_r>,%a4
    59a0:	2470 2800      	moveal %a0@(0,%d2:l),%a2
    59a4:	b4fc 0000      	cmpaw #0,%a2
    59a8:	6716           	beqs 59c0 <_reclaim_reent+0x44>
    59aa:	200a           	movel %a2,%d0
    59ac:	2452           	moveal %a2@,%a2
    59ae:	2f00           	movel %d0,%sp@-
    59b0:	2f0b           	movel %a3,%sp@-
    59b2:	4e94           	jsr %a4@
    59b4:	508f           	addql #8,%sp
    59b6:	b4fc 0000      	cmpaw #0,%a2
    59ba:	66ee           	bnes 59aa <_reclaim_reent+0x2e>
    59bc:	206b 0042      	moveal %a3@(66),%a0
    59c0:	5882           	addql #4,%d2
    59c2:	0c82 0000 0080 	cmpil #128,%d2
    59c8:	66d6           	bnes 59a0 <_reclaim_reent+0x24>
    59ca:	2f08           	movel %a0,%sp@-
    59cc:	2f0b           	movel %a3,%sp@-
    59ce:	4e94           	jsr %a4@
    59d0:	508f           	addql #8,%sp
    59d2:	202b 0036      	movel %a3@(54),%d0
    59d6:	670c           	beqs 59e4 <_reclaim_reent+0x68>
    59d8:	2f00           	movel %d0,%sp@-
    59da:	2f0b           	movel %a3,%sp@-
    59dc:	4eb9 0000 7766 	jsr 7766 <_free_r>
    59e2:	508f           	addql #8,%sp
    59e4:	246b 003e      	moveal %a3@(62),%a2
    59e8:	49f9 0000 7766 	lea 7766 <_free_r>,%a4
    59ee:	b4fc 0000      	cmpaw #0,%a2
    59f2:	6712           	beqs 5a06 <_reclaim_reent+0x8a>
    59f4:	200a           	movel %a2,%d0
    59f6:	2452           	moveal %a2@,%a2
    59f8:	2f00           	movel %d0,%sp@-
    59fa:	2f0b           	movel %a3,%sp@-
    59fc:	4e94           	jsr %a4@
    59fe:	508f           	addql #8,%sp
    5a00:	b4fc 0000      	cmpaw #0,%a2
    5a04:	66ee           	bnes 59f4 <_reclaim_reent+0x78>
    5a06:	202b 004a      	movel %a3@(74),%d0
    5a0a:	670c           	beqs 5a18 <_reclaim_reent+0x9c>
    5a0c:	2f00           	movel %d0,%sp@-
    5a0e:	2f0b           	movel %a3,%sp@-
    5a10:	4eb9 0000 7766 	jsr 7766 <_free_r>
    5a16:	508f           	addql #8,%sp
    5a18:	226b 0032      	moveal %a3@(50),%a1
    5a1c:	b2fc 0000      	cmpaw #0,%a1
    5a20:	670a           	beqs 5a2c <_reclaim_reent+0xb0>
    5a22:	2f4b 0014      	movel %a3,%sp@(20)
    5a26:	4cdf 1c04      	moveml %sp@+,%d2/%a2-%a4
    5a2a:	4ed1           	jmp %a1@
    5a2c:	4cdf 1c04      	moveml %sp@+,%d2/%a2-%a4
    5a30:	4e75           	rts
	...

00005a34 <_lseek_r>:
    5a34:	42b9 0001 3650 	clrl 13650 <errno>
    5a3a:	2f2f 0010      	movel %sp@(16),%sp@-
    5a3e:	2f2f 0010      	movel %sp@(16),%sp@-
    5a42:	2f2f 0010      	movel %sp@(16),%sp@-
    5a46:	4eb9 0000 a896 	jsr a896 <_lseek>
    5a4c:	4fef 000c      	lea %sp@(12),%sp
    5a50:	72ff           	moveq #-1,%d1
    5a52:	b280           	cmpl %d0,%d1
    5a54:	6702           	beqs 5a58 <_lseek_r+0x24>
    5a56:	4e75           	rts
    5a58:	2239 0001 3650 	movel 13650 <errno>,%d1
    5a5e:	67f6           	beqs 5a56 <_lseek_r+0x22>
    5a60:	206f 0004      	moveal %sp@(4),%a0
    5a64:	2081           	movel %d1,%a0@
    5a66:	4e75           	rts

00005a68 <_read_r>:
    5a68:	42b9 0001 3650 	clrl 13650 <errno>
    5a6e:	2f2f 0010      	movel %sp@(16),%sp@-
    5a72:	2f2f 0010      	movel %sp@(16),%sp@-
    5a76:	2f2f 0010      	movel %sp@(16),%sp@-
    5a7a:	4eb9 0000 aa4e 	jsr aa4e <_read>
    5a80:	4fef 000c      	lea %sp@(12),%sp
    5a84:	72ff           	moveq #-1,%d1
    5a86:	b280           	cmpl %d0,%d1
    5a88:	6702           	beqs 5a8c <_read_r+0x24>
    5a8a:	4e75           	rts
    5a8c:	2239 0001 3650 	movel 13650 <errno>,%d1
    5a92:	67f6           	beqs 5a8a <_read_r+0x22>
    5a94:	206f 0004      	moveal %sp@(4),%a0
    5a98:	2081           	movel %d1,%a0@
    5a9a:	4e75           	rts

00005a9c <_sbrk_r>:
    5a9c:	42b9 0001 3650 	clrl 13650 <errno>
    5aa2:	2f2f 0008      	movel %sp@(8),%sp@-
    5aa6:	4eb9 0000 ab72 	jsr ab72 <_sbrk>
    5aac:	588f           	addql #4,%sp
    5aae:	72ff           	moveq #-1,%d1
    5ab0:	b280           	cmpl %d0,%d1
    5ab2:	6702           	beqs 5ab6 <_sbrk_r+0x1a>
    5ab4:	4e75           	rts
    5ab6:	2239 0001 3650 	movel 13650 <errno>,%d1
    5abc:	67f6           	beqs 5ab4 <_sbrk_r+0x18>
    5abe:	206f 0004      	moveal %sp@(4),%a0
    5ac2:	2081           	movel %d1,%a0@
    5ac4:	4e75           	rts
	...

00005ac8 <_write_r>:
    5ac8:	42b9 0001 3650 	clrl 13650 <errno>
    5ace:	2f2f 0010      	movel %sp@(16),%sp@-
    5ad2:	2f2f 0010      	movel %sp@(16),%sp@-
    5ad6:	2f2f 0010      	movel %sp@(16),%sp@-
    5ada:	4eb9 0000 add2 	jsr add2 <_write>
    5ae0:	4fef 000c      	lea %sp@(12),%sp
    5ae4:	72ff           	moveq #-1,%d1
    5ae6:	b280           	cmpl %d0,%d1
    5ae8:	6702           	beqs 5aec <_write_r+0x24>
    5aea:	4e75           	rts
    5aec:	2239 0001 3650 	movel 13650 <errno>,%d1
    5af2:	67f6           	beqs 5aea <_write_r+0x22>
    5af4:	206f 0004      	moveal %sp@(4),%a0
    5af8:	2081           	movel %d1,%a0@
    5afa:	4e75           	rts

00005afc <strlen>:
    5afc:	222f 0004      	movel %sp@(4),%d1
    5b00:	2041           	moveal %d1,%a0
    5b02:	70ff           	moveq #-1,%d0
    5b04:	4a18           	tstb %a0@+
    5b06:	66fc           	bnes 5b04 <strlen+0x8>
    5b08:	91c1           	subal %d1,%a0
    5b0a:	2008           	movel %a0,%d0
    5b0c:	5380           	subql #1,%d0
    5b0e:	4e75           	rts

00005b10 <memcpy>:
    5b10:	206f 0004      	moveal %sp@(4),%a0
    5b14:	226f 0008      	moveal %sp@(8),%a1
    5b18:	222f 000c      	movel %sp@(12),%d1
    5b1c:	0c81 0000 0008 	cmpil #8,%d1
    5b22:	6500 0050      	bcsw 5b74 <memcpy+0x64>
    5b26:	2008           	movel %a0,%d0
    5b28:	0280 0000 0003 	andil #3,%d0
    5b2e:	6600 0044      	bnew 5b74 <memcpy+0x64>
    5b32:	2009           	movel %a1,%d0
    5b34:	0280 0000 0003 	andil #3,%d0
    5b3a:	6600 0038      	bnew 5b74 <memcpy+0x64>
    5b3e:	2001           	movel %d1,%d0
    5b40:	0281 0000 0003 	andil #3,%d1
    5b46:	e688           	lsrl #3,%d0
    5b48:	6400 0004      	bccw 5b4e <memcpy+0x3e>
    5b4c:	20d9           	movel %a1@+,%a0@+
    5b4e:	e288           	lsrl #1,%d0
    5b50:	6400 000e      	bccw 5b60 <memcpy+0x50>
    5b54:	6000 0006      	braw 5b5c <memcpy+0x4c>
    5b58:	20d9           	movel %a1@+,%a0@+
    5b5a:	20d9           	movel %a1@+,%a0@+
    5b5c:	20d9           	movel %a1@+,%a0@+
    5b5e:	20d9           	movel %a1@+,%a0@+
    5b60:	51c8 fff6      	dbf %d0,5b58 <memcpy+0x48>
    5b64:	0480 0001 0000 	subil #65536,%d0
    5b6a:	6a00 ffec      	bplw 5b58 <memcpy+0x48>
    5b6e:	6000 0004      	braw 5b74 <memcpy+0x64>
    5b72:	10d9           	moveb %a1@+,%a0@+
    5b74:	51c9 fffc      	dbf %d1,5b72 <memcpy+0x62>
    5b78:	202f 0004      	movel %sp@(4),%d0
    5b7c:	4e75           	rts
	...

00005b80 <quorem>:
    5b80:	518f           	subql #8,%sp
    5b82:	48e7 3f3e      	moveml %d2-%d7/%a2-%fp,%sp@-
    5b86:	206f 003c      	moveal %sp@(60),%a0
    5b8a:	2828 0010      	movel %a0@(16),%d4
    5b8e:	206f 0038      	moveal %sp@(56),%a0
    5b92:	b8a8 0010      	cmpl %a0@(16),%d4
    5b96:	6e00 0180      	bgtw 5d18 <quorem+0x198>
    5b9a:	3c7c 0014      	moveaw #20,%fp
    5b9e:	ddef 003c      	addal %sp@(60),%fp
    5ba2:	5384           	subql #1,%d4
    5ba4:	2004           	movel %d4,%d0
    5ba6:	d084           	addl %d4,%d0
    5ba8:	d080           	addl %d0,%d0
    5baa:	45f6 0800      	lea %fp@(0,%d0:l),%a2
    5bae:	307c 0014      	moveaw #20,%a0
    5bb2:	d1ef 0038      	addal %sp@(56),%a0
    5bb6:	2f48 002c      	movel %a0,%sp@(44)
    5bba:	d088           	addl %a0,%d0
    5bbc:	2f40 0030      	movel %d0,%sp@(48)
    5bc0:	2040           	moveal %d0,%a0
    5bc2:	2610           	movel %a0@,%d3
    5bc4:	2412           	movel %a2@,%d2
    5bc6:	5282           	addql #1,%d2
    5bc8:	2f02           	movel %d2,%sp@-
    5bca:	2f03           	movel %d3,%sp@-
    5bcc:	4eb9 0000 ee74 	jsr ee74 <__udivsi3>
    5bd2:	508f           	addql #8,%sp
    5bd4:	2a00           	movel %d0,%d5
    5bd6:	b483           	cmpl %d3,%d2
    5bd8:	6200 00a6      	bhiw 5c80 <quorem+0x100>
    5bdc:	2a4e           	moveal %fp,%a5
    5bde:	266f 002c      	moveal %sp@(44),%a3
    5be2:	7e00           	moveq #0,%d7
    5be4:	7c00           	moveq #0,%d6
    5be6:	49f9 0000 ee50 	lea ee50 <__mulsi3>,%a4
    5bec:	261d           	movel %a5@+,%d3
    5bee:	2f05           	movel %d5,%sp@-
    5bf0:	3f03           	movew %d3,%sp@-
    5bf2:	4267           	clrw %sp@-
    5bf4:	4e94           	jsr %a4@
    5bf6:	508f           	addql #8,%sp
    5bf8:	2400           	movel %d0,%d2
    5bfa:	d487           	addl %d7,%d2
    5bfc:	4243           	clrw %d3
    5bfe:	4843           	swap %d3
    5c00:	2f05           	movel %d5,%sp@-
    5c02:	2f03           	movel %d3,%sp@-
    5c04:	4e94           	jsr %a4@
    5c06:	508f           	addql #8,%sp
    5c08:	2202           	movel %d2,%d1
    5c0a:	4241           	clrw %d1
    5c0c:	4841           	swap %d1
    5c0e:	d280           	addl %d0,%d1
    5c10:	2e01           	movel %d1,%d7
    5c12:	4247           	clrw %d7
    5c14:	4847           	swap %d7
    5c16:	2013           	movel %a3@,%d0
    5c18:	2600           	movel %d0,%d3
    5c1a:	0283 0000 ffff 	andil #65535,%d3
    5c20:	0282 0000 ffff 	andil #65535,%d2
    5c26:	2043           	moveal %d3,%a0
    5c28:	91c2           	subal %d2,%a0
    5c2a:	2408           	movel %a0,%d2
    5c2c:	d486           	addl %d6,%d2
    5c2e:	2602           	movel %d2,%d3
    5c30:	4843           	swap %d3
    5c32:	48c3           	extl %d3
    5c34:	0281 0000 ffff 	andil #65535,%d1
    5c3a:	2043           	moveal %d3,%a0
    5c3c:	91c1           	subal %d1,%a0
    5c3e:	4240           	clrw %d0
    5c40:	4840           	swap %d0
    5c42:	d088           	addl %a0,%d0
    5c44:	2c00           	movel %d0,%d6
    5c46:	4846           	swap %d6
    5c48:	48c6           	extl %d6
    5c4a:	4840           	swap %d0
    5c4c:	4240           	clrw %d0
    5c4e:	8042           	orw %d2,%d0
    5c50:	26c0           	movel %d0,%a3@+
    5c52:	bbca           	cmpal %a2,%a5
    5c54:	6396           	blss 5bec <quorem+0x6c>
    5c56:	206f 0030      	moveal %sp@(48),%a0
    5c5a:	4a90           	tstl %a0@
    5c5c:	6622           	bnes 5c80 <quorem+0x100>
    5c5e:	47e8 fffc      	lea %a0@(-4),%a3
    5c62:	b7ef 002c      	cmpal %sp@(44),%a3
    5c66:	6310           	blss 5c78 <quorem+0xf8>
    5c68:	202f 002c      	movel %sp@(44),%d0
    5c6c:	4a93           	tstl %a3@
    5c6e:	6608           	bnes 5c78 <quorem+0xf8>
    5c70:	5384           	subql #1,%d4
    5c72:	598b           	subql #4,%a3
    5c74:	b7c0           	cmpal %d0,%a3
    5c76:	62f4           	bhis 5c6c <quorem+0xec>
    5c78:	206f 0038      	moveal %sp@(56),%a0
    5c7c:	2144 0010      	movel %d4,%a0@(16)
    5c80:	2f2f 003c      	movel %sp@(60),%sp@-
    5c84:	2f2f 003c      	movel %sp@(60),%sp@-
    5c88:	4eb9 0000 82e4 	jsr 82e4 <__mcmp>
    5c8e:	508f           	addql #8,%sp
    5c90:	4a80           	tstl %d0
    5c92:	6d7a           	blts 5d0e <quorem+0x18e>
    5c94:	226f 002c      	moveal %sp@(44),%a1
    5c98:	7600           	moveq #0,%d3
    5c9a:	221e           	movel %fp@+,%d1
    5c9c:	2011           	movel %a1@,%d0
    5c9e:	2400           	movel %d0,%d2
    5ca0:	0282 0000 ffff 	andil #65535,%d2
    5ca6:	2c01           	movel %d1,%d6
    5ca8:	0286 0000 ffff 	andil #65535,%d6
    5cae:	2042           	moveal %d2,%a0
    5cb0:	91c6           	subal %d6,%a0
    5cb2:	2c08           	movel %a0,%d6
    5cb4:	dc83           	addl %d3,%d6
    5cb6:	2406           	movel %d6,%d2
    5cb8:	4842           	swap %d2
    5cba:	48c2           	extl %d2
    5cbc:	4241           	clrw %d1
    5cbe:	4841           	swap %d1
    5cc0:	2042           	moveal %d2,%a0
    5cc2:	91c1           	subal %d1,%a0
    5cc4:	4240           	clrw %d0
    5cc6:	4840           	swap %d0
    5cc8:	d088           	addl %a0,%d0
    5cca:	2600           	movel %d0,%d3
    5ccc:	4843           	swap %d3
    5cce:	48c3           	extl %d3
    5cd0:	4840           	swap %d0
    5cd2:	4240           	clrw %d0
    5cd4:	8046           	orw %d6,%d0
    5cd6:	22c0           	movel %d0,%a1@+
    5cd8:	bdca           	cmpal %a2,%fp
    5cda:	63be           	blss 5c9a <quorem+0x11a>
    5cdc:	2004           	movel %d4,%d0
    5cde:	d084           	addl %d4,%d0
    5ce0:	d080           	addl %d0,%d0
    5ce2:	206f 002c      	moveal %sp@(44),%a0
    5ce6:	d1c0           	addal %d0,%a0
    5ce8:	4a90           	tstl %a0@
    5cea:	6620           	bnes 5d0c <quorem+0x18c>
    5cec:	5988           	subql #4,%a0
    5cee:	b1ef 002c      	cmpal %sp@(44),%a0
    5cf2:	6310           	blss 5d04 <quorem+0x184>
    5cf4:	202f 002c      	movel %sp@(44),%d0
    5cf8:	4a90           	tstl %a0@
    5cfa:	6608           	bnes 5d04 <quorem+0x184>
    5cfc:	5384           	subql #1,%d4
    5cfe:	5988           	subql #4,%a0
    5d00:	b1c0           	cmpal %d0,%a0
    5d02:	62f4           	bhis 5cf8 <quorem+0x178>
    5d04:	206f 0038      	moveal %sp@(56),%a0
    5d08:	2144 0010      	movel %d4,%a0@(16)
    5d0c:	5285           	addql #1,%d5
    5d0e:	2005           	movel %d5,%d0
    5d10:	4cdf 7cfc      	moveml %sp@+,%d2-%d7/%a2-%fp
    5d14:	508f           	addql #8,%sp
    5d16:	4e75           	rts
    5d18:	7000           	moveq #0,%d0
    5d1a:	4cdf 7cfc      	moveml %sp@+,%d2-%d7/%a2-%fp
    5d1e:	508f           	addql #8,%sp
    5d20:	4e75           	rts

00005d22 <_dtoa_r>:
    5d22:	4e56 ff80      	linkw %fp,#-128
    5d26:	48e7 3f3c      	moveml %d2-%d7/%a2-%a5,%sp@-
    5d2a:	242e 000c      	movel %fp@(12),%d2
    5d2e:	2d6e 0010 ff9c 	movel %fp@(16),%fp@(-100)
    5d34:	246e 0020      	moveal %fp@(32),%a2
    5d38:	2d42 ff94      	movel %d2,%fp@(-108)
    5d3c:	2d6e ff9c ffa8 	movel %fp@(-100),%fp@(-88)
    5d42:	226e 0008      	moveal %fp@(8),%a1
    5d46:	2069 0036      	moveal %a1@(54),%a0
    5d4a:	b0fc 0000      	cmpaw #0,%a0
    5d4e:	6724           	beqs 5d74 <_dtoa_r+0x52>
    5d50:	2229 003a      	movel %a1@(58),%d1
    5d54:	2141 0004      	movel %d1,%a0@(4)
    5d58:	7001           	moveq #1,%d0
    5d5a:	e3a8           	lsll %d1,%d0
    5d5c:	2140 0008      	movel %d0,%a0@(8)
    5d60:	2f08           	movel %a0,%sp@-
    5d62:	2f09           	movel %a1,%sp@-
    5d64:	4eb9 0000 7b48 	jsr 7b48 <_Bfree>
    5d6a:	2a6e 0008      	moveal %fp@(8),%a5
    5d6e:	42ad 0036      	clrl %a5@(54)
    5d72:	508f           	addql #8,%sp
    5d74:	2802           	movel %d2,%d4
    5d76:	6b00 05b0      	bmiw 6328 <_dtoa_r+0x606>
    5d7a:	4292           	clrl %a2@
    5d7c:	2004           	movel %d4,%d0
    5d7e:	0280 7ff0 0000 	andil #2146435072,%d0
    5d84:	0c80 7ff0 0000 	cmpil #2146435072,%d0
    5d8a:	6700 05bc      	beqw 6348 <_dtoa_r+0x626>
    5d8e:	242e ff94      	movel %fp@(-108),%d2
    5d92:	262e ff9c      	movel %fp@(-100),%d3
    5d96:	2d42 ffac      	movel %d2,%fp@(-84)
    5d9a:	2d43 ffb0      	movel %d3,%fp@(-80)
    5d9e:	42a7           	clrl %sp@-
    5da0:	42a7           	clrl %sp@-
    5da2:	2f03           	movel %d3,%sp@-
    5da4:	2f02           	movel %d2,%sp@-
    5da6:	4eb9 0000 f99c 	jsr f99c <__eqdf2>
    5dac:	4fef 0010      	lea %sp@(16),%sp
    5db0:	4a80           	tstl %d0
    5db2:	662e           	bnes 5de2 <_dtoa_r+0xc0>
    5db4:	7001           	moveq #1,%d0
    5db6:	206e 001c      	moveal %fp@(28),%a0
    5dba:	2080           	movel %d0,%a0@
    5dbc:	4aae 0024      	tstl %fp@(36)
    5dc0:	670a           	beqs 5dcc <_dtoa_r+0xaa>
    5dc2:	226e 0024      	moveal %fp@(36),%a1
    5dc6:	22bc 0001 0905 	movel #67845,%a1@
    5dcc:	2d7c 0001 0904 	movel #67844,%fp@(-104)
    5dd2:	ff98 
    5dd4:	202e ff98      	movel %fp@(-104),%d0
    5dd8:	4cee 3cfc ff58 	moveml %fp@(-168),%d2-%d7/%a2-%a5
    5dde:	4e5e           	unlk %fp
    5de0:	4e75           	rts
    5de2:	486e fff8      	pea %fp@(-8)
    5de6:	486e fffc      	pea %fp@(-4)
    5dea:	2f03           	movel %d3,%sp@-
    5dec:	2f02           	movel %d2,%sp@-
    5dee:	2f2e 0008      	movel %fp@(8),%sp@-
    5df2:	4eb9 0000 8648 	jsr 8648 <__d2b>
    5df8:	2e00           	movel %d0,%d7
    5dfa:	2a04           	movel %d4,%d5
    5dfc:	4245           	clrw %d5
    5dfe:	4845           	swap %d5
    5e00:	e84d           	lsrw #4,%d5
    5e02:	4fef 0014      	lea %sp@(20),%sp
    5e06:	4a85           	tstl %d5
    5e08:	6600 0580      	bnew 638a <_dtoa_r+0x668>
    5e0c:	2c2e fff8      	movel %fp@(-8),%d6
    5e10:	2a06           	movel %d6,%d5
    5e12:	daae fffc      	addl %fp@(-4),%d5
    5e16:	2005           	movel %d5,%d0
    5e18:	0680 0000 0432 	addil #1074,%d0
    5e1e:	7220           	moveq #32,%d1
    5e20:	b280           	cmpl %d0,%d1
    5e22:	6c00 071e      	bgew 6542 <_dtoa_r+0x820>
    5e26:	7240           	moveq #64,%d1
    5e28:	9280           	subl %d0,%d1
    5e2a:	e3ac           	lsll %d1,%d4
    5e2c:	2205           	movel %d5,%d1
    5e2e:	0681 0000 0412 	addil #1042,%d1
    5e34:	202e ff9c      	movel %fp@(-100),%d0
    5e38:	e2a8           	lsrl %d1,%d0
    5e3a:	8880           	orl %d0,%d4
    5e3c:	2f04           	movel %d4,%sp@-
    5e3e:	4eb9 0000 fb8a 	jsr fb8a <__floatunsidf>
    5e44:	588f           	addql #4,%sp
    5e46:	2400           	movel %d0,%d2
    5e48:	2601           	movel %d1,%d3
    5e4a:	0682 fe10 0000 	addil #-32505856,%d2
    5e50:	5385           	subql #1,%d5
    5e52:	7001           	moveq #1,%d0
    5e54:	2d40 ffd8      	movel %d0,%fp@(-40)
    5e58:	49f9 0000 efba 	lea efba <__subdf3>,%a4
    5e5e:	42a7           	clrl %sp@-
    5e60:	2f3c 3ff8 0000 	movel #1073217536,%sp@-
    5e66:	2f03           	movel %d3,%sp@-
    5e68:	2f02           	movel %d2,%sp@-
    5e6a:	4e94           	jsr %a4@
    5e6c:	4fef 0010      	lea %sp@(16),%sp
    5e70:	47f9 0000 f356 	lea f356 <__muldf3>,%a3
    5e76:	2f3c 636f 4361 	movel #1668236129,%sp@-
    5e7c:	2f3c 3fd2 87a7 	movel #1070761895,%sp@-
    5e82:	2f01           	movel %d1,%sp@-
    5e84:	2f00           	movel %d0,%sp@-
    5e86:	4e93           	jsr %a3@
    5e88:	4fef 000c      	lea %sp@(12),%sp
    5e8c:	2ebc 8b60 c8b3 	movel #-1956591437,%sp@
    5e92:	2f3c 3fc6 8a28 	movel #1069976104,%sp@-
    5e98:	2f01           	movel %d1,%sp@-
    5e9a:	2f00           	movel %d0,%sp@-
    5e9c:	4eb9 0000 efc0 	jsr efc0 <__adddf3>
    5ea2:	4fef 0010      	lea %sp@(16),%sp
    5ea6:	2400           	movel %d0,%d2
    5ea8:	2601           	movel %d1,%d3
    5eaa:	2f05           	movel %d5,%sp@-
    5eac:	4eb9 0000 fc0c 	jsr fc0c <__floatsidf>
    5eb2:	2ebc 509f 79fb 	movel #1352628731,%sp@
    5eb8:	2f3c 3fd3 4413 	movel #1070810131,%sp@-
    5ebe:	2f01           	movel %d1,%sp@-
    5ec0:	2f00           	movel %d0,%sp@-
    5ec2:	4e93           	jsr %a3@
    5ec4:	4fef 000c      	lea %sp@(12),%sp
    5ec8:	2e81           	movel %d1,%sp@
    5eca:	2f00           	movel %d0,%sp@-
    5ecc:	2f03           	movel %d3,%sp@-
    5ece:	2f02           	movel %d2,%sp@-
    5ed0:	4eb9 0000 efc0 	jsr efc0 <__adddf3>
    5ed6:	4fef 0010      	lea %sp@(16),%sp
    5eda:	2400           	movel %d0,%d2
    5edc:	2601           	movel %d1,%d3
    5ede:	2f01           	movel %d1,%sp@-
    5ee0:	2f02           	movel %d2,%sp@-
    5ee2:	4eb9 0000 fe56 	jsr fe56 <__fixdfsi>
    5ee8:	508f           	addql #8,%sp
    5eea:	2800           	movel %d0,%d4
    5eec:	42a7           	clrl %sp@-
    5eee:	42a7           	clrl %sp@-
    5ef0:	2f03           	movel %d3,%sp@-
    5ef2:	2f02           	movel %d2,%sp@-
    5ef4:	4eb9 0000 fa08 	jsr fa08 <__ltdf2>
    5efa:	4fef 0010      	lea %sp@(16),%sp
    5efe:	4a80           	tstl %d0
    5f00:	6d00 055c      	bltw 645e <_dtoa_r+0x73c>
    5f04:	9c85           	subl %d5,%d6
    5f06:	2606           	movel %d6,%d3
    5f08:	5383           	subql #1,%d3
    5f0a:	2d43 ff90      	movel %d3,%fp@(-112)
    5f0e:	7016           	moveq #22,%d0
    5f10:	b084           	cmpl %d4,%d0
    5f12:	6500 057e      	bcsw 6492 <_dtoa_r+0x770>
    5f16:	41f9 0001 0a50 	lea 10a50 <__mprec_tens>,%a0
    5f1c:	2004           	movel %d4,%d0
    5f1e:	e788           	lsll #3,%d0
    5f20:	2f30 0804      	movel %a0@(4,%d0:l),%sp@-
    5f24:	2f30 0800      	movel %a0@(0,%d0:l),%sp@-
    5f28:	2f2e ffb0      	movel %fp@(-80),%sp@-
    5f2c:	2f2e ffac      	movel %fp@(-84),%sp@-
    5f30:	4eb9 0000 fa08 	jsr fa08 <__ltdf2>
    5f36:	4fef 0010      	lea %sp@(16),%sp
    5f3a:	4a80           	tstl %d0
    5f3c:	6c00 05e6      	bgew 6524 <_dtoa_r+0x802>
    5f40:	5384           	subql #1,%d4
    5f42:	42ae ffd0      	clrl %fp@(-48)
    5f46:	4aae ff90      	tstl %fp@(-112)
    5f4a:	6d00 0554      	bltw 64a0 <_dtoa_r+0x77e>
    5f4e:	42ae ffa4      	clrl %fp@(-92)
    5f52:	4a84           	tstl %d4
    5f54:	6c00 055c      	bgew 64b2 <_dtoa_r+0x790>
    5f58:	99ae ffa4      	subl %d4,%fp@(-92)
    5f5c:	2604           	movel %d4,%d3
    5f5e:	4483           	negl %d3
    5f60:	2d43 ffc0      	movel %d3,%fp@(-64)
    5f64:	2d44 ffb4      	movel %d4,%fp@(-76)
    5f68:	7800           	moveq #0,%d4
    5f6a:	7009           	moveq #9,%d0
    5f6c:	b0ae 0014      	cmpl %fp@(20),%d0
    5f70:	6500 0556      	bcsw 64c8 <_dtoa_r+0x7a6>
    5f74:	7205           	moveq #5,%d1
    5f76:	b2ae 0014      	cmpl %fp@(20),%d1
    5f7a:	6c00 058c      	bgew 6508 <_dtoa_r+0x7e6>
    5f7e:	59ae 0014      	subql #4,%fp@(20)
    5f82:	7603           	moveq #3,%d3
    5f84:	7400           	moveq #0,%d2
    5f86:	b6ae 0014      	cmpl %fp@(20),%d3
    5f8a:	6700 10e0      	beqw 706c <_dtoa_r+0x134a>
    5f8e:	6c00 0620      	bgew 65b0 <_dtoa_r+0x88e>
    5f92:	7604           	moveq #4,%d3
    5f94:	b6ae 0014      	cmpl %fp@(20),%d3
    5f98:	6700 05ea      	beqw 6584 <_dtoa_r+0x862>
    5f9c:	7605           	moveq #5,%d3
    5f9e:	2d43 0014      	movel %d3,%fp@(20)
    5fa2:	7601           	moveq #1,%d3
    5fa4:	2d43 ffb8      	movel %d3,%fp@(-72)
    5fa8:	202e 0018      	movel %fp@(24),%d0
    5fac:	d0ae ffb4      	addl %fp@(-76),%d0
    5fb0:	2d40 ffd4      	movel %d0,%fp@(-44)
    5fb4:	2a00           	movel %d0,%d5
    5fb6:	5285           	addql #1,%d5
    5fb8:	2605           	movel %d5,%d3
    5fba:	6f00 05e6      	blew 65a2 <_dtoa_r+0x880>
    5fbe:	7217           	moveq #23,%d1
    5fc0:	b283           	cmpl %d3,%d1
    5fc2:	6c00 05de      	bgew 65a2 <_dtoa_r+0x880>
    5fc6:	7001           	moveq #1,%d0
    5fc8:	307c 0004      	moveaw #4,%a0
    5fcc:	2d6e 0008 ff88 	movel %fp@(8),%fp@(-120)
    5fd2:	d1c8           	addal %a0,%a0
    5fd4:	2200           	movel %d0,%d1
    5fd6:	5280           	addql #1,%d0
    5fd8:	43e8 0014      	lea %a0@(20),%a1
    5fdc:	b3c3           	cmpal %d3,%a1
    5fde:	63f2           	blss 5fd2 <_dtoa_r+0x2b0>
    5fe0:	2d6e ff88 0008 	movel %fp@(-120),%fp@(8)
    5fe6:	226e 0008      	moveal %fp@(8),%a1
    5fea:	2341 003a      	movel %d1,%a1@(58)
    5fee:	2f01           	movel %d1,%sp@-
    5ff0:	2f2e 0008      	movel %fp@(8),%sp@-
    5ff4:	2d7c 0000 7ab8 	movel #31416,%fp@(-52)
    5ffa:	ffcc 
    5ffc:	45f9 0000 7ab8 	lea 7ab8 <_Balloc>,%a2
    6002:	4e92           	jsr %a2@
    6004:	2d40 ff98      	movel %d0,%fp@(-104)
    6008:	508f           	addql #8,%sp
    600a:	6700 1648      	beqw 7654 <_dtoa_r+0x1932>
    600e:	2a6e 0008      	moveal %fp@(8),%a5
    6012:	2b6e ff98 0036 	movel %fp@(-104),%a5@(54)
    6018:	700e           	moveq #14,%d0
    601a:	b085           	cmpl %d5,%d0
    601c:	6500 05ea      	bcsw 6608 <_dtoa_r+0x8e6>
    6020:	4a82           	tstl %d2
    6022:	6700 05e4      	beqw 6608 <_dtoa_r+0x8e6>
    6026:	4aae ffb4      	tstl %fp@(-76)
    602a:	6f00 117c      	blew 71a8 <_dtoa_r+0x1486>
    602e:	700f           	moveq #15,%d0
    6030:	c0ae ffb4      	andl %fp@(-76),%d0
    6034:	e788           	lsll #3,%d0
    6036:	41f9 0001 0a50 	lea 10a50 <__mprec_tens>,%a0
    603c:	2430 0800      	movel %a0@(0,%d0:l),%d2
    6040:	2630 0804      	movel %a0@(4,%d0:l),%d3
    6044:	2c2e ffb4      	movel %fp@(-76),%d6
    6048:	e886           	asrl #4,%d6
    604a:	082e 0000 ffb6 	btst #0,%fp@(-74)
    6050:	6700 12ea      	beqw 733c <_dtoa_r+0x161a>
    6054:	720f           	moveq #15,%d1
    6056:	cc81           	andl %d1,%d6
    6058:	2d7c 0000 f504 	movel #62724,%fp@(-60)
    605e:	ffc4 
    6060:	2f39 0001 0a4c 	movel 10a4c <__mprec_bigtens+0x24>,%sp@-
    6066:	2f39 0001 0a48 	movel 10a48 <__mprec_bigtens+0x20>,%sp@-
    606c:	2f2e ffb0      	movel %fp@(-80),%sp@-
    6070:	2f2e ffac      	movel %fp@(-84),%sp@-
    6074:	41f9 0000 f504 	lea f504 <__divdf3>,%a0
    607a:	4e90           	jsr %a0@
    607c:	4fef 0010      	lea %sp@(16),%sp
    6080:	2040           	moveal %d0,%a0
    6082:	2241           	moveal %d1,%a1
    6084:	2d48 ffdc      	movel %a0,%fp@(-36)
    6088:	2d49 ffe0      	movel %a1,%fp@(-32)
    608c:	347c 0003      	moveaw #3,%a2
    6090:	4a86           	tstl %d6
    6092:	6734           	beqs 60c8 <_dtoa_r+0x3a6>
    6094:	4bf9 0001 0a28 	lea 10a28 <__mprec_bigtens>,%a5
    609a:	2d6e 0008 ff88 	movel %fp@(8),%fp@(-120)
    60a0:	0806 0000      	btst #0,%d6
    60a4:	6716           	beqs 60bc <_dtoa_r+0x39a>
    60a6:	528a           	addql #1,%a2
    60a8:	2f2d 0004      	movel %a5@(4),%sp@-
    60ac:	2f15           	movel %a5@,%sp@-
    60ae:	2f03           	movel %d3,%sp@-
    60b0:	2f02           	movel %d2,%sp@-
    60b2:	4e93           	jsr %a3@
    60b4:	4fef 0010      	lea %sp@(16),%sp
    60b8:	2400           	movel %d0,%d2
    60ba:	2601           	movel %d1,%d3
    60bc:	e286           	asrl #1,%d6
    60be:	508d           	addql #8,%a5
    60c0:	66de           	bnes 60a0 <_dtoa_r+0x37e>
    60c2:	2d6e ff88 0008 	movel %fp@(-120),%fp@(8)
    60c8:	2f03           	movel %d3,%sp@-
    60ca:	2f02           	movel %d2,%sp@-
    60cc:	2f2e ffe0      	movel %fp@(-32),%sp@-
    60d0:	2f2e ffdc      	movel %fp@(-36),%sp@-
    60d4:	226e ffc4      	moveal %fp@(-60),%a1
    60d8:	4e91           	jsr %a1@
    60da:	4fef 0010      	lea %sp@(16),%sp
    60de:	2040           	moveal %d0,%a0
    60e0:	2241           	moveal %d1,%a1
    60e2:	2d48 ffc4      	movel %a0,%fp@(-60)
    60e6:	2d49 ffc8      	movel %a1,%fp@(-56)
    60ea:	4aae ffd0      	tstl %fp@(-48)
    60ee:	6720           	beqs 6110 <_dtoa_r+0x3ee>
    60f0:	42a7           	clrl %sp@-
    60f2:	2f3c 3ff0 0000 	movel #1072693248,%sp@-
    60f8:	2f2e ffc8      	movel %fp@(-56),%sp@-
    60fc:	2f2e ffc4      	movel %fp@(-60),%sp@-
    6100:	4eb9 0000 fa08 	jsr fa08 <__ltdf2>
    6106:	4fef 0010      	lea %sp@(16),%sp
    610a:	4a80           	tstl %d0
    610c:	6d00 05a8      	bltw 66b6 <_dtoa_r+0x994>
    6110:	2f0a           	movel %a2,%sp@-
    6112:	4eb9 0000 fc0c 	jsr fc0c <__floatsidf>
    6118:	2eae ffc8      	movel %fp@(-56),%sp@
    611c:	2f2e ffc4      	movel %fp@(-60),%sp@-
    6120:	2f01           	movel %d1,%sp@-
    6122:	2f00           	movel %d0,%sp@-
    6124:	4e93           	jsr %a3@
    6126:	4fef 000c      	lea %sp@(12),%sp
    612a:	4297           	clrl %sp@
    612c:	2f3c 401c 0000 	movel #1075576832,%sp@-
    6132:	2f01           	movel %d1,%sp@-
    6134:	2f00           	movel %d0,%sp@-
    6136:	4eb9 0000 efc0 	jsr efc0 <__adddf3>
    613c:	4fef 0010      	lea %sp@(16),%sp
    6140:	2401           	movel %d1,%d2
    6142:	2600           	movel %d0,%d3
    6144:	0683 fcc0 0000 	addil #-54525952,%d3
    614a:	4a85           	tstl %d5
    614c:	6700 0fac      	beqw 70fa <_dtoa_r+0x13d8>
    6150:	2d6e ffb4 fff4 	movel %fp@(-76),%fp@(-12)
    6156:	2d45 ffe8      	movel %d5,%fp@(-24)
    615a:	2d43 ffdc      	movel %d3,%fp@(-36)
    615e:	2d42 ffe0      	movel %d2,%fp@(-32)
    6162:	202e ffe8      	movel %fp@(-24),%d0
    6166:	e788           	lsll #3,%d0
    6168:	41f9 0001 0a50 	lea 10a50 <__mprec_tens>,%a0
    616e:	2d70 08f8 ffec 	movel %a0@(fffffffffffffff8,%d0:l),%fp@(-20)
    6174:	2d70 08fc fff0 	movel %a0@(fffffffffffffffc,%d0:l),%fp@(-16)
    617a:	2f2e ffc8      	movel %fp@(-56),%sp@-
    617e:	2f2e ffc4      	movel %fp@(-60),%sp@-
    6182:	4eb9 0000 fe56 	jsr fe56 <__fixdfsi>
    6188:	508f           	addql #8,%sp
    618a:	2a6e ff98      	moveal %fp@(-104),%a5
    618e:	528d           	addql #1,%a5
    6190:	2d4d ffe4      	movel %a5,%fp@(-28)
    6194:	1c00           	moveb %d0,%d6
    6196:	0606 0030      	addib #48,%d6
    619a:	2f00           	movel %d0,%sp@-
    619c:	4eb9 0000 fc0c 	jsr fc0c <__floatsidf>
    61a2:	2e81           	movel %d1,%sp@
    61a4:	2f00           	movel %d0,%sp@-
    61a6:	2f2e ffc8      	movel %fp@(-56),%sp@-
    61aa:	2f2e ffc4      	movel %fp@(-60),%sp@-
    61ae:	4e94           	jsr %a4@
    61b0:	4fef 0010      	lea %sp@(16),%sp
    61b4:	2400           	movel %d0,%d2
    61b6:	2601           	movel %d1,%d3
    61b8:	4aae ffb8      	tstl %fp@(-72)
    61bc:	6700 1202      	beqw 73c0 <_dtoa_r+0x169e>
    61c0:	2f2e fff0      	movel %fp@(-16),%sp@-
    61c4:	2f2e ffec      	movel %fp@(-20),%sp@-
    61c8:	42a7           	clrl %sp@-
    61ca:	2f3c 3fe0 0000 	movel #1071644672,%sp@-
    61d0:	4eb9 0000 f504 	jsr f504 <__divdf3>
    61d6:	4fef 000c      	lea %sp@(12),%sp
    61da:	2eae ffe0      	movel %fp@(-32),%sp@
    61de:	2f2e ffdc      	movel %fp@(-36),%sp@-
    61e2:	2f01           	movel %d1,%sp@-
    61e4:	2f00           	movel %d0,%sp@-
    61e6:	4e94           	jsr %a4@
    61e8:	4fef 0010      	lea %sp@(16),%sp
    61ec:	2040           	moveal %d0,%a0
    61ee:	246e ff98      	moveal %fp@(-104),%a2
    61f2:	1486           	moveb %d6,%a2@
    61f4:	2f03           	movel %d3,%sp@-
    61f6:	2f02           	movel %d2,%sp@-
    61f8:	2f01           	movel %d1,%sp@-
    61fa:	2f08           	movel %a0,%sp@-
    61fc:	2d48 ff80      	movel %a0,%fp@(-128)
    6200:	2d41 ff84      	movel %d1,%fp@(-124)
    6204:	4eb9 0000 f9e4 	jsr f9e4 <__gtdf2>
    620a:	4fef 0010      	lea %sp@(16),%sp
    620e:	206e ff80      	moveal %fp@(-128),%a0
    6212:	226e ff84      	moveal %fp@(-124),%a1
    6216:	4a80           	tstl %d0
    6218:	6e00 00ce      	bgtw 62e8 <_dtoa_r+0x5c6>
    621c:	7c00           	moveq #0,%d6
    621e:	2d44 ffdc      	movel %d4,%fp@(-36)
    6222:	2d47 ffc4      	movel %d7,%fp@(-60)
    6226:	2d45 ffe4      	movel %d5,%fp@(-28)
    622a:	2808           	movel %a0,%d4
    622c:	2a09           	movel %a1,%d5
    622e:	2e2e ffe8      	movel %fp@(-24),%d7
    6232:	2d6e 0008 ff88 	movel %fp@(8),%fp@(-120)
    6238:	2f03           	movel %d3,%sp@-
    623a:	2f02           	movel %d2,%sp@-
    623c:	42a7           	clrl %sp@-
    623e:	2f3c 3ff0 0000 	movel #1072693248,%sp@-
    6244:	4e94           	jsr %a4@
    6246:	4fef 000c      	lea %sp@(12),%sp
    624a:	2e85           	movel %d5,%sp@
    624c:	2f04           	movel %d4,%sp@-
    624e:	2f01           	movel %d1,%sp@-
    6250:	2f00           	movel %d0,%sp@-
    6252:	4eb9 0000 fa08 	jsr fa08 <__ltdf2>
    6258:	4fef 0010      	lea %sp@(16),%sp
    625c:	4a80           	tstl %d0
    625e:	6d00 132a      	bltw 758a <_dtoa_r+0x1868>
    6262:	5286           	addql #1,%d6
    6264:	be86           	cmpl %d6,%d7
    6266:	6f00 133c      	blew 75a4 <_dtoa_r+0x1882>
    626a:	42a7           	clrl %sp@-
    626c:	2f3c 4024 0000 	movel #1076101120,%sp@-
    6272:	2f05           	movel %d5,%sp@-
    6274:	2f04           	movel %d4,%sp@-
    6276:	4e93           	jsr %a3@
    6278:	4fef 0010      	lea %sp@(16),%sp
    627c:	2800           	movel %d0,%d4
    627e:	2a01           	movel %d1,%d5
    6280:	42a7           	clrl %sp@-
    6282:	2f3c 4024 0000 	movel #1076101120,%sp@-
    6288:	2f03           	movel %d3,%sp@-
    628a:	2f02           	movel %d2,%sp@-
    628c:	4e93           	jsr %a3@
    628e:	4fef 0010      	lea %sp@(16),%sp
    6292:	2400           	movel %d0,%d2
    6294:	2601           	movel %d1,%d3
    6296:	2f01           	movel %d1,%sp@-
    6298:	2f02           	movel %d2,%sp@-
    629a:	4eb9 0000 fe56 	jsr fe56 <__fixdfsi>
    62a0:	508f           	addql #8,%sp
    62a2:	2440           	moveal %d0,%a2
    62a4:	2f00           	movel %d0,%sp@-
    62a6:	4eb9 0000 fc0c 	jsr fc0c <__floatsidf>
    62ac:	2e81           	movel %d1,%sp@
    62ae:	2f00           	movel %d0,%sp@-
    62b0:	2f03           	movel %d3,%sp@-
    62b2:	2f02           	movel %d2,%sp@-
    62b4:	4e94           	jsr %a4@
    62b6:	4fef 0010      	lea %sp@(16),%sp
    62ba:	2400           	movel %d0,%d2
    62bc:	2601           	movel %d1,%d3
    62be:	300a           	movew %a2,%d0
    62c0:	0600 0030      	addib #48,%d0
    62c4:	1ac0           	moveb %d0,%a5@+
    62c6:	2f05           	movel %d5,%sp@-
    62c8:	2f04           	movel %d4,%sp@-
    62ca:	2f01           	movel %d1,%sp@-
    62cc:	2f02           	movel %d2,%sp@-
    62ce:	4eb9 0000 fa08 	jsr fa08 <__ltdf2>
    62d4:	4fef 0010      	lea %sp@(16),%sp
    62d8:	4a80           	tstl %d0
    62da:	6c00 ff5c      	bgew 6238 <_dtoa_r+0x516>
    62de:	2e2e ffc4      	movel %fp@(-60),%d7
    62e2:	2d6e ff88 0008 	movel %fp@(-120),%fp@(8)
    62e8:	262e fff4      	movel %fp@(-12),%d3
    62ec:	5283           	addql #1,%d3
    62ee:	2d7c 0000 7b48 	movel #31560,%fp@(-112)
    62f4:	ff90 
    62f6:	2f07           	movel %d7,%sp@-
    62f8:	2f2e 0008      	movel %fp@(8),%sp@-
    62fc:	246e ff90      	moveal %fp@(-112),%a2
    6300:	4e92           	jsr %a2@
    6302:	4215           	clrb %a5@
    6304:	206e 001c      	moveal %fp@(28),%a0
    6308:	2083           	movel %d3,%a0@
    630a:	508f           	addql #8,%sp
    630c:	4aae 0024      	tstl %fp@(36)
    6310:	6700 fac2      	beqw 5dd4 <_dtoa_r+0xb2>
    6314:	226e 0024      	moveal %fp@(36),%a1
    6318:	228d           	movel %a5,%a1@
    631a:	202e ff98      	movel %fp@(-104),%d0
    631e:	4cee 3cfc ff58 	moveml %fp@(-168),%d2-%d7/%a2-%a5
    6324:	4e5e           	unlk %fp
    6326:	4e75           	rts
    6328:	7001           	moveq #1,%d0
    632a:	2480           	movel %d0,%a2@
    632c:	0882 001f      	bclr #31,%d2
    6330:	2d42 ff94      	movel %d2,%fp@(-108)
    6334:	2802           	movel %d2,%d4
    6336:	2004           	movel %d4,%d0
    6338:	0280 7ff0 0000 	andil #2146435072,%d0
    633e:	0c80 7ff0 0000 	cmpil #2146435072,%d0
    6344:	6600 fa48      	bnew 5d8e <_dtoa_r+0x6c>
    6348:	206e 001c      	moveal %fp@(28),%a0
    634c:	20bc 0000 270f 	movel #9999,%a0@
    6352:	0284 000f ffff 	andil #1048575,%d4
    6358:	88ae ff9c      	orl %fp@(-100),%d4
    635c:	6600 018e      	bnew 64ec <_dtoa_r+0x7ca>
    6360:	4aae 0024      	tstl %fp@(36)
    6364:	6700 1306      	beqw 766c <_dtoa_r+0x194a>
    6368:	2d7c 0001 0906 	movel #67846,%fp@(-104)
    636e:	ff98 
    6370:	203c 0001 090e 	movel #67854,%d0
    6376:	226e 0024      	moveal %fp@(36),%a1
    637a:	2280           	movel %d0,%a1@
    637c:	202e ff98      	movel %fp@(-104),%d0
    6380:	4cee 3cfc ff58 	moveml %fp@(-168),%d2-%d7/%a2-%a5
    6386:	4e5e           	unlk %fp
    6388:	4e75           	rts
    638a:	242e ffac      	movel %fp@(-84),%d2
    638e:	262e ffb0      	movel %fp@(-80),%d3
    6392:	202e ffac      	movel %fp@(-84),%d0
    6396:	0280 000f ffff 	andil #1048575,%d0
    639c:	2400           	movel %d0,%d2
    639e:	0082 3ff0 0000 	oril #1072693248,%d2
    63a4:	0685 ffff fc01 	addil #-1023,%d5
    63aa:	2c2e fff8      	movel %fp@(-8),%d6
    63ae:	42ae ffd8      	clrl %fp@(-40)
    63b2:	49f9 0000 efba 	lea efba <__subdf3>,%a4
    63b8:	42a7           	clrl %sp@-
    63ba:	2f3c 3ff8 0000 	movel #1073217536,%sp@-
    63c0:	2f03           	movel %d3,%sp@-
    63c2:	2f02           	movel %d2,%sp@-
    63c4:	4e94           	jsr %a4@
    63c6:	4fef 0010      	lea %sp@(16),%sp
    63ca:	47f9 0000 f356 	lea f356 <__muldf3>,%a3
    63d0:	2f3c 636f 4361 	movel #1668236129,%sp@-
    63d6:	2f3c 3fd2 87a7 	movel #1070761895,%sp@-
    63dc:	2f01           	movel %d1,%sp@-
    63de:	2f00           	movel %d0,%sp@-
    63e0:	4e93           	jsr %a3@
    63e2:	4fef 000c      	lea %sp@(12),%sp
    63e6:	2ebc 8b60 c8b3 	movel #-1956591437,%sp@
    63ec:	2f3c 3fc6 8a28 	movel #1069976104,%sp@-
    63f2:	2f01           	movel %d1,%sp@-
    63f4:	2f00           	movel %d0,%sp@-
    63f6:	4eb9 0000 efc0 	jsr efc0 <__adddf3>
    63fc:	4fef 0010      	lea %sp@(16),%sp
    6400:	2400           	movel %d0,%d2
    6402:	2601           	movel %d1,%d3
    6404:	2f05           	movel %d5,%sp@-
    6406:	4eb9 0000 fc0c 	jsr fc0c <__floatsidf>
    640c:	2ebc 509f 79fb 	movel #1352628731,%sp@
    6412:	2f3c 3fd3 4413 	movel #1070810131,%sp@-
    6418:	2f01           	movel %d1,%sp@-
    641a:	2f00           	movel %d0,%sp@-
    641c:	4e93           	jsr %a3@
    641e:	4fef 000c      	lea %sp@(12),%sp
    6422:	2e81           	movel %d1,%sp@
    6424:	2f00           	movel %d0,%sp@-
    6426:	2f03           	movel %d3,%sp@-
    6428:	2f02           	movel %d2,%sp@-
    642a:	4eb9 0000 efc0 	jsr efc0 <__adddf3>
    6430:	4fef 0010      	lea %sp@(16),%sp
    6434:	2400           	movel %d0,%d2
    6436:	2601           	movel %d1,%d3
    6438:	2f01           	movel %d1,%sp@-
    643a:	2f02           	movel %d2,%sp@-
    643c:	4eb9 0000 fe56 	jsr fe56 <__fixdfsi>
    6442:	508f           	addql #8,%sp
    6444:	2800           	movel %d0,%d4
    6446:	42a7           	clrl %sp@-
    6448:	42a7           	clrl %sp@-
    644a:	2f03           	movel %d3,%sp@-
    644c:	2f02           	movel %d2,%sp@-
    644e:	4eb9 0000 fa08 	jsr fa08 <__ltdf2>
    6454:	4fef 0010      	lea %sp@(16),%sp
    6458:	4a80           	tstl %d0
    645a:	6c00 faa8      	bgew 5f04 <_dtoa_r+0x1e2>
    645e:	2f04           	movel %d4,%sp@-
    6460:	4eb9 0000 fc0c 	jsr fc0c <__floatsidf>
    6466:	2e83           	movel %d3,%sp@
    6468:	2f02           	movel %d2,%sp@-
    646a:	2f01           	movel %d1,%sp@-
    646c:	2f00           	movel %d0,%sp@-
    646e:	4eb9 0000 f9c0 	jsr f9c0 <__nedf2>
    6474:	4fef 0010      	lea %sp@(16),%sp
    6478:	4a80           	tstl %d0
    647a:	6700 fa88      	beqw 5f04 <_dtoa_r+0x1e2>
    647e:	5384           	subql #1,%d4
    6480:	9c85           	subl %d5,%d6
    6482:	2606           	movel %d6,%d3
    6484:	5383           	subql #1,%d3
    6486:	2d43 ff90      	movel %d3,%fp@(-112)
    648a:	7016           	moveq #22,%d0
    648c:	b084           	cmpl %d4,%d0
    648e:	6400 fa86      	bccw 5f16 <_dtoa_r+0x1f4>
    6492:	7601           	moveq #1,%d3
    6494:	2d43 ffd0      	movel %d3,%fp@(-48)
    6498:	4aae ff90      	tstl %fp@(-112)
    649c:	6c00 fab0      	bgew 5f4e <_dtoa_r+0x22c>
    64a0:	7601           	moveq #1,%d3
    64a2:	9686           	subl %d6,%d3
    64a4:	2d43 ffa4      	movel %d3,%fp@(-92)
    64a8:	42ae ff90      	clrl %fp@(-112)
    64ac:	4a84           	tstl %d4
    64ae:	6d00 faa8      	bltw 5f58 <_dtoa_r+0x236>
    64b2:	d9ae ff90      	addl %d4,%fp@(-112)
    64b6:	2d44 ffb4      	movel %d4,%fp@(-76)
    64ba:	42ae ffc0      	clrl %fp@(-64)
    64be:	7009           	moveq #9,%d0
    64c0:	b0ae 0014      	cmpl %fp@(20),%d0
    64c4:	6400 faae      	bccw 5f74 <_dtoa_r+0x252>
    64c8:	7401           	moveq #1,%d2
    64ca:	42ae 0014      	clrl %fp@(20)
    64ce:	7601           	moveq #1,%d3
    64d0:	2d43 ffb8      	movel %d3,%fp@(-72)
    64d4:	7aff           	moveq #-1,%d5
    64d6:	42ae 0018      	clrl %fp@(24)
    64da:	206e 0008      	moveal %fp@(8),%a0
    64de:	42a8 003a      	clrl %a0@(58)
    64e2:	2d45 ffd4      	movel %d5,%fp@(-44)
    64e6:	7200           	moveq #0,%d1
    64e8:	6000 fb04      	braw 5fee <_dtoa_r+0x2cc>
    64ec:	4aae 0024      	tstl %fp@(36)
    64f0:	667a           	bnes 656c <_dtoa_r+0x84a>
    64f2:	2d7c 0001 090f 	movel #67855,%fp@(-104)
    64f8:	ff98 
    64fa:	202e ff98      	movel %fp@(-104),%d0
    64fe:	4cee 3cfc ff58 	moveml %fp@(-168),%d2-%d7/%a2-%a5
    6504:	4e5e           	unlk %fp
    6506:	4e75           	rts
    6508:	7003           	moveq #3,%d0
    650a:	b0ae 0014      	cmpl %fp@(20),%d0
    650e:	6700 0b5a      	beqw 706a <_dtoa_r+0x1348>
    6512:	6c00 00a8      	bgew 65bc <_dtoa_r+0x89a>
    6516:	7401           	moveq #1,%d2
    6518:	7604           	moveq #4,%d3
    651a:	b6ae 0014      	cmpl %fp@(20),%d3
    651e:	6764           	beqs 6584 <_dtoa_r+0x862>
    6520:	6000 fa7a      	braw 5f9c <_dtoa_r+0x27a>
    6524:	4a86           	tstl %d6
    6526:	6f00 0c60      	blew 7188 <_dtoa_r+0x1466>
    652a:	42ae ffd0      	clrl %fp@(-48)
    652e:	42ae ffa4      	clrl %fp@(-92)
    6532:	d9ae ff90      	addl %d4,%fp@(-112)
    6536:	2d44 ffb4      	movel %d4,%fp@(-76)
    653a:	42ae ffc0      	clrl %fp@(-64)
    653e:	6000 ff7e      	braw 64be <_dtoa_r+0x79c>
    6542:	7220           	moveq #32,%d1
    6544:	9280           	subl %d0,%d1
    6546:	282e ff9c      	movel %fp@(-100),%d4
    654a:	e3ac           	lsll %d1,%d4
    654c:	2f04           	movel %d4,%sp@-
    654e:	4eb9 0000 fb8a 	jsr fb8a <__floatunsidf>
    6554:	588f           	addql #4,%sp
    6556:	2400           	movel %d0,%d2
    6558:	2601           	movel %d1,%d3
    655a:	0682 fe10 0000 	addil #-32505856,%d2
    6560:	5385           	subql #1,%d5
    6562:	7001           	moveq #1,%d0
    6564:	2d40 ffd8      	movel %d0,%fp@(-40)
    6568:	6000 f8ee      	braw 5e58 <_dtoa_r+0x136>
    656c:	2d7c 0001 090f 	movel #67855,%fp@(-104)
    6572:	ff98 
    6574:	203c 0001 0912 	movel #67858,%d0
    657a:	226e 0024      	moveal %fp@(36),%a1
    657e:	2280           	movel %d0,%a1@
    6580:	6000 fdfa      	braw 637c <_dtoa_r+0x65a>
    6584:	7601           	moveq #1,%d3
    6586:	2d43 ffb8      	movel %d3,%fp@(-72)
    658a:	4aae 0018      	tstl %fp@(24)
    658e:	6f00 08de      	blew 6e6e <_dtoa_r+0x114c>
    6592:	2d6e 0018 ffd4 	movel %fp@(24),%fp@(-44)
    6598:	2a2e 0018      	movel %fp@(24),%d5
    659c:	2605           	movel %d5,%d3
    659e:	6000 fa1e      	braw 5fbe <_dtoa_r+0x29c>
    65a2:	206e 0008      	moveal %fp@(8),%a0
    65a6:	42a8 003a      	clrl %a0@(58)
    65aa:	7200           	moveq #0,%d1
    65ac:	6000 fa40      	braw 5fee <_dtoa_r+0x2cc>
    65b0:	7602           	moveq #2,%d3
    65b2:	2d43 0014      	movel %d3,%fp@(20)
    65b6:	42ae ffb8      	clrl %fp@(-72)
    65ba:	60ce           	bras 658a <_dtoa_r+0x868>
    65bc:	7202           	moveq #2,%d1
    65be:	b2ae 0014      	cmpl %fp@(20),%d1
    65c2:	6700 10be      	beqw 7682 <_dtoa_r+0x1960>
    65c6:	226e 0008      	moveal %fp@(8),%a1
    65ca:	42a9 003a      	clrl %a1@(58)
    65ce:	42a7           	clrl %sp@-
    65d0:	2f09           	movel %a1,%sp@-
    65d2:	2d7c 0000 7ab8 	movel #31416,%fp@(-52)
    65d8:	ffcc 
    65da:	45f9 0000 7ab8 	lea 7ab8 <_Balloc>,%a2
    65e0:	4e92           	jsr %a2@
    65e2:	2d40 ff98      	movel %d0,%fp@(-104)
    65e6:	508f           	addql #8,%sp
    65e8:	6700 106a      	beqw 7654 <_dtoa_r+0x1932>
    65ec:	226e 0008      	moveal %fp@(8),%a1
    65f0:	236e ff98 0036 	movel %fp@(-104),%a1@(54)
    65f6:	7601           	moveq #1,%d3
    65f8:	2d43 ffb8      	movel %d3,%fp@(-72)
    65fc:	76ff           	moveq #-1,%d3
    65fe:	2d43 ffd4      	movel %d3,%fp@(-44)
    6602:	7aff           	moveq #-1,%d5
    6604:	42ae 0018      	clrl %fp@(24)
    6608:	202e fffc      	movel %fp@(-4),%d0
    660c:	6b00 0160      	bmiw 676e <_dtoa_r+0xa4c>
    6610:	720e           	moveq #14,%d1
    6612:	b2ae ffb4      	cmpl %fp@(-76),%d1
    6616:	6d00 0156      	bltw 676e <_dtoa_r+0xa4c>
    661a:	41f9 0001 0a50 	lea 10a50 <__mprec_tens>,%a0
    6620:	202e ffb4      	movel %fp@(-76),%d0
    6624:	e788           	lsll #3,%d0
    6626:	2d70 0800 ff88 	movel %a0@(0,%d0:l),%fp@(-120)
    662c:	2d70 0804 ff8c 	movel %a0@(4,%d0:l),%fp@(-116)
    6632:	4aae 0018      	tstl %fp@(24)
    6636:	6c00 0850      	bgew 6e88 <_dtoa_r+0x1166>
    663a:	4a85           	tstl %d5
    663c:	6e00 084a      	bgtw 6e88 <_dtoa_r+0x1166>
    6640:	6632           	bnes 6674 <_dtoa_r+0x952>
    6642:	42a7           	clrl %sp@-
    6644:	2f3c 4014 0000 	movel #1075052544,%sp@-
    664a:	2f2e ff8c      	movel %fp@(-116),%sp@-
    664e:	2f2e ff88      	movel %fp@(-120),%sp@-
    6652:	4e93           	jsr %a3@
    6654:	4fef 000c      	lea %sp@(12),%sp
    6658:	2e81           	movel %d1,%sp@
    665a:	2f00           	movel %d0,%sp@-
    665c:	2f2e ffb0      	movel %fp@(-80),%sp@-
    6660:	2f2e ffac      	movel %fp@(-84),%sp@-
    6664:	4eb9 0000 fa2c 	jsr fa2c <__ledf2>
    666a:	4fef 0010      	lea %sp@(16),%sp
    666e:	4a80           	tstl %d0
    6670:	6e00 00c4      	bgtw 6736 <_dtoa_r+0xa14>
    6674:	2a6e ff98      	moveal %fp@(-104),%a5
    6678:	7c00           	moveq #0,%d6
    667a:	95ca           	subal %a2,%a2
    667c:	262e 0018      	movel %fp@(24),%d3
    6680:	4683           	notl %d3
    6682:	2f06           	movel %d6,%sp@-
    6684:	2f2e 0008      	movel %fp@(8),%sp@-
    6688:	2d7c 0000 7b48 	movel #31560,%fp@(-112)
    668e:	ff90 
    6690:	41f9 0000 7b48 	lea 7b48 <_Bfree>,%a0
    6696:	4e90           	jsr %a0@
    6698:	5283           	addql #1,%d3
    669a:	508f           	addql #8,%sp
    669c:	b4fc 0000      	cmpaw #0,%a2
    66a0:	6700 fc54      	beqw 62f6 <_dtoa_r+0x5d4>
    66a4:	2f0a           	movel %a2,%sp@-
    66a6:	2f2e 0008      	movel %fp@(8),%sp@-
    66aa:	226e ff90      	moveal %fp@(-112),%a1
    66ae:	4e91           	jsr %a1@
    66b0:	508f           	addql #8,%sp
    66b2:	6000 fc42      	braw 62f6 <_dtoa_r+0x5d4>
    66b6:	4a85           	tstl %d5
    66b8:	6700 0a06      	beqw 70c0 <_dtoa_r+0x139e>
