
simple_trig_020.elf:     file format elf32-m68k


Disassembly of section .text.reloc:

00002000 <_reloc>:
    2000:	41fa fffe      	lea %pc@(2000 <_reloc>),%a0
    2004:	43f9 0000 2000 	lea 2000 <_reloc>,%a1
    200a:	203c 0000 20a0 	movel #8352,%d0
    2010:	9089           	subl %a1,%d0
    2012:	e488           	lsrl #2,%d0
    2014:	5380           	subql #1,%d0
    2016:	22d8           	movel %a0@+,%a1@+
    2018:	51c8 fffc      	dbf %d0,2016 <_reloc+0x16>
    201c:	4ef9 0000 2024 	jmp 2024 <_postreloc>

Disassembly of section .text.postreloc:

00002024 <_postreloc>:
	...

00002030 <POSTRELOC>:
    2030:	203c 0001 53e8 	movel #87016,%d0
    2036:	9089           	subl %a1,%d0
    2038:	e488           	lsrl #2,%d0
    203a:	2200           	movel %d0,%d1
    203c:	4841           	swap %d1
    203e:	6002           	bras 2042 <POSTRELOC+0x12>
    2040:	22d8           	movel %a0@+,%a1@+
    2042:	51c8 fffc      	dbf %d0,2040 <POSTRELOC+0x10>
    2046:	51c9 fff8      	dbf %d1,2040 <POSTRELOC+0x10>

0000204a <_enter>:
    204a:	2e78 0414      	moveal 414 <SDB_MEMSIZE>,%sp
    204e:	612c           	bsrs 207c <_bss_init>
    2050:	4eb9 0001 2cfc 	jsr 12cfc <_init>
    2056:	2f3c 0001 2d10 	movel #77072,%sp@-
    205c:	4eb9 0000 5170 	jsr 5170 <atexit>
    2062:	2eb8 0000      	movel 0 <DUART_MR1A>,%sp@
    2066:	2f3c 0001 53e8 	movel #87016,%sp@-
    206c:	41f9 0000 21a2 	lea 21a2 <main>,%a0
    2072:	4e90           	jsr %a0@
    2074:	2f00           	movel %d0,%sp@-
    2076:	4eb9 0000 5188 	jsr 5188 <exit>

0000207c <_bss_init>:
    207c:	203c 0002 b2e8 	movel #176872,%d0
    2082:	90bc 0001 53e8 	subl #87016,%d0
    2088:	e488           	lsrl #2,%d0
    208a:	41f9 0001 53e8 	lea 153e8 <__TMC_END__>,%a0
    2090:	6002           	bras 2094 <_bss_init+0x18>
    2092:	4298           	clrl %a0@+
    2094:	51c8 fffc      	dbf %d0,2092 <_bss_init+0x16>
    2098:	4e75           	rts
    209a:	0000 0000      	orib #0,%d0
	...

Disassembly of section .text:

000020a4 <deregister_tm_clones>:
    20a4:	203c 0001 53e8 	movel #87016,%d0
    20aa:	0c80 0001 53e8 	cmpil #87016,%d0
    20b0:	6716           	beqs 20c8 <deregister_tm_clones+0x24>
    20b2:	41f9 0000 0000 	lea 0 <DUART_MR1A>,%a0
    20b8:	b0fc 0000      	cmpaw #0,%a0
    20bc:	670a           	beqs 20c8 <deregister_tm_clones+0x24>
    20be:	4879 0001 53e8 	pea 153e8 <__TMC_END__>
    20c4:	4e90           	jsr %a0@
    20c6:	588f           	addql #4,%sp
    20c8:	4e75           	rts

000020ca <register_tm_clones>:
    20ca:	203c 0001 53e8 	movel #87016,%d0
    20d0:	0480 0001 53e8 	subil #87016,%d0
    20d6:	2200           	movel %d0,%d1
    20d8:	e481           	asrl #2,%d1
    20da:	d080           	addl %d0,%d0
    20dc:	9180           	subxl %d0,%d0
    20de:	4480           	negl %d0
    20e0:	d081           	addl %d1,%d0
    20e2:	e280           	asrl #1,%d0
    20e4:	6718           	beqs 20fe <register_tm_clones+0x34>
    20e6:	41f9 0000 0000 	lea 0 <DUART_MR1A>,%a0
    20ec:	b0fc 0000      	cmpaw #0,%a0
    20f0:	670c           	beqs 20fe <register_tm_clones+0x34>
    20f2:	2f00           	movel %d0,%sp@-
    20f4:	4879 0001 53e8 	pea 153e8 <__TMC_END__>
    20fa:	4e90           	jsr %a0@
    20fc:	508f           	addql #8,%sp
    20fe:	4e75           	rts

00002100 <__do_global_dtors_aux>:
    2100:	2f0a           	movel %a2,%sp@-
    2102:	2f02           	movel %d2,%sp@-
    2104:	4a39 0001 53ec 	tstb 153ec <completed.2>
    210a:	665e           	bnes 216a <__do_global_dtors_aux+0x6a>
    210c:	45f9 0001 279c 	lea 1279c <__DTOR_LIST__>,%a2
    2112:	2039 0001 53ee 	movel 153ee <dtor_idx.1>,%d0
    2118:	243c 0001 27a0 	movel #75680,%d2
    211e:	0482 0001 279c 	subil #75676,%d2
    2124:	e482           	asrl #2,%d2
    2126:	5382           	subql #1,%d2
    2128:	b480           	cmpl %d0,%d2
    212a:	631c           	blss 2148 <__do_global_dtors_aux+0x48>
    212c:	5280           	addql #1,%d0
    212e:	23c0 0001 53ee 	movel %d0,153ee <dtor_idx.1>
    2134:	d080           	addl %d0,%d0
    2136:	d080           	addl %d0,%d0
    2138:	2072 0800      	moveal %a2@(0,%d0:l),%a0
    213c:	4e90           	jsr %a0@
    213e:	2039 0001 53ee 	movel 153ee <dtor_idx.1>,%d0
    2144:	b480           	cmpl %d0,%d2
    2146:	62e4           	bhis 212c <__do_global_dtors_aux+0x2c>
    2148:	4eba ff5a      	jsr %pc@(20a4 <deregister_tm_clones>)
    214c:	41f9 0000 0000 	lea 0 <DUART_MR1A>,%a0
    2152:	b0fc 0000      	cmpaw #0,%a0
    2156:	670a           	beqs 2162 <__do_global_dtors_aux+0x62>
    2158:	4879 0000 20a0 	pea 20a0 <__EH_FRAME_BEGIN__>
    215e:	4e90           	jsr %a0@
    2160:	588f           	addql #4,%sp
    2162:	13fc 0001 0001 	moveb #1,153ec <completed.2>
    2168:	53ec 
    216a:	241f           	movel %sp@+,%d2
    216c:	245f           	moveal %sp@+,%a2
    216e:	4e75           	rts

00002170 <call___do_global_dtors_aux>:
    2170:	4e75           	rts

00002172 <frame_dummy>:
    2172:	41f9 0000 0000 	lea 0 <DUART_MR1A>,%a0
    2178:	b0fc 0000      	cmpaw #0,%a0
    217c:	6710           	beqs 218e <frame_dummy+0x1c>
    217e:	4879 0001 53f2 	pea 153f2 <object.0>
    2184:	4879 0000 20a0 	pea 20a0 <__EH_FRAME_BEGIN__>
    218a:	4e90           	jsr %a0@
    218c:	508f           	addql #8,%sp
    218e:	6000 ff3a      	braw 20ca <register_tm_clones>

00002192 <call_frame_dummy>:
    2192:	4e75           	rts

00002194 <getnum>:
    2194:	4e56 0000      	linkw %fp,#0
    2198:	307c 040c      	moveaw #1036,%a0
    219c:	2010           	movel %a0@,%d0
    219e:	4e5e           	unlk %fp
    21a0:	4e75           	rts

000021a2 <main>:
    21a2:	4e56 fffc      	linkw %fp,#-4
    21a6:	4eb9 0000 2194 	jsr 2194 <getnum>
    21ac:	4a80           	tstl %d0
    21ae:	6c06           	bges 21b6 <main+0x14>
    21b0:	0680 0000 ffff 	addil #65535,%d0
    21b6:	4840           	swap %d0
    21b8:	48c0           	extl %d0
    21ba:	f200 4000      	fmovel %d0,%fp0
    21be:	f227 7400      	fmoved %fp0,%sp@-
    21c2:	4eb9 0000 21fc 	jsr 21fc <cos>
    21c8:	508f           	addql #8,%sp
    21ca:	f200 6400      	fmoves %fp0,%d0
    21ce:	2d40 fffc      	movel %d0,%fp@(-4)
    21d2:	202e fffc      	movel %fp@(-4),%d0
    21d6:	f200 4400      	fmoves %d0,%fp0
    21da:	f227 7400      	fmoved %fp0,%sp@-
    21de:	201f           	movel %sp@+,%d0
    21e0:	221f           	movel %sp@+,%d1
    21e2:	2f01           	movel %d1,%sp@-
    21e4:	2f00           	movel %d0,%sp@-
    21e6:	4879 0001 27a4 	pea 127a4 <_dtors_end>
    21ec:	4eb9 0000 51d4 	jsr 51d4 <printf>
    21f2:	4fef 000c      	lea %sp@(12),%sp
    21f6:	4280           	clrl %d0
    21f8:	4e5e           	unlk %fp
    21fa:	4e75           	rts

000021fc <cos>:
    21fc:	4e56 fff0      	linkw %fp,#-16
    2200:	2f02           	movel %d2,%sp@-
    2202:	202e 0008      	movel %fp@(8),%d0
    2206:	222e 000c      	movel %fp@(12),%d1
    220a:	2400           	movel %d0,%d2
    220c:	0882 001f      	bclr #31,%d2
    2210:	0c82 3fe9 21fb 	cmpil #1072243195,%d2
    2216:	636c           	blss 2284 <cos+0x88>
    2218:	0c82 7fef ffff 	cmpil #2146435071,%d2
    221e:	631a           	blss 223a <cos+0x3e>
    2220:	2f01           	movel %d1,%sp@-
    2222:	2f00           	movel %d0,%sp@-
    2224:	2f01           	movel %d1,%sp@-
    2226:	2f00           	movel %d0,%sp@-
    2228:	4eb9 0000 419a 	jsr 419a <__subdf3>
    222e:	4fef 0010      	lea %sp@(16),%sp
    2232:	242e ffec      	movel %fp@(-20),%d2
    2236:	4e5e           	unlk %fp
    2238:	4e75           	rts
    223a:	486e fff0      	pea %fp@(-16)
    223e:	2f01           	movel %d1,%sp@-
    2240:	2f00           	movel %d0,%sp@-
    2242:	4eb9 0000 2318 	jsr 2318 <__ieee754_rem_pio2>
    2248:	7203           	moveq #3,%d1
    224a:	c081           	andl %d1,%d0
    224c:	4fef 000c      	lea %sp@(12),%sp
    2250:	7201           	moveq #1,%d1
    2252:	b280           	cmpl %d0,%d1
    2254:	6770           	beqs 22c6 <cos+0xca>
    2256:	7202           	moveq #2,%d1
    2258:	b280           	cmpl %d0,%d1
    225a:	6742           	beqs 229e <cos+0xa2>
    225c:	4a80           	tstl %d0
    225e:	6600 0092      	bnew 22f2 <cos+0xf6>
    2262:	2f2e fffc      	movel %fp@(-4),%sp@-
    2266:	2f2e fff8      	movel %fp@(-8),%sp@-
    226a:	2f2e fff4      	movel %fp@(-12),%sp@-
    226e:	2f2e fff0      	movel %fp@(-16),%sp@-
    2272:	4eb9 0000 3720 	jsr 3720 <__kernel_cos>
    2278:	4fef 0010      	lea %sp@(16),%sp
    227c:	242e ffec      	movel %fp@(-20),%d2
    2280:	4e5e           	unlk %fp
    2282:	4e75           	rts
    2284:	42a7           	clrl %sp@-
    2286:	42a7           	clrl %sp@-
    2288:	2f01           	movel %d1,%sp@-
    228a:	2f00           	movel %d0,%sp@-
    228c:	4eb9 0000 3720 	jsr 3720 <__kernel_cos>
    2292:	4fef 0010      	lea %sp@(16),%sp
    2296:	242e ffec      	movel %fp@(-20),%d2
    229a:	4e5e           	unlk %fp
    229c:	4e75           	rts
    229e:	2f2e fffc      	movel %fp@(-4),%sp@-
    22a2:	2f2e fff8      	movel %fp@(-8),%sp@-
    22a6:	2f2e fff4      	movel %fp@(-12),%sp@-
    22aa:	2f2e fff0      	movel %fp@(-16),%sp@-
    22ae:	4eb9 0000 3720 	jsr 3720 <__kernel_cos>
    22b4:	0680 8000 0000 	addil #-2147483648,%d0
    22ba:	4fef 0010      	lea %sp@(16),%sp
    22be:	242e ffec      	movel %fp@(-20),%d2
    22c2:	4e5e           	unlk %fp
    22c4:	4e75           	rts
    22c6:	4878 0001      	pea 1 <ADD>
    22ca:	2f2e fffc      	movel %fp@(-4),%sp@-
    22ce:	2f2e fff8      	movel %fp@(-8),%sp@-
    22d2:	2f2e fff4      	movel %fp@(-12),%sp@-
    22d6:	2f2e fff0      	movel %fp@(-16),%sp@-
    22da:	4eb9 0000 3b1c 	jsr 3b1c <__kernel_sin>
    22e0:	0680 8000 0000 	addil #-2147483648,%d0
    22e6:	4fef 0014      	lea %sp@(20),%sp
    22ea:	242e ffec      	movel %fp@(-20),%d2
    22ee:	4e5e           	unlk %fp
    22f0:	4e75           	rts
    22f2:	4878 0001      	pea 1 <ADD>
    22f6:	2f2e fffc      	movel %fp@(-4),%sp@-
    22fa:	2f2e fff8      	movel %fp@(-8),%sp@-
    22fe:	2f2e fff4      	movel %fp@(-12),%sp@-
    2302:	2f2e fff0      	movel %fp@(-16),%sp@-
    2306:	4eb9 0000 3b1c 	jsr 3b1c <__kernel_sin>
    230c:	4fef 0014      	lea %sp@(20),%sp
    2310:	242e ffec      	movel %fp@(-20),%d2
    2314:	4e5e           	unlk %fp
    2316:	4e75           	rts

00002318 <__ieee754_rem_pio2>:
    2318:	4e56 ffc8      	linkw %fp,#-56
    231c:	48e7 3f3c      	moveml %d2-%d7/%a2-%a5,%sp@-
    2320:	202e 0008      	movel %fp@(8),%d0
    2324:	222e 000c      	movel %fp@(12),%d1
    2328:	246e 0010      	moveal %fp@(16),%a2
    232c:	2040           	moveal %d0,%a0
    232e:	2e00           	movel %d0,%d7
    2330:	0887 001f      	bclr #31,%d7
    2334:	0c87 3fe9 21fb 	cmpil #1072243195,%d7
    233a:	6300 01f4      	blsw 2530 <__ieee754_rem_pio2+0x218>
    233e:	2600           	movel %d0,%d3
    2340:	0c87 4002 d97b 	cmpil #1073928571,%d7
    2346:	6200 0092      	bhiw 23da <__ieee754_rem_pio2+0xc2>
    234a:	b0fc 0000      	cmpaw #0,%a0
    234e:	6f00 062c      	blew 297c <__ieee754_rem_pio2+0x664>
    2352:	47f9 0000 419a 	lea 419a <__subdf3>,%a3
    2358:	2f3c 5440 0000 	movel #1413480448,%sp@-
    235e:	2f3c 3ff9 21fb 	movel #1073291771,%sp@-
    2364:	2f01           	movel %d1,%sp@-
    2366:	2f00           	movel %d0,%sp@-
    2368:	4e93           	jsr %a3@
    236a:	4fef 0010      	lea %sp@(16),%sp
    236e:	2400           	movel %d0,%d2
    2370:	2601           	movel %d1,%d3
    2372:	0c87 3ff9 21fb 	cmpil #1073291771,%d7
    2378:	6700 01fa      	beqw 2574 <__ieee754_rem_pio2+0x25c>
    237c:	2f3c 1a62 6331 	movel #442655537,%sp@-
    2382:	2f3c 3dd0 b461 	movel #1037087841,%sp@-
    2388:	2f01           	movel %d1,%sp@-
    238a:	2f02           	movel %d2,%sp@-
    238c:	4e93           	jsr %a3@
    238e:	4fef 0010      	lea %sp@(16),%sp
    2392:	2800           	movel %d0,%d4
    2394:	2a01           	movel %d1,%d5
    2396:	2f01           	movel %d1,%sp@-
    2398:	2f04           	movel %d4,%sp@-
    239a:	2f03           	movel %d3,%sp@-
    239c:	2f02           	movel %d2,%sp@-
    239e:	4e93           	jsr %a3@
    23a0:	4fef 000c      	lea %sp@(12),%sp
    23a4:	2ebc 1a62 6331 	movel #442655537,%sp@
    23aa:	2f3c 3dd0 b461 	movel #1037087841,%sp@-
    23b0:	2f01           	movel %d1,%sp@-
    23b2:	2f00           	movel %d0,%sp@-
    23b4:	4e93           	jsr %a3@
    23b6:	4fef 0010      	lea %sp@(16),%sp
    23ba:	2484           	movel %d4,%a2@
    23bc:	2545 0004      	movel %d5,%a2@(4)
    23c0:	2040           	moveal %d0,%a0
    23c2:	2241           	moveal %d1,%a1
    23c4:	2548 0008      	movel %a0,%a2@(8)
    23c8:	2549 000c      	movel %a1,%a2@(12)
    23cc:	7401           	moveq #1,%d2
    23ce:	2002           	movel %d2,%d0
    23d0:	4cee 3cfc ffa0 	moveml %fp@(-96),%d2-%d7/%a2-%a5
    23d6:	4e5e           	unlk %fp
    23d8:	4e75           	rts
    23da:	0c87 4139 21fb 	cmpil #1094263291,%d7
    23e0:	6300 0202      	blsw 25e4 <__ieee754_rem_pio2+0x2cc>
    23e4:	0c87 7fef ffff 	cmpil #2146435071,%d7
    23ea:	6200 0160      	bhiw 254c <__ieee754_rem_pio2+0x234>
    23ee:	2c07           	movel %d7,%d6
    23f0:	4846           	swap %d6
    23f2:	e846           	asrw #4,%d6
    23f4:	48c6           	extl %d6
    23f6:	0686 ffff fbea 	addil #-1046,%d6
    23fc:	2006           	movel %d6,%d0
    23fe:	e948           	lslw #4,%d0
    2400:	4840           	swap %d0
    2402:	4240           	clrw %d0
    2404:	2807           	movel %d7,%d4
    2406:	9880           	subl %d0,%d4
    2408:	2a01           	movel %d1,%d5
    240a:	4bf9 0000 4fee 	lea 4fee <__fixdfsi>,%a5
    2410:	2f01           	movel %d1,%sp@-
    2412:	2f04           	movel %d4,%sp@-
    2414:	4e95           	jsr %a5@
    2416:	508f           	addql #8,%sp
    2418:	49f9 0000 4da4 	lea 4da4 <__floatsidf>,%a4
    241e:	2f00           	movel %d0,%sp@-
    2420:	4e94           	jsr %a4@
    2422:	2040           	moveal %d0,%a0
    2424:	2241           	moveal %d1,%a1
    2426:	2d48 ffe8      	movel %a0,%fp@(-24)
    242a:	2d49 ffec      	movel %a1,%fp@(-20)
    242e:	47f9 0000 419a 	lea 419a <__subdf3>,%a3
    2434:	2e81           	movel %d1,%sp@
    2436:	2f08           	movel %a0,%sp@-
    2438:	2f05           	movel %d5,%sp@-
    243a:	2f04           	movel %d4,%sp@-
    243c:	4e93           	jsr %a3@
    243e:	4fef 000c      	lea %sp@(12),%sp
    2442:	4297           	clrl %sp@
    2444:	2f3c 4170 0000 	movel #1097859072,%sp@-
    244a:	2f01           	movel %d1,%sp@-
    244c:	2f00           	movel %d0,%sp@-
    244e:	4eb9 0000 4536 	jsr 4536 <__muldf3>
    2454:	4fef 0010      	lea %sp@(16),%sp
    2458:	2800           	movel %d0,%d4
    245a:	2a01           	movel %d1,%d5
    245c:	2f01           	movel %d1,%sp@-
    245e:	2f04           	movel %d4,%sp@-
    2460:	4e95           	jsr %a5@
    2462:	588f           	addql #4,%sp
    2464:	2e80           	movel %d0,%sp@
    2466:	4e94           	jsr %a4@
    2468:	2040           	moveal %d0,%a0
    246a:	2241           	moveal %d1,%a1
    246c:	2d48 fff0      	movel %a0,%fp@(-16)
    2470:	2d49 fff4      	movel %a1,%fp@(-12)
    2474:	2e81           	movel %d1,%sp@
    2476:	2f08           	movel %a0,%sp@-
    2478:	2f05           	movel %d5,%sp@-
    247a:	2f04           	movel %d4,%sp@-
    247c:	4e93           	jsr %a3@
    247e:	4fef 000c      	lea %sp@(12),%sp
    2482:	4297           	clrl %sp@
    2484:	2f3c 4170 0000 	movel #1097859072,%sp@-
    248a:	2f01           	movel %d1,%sp@-
    248c:	2f00           	movel %d0,%sp@-
    248e:	4eb9 0000 4536 	jsr 4536 <__muldf3>
    2494:	4fef 0010      	lea %sp@(16),%sp
    2498:	2d40 fff8      	movel %d0,%fp@(-8)
    249c:	2d41 fffc      	movel %d1,%fp@(-4)
    24a0:	47ee fff8      	lea %fp@(-8),%a3
    24a4:	7403           	moveq #3,%d2
    24a6:	49f9 0000 4b7c 	lea 4b7c <__eqdf2>,%a4
    24ac:	4284           	clrl %d4
    24ae:	4285           	clrl %d5
    24b0:	2e02           	movel %d2,%d7
    24b2:	5382           	subql #1,%d2
    24b4:	518b           	subql #8,%a3
    24b6:	2f05           	movel %d5,%sp@-
    24b8:	2f04           	movel %d4,%sp@-
    24ba:	2f2b 000c      	movel %a3@(12),%sp@-
    24be:	2f2b 0008      	movel %a3@(8),%sp@-
    24c2:	4e94           	jsr %a4@
    24c4:	4fef 0010      	lea %sp@(16),%sp
    24c8:	4a80           	tstl %d0
    24ca:	67e4           	beqs 24b0 <__ieee754_rem_pio2+0x198>
    24cc:	4879 0001 2834 	pea 12834 <two_over_pi>
    24d2:	4878 0002      	pea 2 <DOUBLE_FLOAT>
    24d6:	2f07           	movel %d7,%sp@-
    24d8:	2f06           	movel %d6,%sp@-
    24da:	2f0a           	movel %a2,%sp@-
    24dc:	486e ffe8      	pea %fp@(-24)
    24e0:	4eb9 0000 2a78 	jsr 2a78 <__kernel_rem_pio2>
    24e6:	2400           	movel %d0,%d2
    24e8:	4fef 0018      	lea %sp@(24),%sp
    24ec:	4a83           	tstl %d3
    24ee:	6c00 fede      	bgew 23ce <__ieee754_rem_pio2+0xb6>
    24f2:	2252           	moveal %a2@,%a1
    24f4:	d3fc 8000 0000 	addal #-2147483648,%a1
    24fa:	206a 0004      	moveal %a2@(4),%a0
    24fe:	2009           	movel %a1,%d0
    2500:	2208           	movel %a0,%d1
    2502:	2480           	movel %d0,%a2@
    2504:	2541 0004      	movel %d1,%a2@(4)
    2508:	226a 0008      	moveal %a2@(8),%a1
    250c:	d3fc 8000 0000 	addal #-2147483648,%a1
    2512:	206a 000c      	moveal %a2@(12),%a0
    2516:	2009           	movel %a1,%d0
    2518:	2208           	movel %a0,%d1
    251a:	2540 0008      	movel %d0,%a2@(8)
    251e:	2541 000c      	movel %d1,%a2@(12)
    2522:	4482           	negl %d2
    2524:	2002           	movel %d2,%d0
    2526:	4cee 3cfc ffa0 	moveml %fp@(-96),%d2-%d7/%a2-%a5
    252c:	4e5e           	unlk %fp
    252e:	4e75           	rts
    2530:	2480           	movel %d0,%a2@
    2532:	2541 0004      	movel %d1,%a2@(4)
    2536:	42aa 0008      	clrl %a2@(8)
    253a:	42aa 000c      	clrl %a2@(12)
    253e:	7400           	moveq #0,%d2
    2540:	2002           	movel %d2,%d0
    2542:	4cee 3cfc ffa0 	moveml %fp@(-96),%d2-%d7/%a2-%a5
    2548:	4e5e           	unlk %fp
    254a:	4e75           	rts
    254c:	2f01           	movel %d1,%sp@-
    254e:	2f00           	movel %d0,%sp@-
    2550:	2f01           	movel %d1,%sp@-
    2552:	2f00           	movel %d0,%sp@-
    2554:	4eb9 0000 419a 	jsr 419a <__subdf3>
    255a:	4fef 0010      	lea %sp@(16),%sp
    255e:	2040           	moveal %d0,%a0
    2560:	2241           	moveal %d1,%a1
    2562:	2548 0008      	movel %a0,%a2@(8)
    2566:	2549 000c      	movel %a1,%a2@(12)
    256a:	2488           	movel %a0,%a2@
    256c:	2549 0004      	movel %a1,%a2@(4)
    2570:	7400           	moveq #0,%d2
    2572:	60cc           	bras 2540 <__ieee754_rem_pio2+0x228>
    2574:	2f3c 1a60 0000 	movel #442499072,%sp@-
    257a:	2f3c 3dd0 b461 	movel #1037087841,%sp@-
    2580:	2f01           	movel %d1,%sp@-
    2582:	2f02           	movel %d2,%sp@-
    2584:	4e93           	jsr %a3@
    2586:	4fef 0010      	lea %sp@(16),%sp
    258a:	2400           	movel %d0,%d2
    258c:	2601           	movel %d1,%d3
    258e:	2f3c 2e03 7073 	movel #771977331,%sp@-
    2594:	2f3c 3ba3 198a 	movel #1000544650,%sp@-
    259a:	2f01           	movel %d1,%sp@-
    259c:	2f02           	movel %d2,%sp@-
    259e:	4e93           	jsr %a3@
    25a0:	4fef 0010      	lea %sp@(16),%sp
    25a4:	2800           	movel %d0,%d4
    25a6:	2a01           	movel %d1,%d5
    25a8:	2f01           	movel %d1,%sp@-
    25aa:	2f04           	movel %d4,%sp@-
    25ac:	2f03           	movel %d3,%sp@-
    25ae:	2f02           	movel %d2,%sp@-
    25b0:	4e93           	jsr %a3@
    25b2:	4fef 000c      	lea %sp@(12),%sp
    25b6:	2ebc 2e03 7073 	movel #771977331,%sp@
    25bc:	2f3c 3ba3 198a 	movel #1000544650,%sp@-
    25c2:	2f01           	movel %d1,%sp@-
    25c4:	2f00           	movel %d0,%sp@-
    25c6:	4e93           	jsr %a3@
    25c8:	4fef 0010      	lea %sp@(16),%sp
    25cc:	2484           	movel %d4,%a2@
    25ce:	2545 0004      	movel %d5,%a2@(4)
    25d2:	2040           	moveal %d0,%a0
    25d4:	2241           	moveal %d1,%a1
    25d6:	2548 0008      	movel %a0,%a2@(8)
    25da:	2549 000c      	movel %a1,%a2@(12)
    25de:	7401           	moveq #1,%d2
    25e0:	6000 fdec      	braw 23ce <__ieee754_rem_pio2+0xb6>
    25e4:	2f01           	movel %d1,%sp@-
    25e6:	2f00           	movel %d0,%sp@-
    25e8:	4eb9 0000 3d2c 	jsr 3d2c <fabs>
    25ee:	2800           	movel %d0,%d4
    25f0:	2a01           	movel %d1,%d5
    25f2:	49f9 0000 4536 	lea 4536 <__muldf3>,%a4
    25f8:	2f3c 6dc9 c883 	movel #1841940611,%sp@-
    25fe:	2f3c 3fe4 5f30 	movel #1071931184,%sp@-
    2604:	2f01           	movel %d1,%sp@-
    2606:	2f04           	movel %d4,%sp@-
    2608:	4e94           	jsr %a4@
    260a:	4fef 000c      	lea %sp@(12),%sp
    260e:	4297           	clrl %sp@
    2610:	2f3c 3fe0 0000 	movel #1071644672,%sp@-
    2616:	2f01           	movel %d1,%sp@-
    2618:	2f00           	movel %d0,%sp@-
    261a:	4eb9 0000 41a0 	jsr 41a0 <__adddf3>
    2620:	4fef 000c      	lea %sp@(12),%sp
    2624:	2e81           	movel %d1,%sp@
    2626:	2f00           	movel %d0,%sp@-
    2628:	4eb9 0000 4fee 	jsr 4fee <__fixdfsi>
    262e:	508f           	addql #8,%sp
    2630:	2400           	movel %d0,%d2
    2632:	2f00           	movel %d0,%sp@-
    2634:	4eb9 0000 4da4 	jsr 4da4 <__floatsidf>
    263a:	2040           	moveal %d0,%a0
    263c:	2241           	moveal %d1,%a1
    263e:	2d48 ffd8      	movel %a0,%fp@(-40)
    2642:	2d49 ffdc      	movel %a1,%fp@(-36)
    2646:	2ebc 5440 0000 	movel #1413480448,%sp@
    264c:	2f3c 3ff9 21fb 	movel #1073291771,%sp@-
    2652:	2f01           	movel %d1,%sp@-
    2654:	2f08           	movel %a0,%sp@-
    2656:	4e94           	jsr %a4@
    2658:	4fef 0010      	lea %sp@(16),%sp
    265c:	47f9 0000 419a 	lea 419a <__subdf3>,%a3
    2662:	2f01           	movel %d1,%sp@-
    2664:	2f00           	movel %d0,%sp@-
    2666:	2f05           	movel %d5,%sp@-
    2668:	2f04           	movel %d4,%sp@-
    266a:	4e93           	jsr %a3@
    266c:	4fef 0010      	lea %sp@(16),%sp
    2670:	2040           	moveal %d0,%a0
    2672:	2241           	moveal %d1,%a1
    2674:	2d48 ffc8      	movel %a0,%fp@(-56)
    2678:	2d49 ffcc      	movel %a1,%fp@(-52)
    267c:	2f3c 1a62 6331 	movel #442655537,%sp@-
    2682:	2f3c 3dd0 b461 	movel #1037087841,%sp@-
    2688:	2f2e ffdc      	movel %fp@(-36),%sp@-
    268c:	2f2e ffd8      	movel %fp@(-40),%sp@-
    2690:	4e94           	jsr %a4@
    2692:	2040           	moveal %d0,%a0
    2694:	2241           	moveal %d1,%a1
    2696:	2d48 ffd0      	movel %a0,%fp@(-48)
    269a:	2d49 ffd4      	movel %a1,%fp@(-44)
    269e:	4fef 0018      	lea %sp@(24),%sp
    26a2:	701f           	moveq #31,%d0
    26a4:	b082           	cmpl %d2,%d0
    26a6:	6d00 009a      	bltw 2742 <__ieee754_rem_pio2+0x42a>
    26aa:	41f9 0001 27b4 	lea 127b4 <npio2_hw>,%a0
    26b0:	2002           	movel %d2,%d0
    26b2:	5380           	subql #1,%d0
    26b4:	d080           	addl %d0,%d0
    26b6:	d080           	addl %d0,%d0
    26b8:	beb0 0800      	cmpl %a0@(0,%d0:l),%d7
    26bc:	6700 0084      	beqw 2742 <__ieee754_rem_pio2+0x42a>
    26c0:	2f2e ffd4      	movel %fp@(-44),%sp@-
    26c4:	2f2e ffd0      	movel %fp@(-48),%sp@-
    26c8:	2f2e ffcc      	movel %fp@(-52),%sp@-
    26cc:	2f2e ffc8      	movel %fp@(-56),%sp@-
    26d0:	4e93           	jsr %a3@
    26d2:	4fef 0010      	lea %sp@(16),%sp
    26d6:	2800           	movel %d0,%d4
    26d8:	2a01           	movel %d1,%d5
    26da:	2484           	movel %d4,%a2@
    26dc:	2545 0004      	movel %d5,%a2@(4)
    26e0:	2f05           	movel %d5,%sp@-
    26e2:	2f04           	movel %d4,%sp@-
    26e4:	2f2e ffcc      	movel %fp@(-52),%sp@-
    26e8:	2f2e ffc8      	movel %fp@(-56),%sp@-
    26ec:	4e93           	jsr %a3@
    26ee:	4fef 000c      	lea %sp@(12),%sp
    26f2:	2eae ffd4      	movel %fp@(-44),%sp@
    26f6:	2f2e ffd0      	movel %fp@(-48),%sp@-
    26fa:	2f01           	movel %d1,%sp@-
    26fc:	2f00           	movel %d0,%sp@-
    26fe:	4e93           	jsr %a3@
    2700:	4fef 0010      	lea %sp@(16),%sp
    2704:	2e00           	movel %d0,%d7
    2706:	2047           	moveal %d7,%a0
    2708:	2241           	moveal %d1,%a1
    270a:	2548 0008      	movel %a0,%a2@(8)
    270e:	2549 000c      	movel %a1,%a2@(12)
    2712:	4a83           	tstl %d3
    2714:	6c00 fcb8      	bgew 23ce <__ieee754_rem_pio2+0xb6>
    2718:	2604           	movel %d4,%d3
    271a:	0683 8000 0000 	addil #-2147483648,%d3
    2720:	2483           	movel %d3,%a2@
    2722:	2545 0004      	movel %d5,%a2@(4)
    2726:	0680 8000 0000 	addil #-2147483648,%d0
    272c:	2540 0008      	movel %d0,%a2@(8)
    2730:	2541 000c      	movel %d1,%a2@(12)
    2734:	4482           	negl %d2
    2736:	2002           	movel %d2,%d0
    2738:	4cee 3cfc ffa0 	moveml %fp@(-96),%d2-%d7/%a2-%a5
    273e:	4e5e           	unlk %fp
    2740:	4e75           	rts
    2742:	2f2e ffd4      	movel %fp@(-44),%sp@-
    2746:	2f2e ffd0      	movel %fp@(-48),%sp@-
    274a:	2f2e ffcc      	movel %fp@(-52),%sp@-
    274e:	2f2e ffc8      	movel %fp@(-56),%sp@-
    2752:	4e93           	jsr %a3@
    2754:	4fef 0010      	lea %sp@(16),%sp
    2758:	2800           	movel %d0,%d4
    275a:	2a01           	movel %d1,%d5
    275c:	2c07           	movel %d7,%d6
    275e:	4846           	swap %d6
    2760:	e846           	asrw #4,%d6
    2762:	48c6           	extl %d6
    2764:	2004           	movel %d4,%d0
    2766:	4240           	clrw %d0
    2768:	4840           	swap %d0
    276a:	e848           	lsrw #4,%d0
    276c:	0280 0000 07ff 	andil #2047,%d0
    2772:	2206           	movel %d6,%d1
    2774:	9280           	subl %d0,%d1
    2776:	7010           	moveq #16,%d0
    2778:	b081           	cmpl %d1,%d0
    277a:	6c00 ff5e      	bgew 26da <__ieee754_rem_pio2+0x3c2>
    277e:	2f3c 1a60 0000 	movel #442499072,%sp@-
    2784:	2f3c 3dd0 b461 	movel #1037087841,%sp@-
    278a:	2f2e ffdc      	movel %fp@(-36),%sp@-
    278e:	2f2e ffd8      	movel %fp@(-40),%sp@-
    2792:	4e94           	jsr %a4@
    2794:	4fef 0010      	lea %sp@(16),%sp
    2798:	2800           	movel %d0,%d4
    279a:	2a01           	movel %d1,%d5
    279c:	2f01           	movel %d1,%sp@-
    279e:	2f04           	movel %d4,%sp@-
    27a0:	2f2e ffcc      	movel %fp@(-52),%sp@-
    27a4:	2f2e ffc8      	movel %fp@(-56),%sp@-
    27a8:	4e93           	jsr %a3@
    27aa:	4fef 0010      	lea %sp@(16),%sp
    27ae:	2040           	moveal %d0,%a0
    27b0:	2241           	moveal %d1,%a1
    27b2:	2d48 ffe0      	movel %a0,%fp@(-32)
    27b6:	2d49 ffe4      	movel %a1,%fp@(-28)
    27ba:	2f01           	movel %d1,%sp@-
    27bc:	2f08           	movel %a0,%sp@-
    27be:	2f2e ffcc      	movel %fp@(-52),%sp@-
    27c2:	2f2e ffc8      	movel %fp@(-56),%sp@-
    27c6:	4e93           	jsr %a3@
    27c8:	4fef 000c      	lea %sp@(12),%sp
    27cc:	2e85           	movel %d5,%sp@
    27ce:	2f04           	movel %d4,%sp@-
    27d0:	2f01           	movel %d1,%sp@-
    27d2:	2f00           	movel %d0,%sp@-
    27d4:	4e93           	jsr %a3@
    27d6:	4fef 0010      	lea %sp@(16),%sp
    27da:	2800           	movel %d0,%d4
    27dc:	2a01           	movel %d1,%d5
    27de:	2f3c 2e03 7073 	movel #771977331,%sp@-
    27e4:	2f3c 3ba3 198a 	movel #1000544650,%sp@-
    27ea:	2f2e ffdc      	movel %fp@(-36),%sp@-
    27ee:	2f2e ffd8      	movel %fp@(-40),%sp@-
    27f2:	4e94           	jsr %a4@
    27f4:	4fef 000c      	lea %sp@(12),%sp
    27f8:	2e85           	movel %d5,%sp@
    27fa:	2f04           	movel %d4,%sp@-
    27fc:	2f01           	movel %d1,%sp@-
    27fe:	2f00           	movel %d0,%sp@-
    2800:	4e93           	jsr %a3@
    2802:	4fef 0010      	lea %sp@(16),%sp
    2806:	2040           	moveal %d0,%a0
    2808:	2241           	moveal %d1,%a1
    280a:	2d48 ffd0      	movel %a0,%fp@(-48)
    280e:	2d49 ffd4      	movel %a1,%fp@(-44)
    2812:	2f01           	movel %d1,%sp@-
    2814:	2f08           	movel %a0,%sp@-
    2816:	2f2e ffe4      	movel %fp@(-28),%sp@-
    281a:	2f2e ffe0      	movel %fp@(-32),%sp@-
    281e:	4e93           	jsr %a3@
    2820:	4fef 0010      	lea %sp@(16),%sp
    2824:	2800           	movel %d0,%d4
    2826:	2a01           	movel %d1,%d5
    2828:	2004           	movel %d4,%d0
    282a:	4240           	clrw %d0
    282c:	4840           	swap %d0
    282e:	e848           	lsrw #4,%d0
    2830:	0280 0000 07ff 	andil #2047,%d0
    2836:	2206           	movel %d6,%d1
    2838:	9280           	subl %d0,%d1
    283a:	7031           	moveq #49,%d0
    283c:	b081           	cmpl %d1,%d0
    283e:	6c00 00ee      	bgew 292e <__ieee754_rem_pio2+0x616>
    2842:	2f3c 2e00 0000 	movel #771751936,%sp@-
    2848:	2f3c 3ba3 198a 	movel #1000544650,%sp@-
    284e:	2f2e ffdc      	movel %fp@(-36),%sp@-
    2852:	2f2e ffd8      	movel %fp@(-40),%sp@-
    2856:	4e94           	jsr %a4@
    2858:	4fef 0010      	lea %sp@(16),%sp
    285c:	2800           	movel %d0,%d4
    285e:	2a01           	movel %d1,%d5
    2860:	2f01           	movel %d1,%sp@-
    2862:	2f04           	movel %d4,%sp@-
    2864:	2f2e ffe4      	movel %fp@(-28),%sp@-
    2868:	2f2e ffe0      	movel %fp@(-32),%sp@-
    286c:	4e93           	jsr %a3@
    286e:	4fef 0010      	lea %sp@(16),%sp
    2872:	2040           	moveal %d0,%a0
    2874:	2241           	moveal %d1,%a1
    2876:	2d48 ffc8      	movel %a0,%fp@(-56)
    287a:	2d49 ffcc      	movel %a1,%fp@(-52)
    287e:	2f01           	movel %d1,%sp@-
    2880:	2f08           	movel %a0,%sp@-
    2882:	2f2e ffe4      	movel %fp@(-28),%sp@-
    2886:	2f2e ffe0      	movel %fp@(-32),%sp@-
    288a:	4e93           	jsr %a3@
    288c:	4fef 000c      	lea %sp@(12),%sp
    2890:	2e85           	movel %d5,%sp@
    2892:	2f04           	movel %d4,%sp@-
    2894:	2f01           	movel %d1,%sp@-
    2896:	2f00           	movel %d0,%sp@-
    2898:	4e93           	jsr %a3@
    289a:	4fef 0010      	lea %sp@(16),%sp
    289e:	2800           	movel %d0,%d4
    28a0:	2a01           	movel %d1,%d5
    28a2:	2f3c 2520 49c1 	movel #622873025,%sp@-
    28a8:	2f3c 397b 839a 	movel #964395930,%sp@-
    28ae:	2f2e ffdc      	movel %fp@(-36),%sp@-
    28b2:	2f2e ffd8      	movel %fp@(-40),%sp@-
    28b6:	4e94           	jsr %a4@
    28b8:	4fef 000c      	lea %sp@(12),%sp
    28bc:	2e85           	movel %d5,%sp@
    28be:	2f04           	movel %d4,%sp@-
    28c0:	2f01           	movel %d1,%sp@-
    28c2:	2f00           	movel %d0,%sp@-
    28c4:	4e93           	jsr %a3@
    28c6:	4fef 0010      	lea %sp@(16),%sp
    28ca:	2040           	moveal %d0,%a0
    28cc:	2241           	moveal %d1,%a1
    28ce:	2d48 ffd0      	movel %a0,%fp@(-48)
    28d2:	2d49 ffd4      	movel %a1,%fp@(-44)
    28d6:	2f01           	movel %d1,%sp@-
    28d8:	2f08           	movel %a0,%sp@-
    28da:	2f2e ffcc      	movel %fp@(-52),%sp@-
    28de:	2f2e ffc8      	movel %fp@(-56),%sp@-
    28e2:	4e93           	jsr %a3@
    28e4:	4fef 0010      	lea %sp@(16),%sp
    28e8:	2800           	movel %d0,%d4
    28ea:	2a01           	movel %d1,%d5
    28ec:	2484           	movel %d4,%a2@
    28ee:	2545 0004      	movel %d5,%a2@(4)
    28f2:	2f05           	movel %d5,%sp@-
    28f4:	2f04           	movel %d4,%sp@-
    28f6:	2f2e ffcc      	movel %fp@(-52),%sp@-
    28fa:	2f2e ffc8      	movel %fp@(-56),%sp@-
    28fe:	4e93           	jsr %a3@
    2900:	4fef 000c      	lea %sp@(12),%sp
    2904:	2eae ffd4      	movel %fp@(-44),%sp@
    2908:	2f2e ffd0      	movel %fp@(-48),%sp@-
    290c:	2f01           	movel %d1,%sp@-
    290e:	2f00           	movel %d0,%sp@-
    2910:	4e93           	jsr %a3@
    2912:	4fef 0010      	lea %sp@(16),%sp
    2916:	2e00           	movel %d0,%d7
    2918:	2047           	moveal %d7,%a0
    291a:	2241           	moveal %d1,%a1
    291c:	2548 0008      	movel %a0,%a2@(8)
    2920:	2549 000c      	movel %a1,%a2@(12)
    2924:	4a83           	tstl %d3
    2926:	6c00 faa6      	bgew 23ce <__ieee754_rem_pio2+0xb6>
    292a:	6000 fdec      	braw 2718 <__ieee754_rem_pio2+0x400>
    292e:	2d6e ffe0 ffc8 	movel %fp@(-32),%fp@(-56)
    2934:	2d6e ffe4 ffcc 	movel %fp@(-28),%fp@(-52)
    293a:	2484           	movel %d4,%a2@
    293c:	2545 0004      	movel %d5,%a2@(4)
    2940:	2f05           	movel %d5,%sp@-
    2942:	2f04           	movel %d4,%sp@-
    2944:	2f2e ffcc      	movel %fp@(-52),%sp@-
    2948:	2f2e ffc8      	movel %fp@(-56),%sp@-
    294c:	4e93           	jsr %a3@
    294e:	4fef 000c      	lea %sp@(12),%sp
    2952:	2eae ffd4      	movel %fp@(-44),%sp@
    2956:	2f2e ffd0      	movel %fp@(-48),%sp@-
    295a:	2f01           	movel %d1,%sp@-
    295c:	2f00           	movel %d0,%sp@-
    295e:	4e93           	jsr %a3@
    2960:	4fef 0010      	lea %sp@(16),%sp
    2964:	2e00           	movel %d0,%d7
    2966:	2047           	moveal %d7,%a0
    2968:	2241           	moveal %d1,%a1
    296a:	2548 0008      	movel %a0,%a2@(8)
    296e:	2549 000c      	movel %a1,%a2@(12)
    2972:	4a83           	tstl %d3
    2974:	6c00 fa58      	bgew 23ce <__ieee754_rem_pio2+0xb6>
    2978:	6000 fd9e      	braw 2718 <__ieee754_rem_pio2+0x400>
    297c:	47f9 0000 41a0 	lea 41a0 <__adddf3>,%a3
    2982:	2f3c 5440 0000 	movel #1413480448,%sp@-
    2988:	2f3c 3ff9 21fb 	movel #1073291771,%sp@-
    298e:	2f01           	movel %d1,%sp@-
    2990:	2f00           	movel %d0,%sp@-
    2992:	4e93           	jsr %a3@
    2994:	4fef 0010      	lea %sp@(16),%sp
    2998:	2400           	movel %d0,%d2
    299a:	2601           	movel %d1,%d3
    299c:	0c87 3ff9 21fb 	cmpil #1073291771,%d7
    29a2:	6762           	beqs 2a06 <__ieee754_rem_pio2+0x6ee>
    29a4:	2f3c 1a62 6331 	movel #442655537,%sp@-
    29aa:	2f3c 3dd0 b461 	movel #1037087841,%sp@-
    29b0:	2f01           	movel %d1,%sp@-
    29b2:	2f02           	movel %d2,%sp@-
    29b4:	4e93           	jsr %a3@
    29b6:	4fef 0010      	lea %sp@(16),%sp
    29ba:	2800           	movel %d0,%d4
    29bc:	2a01           	movel %d1,%d5
    29be:	2f01           	movel %d1,%sp@-
    29c0:	2f04           	movel %d4,%sp@-
    29c2:	2f03           	movel %d3,%sp@-
    29c4:	2f02           	movel %d2,%sp@-
    29c6:	4eb9 0000 419a 	jsr 419a <__subdf3>
    29cc:	4fef 000c      	lea %sp@(12),%sp
    29d0:	2ebc 1a62 6331 	movel #442655537,%sp@
    29d6:	2f3c 3dd0 b461 	movel #1037087841,%sp@-
    29dc:	2f01           	movel %d1,%sp@-
    29de:	2f00           	movel %d0,%sp@-
    29e0:	4e93           	jsr %a3@
    29e2:	4fef 0010      	lea %sp@(16),%sp
    29e6:	2484           	movel %d4,%a2@
    29e8:	2545 0004      	movel %d5,%a2@(4)
    29ec:	2040           	moveal %d0,%a0
    29ee:	2241           	moveal %d1,%a1
    29f0:	2548 0008      	movel %a0,%a2@(8)
    29f4:	2549 000c      	movel %a1,%a2@(12)
    29f8:	74ff           	moveq #-1,%d2
    29fa:	2002           	movel %d2,%d0
    29fc:	4cee 3cfc ffa0 	moveml %fp@(-96),%d2-%d7/%a2-%a5
    2a02:	4e5e           	unlk %fp
    2a04:	4e75           	rts
    2a06:	2f3c 1a60 0000 	movel #442499072,%sp@-
    2a0c:	2f3c 3dd0 b461 	movel #1037087841,%sp@-
    2a12:	2f01           	movel %d1,%sp@-
    2a14:	2f02           	movel %d2,%sp@-
    2a16:	4e93           	jsr %a3@
    2a18:	4fef 0010      	lea %sp@(16),%sp
    2a1c:	2400           	movel %d0,%d2
    2a1e:	2601           	movel %d1,%d3
    2a20:	2f3c 2e03 7073 	movel #771977331,%sp@-
    2a26:	2f3c 3ba3 198a 	movel #1000544650,%sp@-
    2a2c:	2f01           	movel %d1,%sp@-
    2a2e:	2f02           	movel %d2,%sp@-
    2a30:	4e93           	jsr %a3@
    2a32:	4fef 0010      	lea %sp@(16),%sp
    2a36:	2800           	movel %d0,%d4
    2a38:	2a01           	movel %d1,%d5
    2a3a:	2f01           	movel %d1,%sp@-
    2a3c:	2f04           	movel %d4,%sp@-
    2a3e:	2f03           	movel %d3,%sp@-
    2a40:	2f02           	movel %d2,%sp@-
    2a42:	4eb9 0000 419a 	jsr 419a <__subdf3>
    2a48:	4fef 000c      	lea %sp@(12),%sp
    2a4c:	2ebc 2e03 7073 	movel #771977331,%sp@
    2a52:	2f3c 3ba3 198a 	movel #1000544650,%sp@-
    2a58:	2f01           	movel %d1,%sp@-
    2a5a:	2f00           	movel %d0,%sp@-
    2a5c:	4e93           	jsr %a3@
    2a5e:	4fef 0010      	lea %sp@(16),%sp
    2a62:	2484           	movel %d4,%a2@
    2a64:	2545 0004      	movel %d5,%a2@(4)
    2a68:	2040           	moveal %d0,%a0
    2a6a:	2241           	moveal %d1,%a1
    2a6c:	2548 0008      	movel %a0,%a2@(8)
    2a70:	2549 000c      	movel %a1,%a2@(12)
    2a74:	74ff           	moveq #-1,%d2
    2a76:	6082           	bras 29fa <__ieee754_rem_pio2+0x6e2>

00002a78 <__kernel_rem_pio2>:
    2a78:	4fef fd94      	lea %sp@(-620),%sp
    2a7c:	48e7 3f3e      	moveml %d2-%d7/%a2-%fp,%sp@-
    2a80:	246f 02a4      	moveal %sp@(676),%a2
    2a84:	202f 02ac      	movel %sp@(684),%d0
    2a88:	d080           	addl %d0,%d0
    2a8a:	d080           	addl %d0,%d0
    2a8c:	41f9 0001 297c 	lea 1297c <init_jk>,%a0
    2a92:	2f70 0800 0050 	movel %a0@(0,%d0:l),%sp@(80)
    2a98:	242f 02a8      	movel %sp@(680),%d2
    2a9c:	5382           	subql #1,%d2
    2a9e:	2f42 0054      	movel %d2,%sp@(84)
    2aa2:	76ec           	moveq #-20,%d3
    2aa4:	b68a           	cmpl %a2,%d3
    2aa6:	6e00 091c      	bgtw 33c4 <__kernel_rem_pio2+0x94c>
    2aaa:	4878 0018      	pea 18 <DUART_IVR>
    2aae:	486a fffd      	pea %a2@(-3)
    2ab2:	4eb9 0000 4110 	jsr 4110 <__divsi3>
    2ab8:	508f           	addql #8,%sp
    2aba:	2f40 0058      	movel %d0,%sp@(88)
    2abe:	2200           	movel %d0,%d1
    2ac0:	5281           	addql #1,%d1
    2ac2:	2001           	movel %d1,%d0
    2ac4:	d081           	addl %d1,%d0
    2ac6:	d081           	addl %d1,%d0
    2ac8:	e788           	lsll #3,%d0
    2aca:	4480           	negl %d0
    2acc:	d5c0           	addal %d0,%a2
    2ace:	2f4a 004c      	movel %a2,%sp@(76)
    2ad2:	246f 0058      	moveal %sp@(88),%a2
    2ad6:	95ef 0054      	subal %sp@(84),%a2
    2ada:	206f 0050      	moveal %sp@(80),%a0
    2ade:	d1ef 0054      	addal %sp@(84),%a0
    2ae2:	b0fc 0000      	cmpaw #0,%a0
    2ae6:	6d00 0900      	bltw 33e8 <__kernel_rem_pio2+0x970>
    2aea:	4bef 00b8      	lea %sp@(184),%a5
    2aee:	49f2 a800      	lea %a2@(0,%a2:l),%a4
    2af2:	d9cc           	addal %a4,%a4
    2af4:	d9ef 02b0      	addal %sp@(688),%a4
    2af8:	47f0 a801      	lea %a0@(1,%a2:l),%a3
    2afc:	2f7c 0000 4da4 	movel #19876,%sp@(68)
    2b02:	0044 
    2b04:	7400           	moveq #0,%d2
    2b06:	7600           	moveq #0,%d3
    2b08:	4df9 0000 4da4 	lea 4da4 <__floatsidf>,%fp
    2b0e:	b4fc 0000      	cmpaw #0,%a2
    2b12:	6d00 07c2      	bltw 32d6 <__kernel_rem_pio2+0x85e>
    2b16:	2f14           	movel %a4@,%sp@-
    2b18:	4e96           	jsr %fp@
    2b1a:	588f           	addql #4,%sp
    2b1c:	2040           	moveal %d0,%a0
    2b1e:	2241           	moveal %d1,%a1
    2b20:	2ac8           	movel %a0,%a5@+
    2b22:	2ac9           	movel %a1,%a5@+
    2b24:	528a           	addql #1,%a2
    2b26:	588c           	addql #4,%a4
    2b28:	b7ca           	cmpal %a2,%a3
    2b2a:	66e2           	bnes 2b0e <__kernel_rem_pio2+0x96>
    2b2c:	45f9 0000 4536 	lea 4536 <__muldf3>,%a2
    2b32:	4aaf 0050      	tstl %sp@(80)
    2b36:	6d00 0084      	bltw 2bbc <__kernel_rem_pio2+0x144>
    2b3a:	4def 01f8      	lea %sp@(504),%fp
    2b3e:	2a2f 0054      	movel %sp@(84),%d5
    2b42:	2005           	movel %d5,%d0
    2b44:	e788           	lsll #3,%d0
    2b46:	7847           	moveq #71,%d4
    2b48:	4604           	notb %d4
    2b4a:	d88f           	addl %sp,%d4
    2b4c:	d880           	addl %d0,%d4
    2b4e:	242f 0050      	movel %sp@(80),%d2
    2b52:	d4af 02a8      	addl %sp@(680),%d2
    2b56:	2f42 003c      	movel %d2,%sp@(60)
    2b5a:	206f 029c      	moveal %sp@(668),%a0
    2b5e:	41f0 0808      	lea %a0@(8,%d0:l),%a0
    2b62:	2c08           	movel %a0,%d6
    2b64:	45f9 0000 4536 	lea 4536 <__muldf3>,%a2
    2b6a:	47f9 0000 41a0 	lea 41a0 <__adddf3>,%a3
    2b70:	2e05           	movel %d5,%d7
    2b72:	4a87           	tstl %d7
    2b74:	6d00 07e4      	bltw 335a <__kernel_rem_pio2+0x8e2>
    2b78:	2844           	moveal %d4,%a4
    2b7a:	2a6f 029c      	moveal %sp@(668),%a5
    2b7e:	4282           	clrl %d2
    2b80:	4283           	clrl %d3
    2b82:	2f2c 0004      	movel %a4@(4),%sp@-
    2b86:	2f14           	movel %a4@,%sp@-
    2b88:	518f           	subql #8,%sp
    2b8a:	2e9d           	movel %a5@+,%sp@
    2b8c:	2f5d 0004      	movel %a5@+,%sp@(4)
    2b90:	4e92           	jsr %a2@
    2b92:	4fef 000c      	lea %sp@(12),%sp
    2b96:	2e81           	movel %d1,%sp@
    2b98:	2f00           	movel %d0,%sp@-
    2b9a:	2f03           	movel %d3,%sp@-
    2b9c:	2f02           	movel %d2,%sp@-
    2b9e:	4e93           	jsr %a3@
    2ba0:	4fef 0010      	lea %sp@(16),%sp
    2ba4:	2400           	movel %d0,%d2
    2ba6:	2601           	movel %d1,%d3
    2ba8:	518c           	subql #8,%a4
    2baa:	bc8d           	cmpl %a5,%d6
    2bac:	66d4           	bnes 2b82 <__kernel_rem_pio2+0x10a>
    2bae:	2cc2           	movel %d2,%fp@+
    2bb0:	2cc3           	movel %d3,%fp@+
    2bb2:	5084           	addql #8,%d4
    2bb4:	5285           	addql #1,%d5
    2bb6:	baaf 003c      	cmpl %sp@(60),%d5
    2bba:	66b6           	bnes 2b72 <__kernel_rem_pio2+0xfa>
    2bbc:	43ef 0068      	lea %sp@(104),%a1
    2bc0:	2f49 0034      	movel %a1,%sp@(52)
    2bc4:	202f 0050      	movel %sp@(80),%d0
    2bc8:	d080           	addl %d0,%d0
    2bca:	d080           	addl %d0,%d0
    2bcc:	2409           	movel %a1,%d2
    2bce:	d480           	addl %d0,%d2
    2bd0:	2f42 0064      	movel %d2,%sp@(100)
    2bd4:	41f7 0860      	lea %sp@(60,%d0:l),%a0
    2bd8:	2f48 0060      	movel %a0,%sp@(96)
    2bdc:	282f 02a8      	movel %sp@(680),%d4
    2be0:	e78c           	lsll #3,%d4
    2be2:	d8af 029c      	addl %sp@(668),%d4
    2be6:	2f6f 0050 0038 	movel %sp@(80),%sp@(56)
    2bec:	202f 0050      	movel %sp@(80),%d0
    2bf0:	5380           	subql #1,%d0
    2bf2:	d080           	addl %d0,%d0
    2bf4:	d080           	addl %d0,%d0
    2bf6:	43ef 0298      	lea %sp@(664),%a1
    2bfa:	d089           	addl %a1,%d0
    2bfc:	0680 ffff fdd0 	addil #-560,%d0
    2c02:	2f40 005c      	movel %d0,%sp@(92)
    2c06:	202f 0038      	movel %sp@(56),%d0
    2c0a:	e788           	lsll #3,%d0
    2c0c:	41ef 0298      	lea %sp@(664),%a0
    2c10:	d1c0           	addal %d0,%a0
    2c12:	2428 ff60      	movel %a0@(-160),%d2
    2c16:	2628 ff64      	movel %a0@(-156),%d3
    2c1a:	4aaf 0038      	tstl %sp@(56)
    2c1e:	6f00 008a      	blew 2caa <__kernel_rem_pio2+0x232>
    2c22:	2a0f           	movel %sp,%d5
    2c24:	0685 0000 01f8 	addil #504,%d5
    2c2a:	2645           	moveal %d5,%a3
    2c2c:	d7c0           	addal %d0,%a3
    2c2e:	49ef 0068      	lea %sp@(104),%a4
    2c32:	4df9 0000 41a0 	lea 41a0 <__adddf3>,%fp
    2c38:	2a6f 0044      	moveal %sp@(68),%a5
    2c3c:	42a7           	clrl %sp@-
    2c3e:	2f3c 3e70 0000 	movel #1047527424,%sp@-
    2c44:	2f03           	movel %d3,%sp@-
    2c46:	2f02           	movel %d2,%sp@-
    2c48:	4e92           	jsr %a2@
    2c4a:	4fef 000c      	lea %sp@(12),%sp
    2c4e:	2e81           	movel %d1,%sp@
    2c50:	2f00           	movel %d0,%sp@-
    2c52:	4eb9 0000 4fee 	jsr 4fee <__fixdfsi>
    2c58:	588f           	addql #4,%sp
    2c5a:	2e80           	movel %d0,%sp@
    2c5c:	4e95           	jsr %a5@
    2c5e:	2c00           	movel %d0,%d6
    2c60:	2e01           	movel %d1,%d7
    2c62:	4297           	clrl %sp@
    2c64:	2f3c 4170 0000 	movel #1097859072,%sp@-
    2c6a:	2f01           	movel %d1,%sp@-
    2c6c:	2f06           	movel %d6,%sp@-
    2c6e:	4e92           	jsr %a2@
    2c70:	4fef 000c      	lea %sp@(12),%sp
    2c74:	2e81           	movel %d1,%sp@
    2c76:	2f00           	movel %d0,%sp@-
    2c78:	2f03           	movel %d3,%sp@-
    2c7a:	2f02           	movel %d2,%sp@-
    2c7c:	4eb9 0000 419a 	jsr 419a <__subdf3>
    2c82:	4fef 000c      	lea %sp@(12),%sp
    2c86:	2e81           	movel %d1,%sp@
    2c88:	2f00           	movel %d0,%sp@-
    2c8a:	4eb9 0000 4fee 	jsr 4fee <__fixdfsi>
    2c90:	508f           	addql #8,%sp
    2c92:	28c0           	movel %d0,%a4@+
    2c94:	2f23           	movel %a3@-,%sp@-
    2c96:	2f23           	movel %a3@-,%sp@-
    2c98:	2f07           	movel %d7,%sp@-
    2c9a:	2f06           	movel %d6,%sp@-
    2c9c:	4e96           	jsr %fp@
    2c9e:	4fef 0010      	lea %sp@(16),%sp
    2ca2:	2400           	movel %d0,%d2
    2ca4:	2601           	movel %d1,%d3
    2ca6:	b7c5           	cmpal %d5,%a3
    2ca8:	6692           	bnes 2c3c <__kernel_rem_pio2+0x1c4>
    2caa:	2f2f 004c      	movel %sp@(76),%sp@-
    2cae:	2f03           	movel %d3,%sp@-
    2cb0:	2f02           	movel %d2,%sp@-
    2cb2:	4eb9 0000 3f04 	jsr 3f04 <scalbn>
    2cb8:	2400           	movel %d0,%d2
    2cba:	2601           	movel %d1,%d3
    2cbc:	42a7           	clrl %sp@-
    2cbe:	2f3c 3fc0 0000 	movel #1069547520,%sp@-
    2cc4:	2f01           	movel %d1,%sp@-
    2cc6:	2f02           	movel %d2,%sp@-
    2cc8:	4e92           	jsr %a2@
    2cca:	4fef 000c      	lea %sp@(12),%sp
    2cce:	2e81           	movel %d1,%sp@
    2cd0:	2f00           	movel %d0,%sp@-
    2cd2:	4eb9 0000 3d44 	jsr 3d44 <floor>
    2cd8:	42a7           	clrl %sp@-
    2cda:	2f3c 4020 0000 	movel #1075838976,%sp@-
    2ce0:	2f01           	movel %d1,%sp@-
    2ce2:	2f00           	movel %d0,%sp@-
    2ce4:	4e92           	jsr %a2@
    2ce6:	4fef 000c      	lea %sp@(12),%sp
    2cea:	2e81           	movel %d1,%sp@
    2cec:	2f00           	movel %d0,%sp@-
    2cee:	2f03           	movel %d3,%sp@-
    2cf0:	2f02           	movel %d2,%sp@-
    2cf2:	4eb9 0000 419a 	jsr 419a <__subdf3>
    2cf8:	4fef 0010      	lea %sp@(16),%sp
    2cfc:	2400           	movel %d0,%d2
    2cfe:	2601           	movel %d1,%d3
    2d00:	2f01           	movel %d1,%sp@-
    2d02:	2f02           	movel %d2,%sp@-
    2d04:	4eb9 0000 4fee 	jsr 4fee <__fixdfsi>
    2d0a:	508f           	addql #8,%sp
    2d0c:	2a00           	movel %d0,%d5
    2d0e:	2f00           	movel %d0,%sp@-
    2d10:	206f 005c      	moveal %sp@(92),%a0
    2d14:	4e90           	jsr %a0@
    2d16:	2e81           	movel %d1,%sp@
    2d18:	2f00           	movel %d0,%sp@-
    2d1a:	2f03           	movel %d3,%sp@-
    2d1c:	2f02           	movel %d2,%sp@-
    2d1e:	4eb9 0000 419a 	jsr 419a <__subdf3>
    2d24:	2c00           	movel %d0,%d6
    2d26:	2e01           	movel %d1,%d7
    2d28:	4fef 0024      	lea %sp@(36),%sp
    2d2c:	4aaf 004c      	tstl %sp@(76)
    2d30:	6f00 054e      	blew 3280 <__kernel_rem_pio2+0x808>
    2d34:	202f 0038      	movel %sp@(56),%d0
    2d38:	5380           	subql #1,%d0
    2d3a:	d080           	addl %d0,%d0
    2d3c:	d080           	addl %d0,%d0
    2d3e:	41ef 0298      	lea %sp@(664),%a0
    2d42:	d1c0           	addal %d0,%a0
    2d44:	41e8 fdd0      	lea %a0@(-560),%a0
    2d48:	2410           	movel %a0@,%d2
    2d4a:	7218           	moveq #24,%d1
    2d4c:	92af 004c      	subl %sp@(76),%d1
    2d50:	2002           	movel %d2,%d0
    2d52:	e2a0           	asrl %d1,%d0
    2d54:	da80           	addl %d0,%d5
    2d56:	e3a8           	lsll %d1,%d0
    2d58:	9480           	subl %d0,%d2
    2d5a:	2082           	movel %d2,%a0@
    2d5c:	7017           	moveq #23,%d0
    2d5e:	90af 004c      	subl %sp@(76),%d0
    2d62:	e0a2           	asrl %d0,%d2
    2d64:	4a82           	tstl %d2
    2d66:	6e00 0118      	bgtw 2e80 <__kernel_rem_pio2+0x408>
    2d6a:	42a7           	clrl %sp@-
    2d6c:	42a7           	clrl %sp@-
    2d6e:	2f07           	movel %d7,%sp@-
    2d70:	2f06           	movel %d6,%sp@-
    2d72:	4eb9 0000 4b7c 	jsr 4b7c <__eqdf2>
    2d78:	4fef 0010      	lea %sp@(16),%sp
    2d7c:	4a80           	tstl %d0
    2d7e:	6600 01da      	bnew 2f5a <__kernel_rem_pio2+0x4e2>
    2d82:	262f 0038      	movel %sp@(56),%d3
    2d86:	b6af 0050      	cmpl %sp@(80),%d3
    2d8a:	6f1e           	bles 2daa <__kernel_rem_pio2+0x332>
    2d8c:	2003           	movel %d3,%d0
    2d8e:	d083           	addl %d3,%d0
    2d90:	d080           	addl %d0,%d0
    2d92:	41ef 0068      	lea %sp@(104),%a0
    2d96:	d1c0           	addal %d0,%a0
    2d98:	7000           	moveq #0,%d0
    2d9a:	222f 0064      	movel %sp@(100),%d1
    2d9e:	80a0           	orl %a0@-,%d0
    2da0:	b288           	cmpl %a0,%d1
    2da2:	66fa           	bnes 2d9e <__kernel_rem_pio2+0x326>
    2da4:	4a80           	tstl %d0
    2da6:	6600 0414      	bnew 31bc <__kernel_rem_pio2+0x744>
    2daa:	206f 005c      	moveal %sp@(92),%a0
    2dae:	4a90           	tstl %a0@
    2db0:	6600 055c      	bnew 330e <__kernel_rem_pio2+0x896>
    2db4:	206f 0060      	moveal %sp@(96),%a0
    2db8:	7001           	moveq #1,%d0
    2dba:	5280           	addql #1,%d0
    2dbc:	5988           	subql #4,%a0
    2dbe:	4aa8 0004      	tstl %a0@(4)
    2dc2:	67f6           	beqs 2dba <__kernel_rem_pio2+0x342>
    2dc4:	222f 0038      	movel %sp@(56),%d1
    2dc8:	5281           	addql #1,%d1
    2dca:	2a01           	movel %d1,%d5
    2dcc:	2c2f 0038      	movel %sp@(56),%d6
    2dd0:	dc80           	addl %d0,%d6
    2dd2:	2c6f 0058      	moveal %sp@(88),%fp
    2dd6:	ddc1           	addal %d1,%fp
    2dd8:	ddce           	addal %fp,%fp
    2dda:	ddce           	addal %fp,%fp
    2ddc:	226f 02b0      	moveal %sp@(688),%a1
    2de0:	d3ce           	addal %fp,%a1
    2de2:	2f49 003c      	movel %a1,%sp@(60)
    2de6:	202f 02a8      	movel %sp@(680),%d0
    2dea:	d0af 0038      	addl %sp@(56),%d0
    2dee:	e788           	lsll #3,%d0
    2df0:	49ef 00b8      	lea %sp@(184),%a4
    2df4:	d9c0           	addal %d0,%a4
    2df6:	e789           	lsll #3,%d1
    2df8:	2e3c 0000 01f8 	movel #504,%d7
    2dfe:	de8f           	addl %sp,%d7
    2e00:	de81           	addl %d1,%d7
    2e02:	47f9 0000 41a0 	lea 41a0 <__adddf3>,%a3
    2e08:	2f47 0038      	movel %d7,%sp@(56)
    2e0c:	2e2f 0054      	movel %sp@(84),%d7
    2e10:	206f 003c      	moveal %sp@(60),%a0
    2e14:	58af 003c      	addql #4,%sp@(60)
    2e18:	2f18           	movel %a0@+,%sp@-
    2e1a:	226f 0048      	moveal %sp@(72),%a1
    2e1e:	4e91           	jsr %a1@
    2e20:	588f           	addql #4,%sp
    2e22:	2880           	movel %d0,%a4@
    2e24:	2941 0004      	movel %d1,%a4@(4)
    2e28:	2c4c           	moveal %a4,%fp
    2e2a:	508c           	addql #8,%a4
    2e2c:	4a87           	tstl %d7
    2e2e:	6d00 0424      	bltw 3254 <__kernel_rem_pio2+0x7dc>
    2e32:	2a6f 029c      	moveal %sp@(668),%a5
    2e36:	4282           	clrl %d2
    2e38:	4283           	clrl %d3
    2e3a:	2f2e 0004      	movel %fp@(4),%sp@-
    2e3e:	2f16           	movel %fp@,%sp@-
    2e40:	518f           	subql #8,%sp
    2e42:	2e9d           	movel %a5@+,%sp@
    2e44:	2f5d 0004      	movel %a5@+,%sp@(4)
    2e48:	4e92           	jsr %a2@
    2e4a:	4fef 000c      	lea %sp@(12),%sp
    2e4e:	2e81           	movel %d1,%sp@
    2e50:	2f00           	movel %d0,%sp@-
    2e52:	2f03           	movel %d3,%sp@-
    2e54:	2f02           	movel %d2,%sp@-
    2e56:	4e93           	jsr %a3@
    2e58:	4fef 0010      	lea %sp@(16),%sp
    2e5c:	2400           	movel %d0,%d2
    2e5e:	2601           	movel %d1,%d3
    2e60:	518e           	subql #8,%fp
    2e62:	b88d           	cmpl %a5,%d4
    2e64:	66d4           	bnes 2e3a <__kernel_rem_pio2+0x3c2>
    2e66:	206f 0038      	moveal %sp@(56),%a0
    2e6a:	50af 0038      	addql #8,%sp@(56)
    2e6e:	20c2           	movel %d2,%a0@+
    2e70:	20c3           	movel %d3,%a0@+
    2e72:	5285           	addql #1,%d5
    2e74:	bc85           	cmpl %d5,%d6
    2e76:	6c98           	bges 2e10 <__kernel_rem_pio2+0x398>
    2e78:	2f46 0038      	movel %d6,%sp@(56)
    2e7c:	6000 fd88      	braw 2c06 <__kernel_rem_pio2+0x18e>
    2e80:	5285           	addql #1,%d5
    2e82:	7600           	moveq #0,%d3
    2e84:	4aaf 0038      	tstl %sp@(56)
    2e88:	6f3e           	bles 2ec8 <__kernel_rem_pio2+0x450>
    2e8a:	41ef 0068      	lea %sp@(104),%a0
    2e8e:	2618           	movel %a0@+,%d3
    2e90:	7200           	moveq #0,%d1
    2e92:	4a83           	tstl %d3
    2e94:	6700 03da      	beqw 3270 <__kernel_rem_pio2+0x7f8>
    2e98:	203c 0100 0000 	movel #16777216,%d0
    2e9e:	9083           	subl %d3,%d0
    2ea0:	2140 fffc      	movel %d0,%a0@(-4)
    2ea4:	226f 0038      	moveal %sp@(56),%a1
    2ea8:	5281           	addql #1,%d1
    2eaa:	b289           	cmpl %a1,%d1
    2eac:	6c12           	bges 2ec0 <__kernel_rem_pio2+0x448>
    2eae:	2010           	movel %a0@,%d0
    2eb0:	263c 00ff ffff 	movel #16777215,%d3
    2eb6:	9680           	subl %d0,%d3
    2eb8:	20c3           	movel %d3,%a0@+
    2eba:	5281           	addql #1,%d1
    2ebc:	b289           	cmpl %a1,%d1
    2ebe:	6dee           	blts 2eae <__kernel_rem_pio2+0x436>
    2ec0:	7601           	moveq #1,%d3
    2ec2:	4aaf 004c      	tstl %sp@(76)
    2ec6:	6f2a           	bles 2ef2 <__kernel_rem_pio2+0x47a>
    2ec8:	7201           	moveq #1,%d1
    2eca:	b2af 004c      	cmpl %sp@(76),%d1
    2ece:	6700 04a2      	beqw 3372 <__kernel_rem_pio2+0x8fa>
    2ed2:	7002           	moveq #2,%d0
    2ed4:	b0af 004c      	cmpl %sp@(76),%d0
    2ed8:	6618           	bnes 2ef2 <__kernel_rem_pio2+0x47a>
    2eda:	206f 0038      	moveal %sp@(56),%a0
    2ede:	5388           	subql #1,%a0
    2ee0:	d1c8           	addal %a0,%a0
    2ee2:	d1c8           	addal %a0,%a0
    2ee4:	43ef 0298      	lea %sp@(664),%a1
    2ee8:	d1c9           	addal %a1,%a0
    2eea:	02a8 003f ffff 	andil #4194303,%a0@(-560)
    2ef0:	fdd0 
    2ef2:	7002           	moveq #2,%d0
    2ef4:	b082           	cmpl %d2,%d0
    2ef6:	6600 fe72      	bnew 2d6a <__kernel_rem_pio2+0x2f2>
    2efa:	2f07           	movel %d7,%sp@-
    2efc:	2f06           	movel %d6,%sp@-
    2efe:	42a7           	clrl %sp@-
    2f00:	2f3c 3ff0 0000 	movel #1072693248,%sp@-
    2f06:	4eb9 0000 419a 	jsr 419a <__subdf3>
    2f0c:	4fef 0010      	lea %sp@(16),%sp
    2f10:	2c00           	movel %d0,%d6
    2f12:	2e01           	movel %d1,%d7
    2f14:	4a83           	tstl %d3
    2f16:	6700 fe52      	beqw 2d6a <__kernel_rem_pio2+0x2f2>
    2f1a:	2f2f 004c      	movel %sp@(76),%sp@-
    2f1e:	42a7           	clrl %sp@-
    2f20:	2f3c 3ff0 0000 	movel #1072693248,%sp@-
    2f26:	4eb9 0000 3f04 	jsr 3f04 <scalbn>
    2f2c:	2f01           	movel %d1,%sp@-
    2f2e:	2f00           	movel %d0,%sp@-
    2f30:	2f07           	movel %d7,%sp@-
    2f32:	2f06           	movel %d6,%sp@-
    2f34:	4eb9 0000 419a 	jsr 419a <__subdf3>
    2f3a:	2c00           	movel %d0,%d6
    2f3c:	2e01           	movel %d1,%d7
    2f3e:	4fef 001c      	lea %sp@(28),%sp
    2f42:	42a7           	clrl %sp@-
    2f44:	42a7           	clrl %sp@-
    2f46:	2f07           	movel %d7,%sp@-
    2f48:	2f06           	movel %d6,%sp@-
    2f4a:	4eb9 0000 4b7c 	jsr 4b7c <__eqdf2>
    2f50:	4fef 0010      	lea %sp@(16),%sp
    2f54:	4a80           	tstl %d0
    2f56:	6700 fe2a      	beqw 2d82 <__kernel_rem_pio2+0x30a>
    2f5a:	2845           	moveal %d5,%a4
    2f5c:	2f42 0048      	movel %d2,%sp@(72)
    2f60:	282f 004c      	movel %sp@(76),%d4
    2f64:	4484           	negl %d4
    2f66:	2f04           	movel %d4,%sp@-
    2f68:	2f07           	movel %d7,%sp@-
    2f6a:	2f06           	movel %d6,%sp@-
    2f6c:	4eb9 0000 3f04 	jsr 3f04 <scalbn>
    2f72:	2400           	movel %d0,%d2
    2f74:	2601           	movel %d1,%d3
    2f76:	4fef 000c      	lea %sp@(12),%sp
    2f7a:	283c 4170 0000 	movel #1097859072,%d4
    2f80:	4285           	clrl %d5
    2f82:	2f05           	movel %d5,%sp@-
    2f84:	2f04           	movel %d4,%sp@-
    2f86:	2f01           	movel %d1,%sp@-
    2f88:	2f02           	movel %d2,%sp@-
    2f8a:	4eb9 0000 4bc4 	jsr 4bc4 <__gedf2>
    2f90:	4fef 0010      	lea %sp@(16),%sp
    2f94:	4a80           	tstl %d0
    2f96:	6d00 0690      	bltw 3628 <__kernel_rem_pio2+0xbb0>
    2f9a:	42a7           	clrl %sp@-
    2f9c:	2f3c 3e70 0000 	movel #1047527424,%sp@-
    2fa2:	2f03           	movel %d3,%sp@-
    2fa4:	2f02           	movel %d2,%sp@-
    2fa6:	4e92           	jsr %a2@
    2fa8:	4fef 000c      	lea %sp@(12),%sp
    2fac:	2e81           	movel %d1,%sp@
    2fae:	2f00           	movel %d0,%sp@-
    2fb0:	4eb9 0000 4fee 	jsr 4fee <__fixdfsi>
    2fb6:	508f           	addql #8,%sp
    2fb8:	2c00           	movel %d0,%d6
    2fba:	202f 0038      	movel %sp@(56),%d0
    2fbe:	d080           	addl %d0,%d0
    2fc0:	d080           	addl %d0,%d0
    2fc2:	41ef 0298      	lea %sp@(664),%a0
    2fc6:	d088           	addl %a0,%d0
    2fc8:	2640           	moveal %d0,%a3
    2fca:	47eb fdd0      	lea %a3@(-560),%a3
    2fce:	2f06           	movel %d6,%sp@-
    2fd0:	226f 0048      	moveal %sp@(72),%a1
    2fd4:	4e91           	jsr %a1@
    2fd6:	2e85           	movel %d5,%sp@
    2fd8:	2f04           	movel %d4,%sp@-
    2fda:	2f01           	movel %d1,%sp@-
    2fdc:	2f00           	movel %d0,%sp@-
    2fde:	4e92           	jsr %a2@
    2fe0:	4fef 000c      	lea %sp@(12),%sp
    2fe4:	2e81           	movel %d1,%sp@
    2fe6:	2f00           	movel %d0,%sp@-
    2fe8:	2f03           	movel %d3,%sp@-
    2fea:	2f02           	movel %d2,%sp@-
    2fec:	4eb9 0000 419a 	jsr 419a <__subdf3>
    2ff2:	4fef 000c      	lea %sp@(12),%sp
    2ff6:	2e81           	movel %d1,%sp@
    2ff8:	2f00           	movel %d0,%sp@-
    2ffa:	4eb9 0000 4fee 	jsr 4fee <__fixdfsi>
    3000:	508f           	addql #8,%sp
    3002:	2680           	movel %d0,%a3@
    3004:	242f 0038      	movel %sp@(56),%d2
    3008:	5282           	addql #1,%d2
    300a:	2f42 0040      	movel %d2,%sp@(64)
    300e:	7618           	moveq #24,%d3
    3010:	d7af 004c      	addl %d3,%sp@(76)
    3014:	2002           	movel %d2,%d0
    3016:	d082           	addl %d2,%d0
    3018:	d080           	addl %d0,%d0
    301a:	41ef 0298      	lea %sp@(664),%a0
    301e:	d1c0           	addal %d0,%a0
    3020:	2146 fdd0      	movel %d6,%a0@(-560)
    3024:	2f2f 004c      	movel %sp@(76),%sp@-
    3028:	42a7           	clrl %sp@-
    302a:	2f3c 3ff0 0000 	movel #1072693248,%sp@-
    3030:	4eb9 0000 3f04 	jsr 3f04 <scalbn>
    3036:	2400           	movel %d0,%d2
    3038:	2601           	movel %d1,%d3
    303a:	4fef 000c      	lea %sp@(12),%sp
    303e:	4aaf 0040      	tstl %sp@(64)
    3042:	6d00 01ea      	bltw 322e <__kernel_rem_pio2+0x7b6>
    3046:	202f 0040      	movel %sp@(64),%d0
    304a:	d080           	addl %d0,%d0
    304c:	d080           	addl %d0,%d0
    304e:	4bef 0068      	lea %sp@(104),%a5
    3052:	dbc0           	addal %d0,%a5
    3054:	282f 0040      	movel %sp@(64),%d4
    3058:	e78c           	lsll #3,%d4
    305a:	2f44 0038      	movel %d4,%sp@(56)
    305e:	41ef 01f8      	lea %sp@(504),%a0
    3062:	2f48 004c      	movel %a0,%sp@(76)
    3066:	2808           	movel %a0,%d4
    3068:	d8af 0038      	addl %sp@(56),%d4
    306c:	2644           	moveal %d4,%a3
    306e:	2c6f 0044      	moveal %sp@(68),%fp
    3072:	2f15           	movel %a5@,%sp@-
    3074:	4e96           	jsr %fp@
    3076:	2e83           	movel %d3,%sp@
    3078:	2f02           	movel %d2,%sp@-
    307a:	2f01           	movel %d1,%sp@-
    307c:	2f00           	movel %d0,%sp@-
    307e:	4e92           	jsr %a2@
    3080:	4fef 0010      	lea %sp@(16),%sp
    3084:	2680           	movel %d0,%a3@
    3086:	2741 0004      	movel %d1,%a3@(4)
    308a:	42a7           	clrl %sp@-
    308c:	2f3c 3e70 0000 	movel #1047527424,%sp@-
    3092:	2f03           	movel %d3,%sp@-
    3094:	2f02           	movel %d2,%sp@-
    3096:	4e92           	jsr %a2@
    3098:	4fef 0010      	lea %sp@(16),%sp
    309c:	2400           	movel %d0,%d2
    309e:	2601           	movel %d1,%d3
    30a0:	200d           	movel %a5,%d0
    30a2:	598d           	subql #4,%a5
    30a4:	518b           	subql #8,%a3
    30a6:	b0af 0034      	cmpl %sp@(52),%d0
    30aa:	66c6           	bnes 3072 <__kernel_rem_pio2+0x5fa>
    30ac:	43ef 0158      	lea %sp@(344),%a1
    30b0:	2f49 0044      	movel %a1,%sp@(68)
    30b4:	7c00           	moveq #0,%d6
    30b6:	47f9 0000 41a0 	lea 41a0 <__adddf3>,%a3
    30bc:	2c6f 0050      	moveal %sp@(80),%fp
    30c0:	2f49 003c      	movel %a1,%sp@(60)
    30c4:	2e0c           	movel %a4,%d7
    30c6:	bcfc 0000      	cmpaw #0,%fp
    30ca:	6d60           	blts 312c <__kernel_rem_pio2+0x6b4>
    30cc:	49f9 0001 293c 	lea 1293c <PIo2>,%a4
    30d2:	2a44           	moveal %d4,%a5
    30d4:	4282           	clrl %d2
    30d6:	4283           	clrl %d3
    30d8:	7a00           	moveq #0,%d5
    30da:	518f           	subql #8,%sp
    30dc:	2e9d           	movel %a5@+,%sp@
    30de:	2f5d 0004      	movel %a5@+,%sp@(4)
    30e2:	518f           	subql #8,%sp
    30e4:	2e9c           	movel %a4@+,%sp@
    30e6:	2f5c 0004      	movel %a4@+,%sp@(4)
    30ea:	4e92           	jsr %a2@
    30ec:	4fef 000c      	lea %sp@(12),%sp
    30f0:	2e81           	movel %d1,%sp@
    30f2:	2f00           	movel %d0,%sp@-
    30f4:	2f03           	movel %d3,%sp@-
    30f6:	2f02           	movel %d2,%sp@-
    30f8:	4e93           	jsr %a3@
    30fa:	4fef 0010      	lea %sp@(16),%sp
    30fe:	2400           	movel %d0,%d2
    3100:	2601           	movel %d1,%d3
    3102:	5285           	addql #1,%d5
    3104:	ba8e           	cmpl %fp,%d5
    3106:	6e04           	bgts 310c <__kernel_rem_pio2+0x694>
    3108:	bc85           	cmpl %d5,%d6
    310a:	6cce           	bges 30da <__kernel_rem_pio2+0x662>
    310c:	206f 003c      	moveal %sp@(60),%a0
    3110:	50af 003c      	addql #8,%sp@(60)
    3114:	20c2           	movel %d2,%a0@+
    3116:	20c3           	movel %d3,%a0@+
    3118:	5286           	addql #1,%d6
    311a:	2004           	movel %d4,%d0
    311c:	5180           	subql #8,%d0
    311e:	b8af 004c      	cmpl %sp@(76),%d4
    3122:	6724           	beqs 3148 <__kernel_rem_pio2+0x6d0>
    3124:	2800           	movel %d0,%d4
    3126:	bcfc 0000      	cmpaw #0,%fp
    312a:	6ca0           	bges 30cc <__kernel_rem_pio2+0x654>
    312c:	4282           	clrl %d2
    312e:	4283           	clrl %d3
    3130:	206f 003c      	moveal %sp@(60),%a0
    3134:	50af 003c      	addql #8,%sp@(60)
    3138:	20c2           	movel %d2,%a0@+
    313a:	20c3           	movel %d3,%a0@+
    313c:	5286           	addql #1,%d6
    313e:	2004           	movel %d4,%d0
    3140:	5180           	subql #8,%d0
    3142:	b8af 004c      	cmpl %sp@(76),%d4
    3146:	66dc           	bnes 3124 <__kernel_rem_pio2+0x6ac>
    3148:	2847           	moveal %d7,%a4
    314a:	7002           	moveq #2,%d0
    314c:	b0af 02ac      	cmpl %sp@(684),%d0
    3150:	6d00 0368      	bltw 34ba <__kernel_rem_pio2+0xa42>
    3154:	4aaf 02ac      	tstl %sp@(684)
    3158:	6e00 029a      	bgtw 33f4 <__kernel_rem_pio2+0x97c>
    315c:	664e           	bnes 31ac <__kernel_rem_pio2+0x734>
    315e:	47ef 0158      	lea %sp@(344),%a3
    3162:	d7ef 0038      	addal %sp@(56),%a3
    3166:	4280           	clrl %d0
    3168:	4281           	clrl %d1
    316a:	45f9 0000 41a0 	lea 41a0 <__adddf3>,%a2
    3170:	2f2b 0004      	movel %a3@(4),%sp@-
    3174:	2f13           	movel %a3@,%sp@-
    3176:	2f01           	movel %d1,%sp@-
    3178:	2f00           	movel %d0,%sp@-
    317a:	4e92           	jsr %a2@
    317c:	4fef 0010      	lea %sp@(16),%sp
    3180:	2040           	moveal %d0,%a0
    3182:	2241           	moveal %d1,%a1
    3184:	2008           	movel %a0,%d0
    3186:	2209           	movel %a1,%d1
    3188:	204b           	moveal %a3,%a0
    318a:	518b           	subql #8,%a3
    318c:	b1ef 0044      	cmpal %sp@(68),%a0
    3190:	66de           	bnes 3170 <__kernel_rem_pio2+0x6f8>
    3192:	4aaf 0048      	tstl %sp@(72)
    3196:	670a           	beqs 31a2 <__kernel_rem_pio2+0x72a>
    3198:	2240           	moveal %d0,%a1
    319a:	d3fc 8000 0000 	addal #-2147483648,%a1
    31a0:	2009           	movel %a1,%d0
    31a2:	206f 02a0      	moveal %sp@(672),%a0
    31a6:	2080           	movel %d0,%a0@
    31a8:	2141 0004      	movel %d1,%a0@(4)
    31ac:	200c           	movel %a4,%d0
    31ae:	7607           	moveq #7,%d3
    31b0:	c083           	andl %d3,%d0
    31b2:	4cdf 7cfc      	moveml %sp@+,%d2-%d7/%a2-%fp
    31b6:	4fef 026c      	lea %sp@(620),%sp
    31ba:	4e75           	rts
    31bc:	2845           	moveal %d5,%a4
    31be:	2f42 0048      	movel %d2,%sp@(72)
    31c2:	242f 0038      	movel %sp@(56),%d2
    31c6:	5382           	subql #1,%d2
    31c8:	2f42 0040      	movel %d2,%sp@(64)
    31cc:	76e8           	moveq #-24,%d3
    31ce:	d7af 004c      	addl %d3,%sp@(76)
    31d2:	2002           	movel %d2,%d0
    31d4:	d082           	addl %d2,%d0
    31d6:	d080           	addl %d0,%d0
    31d8:	41ef 0298      	lea %sp@(664),%a0
    31dc:	d1c0           	addal %d0,%a0
    31de:	4aa8 fdd0      	tstl %a0@(-560)
    31e2:	6600 fe40      	bnew 3024 <__kernel_rem_pio2+0x5ac>
    31e6:	202f 0038      	movel %sp@(56),%d0
    31ea:	e588           	lsll #2,%d0
    31ec:	41f7 0860      	lea %sp@(60,%d0:l),%a0
    31f0:	2002           	movel %d2,%d0
    31f2:	226f 004c      	moveal %sp@(76),%a1
    31f6:	5380           	subql #1,%d0
    31f8:	43e9 ffe8      	lea %a1@(-24),%a1
    31fc:	5988           	subql #4,%a0
    31fe:	4aa8 0004      	tstl %a0@(4)
    3202:	67f2           	beqs 31f6 <__kernel_rem_pio2+0x77e>
    3204:	2f40 0040      	movel %d0,%sp@(64)
    3208:	2f49 004c      	movel %a1,%sp@(76)
    320c:	2f2f 004c      	movel %sp@(76),%sp@-
    3210:	42a7           	clrl %sp@-
    3212:	2f3c 3ff0 0000 	movel #1072693248,%sp@-
    3218:	4eb9 0000 3f04 	jsr 3f04 <scalbn>
    321e:	2400           	movel %d0,%d2
    3220:	2601           	movel %d1,%d3
    3222:	4fef 000c      	lea %sp@(12),%sp
    3226:	4aaf 0040      	tstl %sp@(64)
    322a:	6c00 fe1a      	bgew 3046 <__kernel_rem_pio2+0x5ce>
    322e:	7002           	moveq #2,%d0
    3230:	b0af 02ac      	cmpl %sp@(684),%d0
    3234:	6d00 047c      	bltw 36b2 <__kernel_rem_pio2+0xc3a>
    3238:	4aaf 02ac      	tstl %sp@(684)
    323c:	6e00 049e      	bgtw 36dc <__kernel_rem_pio2+0xc64>
    3240:	6600 ff6a      	bnew 31ac <__kernel_rem_pio2+0x734>
    3244:	4280           	clrl %d0
    3246:	4281           	clrl %d1
    3248:	4aaf 0048      	tstl %sp@(72)
    324c:	6700 ff54      	beqw 31a2 <__kernel_rem_pio2+0x72a>
    3250:	6000 ff46      	braw 3198 <__kernel_rem_pio2+0x720>
    3254:	4282           	clrl %d2
    3256:	4283           	clrl %d3
    3258:	206f 0038      	moveal %sp@(56),%a0
    325c:	50af 0038      	addql #8,%sp@(56)
    3260:	20c2           	movel %d2,%a0@+
    3262:	20c3           	movel %d3,%a0@+
    3264:	5285           	addql #1,%d5
    3266:	bc85           	cmpl %d5,%d6
    3268:	6c00 fba6      	bgew 2e10 <__kernel_rem_pio2+0x398>
    326c:	6000 fc0a      	braw 2e78 <__kernel_rem_pio2+0x400>
    3270:	5281           	addql #1,%d1
    3272:	b2af 0038      	cmpl %sp@(56),%d1
    3276:	6c00 fc4a      	bgew 2ec2 <__kernel_rem_pio2+0x44a>
    327a:	2618           	movel %a0@+,%d3
    327c:	6000 fc14      	braw 2e92 <__kernel_rem_pio2+0x41a>
    3280:	4aaf 004c      	tstl %sp@(76)
    3284:	6666           	bnes 32ec <__kernel_rem_pio2+0x874>
    3286:	202f 0038      	movel %sp@(56),%d0
    328a:	5380           	subql #1,%d0
    328c:	d080           	addl %d0,%d0
    328e:	d080           	addl %d0,%d0
    3290:	41ef 0298      	lea %sp@(664),%a0
    3294:	d1c0           	addal %d0,%a0
    3296:	2428 fdd0      	movel %a0@(-560),%d2
    329a:	4842           	swap %d2
    329c:	ee42           	asrw #7,%d2
    329e:	48c2           	extl %d2
    32a0:	4a82           	tstl %d2
    32a2:	6f00 fac6      	blew 2d6a <__kernel_rem_pio2+0x2f2>
    32a6:	5285           	addql #1,%d5
    32a8:	4aaf 0038      	tstl %sp@(56)
    32ac:	6e00 fbdc      	bgtw 2e8a <__kernel_rem_pio2+0x412>
    32b0:	7002           	moveq #2,%d0
    32b2:	b082           	cmpl %d2,%d0
    32b4:	6600 fab4      	bnew 2d6a <__kernel_rem_pio2+0x2f2>
    32b8:	2f01           	movel %d1,%sp@-
    32ba:	2f06           	movel %d6,%sp@-
    32bc:	42a7           	clrl %sp@-
    32be:	2f3c 3ff0 0000 	movel #1072693248,%sp@-
    32c4:	4eb9 0000 419a 	jsr 419a <__subdf3>
    32ca:	4fef 0010      	lea %sp@(16),%sp
    32ce:	2c00           	movel %d0,%d6
    32d0:	2e01           	movel %d1,%d7
    32d2:	6000 fa96      	braw 2d6a <__kernel_rem_pio2+0x2f2>
    32d6:	2042           	moveal %d2,%a0
    32d8:	2243           	moveal %d3,%a1
    32da:	2ac8           	movel %a0,%a5@+
    32dc:	2ac9           	movel %a1,%a5@+
    32de:	528a           	addql #1,%a2
    32e0:	588c           	addql #4,%a4
    32e2:	b7ca           	cmpal %a2,%a3
    32e4:	6600 f828      	bnew 2b0e <__kernel_rem_pio2+0x96>
    32e8:	6000 f842      	braw 2b2c <__kernel_rem_pio2+0xb4>
    32ec:	42a7           	clrl %sp@-
    32ee:	2f3c 3fe0 0000 	movel #1071644672,%sp@-
    32f4:	2f01           	movel %d1,%sp@-
    32f6:	2f06           	movel %d6,%sp@-
    32f8:	4eb9 0000 4bc4 	jsr 4bc4 <__gedf2>
    32fe:	4fef 0010      	lea %sp@(16),%sp
    3302:	4a80           	tstl %d0
    3304:	6c00 0094      	bgew 339a <__kernel_rem_pio2+0x922>
    3308:	7400           	moveq #0,%d2
    330a:	6000 fa5e      	braw 2d6a <__kernel_rem_pio2+0x2f2>
    330e:	222f 0038      	movel %sp@(56),%d1
    3312:	5281           	addql #1,%d1
    3314:	2a01           	movel %d1,%d5
    3316:	2c01           	movel %d1,%d6
    3318:	2c6f 0058      	moveal %sp@(88),%fp
    331c:	ddc1           	addal %d1,%fp
    331e:	ddce           	addal %fp,%fp
    3320:	ddce           	addal %fp,%fp
    3322:	226f 02b0      	moveal %sp@(688),%a1
    3326:	d3ce           	addal %fp,%a1
    3328:	2f49 003c      	movel %a1,%sp@(60)
    332c:	202f 02a8      	movel %sp@(680),%d0
    3330:	d0af 0038      	addl %sp@(56),%d0
    3334:	e788           	lsll #3,%d0
    3336:	49ef 00b8      	lea %sp@(184),%a4
    333a:	d9c0           	addal %d0,%a4
    333c:	e789           	lsll #3,%d1
    333e:	2e3c 0000 01f8 	movel #504,%d7
    3344:	de8f           	addl %sp,%d7
    3346:	de81           	addl %d1,%d7
    3348:	47f9 0000 41a0 	lea 41a0 <__adddf3>,%a3
    334e:	2f47 0038      	movel %d7,%sp@(56)
    3352:	2e2f 0054      	movel %sp@(84),%d7
    3356:	6000 fab8      	braw 2e10 <__kernel_rem_pio2+0x398>
    335a:	4282           	clrl %d2
    335c:	4283           	clrl %d3
    335e:	2cc2           	movel %d2,%fp@+
    3360:	2cc3           	movel %d3,%fp@+
    3362:	5084           	addql #8,%d4
    3364:	5285           	addql #1,%d5
    3366:	baaf 003c      	cmpl %sp@(60),%d5
    336a:	6600 f806      	bnew 2b72 <__kernel_rem_pio2+0xfa>
    336e:	6000 f84c      	braw 2bbc <__kernel_rem_pio2+0x144>
    3372:	206f 0038      	moveal %sp@(56),%a0
    3376:	5388           	subql #1,%a0
    3378:	d1c8           	addal %a0,%a0
    337a:	d1c8           	addal %a0,%a0
    337c:	223c 0000 0298 	movel #664,%d1
    3382:	d28f           	addl %sp,%d1
    3384:	d1c1           	addal %d1,%a0
    3386:	02a8 007f ffff 	andil #8388607,%a0@(-560)
    338c:	fdd0 
    338e:	7002           	moveq #2,%d0
    3390:	b082           	cmpl %d2,%d0
    3392:	6600 f9d6      	bnew 2d6a <__kernel_rem_pio2+0x2f2>
    3396:	6000 fb62      	braw 2efa <__kernel_rem_pio2+0x482>
    339a:	5285           	addql #1,%d5
    339c:	7402           	moveq #2,%d2
    339e:	4aaf 0038      	tstl %sp@(56)
    33a2:	6e00 fae6      	bgtw 2e8a <__kernel_rem_pio2+0x412>
    33a6:	2f07           	movel %d7,%sp@-
    33a8:	2f06           	movel %d6,%sp@-
    33aa:	42a7           	clrl %sp@-
    33ac:	2f3c 3ff0 0000 	movel #1072693248,%sp@-
    33b2:	4eb9 0000 419a 	jsr 419a <__subdf3>
    33b8:	4fef 0010      	lea %sp@(16),%sp
    33bc:	2c00           	movel %d0,%d6
    33be:	2e01           	movel %d1,%d7
    33c0:	6000 f9a8      	braw 2d6a <__kernel_rem_pio2+0x2f2>
    33c4:	70e8           	moveq #-24,%d0
    33c6:	42af 0058      	clrl %sp@(88)
    33ca:	d5c0           	addal %d0,%a2
    33cc:	2f4a 004c      	movel %a2,%sp@(76)
    33d0:	246f 0058      	moveal %sp@(88),%a2
    33d4:	95ef 0054      	subal %sp@(84),%a2
    33d8:	206f 0050      	moveal %sp@(80),%a0
    33dc:	d1ef 0054      	addal %sp@(84),%a0
    33e0:	b0fc 0000      	cmpaw #0,%a0
    33e4:	6c00 f704      	bgew 2aea <__kernel_rem_pio2+0x72>
    33e8:	2f7c 0000 4da4 	movel #19876,%sp@(68)
    33ee:	0044 
    33f0:	6000 f73a      	braw 2b2c <__kernel_rem_pio2+0xb4>
    33f4:	47ef 0158      	lea %sp@(344),%a3
    33f8:	d7ef 0038      	addal %sp@(56),%a3
    33fc:	4282           	clrl %d2
    33fe:	4283           	clrl %d3
    3400:	45f9 0000 41a0 	lea 41a0 <__adddf3>,%a2
    3406:	2f2b 0004      	movel %a3@(4),%sp@-
    340a:	2f13           	movel %a3@,%sp@-
    340c:	2f03           	movel %d3,%sp@-
    340e:	2f02           	movel %d2,%sp@-
    3410:	4e92           	jsr %a2@
    3412:	4fef 0010      	lea %sp@(16),%sp
    3416:	2400           	movel %d0,%d2
    3418:	2601           	movel %d1,%d3
    341a:	200b           	movel %a3,%d0
    341c:	518b           	subql #8,%a3
    341e:	b0af 0044      	cmpl %sp@(68),%d0
    3422:	66e2           	bnes 3406 <__kernel_rem_pio2+0x98e>
    3424:	2f01           	movel %d1,%sp@-
    3426:	2f02           	movel %d2,%sp@-
    3428:	2f2f 0164      	movel %sp@(356),%sp@-
    342c:	2f2f 0164      	movel %sp@(356),%sp@-
    3430:	4eb9 0000 419a 	jsr 419a <__subdf3>
    3436:	4fef 0010      	lea %sp@(16),%sp
    343a:	2040           	moveal %d0,%a0
    343c:	2241           	moveal %d1,%a1
    343e:	2008           	movel %a0,%d0
    3440:	2209           	movel %a1,%d1
    3442:	4aaf 0048      	tstl %sp@(72)
    3446:	6700 0248      	beqw 3690 <__kernel_rem_pio2+0xc18>
    344a:	2802           	movel %d2,%d4
    344c:	0684 8000 0000 	addil #-2147483648,%d4
    3452:	206f 02a0      	moveal %sp@(672),%a0
    3456:	2084           	movel %d4,%a0@
    3458:	2143 0004      	movel %d3,%a0@(4)
    345c:	4aaf 0040      	tstl %sp@(64)
    3460:	6732           	beqs 3494 <__kernel_rem_pio2+0xa1c>
    3462:	47ef 0158      	lea %sp@(344),%a3
    3466:	508b           	addql #8,%a3
    3468:	7401           	moveq #1,%d2
    346a:	262f 0040      	movel %sp@(64),%d3
    346e:	518f           	subql #8,%sp
    3470:	2e9b           	movel %a3@+,%sp@
    3472:	2f5b 0004      	movel %a3@+,%sp@(4)
    3476:	2f01           	movel %d1,%sp@-
    3478:	2f00           	movel %d0,%sp@-
    347a:	4e92           	jsr %a2@
    347c:	4fef 0010      	lea %sp@(16),%sp
    3480:	2040           	moveal %d0,%a0
    3482:	2241           	moveal %d1,%a1
    3484:	2008           	movel %a0,%d0
    3486:	2209           	movel %a1,%d1
    3488:	5282           	addql #1,%d2
    348a:	b483           	cmpl %d3,%d2
    348c:	6fe0           	bles 346e <__kernel_rem_pio2+0x9f6>
    348e:	4aaf 0048      	tstl %sp@(72)
    3492:	670a           	beqs 349e <__kernel_rem_pio2+0xa26>
    3494:	2240           	moveal %d0,%a1
    3496:	d3fc 8000 0000 	addal #-2147483648,%a1
    349c:	2009           	movel %a1,%d0
    349e:	226f 02a0      	moveal %sp@(672),%a1
    34a2:	2340 0008      	movel %d0,%a1@(8)
    34a6:	2341 000c      	movel %d1,%a1@(12)
    34aa:	200c           	movel %a4,%d0
    34ac:	7607           	moveq #7,%d3
    34ae:	c083           	andl %d3,%d0
    34b0:	4cdf 7cfc      	moveml %sp@+,%d2-%d7/%a2-%fp
    34b4:	4fef 026c      	lea %sp@(620),%sp
    34b8:	4e75           	rts
    34ba:	7203           	moveq #3,%d1
    34bc:	b2af 02ac      	cmpl %sp@(684),%d1
    34c0:	6600 fcea      	bnew 31ac <__kernel_rem_pio2+0x734>
    34c4:	4aaf 0040      	tstl %sp@(64)
    34c8:	6700 01f2      	beqw 36bc <__kernel_rem_pio2+0xc44>
    34cc:	45ef 0158      	lea %sp@(344),%a2
    34d0:	d5ef 0038      	addal %sp@(56),%a2
    34d4:	2c4a           	moveal %a2,%fp
    34d6:	2052           	moveal %a2@,%a0
    34d8:	226a 0004      	moveal %a2@(4),%a1
    34dc:	45ef 0150      	lea %sp@(336),%a2
    34e0:	242f 0038      	movel %sp@(56),%d2
    34e4:	47f2 2800      	lea %a2@(0,%d2:l),%a3
    34e8:	2a4b           	moveal %a3,%a5
    34ea:	45f9 0000 41a0 	lea 41a0 <__adddf3>,%a2
    34f0:	2c0d           	movel %a5,%d6
    34f2:	2815           	movel %a5@,%d4
    34f4:	2a2d 0004      	movel %a5@(4),%d5
    34f8:	2408           	movel %a0,%d2
    34fa:	2609           	movel %a1,%d3
    34fc:	2f05           	movel %d5,%sp@-
    34fe:	2f04           	movel %d4,%sp@-
    3500:	2f03           	movel %d3,%sp@-
    3502:	2f08           	movel %a0,%sp@-
    3504:	4e92           	jsr %a2@
    3506:	4fef 0010      	lea %sp@(16),%sp
    350a:	2040           	moveal %d0,%a0
    350c:	2f01           	movel %d1,%sp@-
    350e:	2f08           	movel %a0,%sp@-
    3510:	2f05           	movel %d5,%sp@-
    3512:	2f04           	movel %d4,%sp@-
    3514:	2f48 0040      	movel %a0,%sp@(64)
    3518:	2f41 003c      	movel %d1,%sp@(60)
    351c:	4eb9 0000 419a 	jsr 419a <__subdf3>
    3522:	4fef 000c      	lea %sp@(12),%sp
    3526:	2e83           	movel %d3,%sp@
    3528:	2f02           	movel %d2,%sp@-
    352a:	2f01           	movel %d1,%sp@-
    352c:	2f00           	movel %d0,%sp@-
    352e:	4e92           	jsr %a2@
    3530:	4fef 0010      	lea %sp@(16),%sp
    3534:	2b40 0008      	movel %d0,%a5@(8)
    3538:	2b41 000c      	movel %d1,%a5@(12)
    353c:	206f 0030      	moveal %sp@(48),%a0
    3540:	226f 002c      	moveal %sp@(44),%a1
    3544:	2a88           	movel %a0,%a5@
    3546:	2b49 0004      	movel %a1,%a5@(4)
    354a:	518d           	subql #8,%a5
    354c:	bcaf 0044      	cmpl %sp@(68),%d6
    3550:	669e           	bnes 34f0 <__kernel_rem_pio2+0xa78>
    3552:	7401           	moveq #1,%d2
    3554:	b4af 0040      	cmpl %sp@(64),%d2
    3558:	6700 0162      	beqw 36bc <__kernel_rem_pio2+0xc44>
    355c:	2416           	movel %fp@,%d2
    355e:	262e 0004      	movel %fp@(4),%d3
    3562:	2c13           	movel %a3@,%d6
    3564:	2e2b 0004      	movel %a3@(4),%d7
    3568:	2802           	movel %d2,%d4
    356a:	2a03           	movel %d3,%d5
    356c:	2f07           	movel %d7,%sp@-
    356e:	2f06           	movel %d6,%sp@-
    3570:	2f05           	movel %d5,%sp@-
    3572:	2f02           	movel %d2,%sp@-
    3574:	4e92           	jsr %a2@
    3576:	4fef 0010      	lea %sp@(16),%sp
    357a:	2400           	movel %d0,%d2
    357c:	2601           	movel %d1,%d3
    357e:	2f01           	movel %d1,%sp@-
    3580:	2f02           	movel %d2,%sp@-
    3582:	2f07           	movel %d7,%sp@-
    3584:	2f06           	movel %d6,%sp@-
    3586:	4eb9 0000 419a 	jsr 419a <__subdf3>
    358c:	4fef 000c      	lea %sp@(12),%sp
    3590:	2e85           	movel %d5,%sp@
    3592:	2f04           	movel %d4,%sp@-
    3594:	2f01           	movel %d1,%sp@-
    3596:	2f00           	movel %d0,%sp@-
    3598:	4e92           	jsr %a2@
    359a:	4fef 0010      	lea %sp@(16),%sp
    359e:	2740 0008      	movel %d0,%a3@(8)
    35a2:	2741 000c      	movel %d1,%a3@(12)
    35a6:	2682           	movel %d2,%a3@
    35a8:	2743 0004      	movel %d3,%a3@(4)
    35ac:	518b           	subql #8,%a3
    35ae:	b7ef 0044      	cmpal %sp@(68),%a3
    35b2:	66ae           	bnes 3562 <__kernel_rem_pio2+0xaea>
    35b4:	243c 0000 0160 	movel #352,%d2
    35ba:	d48f           	addl %sp,%d2
    35bc:	4280           	clrl %d0
    35be:	4281           	clrl %d1
    35c0:	2f2e 0004      	movel %fp@(4),%sp@-
    35c4:	2f16           	movel %fp@,%sp@-
    35c6:	2f01           	movel %d1,%sp@-
    35c8:	2f00           	movel %d0,%sp@-
    35ca:	4e92           	jsr %a2@
    35cc:	4fef 0010      	lea %sp@(16),%sp
    35d0:	2040           	moveal %d0,%a0
    35d2:	2241           	moveal %d1,%a1
    35d4:	2008           	movel %a0,%d0
    35d6:	2209           	movel %a1,%d1
    35d8:	518e           	subql #8,%fp
    35da:	bdc2           	cmpal %d2,%fp
    35dc:	66e2           	bnes 35c0 <__kernel_rem_pio2+0xb48>
    35de:	282f 0158      	movel %sp@(344),%d4
    35e2:	206f 015c      	moveal %sp@(348),%a0
    35e6:	262f 0160      	movel %sp@(352),%d3
    35ea:	242f 0164      	movel %sp@(356),%d2
    35ee:	4aaf 0048      	tstl %sp@(72)
    35f2:	665e           	bnes 3652 <__kernel_rem_pio2+0xbda>
    35f4:	2a08           	movel %a0,%d5
    35f6:	2044           	moveal %d4,%a0
    35f8:	2245           	moveal %d5,%a1
    35fa:	246f 02a0      	moveal %sp@(672),%a2
    35fe:	2488           	movel %a0,%a2@
    3600:	2549 0004      	movel %a1,%a2@(4)
    3604:	2043           	moveal %d3,%a0
    3606:	2242           	moveal %d2,%a1
    3608:	2548 0008      	movel %a0,%a2@(8)
    360c:	2549 000c      	movel %a1,%a2@(12)
    3610:	2540 0010      	movel %d0,%a2@(16)
    3614:	2541 0014      	movel %d1,%a2@(20)
    3618:	200c           	movel %a4,%d0
    361a:	7607           	moveq #7,%d3
    361c:	c083           	andl %d3,%d0
    361e:	4cdf 7cfc      	moveml %sp@+,%d2-%d7/%a2-%fp
    3622:	4fef 026c      	lea %sp@(620),%sp
    3626:	4e75           	rts
    3628:	202f 0038      	movel %sp@(56),%d0
    362c:	d080           	addl %d0,%d0
    362e:	d080           	addl %d0,%d0
    3630:	47ef 0298      	lea %sp@(664),%a3
    3634:	d7c0           	addal %d0,%a3
    3636:	47eb fdd0      	lea %a3@(-560),%a3
    363a:	2f03           	movel %d3,%sp@-
    363c:	2f02           	movel %d2,%sp@-
    363e:	4eb9 0000 4fee 	jsr 4fee <__fixdfsi>
    3644:	508f           	addql #8,%sp
    3646:	2680           	movel %d0,%a3@
    3648:	2f6f 0038 0040 	movel %sp@(56),%sp@(64)
    364e:	6000 f9d4      	braw 3024 <__kernel_rem_pio2+0x5ac>
    3652:	0684 8000 0000 	addil #-2147483648,%d4
    3658:	226f 02a0      	moveal %sp@(672),%a1
    365c:	2284           	movel %d4,%a1@
    365e:	2348 0004      	movel %a0,%a1@(4)
    3662:	0683 8000 0000 	addil #-2147483648,%d3
    3668:	2343 0008      	movel %d3,%a1@(8)
    366c:	2342 000c      	movel %d2,%a1@(12)
    3670:	2400           	movel %d0,%d2
    3672:	0682 8000 0000 	addil #-2147483648,%d2
    3678:	2342 0010      	movel %d2,%a1@(16)
    367c:	2341 0014      	movel %d1,%a1@(20)
    3680:	200c           	movel %a4,%d0
    3682:	7607           	moveq #7,%d3
    3684:	c083           	andl %d3,%d0
    3686:	4cdf 7cfc      	moveml %sp@+,%d2-%d7/%a2-%fp
    368a:	4fef 026c      	lea %sp@(620),%sp
    368e:	4e75           	rts
    3690:	226f 02a0      	moveal %sp@(672),%a1
    3694:	2282           	movel %d2,%a1@
    3696:	2343 0004      	movel %d3,%a1@(4)
    369a:	4aaf 0040      	tstl %sp@(64)
    369e:	6700 fdfe      	beqw 349e <__kernel_rem_pio2+0xa26>
    36a2:	47ef 0158      	lea %sp@(344),%a3
    36a6:	508b           	addql #8,%a3
    36a8:	7401           	moveq #1,%d2
    36aa:	262f 0040      	movel %sp@(64),%d3
    36ae:	6000 fdbe      	braw 346e <__kernel_rem_pio2+0x9f6>
    36b2:	7203           	moveq #3,%d1
    36b4:	b2af 02ac      	cmpl %sp@(684),%d1
    36b8:	6600 faf2      	bnew 31ac <__kernel_rem_pio2+0x734>
    36bc:	4280           	clrl %d0
    36be:	4281           	clrl %d1
    36c0:	282f 0158      	movel %sp@(344),%d4
    36c4:	206f 015c      	moveal %sp@(348),%a0
    36c8:	262f 0160      	movel %sp@(352),%d3
    36cc:	242f 0164      	movel %sp@(356),%d2
    36d0:	4aaf 0048      	tstl %sp@(72)
    36d4:	6600 ff7c      	bnew 3652 <__kernel_rem_pio2+0xbda>
    36d8:	6000 ff1a      	braw 35f4 <__kernel_rem_pio2+0xb7c>
    36dc:	202f 0158      	movel %sp@(344),%d0
    36e0:	222f 015c      	movel %sp@(348),%d1
    36e4:	4aaf 0048      	tstl %sp@(72)
    36e8:	671c           	beqs 3706 <__kernel_rem_pio2+0xc8e>
    36ea:	206f 02a0      	moveal %sp@(672),%a0
    36ee:	20bc 8000 0000 	movel #-2147483648,%a0@
    36f4:	42a8 0004      	clrl %a0@(4)
    36f8:	2240           	moveal %d0,%a1
    36fa:	d3fc 8000 0000 	addal #-2147483648,%a1
    3700:	2009           	movel %a1,%d0
    3702:	6000 fd9a      	braw 349e <__kernel_rem_pio2+0xa26>
    3706:	206f 02a0      	moveal %sp@(672),%a0
    370a:	4290           	clrl %a0@
    370c:	42a8 0004      	clrl %a0@(4)
    3710:	226f 02a0      	moveal %sp@(672),%a1
    3714:	2340 0008      	movel %d0,%a1@(8)
    3718:	2341 000c      	movel %d1,%a1@(12)
    371c:	6000 fd8c      	braw 34aa <__kernel_rem_pio2+0xa32>

00003720 <__kernel_cos>:
    3720:	518f           	subql #8,%sp
    3722:	48e7 3f3c      	moveml %d2-%d7/%a2-%a5,%sp@-
    3726:	282f 0034      	movel %sp@(52),%d4
    372a:	2a2f 0038      	movel %sp@(56),%d5
    372e:	2004           	movel %d4,%d0
    3730:	0880 001f      	bclr #31,%d0
    3734:	2840           	moveal %d0,%a4
    3736:	0c80 3e3f ffff 	cmpil #1044381695,%d0
    373c:	6200 017e      	bhiw 38bc <__kernel_cos+0x19c>
    3740:	2f05           	movel %d5,%sp@-
    3742:	2f04           	movel %d4,%sp@-
    3744:	4eb9 0000 4fee 	jsr 4fee <__fixdfsi>
    374a:	508f           	addql #8,%sp
    374c:	4a80           	tstl %d0
    374e:	6700 03b6      	beqw 3b06 <__kernel_cos+0x3e6>
    3752:	45f9 0000 4536 	lea 4536 <__muldf3>,%a2
    3758:	2f05           	movel %d5,%sp@-
    375a:	2f04           	movel %d4,%sp@-
    375c:	2f05           	movel %d5,%sp@-
    375e:	2f04           	movel %d4,%sp@-
    3760:	4e92           	jsr %a2@
    3762:	4fef 0010      	lea %sp@(16),%sp
    3766:	2400           	movel %d0,%d2
    3768:	2601           	movel %d1,%d3
    376a:	2f3c be88 38d4 	movel #-1098368812,%sp@-
    3770:	2f3c bda8 fae9 	movel #-1112999191,%sp@-
    3776:	2f01           	movel %d1,%sp@-
    3778:	2f02           	movel %d2,%sp@-
    377a:	4e92           	jsr %a2@
    377c:	4fef 0010      	lea %sp@(16),%sp
    3780:	49f9 0000 41a0 	lea 41a0 <__adddf3>,%a4
    3786:	2f3c bdb4 b1c4 	movel #-1112231484,%sp@-
    378c:	2f3c 3e21 ee9e 	movel #1042411166,%sp@-
    3792:	2f01           	movel %d1,%sp@-
    3794:	2f00           	movel %d0,%sp@-
    3796:	4e94           	jsr %a4@
    3798:	4fef 000c      	lea %sp@(12),%sp
    379c:	2e83           	movel %d3,%sp@
    379e:	2f02           	movel %d2,%sp@-
    37a0:	2f01           	movel %d1,%sp@-
    37a2:	2f00           	movel %d0,%sp@-
    37a4:	4e92           	jsr %a2@
    37a6:	4fef 0010      	lea %sp@(16),%sp
    37aa:	47f9 0000 419a 	lea 419a <__subdf3>,%a3
    37b0:	2f3c 809c 52ad 	movel #-2137238867,%sp@-
    37b6:	2f3c 3e92 7e4f 	movel #1049787983,%sp@-
    37bc:	2f01           	movel %d1,%sp@-
    37be:	2f00           	movel %d0,%sp@-
    37c0:	4e93           	jsr %a3@
    37c2:	4fef 000c      	lea %sp@(12),%sp
    37c6:	2e83           	movel %d3,%sp@
    37c8:	2f02           	movel %d2,%sp@-
    37ca:	2f01           	movel %d1,%sp@-
    37cc:	2f00           	movel %d0,%sp@-
    37ce:	4e92           	jsr %a2@
    37d0:	4fef 000c      	lea %sp@(12),%sp
    37d4:	2ebc 19cb 1590 	movel #432739728,%sp@
    37da:	2f3c 3efa 01a0 	movel #1056571808,%sp@-
    37e0:	2f01           	movel %d1,%sp@-
    37e2:	2f00           	movel %d0,%sp@-
    37e4:	4e94           	jsr %a4@
    37e6:	4fef 000c      	lea %sp@(12),%sp
    37ea:	2e83           	movel %d3,%sp@
    37ec:	2f02           	movel %d2,%sp@-
    37ee:	2f01           	movel %d1,%sp@-
    37f0:	2f00           	movel %d0,%sp@-
    37f2:	4e92           	jsr %a2@
    37f4:	4fef 000c      	lea %sp@(12),%sp
    37f8:	2ebc 16c1 5177 	movel #381768055,%sp@
    37fe:	2f3c 3f56 c16c 	movel #1062650220,%sp@-
    3804:	2f01           	movel %d1,%sp@-
    3806:	2f00           	movel %d0,%sp@-
    3808:	4e93           	jsr %a3@
    380a:	4fef 000c      	lea %sp@(12),%sp
    380e:	2e83           	movel %d3,%sp@
    3810:	2f02           	movel %d2,%sp@-
    3812:	2f01           	movel %d1,%sp@-
    3814:	2f00           	movel %d0,%sp@-
    3816:	4e92           	jsr %a2@
    3818:	4fef 000c      	lea %sp@(12),%sp
    381c:	2ebc 5555 554c 	movel #1431655756,%sp@
    3822:	2f3c 3fa5 5555 	movel #1067799893,%sp@-
    3828:	2f01           	movel %d1,%sp@-
    382a:	2f00           	movel %d0,%sp@-
    382c:	4e94           	jsr %a4@
    382e:	4fef 000c      	lea %sp@(12),%sp
    3832:	2e83           	movel %d3,%sp@
    3834:	2f02           	movel %d2,%sp@-
    3836:	2f01           	movel %d1,%sp@-
    3838:	2f00           	movel %d0,%sp@-
    383a:	4e92           	jsr %a2@
    383c:	4fef 0010      	lea %sp@(16),%sp
    3840:	2c00           	movel %d0,%d6
    3842:	2e01           	movel %d1,%d7
    3844:	42a7           	clrl %sp@-
    3846:	2f3c 3fe0 0000 	movel #1071644672,%sp@-
    384c:	2f03           	movel %d3,%sp@-
    384e:	2f02           	movel %d2,%sp@-
    3850:	4e92           	jsr %a2@
    3852:	4fef 0010      	lea %sp@(16),%sp
    3856:	2840           	moveal %d0,%a4
    3858:	2a41           	moveal %d1,%a5
    385a:	2f07           	movel %d7,%sp@-
    385c:	2f06           	movel %d6,%sp@-
    385e:	2f03           	movel %d3,%sp@-
    3860:	2f02           	movel %d2,%sp@-
    3862:	4e92           	jsr %a2@
    3864:	4fef 0010      	lea %sp@(16),%sp
    3868:	2400           	movel %d0,%d2
    386a:	2601           	movel %d1,%d3
    386c:	2f2f 0040      	movel %sp@(64),%sp@-
    3870:	2f2f 0040      	movel %sp@(64),%sp@-
    3874:	2f05           	movel %d5,%sp@-
    3876:	2f04           	movel %d4,%sp@-
    3878:	4e92           	jsr %a2@
    387a:	4fef 000c      	lea %sp@(12),%sp
    387e:	2e81           	movel %d1,%sp@
    3880:	2f00           	movel %d0,%sp@-
    3882:	2f03           	movel %d3,%sp@-
    3884:	2f02           	movel %d2,%sp@-
    3886:	4e93           	jsr %a3@
    3888:	4fef 000c      	lea %sp@(12),%sp
    388c:	2e81           	movel %d1,%sp@
    388e:	2f00           	movel %d0,%sp@-
    3890:	2f0d           	movel %a5,%sp@-
    3892:	2f0c           	movel %a4,%sp@-
    3894:	4e93           	jsr %a3@
    3896:	4fef 000c      	lea %sp@(12),%sp
    389a:	2e81           	movel %d1,%sp@
    389c:	2f00           	movel %d0,%sp@-
    389e:	42a7           	clrl %sp@-
    38a0:	2f3c 3ff0 0000 	movel #1072693248,%sp@-
    38a6:	4e93           	jsr %a3@
    38a8:	4fef 0010      	lea %sp@(16),%sp
    38ac:	2240           	moveal %d0,%a1
    38ae:	2041           	moveal %d1,%a0
    38b0:	2009           	movel %a1,%d0
    38b2:	2208           	movel %a0,%d1
    38b4:	4cdf 3cfc      	moveml %sp@+,%d2-%d7/%a2-%a5
    38b8:	508f           	addql #8,%sp
    38ba:	4e75           	rts
    38bc:	45f9 0000 4536 	lea 4536 <__muldf3>,%a2
    38c2:	2f05           	movel %d5,%sp@-
    38c4:	2f04           	movel %d4,%sp@-
    38c6:	2f05           	movel %d5,%sp@-
    38c8:	2f04           	movel %d4,%sp@-
    38ca:	4e92           	jsr %a2@
    38cc:	4fef 0010      	lea %sp@(16),%sp
    38d0:	2400           	movel %d0,%d2
    38d2:	2601           	movel %d1,%d3
    38d4:	2f3c be88 38d4 	movel #-1098368812,%sp@-
    38da:	2f3c bda8 fae9 	movel #-1112999191,%sp@-
    38e0:	2f01           	movel %d1,%sp@-
    38e2:	2f02           	movel %d2,%sp@-
    38e4:	4e92           	jsr %a2@
    38e6:	4fef 0010      	lea %sp@(16),%sp
    38ea:	4bf9 0000 41a0 	lea 41a0 <__adddf3>,%a5
    38f0:	2f3c bdb4 b1c4 	movel #-1112231484,%sp@-
    38f6:	2f3c 3e21 ee9e 	movel #1042411166,%sp@-
    38fc:	2f01           	movel %d1,%sp@-
    38fe:	2f00           	movel %d0,%sp@-
    3900:	4e95           	jsr %a5@
    3902:	4fef 000c      	lea %sp@(12),%sp
    3906:	2e83           	movel %d3,%sp@
    3908:	2f02           	movel %d2,%sp@-
    390a:	2f01           	movel %d1,%sp@-
    390c:	2f00           	movel %d0,%sp@-
    390e:	4e92           	jsr %a2@
    3910:	4fef 0010      	lea %sp@(16),%sp
    3914:	47f9 0000 419a 	lea 419a <__subdf3>,%a3
    391a:	2f3c 809c 52ad 	movel #-2137238867,%sp@-
    3920:	2f3c 3e92 7e4f 	movel #1049787983,%sp@-
    3926:	2f01           	movel %d1,%sp@-
    3928:	2f00           	movel %d0,%sp@-
    392a:	4e93           	jsr %a3@
    392c:	4fef 000c      	lea %sp@(12),%sp
    3930:	2e83           	movel %d3,%sp@
    3932:	2f02           	movel %d2,%sp@-
    3934:	2f01           	movel %d1,%sp@-
    3936:	2f00           	movel %d0,%sp@-
    3938:	4e92           	jsr %a2@
    393a:	4fef 000c      	lea %sp@(12),%sp
    393e:	2ebc 19cb 1590 	movel #432739728,%sp@
    3944:	2f3c 3efa 01a0 	movel #1056571808,%sp@-
    394a:	2f01           	movel %d1,%sp@-
    394c:	2f00           	movel %d0,%sp@-
    394e:	4e95           	jsr %a5@
    3950:	4fef 000c      	lea %sp@(12),%sp
    3954:	2e83           	movel %d3,%sp@
    3956:	2f02           	movel %d2,%sp@-
    3958:	2f01           	movel %d1,%sp@-
    395a:	2f00           	movel %d0,%sp@-
    395c:	4e92           	jsr %a2@
    395e:	4fef 000c      	lea %sp@(12),%sp
    3962:	2ebc 16c1 5177 	movel #381768055,%sp@
    3968:	2f3c 3f56 c16c 	movel #1062650220,%sp@-
    396e:	2f01           	movel %d1,%sp@-
    3970:	2f00           	movel %d0,%sp@-
    3972:	4e93           	jsr %a3@
    3974:	4fef 000c      	lea %sp@(12),%sp
    3978:	2e83           	movel %d3,%sp@
    397a:	2f02           	movel %d2,%sp@-
    397c:	2f01           	movel %d1,%sp@-
    397e:	2f00           	movel %d0,%sp@-
    3980:	4e92           	jsr %a2@
    3982:	4fef 000c      	lea %sp@(12),%sp
    3986:	2ebc 5555 554c 	movel #1431655756,%sp@
    398c:	2f3c 3fa5 5555 	movel #1067799893,%sp@-
    3992:	2f01           	movel %d1,%sp@-
    3994:	2f00           	movel %d0,%sp@-
    3996:	4e95           	jsr %a5@
    3998:	4fef 000c      	lea %sp@(12),%sp
    399c:	2e83           	movel %d3,%sp@
    399e:	2f02           	movel %d2,%sp@-
    39a0:	2f01           	movel %d1,%sp@-
    39a2:	2f00           	movel %d0,%sp@-
    39a4:	4e92           	jsr %a2@
    39a6:	4fef 0010      	lea %sp@(16),%sp
    39aa:	2c00           	movel %d0,%d6
    39ac:	2e01           	movel %d1,%d7
    39ae:	b9fc 3fd3 3332 	cmpal #1070805810,%a4
    39b4:	6300 fe8e      	blsw 3844 <__kernel_cos+0x124>
    39b8:	b9fc 3fe9 0000 	cmpal #1072234496,%a4
    39be:	6200 00b4      	bhiw 3a74 <__kernel_cos+0x354>
    39c2:	200c           	movel %a4,%d0
    39c4:	0680 ffe0 0000 	addil #-2097152,%d0
    39ca:	7200           	moveq #0,%d1
    39cc:	2840           	moveal %d0,%a4
    39ce:	2a41           	moveal %d1,%a5
    39d0:	2f01           	movel %d1,%sp@-
    39d2:	2f00           	movel %d0,%sp@-
    39d4:	42a7           	clrl %sp@-
    39d6:	2f3c 3ff0 0000 	movel #1072693248,%sp@-
    39dc:	4e93           	jsr %a3@
    39de:	4fef 0010      	lea %sp@(16),%sp
    39e2:	2040           	moveal %d0,%a0
    39e4:	2241           	moveal %d1,%a1
    39e6:	2f48 0028      	movel %a0,%sp@(40)
    39ea:	2f49 002c      	movel %a1,%sp@(44)
    39ee:	42a7           	clrl %sp@-
    39f0:	2f3c 3fe0 0000 	movel #1071644672,%sp@-
    39f6:	2f03           	movel %d3,%sp@-
    39f8:	2f02           	movel %d2,%sp@-
    39fa:	4e92           	jsr %a2@
    39fc:	4fef 000c      	lea %sp@(12),%sp
    3a00:	2e8d           	movel %a5,%sp@
    3a02:	2f0c           	movel %a4,%sp@-
    3a04:	2f01           	movel %d1,%sp@-
    3a06:	2f00           	movel %d0,%sp@-
    3a08:	4e93           	jsr %a3@
    3a0a:	4fef 0010      	lea %sp@(16),%sp
    3a0e:	2840           	moveal %d0,%a4
    3a10:	2a41           	moveal %d1,%a5
    3a12:	2f07           	movel %d7,%sp@-
    3a14:	2f06           	movel %d6,%sp@-
    3a16:	2f03           	movel %d3,%sp@-
    3a18:	2f02           	movel %d2,%sp@-
    3a1a:	4e92           	jsr %a2@
    3a1c:	4fef 0010      	lea %sp@(16),%sp
    3a20:	2400           	movel %d0,%d2
    3a22:	2601           	movel %d1,%d3
    3a24:	2f2f 0040      	movel %sp@(64),%sp@-
    3a28:	2f2f 0040      	movel %sp@(64),%sp@-
    3a2c:	2f05           	movel %d5,%sp@-
    3a2e:	2f04           	movel %d4,%sp@-
    3a30:	4e92           	jsr %a2@
    3a32:	4fef 000c      	lea %sp@(12),%sp
    3a36:	2e81           	movel %d1,%sp@
    3a38:	2f00           	movel %d0,%sp@-
    3a3a:	2f03           	movel %d3,%sp@-
    3a3c:	2f02           	movel %d2,%sp@-
    3a3e:	4e93           	jsr %a3@
    3a40:	4fef 000c      	lea %sp@(12),%sp
    3a44:	2e81           	movel %d1,%sp@
    3a46:	2f00           	movel %d0,%sp@-
    3a48:	2f0d           	movel %a5,%sp@-
    3a4a:	2f0c           	movel %a4,%sp@-
    3a4c:	4e93           	jsr %a3@
    3a4e:	4fef 000c      	lea %sp@(12),%sp
    3a52:	2e81           	movel %d1,%sp@
    3a54:	2f00           	movel %d0,%sp@-
    3a56:	2f2f 0034      	movel %sp@(52),%sp@-
    3a5a:	2f2f 0034      	movel %sp@(52),%sp@-
    3a5e:	4e93           	jsr %a3@
    3a60:	4fef 0010      	lea %sp@(16),%sp
    3a64:	2240           	moveal %d0,%a1
    3a66:	2041           	moveal %d1,%a0
    3a68:	2009           	movel %a1,%d0
    3a6a:	2208           	movel %a0,%d1
    3a6c:	4cdf 3cfc      	moveml %sp@+,%d2-%d7/%a2-%a5
    3a70:	508f           	addql #8,%sp
    3a72:	4e75           	rts
    3a74:	2f7c 3fe7 0000 	movel #1072103424,%sp@(40)
    3a7a:	0028 
    3a7c:	42af 002c      	clrl %sp@(44)
    3a80:	287c 3fd2 0000 	moveal #1070727168,%a4
    3a86:	9bcd           	subal %a5,%a5
    3a88:	42a7           	clrl %sp@-
    3a8a:	2f3c 3fe0 0000 	movel #1071644672,%sp@-
    3a90:	2f03           	movel %d3,%sp@-
    3a92:	2f02           	movel %d2,%sp@-
    3a94:	4e92           	jsr %a2@
    3a96:	4fef 000c      	lea %sp@(12),%sp
    3a9a:	2e8d           	movel %a5,%sp@
    3a9c:	2f0c           	movel %a4,%sp@-
    3a9e:	2f01           	movel %d1,%sp@-
    3aa0:	2f00           	movel %d0,%sp@-
    3aa2:	4e93           	jsr %a3@
    3aa4:	4fef 0010      	lea %sp@(16),%sp
    3aa8:	2840           	moveal %d0,%a4
    3aaa:	2a41           	moveal %d1,%a5
    3aac:	2f07           	movel %d7,%sp@-
    3aae:	2f06           	movel %d6,%sp@-
    3ab0:	2f03           	movel %d3,%sp@-
    3ab2:	2f02           	movel %d2,%sp@-
    3ab4:	4e92           	jsr %a2@
    3ab6:	4fef 0010      	lea %sp@(16),%sp
    3aba:	2400           	movel %d0,%d2
    3abc:	2601           	movel %d1,%d3
    3abe:	2f2f 0040      	movel %sp@(64),%sp@-
    3ac2:	2f2f 0040      	movel %sp@(64),%sp@-
    3ac6:	2f05           	movel %d5,%sp@-
    3ac8:	2f04           	movel %d4,%sp@-
    3aca:	4e92           	jsr %a2@
    3acc:	4fef 000c      	lea %sp@(12),%sp
    3ad0:	2e81           	movel %d1,%sp@
    3ad2:	2f00           	movel %d0,%sp@-
    3ad4:	2f03           	movel %d3,%sp@-
    3ad6:	2f02           	movel %d2,%sp@-
    3ad8:	4e93           	jsr %a3@
    3ada:	4fef 000c      	lea %sp@(12),%sp
    3ade:	2e81           	movel %d1,%sp@
    3ae0:	2f00           	movel %d0,%sp@-
    3ae2:	2f0d           	movel %a5,%sp@-
    3ae4:	2f0c           	movel %a4,%sp@-
    3ae6:	4e93           	jsr %a3@
    3ae8:	4fef 000c      	lea %sp@(12),%sp
    3aec:	2e81           	movel %d1,%sp@
    3aee:	2f00           	movel %d0,%sp@-
    3af0:	2f2f 0034      	movel %sp@(52),%sp@-
    3af4:	2f2f 0034      	movel %sp@(52),%sp@-
    3af8:	4e93           	jsr %a3@
    3afa:	4fef 0010      	lea %sp@(16),%sp
    3afe:	2240           	moveal %d0,%a1
    3b00:	2041           	moveal %d1,%a0
    3b02:	6000 ff64      	braw 3a68 <__kernel_cos+0x348>
    3b06:	227c 3ff0 0000 	moveal #1072693248,%a1
    3b0c:	91c8           	subal %a0,%a0
    3b0e:	2009           	movel %a1,%d0
    3b10:	2208           	movel %a0,%d1
    3b12:	4cdf 3cfc      	moveml %sp@+,%d2-%d7/%a2-%a5
    3b16:	508f           	addql #8,%sp
    3b18:	4e75           	rts
	...

00003b1c <__kernel_sin>:
    3b1c:	518f           	subql #8,%sp
    3b1e:	48e7 3f3e      	moveml %d2-%d7/%a2-%fp,%sp@-
    3b22:	282f 0038      	movel %sp@(56),%d4
    3b26:	2a2f 003c      	movel %sp@(60),%d5
    3b2a:	2004           	movel %d4,%d0
    3b2c:	0880 001f      	bclr #31,%d0
    3b30:	0c80 3e3f ffff 	cmpil #1044381695,%d0
    3b36:	6212           	bhis 3b4a <__kernel_sin+0x2e>
    3b38:	2f05           	movel %d5,%sp@-
    3b3a:	2f04           	movel %d4,%sp@-
    3b3c:	4eb9 0000 4fee 	jsr 4fee <__fixdfsi>
    3b42:	508f           	addql #8,%sp
    3b44:	4a80           	tstl %d0
    3b46:	6700 01d4      	beqw 3d1c <__kernel_sin+0x200>
    3b4a:	49f9 0000 4536 	lea 4536 <__muldf3>,%a4
    3b50:	2f05           	movel %d5,%sp@-
    3b52:	2f04           	movel %d4,%sp@-
    3b54:	2f05           	movel %d5,%sp@-
    3b56:	2f04           	movel %d4,%sp@-
    3b58:	4e94           	jsr %a4@
    3b5a:	4fef 0010      	lea %sp@(16),%sp
    3b5e:	2400           	movel %d0,%d2
    3b60:	2601           	movel %d1,%d3
    3b62:	2f01           	movel %d1,%sp@-
    3b64:	2f02           	movel %d2,%sp@-
    3b66:	2f05           	movel %d5,%sp@-
    3b68:	2f04           	movel %d4,%sp@-
    3b6a:	4e94           	jsr %a4@
    3b6c:	4fef 0010      	lea %sp@(16),%sp
    3b70:	2c00           	movel %d0,%d6
    3b72:	2e01           	movel %d1,%d7
    3b74:	2f3c 5acf d57c 	movel #1523570044,%sp@-
    3b7a:	2f3c 3de5 d93a 	movel #1038473530,%sp@-
    3b80:	2f03           	movel %d3,%sp@-
    3b82:	2f02           	movel %d2,%sp@-
    3b84:	4e94           	jsr %a4@
    3b86:	4fef 0010      	lea %sp@(16),%sp
    3b8a:	4bf9 0000 419a 	lea 419a <__subdf3>,%a5
    3b90:	2f3c 8a2b 9ceb 	movel #-1976853269,%sp@-
    3b96:	2f3c 3e5a e5e6 	movel #1046144486,%sp@-
    3b9c:	2f01           	movel %d1,%sp@-
    3b9e:	2f00           	movel %d0,%sp@-
    3ba0:	4e95           	jsr %a5@
    3ba2:	4fef 000c      	lea %sp@(12),%sp
    3ba6:	2e83           	movel %d3,%sp@
    3ba8:	2f02           	movel %d2,%sp@-
    3baa:	2f01           	movel %d1,%sp@-
    3bac:	2f00           	movel %d0,%sp@-
    3bae:	4e94           	jsr %a4@
    3bb0:	4fef 0010      	lea %sp@(16),%sp
    3bb4:	4df9 0000 41a0 	lea 41a0 <__adddf3>,%fp
    3bba:	2f3c 57b1 fe7d 	movel #1471282813,%sp@-
    3bc0:	2f3c 3ec7 1de3 	movel #1053236707,%sp@-
    3bc6:	2f01           	movel %d1,%sp@-
    3bc8:	2f00           	movel %d0,%sp@-
    3bca:	4e96           	jsr %fp@
    3bcc:	4fef 000c      	lea %sp@(12),%sp
    3bd0:	2e83           	movel %d3,%sp@
    3bd2:	2f02           	movel %d2,%sp@-
    3bd4:	2f01           	movel %d1,%sp@-
    3bd6:	2f00           	movel %d0,%sp@-
    3bd8:	4e94           	jsr %a4@
    3bda:	4fef 000c      	lea %sp@(12),%sp
    3bde:	2ebc 19c1 61d5 	movel #432103893,%sp@
    3be4:	2f3c 3f2a 01a0 	movel #1059717536,%sp@-
    3bea:	2f01           	movel %d1,%sp@-
    3bec:	2f00           	movel %d0,%sp@-
    3bee:	4e95           	jsr %a5@
    3bf0:	4fef 000c      	lea %sp@(12),%sp
    3bf4:	2e83           	movel %d3,%sp@
    3bf6:	2f02           	movel %d2,%sp@-
    3bf8:	2f01           	movel %d1,%sp@-
    3bfa:	2f00           	movel %d0,%sp@-
    3bfc:	4e94           	jsr %a4@
    3bfe:	4fef 000c      	lea %sp@(12),%sp
    3c02:	2ebc 1110 f8a6 	movel #286324902,%sp@
    3c08:	2f3c 3f81 1111 	movel #1065423121,%sp@-
    3c0e:	2f01           	movel %d1,%sp@-
    3c10:	2f00           	movel %d0,%sp@-
    3c12:	4e96           	jsr %fp@
    3c14:	4fef 0010      	lea %sp@(16),%sp
    3c18:	2040           	moveal %d0,%a0
    3c1a:	4aaf 0048      	tstl %sp@(72)
    3c1e:	6650           	bnes 3c70 <__kernel_sin+0x154>
    3c20:	2f01           	movel %d1,%sp@-
    3c22:	2f08           	movel %a0,%sp@-
    3c24:	2f03           	movel %d3,%sp@-
    3c26:	2f02           	movel %d2,%sp@-
    3c28:	4e94           	jsr %a4@
    3c2a:	4fef 000c      	lea %sp@(12),%sp
    3c2e:	2ebc 5555 5549 	movel #1431655753,%sp@
    3c34:	2f3c 3fc5 5555 	movel #1069897045,%sp@-
    3c3a:	2f01           	movel %d1,%sp@-
    3c3c:	2f00           	movel %d0,%sp@-
    3c3e:	4e95           	jsr %a5@
    3c40:	4fef 000c      	lea %sp@(12),%sp
    3c44:	2e87           	movel %d7,%sp@
    3c46:	2f06           	movel %d6,%sp@-
    3c48:	2f01           	movel %d1,%sp@-
    3c4a:	2f00           	movel %d0,%sp@-
    3c4c:	4e94           	jsr %a4@
    3c4e:	4fef 000c      	lea %sp@(12),%sp
    3c52:	2e85           	movel %d5,%sp@
    3c54:	2f04           	movel %d4,%sp@-
    3c56:	2f01           	movel %d1,%sp@-
    3c58:	2f00           	movel %d0,%sp@-
    3c5a:	4e96           	jsr %fp@
    3c5c:	4fef 0010      	lea %sp@(16),%sp
    3c60:	2240           	moveal %d0,%a1
    3c62:	2041           	moveal %d1,%a0
    3c64:	2009           	movel %a1,%d0
    3c66:	2208           	movel %a0,%d1
    3c68:	4cdf 7cfc      	moveml %sp@+,%d2-%d7/%a2-%fp
    3c6c:	508f           	addql #8,%sp
    3c6e:	4e75           	rts
    3c70:	42a7           	clrl %sp@-
    3c72:	2f3c 3fe0 0000 	movel #1071644672,%sp@-
    3c78:	2f2f 004c      	movel %sp@(76),%sp@-
    3c7c:	2f2f 004c      	movel %sp@(76),%sp@-
    3c80:	2f48 0040      	movel %a0,%sp@(64)
    3c84:	2f41 003c      	movel %d1,%sp@(60)
    3c88:	4e94           	jsr %a4@
    3c8a:	4fef 0010      	lea %sp@(16),%sp
    3c8e:	2440           	moveal %d0,%a2
    3c90:	2641           	moveal %d1,%a3
    3c92:	206f 0030      	moveal %sp@(48),%a0
    3c96:	226f 002c      	moveal %sp@(44),%a1
    3c9a:	2f09           	movel %a1,%sp@-
    3c9c:	2f08           	movel %a0,%sp@-
    3c9e:	2f07           	movel %d7,%sp@-
    3ca0:	2f06           	movel %d6,%sp@-
    3ca2:	4e94           	jsr %a4@
    3ca4:	4fef 000c      	lea %sp@(12),%sp
    3ca8:	2e81           	movel %d1,%sp@
    3caa:	2f00           	movel %d0,%sp@-
    3cac:	2f0b           	movel %a3,%sp@-
    3cae:	2f0a           	movel %a2,%sp@-
    3cb0:	4e95           	jsr %a5@
    3cb2:	4fef 000c      	lea %sp@(12),%sp
    3cb6:	2e83           	movel %d3,%sp@
    3cb8:	2f02           	movel %d2,%sp@-
    3cba:	2f01           	movel %d1,%sp@-
    3cbc:	2f00           	movel %d0,%sp@-
    3cbe:	4e94           	jsr %a4@
    3cc0:	4fef 0010      	lea %sp@(16),%sp
    3cc4:	2f2f 0044      	movel %sp@(68),%sp@-
    3cc8:	2f2f 0044      	movel %sp@(68),%sp@-
    3ccc:	2f01           	movel %d1,%sp@-
    3cce:	2f00           	movel %d0,%sp@-
    3cd0:	4e95           	jsr %a5@
    3cd2:	4fef 0010      	lea %sp@(16),%sp
    3cd6:	2400           	movel %d0,%d2
    3cd8:	2601           	movel %d1,%d3
    3cda:	2f3c 5555 5549 	movel #1431655753,%sp@-
    3ce0:	2f3c 3fc5 5555 	movel #1069897045,%sp@-
    3ce6:	2f07           	movel %d7,%sp@-
    3ce8:	2f06           	movel %d6,%sp@-
    3cea:	4e94           	jsr %a4@
    3cec:	4fef 000c      	lea %sp@(12),%sp
    3cf0:	2e81           	movel %d1,%sp@
    3cf2:	2f00           	movel %d0,%sp@-
    3cf4:	2f03           	movel %d3,%sp@-
    3cf6:	2f02           	movel %d2,%sp@-
    3cf8:	4e96           	jsr %fp@
    3cfa:	4fef 000c      	lea %sp@(12),%sp
    3cfe:	2e81           	movel %d1,%sp@
    3d00:	2f00           	movel %d0,%sp@-
    3d02:	2f05           	movel %d5,%sp@-
    3d04:	2f04           	movel %d4,%sp@-
    3d06:	4e95           	jsr %a5@
    3d08:	4fef 0010      	lea %sp@(16),%sp
    3d0c:	2240           	moveal %d0,%a1
    3d0e:	2041           	moveal %d1,%a0
    3d10:	2009           	movel %a1,%d0
    3d12:	2208           	movel %a0,%d1
    3d14:	4cdf 7cfc      	moveml %sp@+,%d2-%d7/%a2-%fp
    3d18:	508f           	addql #8,%sp
    3d1a:	4e75           	rts
    3d1c:	2244           	moveal %d4,%a1
    3d1e:	2045           	moveal %d5,%a0
    3d20:	2009           	movel %a1,%d0
    3d22:	2208           	movel %a0,%d1
    3d24:	4cdf 7cfc      	moveml %sp@+,%d2-%d7/%a2-%fp
    3d28:	508f           	addql #8,%sp
    3d2a:	4e75           	rts

00003d2c <fabs>:
    3d2c:	2f02           	movel %d2,%sp@-
    3d2e:	242f 0008      	movel %sp@(8),%d2
    3d32:	0882 001f      	bclr #31,%d2
    3d36:	206f 000c      	moveal %sp@(12),%a0
    3d3a:	2002           	movel %d2,%d0
    3d3c:	2208           	movel %a0,%d1
    3d3e:	241f           	movel %sp@+,%d2
    3d40:	4e75           	rts
	...

00003d44 <floor>:
    3d44:	48e7 3f30      	moveml %d2-%d7/%a2-%a3,%sp@-
    3d48:	242f 0024      	movel %sp@(36),%d2
    3d4c:	262f 0028      	movel %sp@(40),%d3
    3d50:	2c02           	movel %d2,%d6
    3d52:	2442           	moveal %d2,%a2
    3d54:	2a03           	movel %d3,%d5
    3d56:	2002           	movel %d2,%d0
    3d58:	4840           	swap %d0
    3d5a:	e840           	asrw #4,%d0
    3d5c:	48c0           	extl %d0
    3d5e:	0280 0000 07ff 	andil #2047,%d0
    3d64:	2800           	movel %d0,%d4
    3d66:	0684 ffff fc01 	addil #-1023,%d4
    3d6c:	7213           	moveq #19,%d1
    3d6e:	b284           	cmpl %d4,%d1
    3d70:	6d00 00a6      	bltw 3e18 <floor+0xd4>
    3d74:	4a84           	tstl %d4
    3d76:	6d60           	blts 3dd8 <floor+0x94>
    3d78:	2e3c 000f ffff 	movel #1048575,%d7
    3d7e:	e8a7           	asrl %d4,%d7
    3d80:	2007           	movel %d7,%d0
    3d82:	c082           	andl %d2,%d0
    3d84:	8083           	orl %d3,%d0
    3d86:	6700 009e      	beqw 3e26 <floor+0xe2>
    3d8a:	2f3c 8800 759c 	movel #-2013235812,%sp@-
    3d90:	2f3c 7e37 e43c 	movel #2117592124,%sp@-
    3d96:	2f03           	movel %d3,%sp@-
    3d98:	2f02           	movel %d2,%sp@-
    3d9a:	4eb9 0000 41a0 	jsr 41a0 <__adddf3>
    3da0:	4fef 000c      	lea %sp@(12),%sp
    3da4:	4297           	clrl %sp@
    3da6:	42a7           	clrl %sp@-
    3da8:	2f01           	movel %d1,%sp@-
    3daa:	2f00           	movel %d0,%sp@-
    3dac:	4eb9 0000 4ba0 	jsr 4ba0 <__gtdf2>
    3db2:	4fef 0010      	lea %sp@(16),%sp
    3db6:	4a80           	tstl %d0
    3db8:	6f10           	bles 3dca <floor+0x86>
    3dba:	b4fc 0000      	cmpaw #0,%a2
    3dbe:	6d00 00e6      	bltw 3ea6 <floor+0x162>
    3dc2:	4687           	notl %d7
    3dc4:	2c0a           	movel %a2,%d6
    3dc6:	cc87           	andl %d7,%d6
    3dc8:	7a00           	moveq #0,%d5
    3dca:	2246           	moveal %d6,%a1
    3dcc:	2045           	moveal %d5,%a0
    3dce:	2009           	movel %a1,%d0
    3dd0:	2208           	movel %a0,%d1
    3dd2:	4cdf 0cfc      	moveml %sp@+,%d2-%d7/%a2-%a3
    3dd6:	4e75           	rts
    3dd8:	2f3c 8800 759c 	movel #-2013235812,%sp@-
    3dde:	2f3c 7e37 e43c 	movel #2117592124,%sp@-
    3de4:	2f03           	movel %d3,%sp@-
    3de6:	2f02           	movel %d2,%sp@-
    3de8:	4eb9 0000 41a0 	jsr 41a0 <__adddf3>
    3dee:	4fef 000c      	lea %sp@(12),%sp
    3df2:	4297           	clrl %sp@
    3df4:	42a7           	clrl %sp@-
    3df6:	2f01           	movel %d1,%sp@-
    3df8:	2f00           	movel %d0,%sp@-
    3dfa:	4eb9 0000 4ba0 	jsr 4ba0 <__gtdf2>
    3e00:	4fef 0010      	lea %sp@(16),%sp
    3e04:	4a80           	tstl %d0
    3e06:	6fc2           	bles 3dca <floor+0x86>
    3e08:	4a86           	tstl %d6
    3e0a:	6d00 00d2      	bltw 3ede <floor+0x19a>
    3e0e:	7a00           	moveq #0,%d5
    3e10:	7c00           	moveq #0,%d6
    3e12:	2246           	moveal %d6,%a1
    3e14:	2045           	moveal %d5,%a0
    3e16:	60b6           	bras 3dce <floor+0x8a>
    3e18:	7233           	moveq #51,%d1
    3e1a:	b284           	cmpl %d4,%d1
    3e1c:	6c16           	bges 3e34 <floor+0xf0>
    3e1e:	0c84 0000 0400 	cmpil #1024,%d4
    3e24:	6760           	beqs 3e86 <floor+0x142>
    3e26:	2242           	moveal %d2,%a1
    3e28:	2043           	moveal %d3,%a0
    3e2a:	2009           	movel %a1,%d0
    3e2c:	2208           	movel %a0,%d1
    3e2e:	4cdf 0cfc      	moveml %sp@+,%d2-%d7/%a2-%a3
    3e32:	4e75           	rts
    3e34:	0680 ffff fbed 	addil #-1043,%d0
    3e3a:	7eff           	moveq #-1,%d7
    3e3c:	e0af           	lsrl %d0,%d7
    3e3e:	2007           	movel %d7,%d0
    3e40:	c083           	andl %d3,%d0
    3e42:	67e2           	beqs 3e26 <floor+0xe2>
    3e44:	2f3c 8800 759c 	movel #-2013235812,%sp@-
    3e4a:	2f3c 7e37 e43c 	movel #2117592124,%sp@-
    3e50:	2f03           	movel %d3,%sp@-
    3e52:	2f02           	movel %d2,%sp@-
    3e54:	4eb9 0000 41a0 	jsr 41a0 <__adddf3>
    3e5a:	4fef 000c      	lea %sp@(12),%sp
    3e5e:	4297           	clrl %sp@
    3e60:	42a7           	clrl %sp@-
    3e62:	2f01           	movel %d1,%sp@-
    3e64:	2f00           	movel %d0,%sp@-
    3e66:	4eb9 0000 4ba0 	jsr 4ba0 <__gtdf2>
    3e6c:	4fef 0010      	lea %sp@(16),%sp
    3e70:	4a80           	tstl %d0
    3e72:	6f00 ff56      	blew 3dca <floor+0x86>
    3e76:	4a86           	tstl %d6
    3e78:	6d46           	blts 3ec0 <floor+0x17c>
    3e7a:	4687           	notl %d7
    3e7c:	ca87           	andl %d7,%d5
    3e7e:	2246           	moveal %d6,%a1
    3e80:	2045           	moveal %d5,%a0
    3e82:	6000 ff4a      	braw 3dce <floor+0x8a>
    3e86:	2f03           	movel %d3,%sp@-
    3e88:	2f02           	movel %d2,%sp@-
    3e8a:	2f03           	movel %d3,%sp@-
    3e8c:	2f02           	movel %d2,%sp@-
    3e8e:	4eb9 0000 41a0 	jsr 41a0 <__adddf3>
    3e94:	4fef 0010      	lea %sp@(16),%sp
    3e98:	2240           	moveal %d0,%a1
    3e9a:	2041           	moveal %d1,%a0
    3e9c:	2009           	movel %a1,%d0
    3e9e:	2208           	movel %a0,%d1
    3ea0:	4cdf 0cfc      	moveml %sp@+,%d2-%d7/%a2-%a3
    3ea4:	4e75           	rts
    3ea6:	247c 0010 0000 	moveal #1048576,%a2
    3eac:	200a           	movel %a2,%d0
    3eae:	e8a0           	asrl %d4,%d0
    3eb0:	2440           	moveal %d0,%a2
    3eb2:	d5c2           	addal %d2,%a2
    3eb4:	4687           	notl %d7
    3eb6:	2c0a           	movel %a2,%d6
    3eb8:	cc87           	andl %d7,%d6
    3eba:	7a00           	moveq #0,%d5
    3ebc:	6000 ff0c      	braw 3dca <floor+0x86>
    3ec0:	7014           	moveq #20,%d0
    3ec2:	b084           	cmpl %d4,%d0
    3ec4:	670e           	beqs 3ed4 <floor+0x190>
    3ec6:	7034           	moveq #52,%d0
    3ec8:	9084           	subl %d4,%d0
    3eca:	7a01           	moveq #1,%d5
    3ecc:	e1ad           	lsll %d0,%d5
    3ece:	da83           	addl %d3,%d5
    3ed0:	b685           	cmpl %d5,%d3
    3ed2:	63a6           	blss 3e7a <floor+0x136>
    3ed4:	2c02           	movel %d2,%d6
    3ed6:	5286           	addql #1,%d6
    3ed8:	4687           	notl %d7
    3eda:	ca87           	andl %d7,%d5
    3edc:	60a0           	bras 3e7e <floor+0x13a>
    3ede:	2a02           	movel %d2,%d5
    3ee0:	0885 001f      	bclr #31,%d5
    3ee4:	8a83           	orl %d3,%d5
    3ee6:	2c3c 8000 0000 	movel #-2147483648,%d6
    3eec:	4a85           	tstl %d5
    3eee:	6700 feda      	beqw 3dca <floor+0x86>
    3ef2:	7a00           	moveq #0,%d5
    3ef4:	2c3c bff0 0000 	movel #-1074790400,%d6
    3efa:	2246           	moveal %d6,%a1
    3efc:	2045           	moveal %d5,%a0
    3efe:	6000 fece      	braw 3dce <floor+0x8a>
	...

00003f04 <scalbn>:
    3f04:	48e7 3c20      	moveml %d2-%d5/%a2,%sp@-
    3f08:	242f 0018      	movel %sp@(24),%d2
    3f0c:	262f 001c      	movel %sp@(28),%d3
    3f10:	2202           	movel %d2,%d1
    3f12:	2002           	movel %d2,%d0
    3f14:	4840           	swap %d0
    3f16:	e840           	asrw #4,%d0
    3f18:	48c0           	extl %d0
    3f1a:	0280 0000 07ff 	andil #2047,%d0
    3f20:	6600 00a8      	bnew 3fca <scalbn+0xc6>
    3f24:	2002           	movel %d2,%d0
    3f26:	0880 001f      	bclr #31,%d0
    3f2a:	8083           	orl %d3,%d0
    3f2c:	6700 0108      	beqw 4036 <scalbn+0x132>
    3f30:	45f9 0000 4536 	lea 4536 <__muldf3>,%a2
    3f36:	42a7           	clrl %sp@-
    3f38:	2f3c 4350 0000 	movel #1129316352,%sp@-
    3f3e:	2f03           	movel %d3,%sp@-
    3f40:	2f02           	movel %d2,%sp@-
    3f42:	4e92           	jsr %a2@
    3f44:	4fef 0010      	lea %sp@(16),%sp
    3f48:	2400           	movel %d0,%d2
    3f4a:	2601           	movel %d1,%d3
    3f4c:	0caf ffff 3cb0 	cmpil #-50000,%sp@(32)
    3f52:	0020 
    3f54:	6d00 0150      	bltw 40a6 <scalbn+0x1a2>
    3f58:	2202           	movel %d2,%d1
    3f5a:	2002           	movel %d2,%d0
    3f5c:	4840           	swap %d0
    3f5e:	e840           	asrw #4,%d0
    3f60:	48c0           	extl %d0
    3f62:	0280 0000 07ff 	andil #2047,%d0
    3f68:	78ca           	moveq #-54,%d4
    3f6a:	d084           	addl %d4,%d0
    3f6c:	0caf 0000 c350 	cmpil #50000,%sp@(32)
    3f72:	0020 
    3f74:	6e7c           	bgts 3ff2 <scalbn+0xee>
    3f76:	d0af 0020      	addl %sp@(32),%d0
    3f7a:	0c80 0000 07fe 	cmpil #2046,%d0
    3f80:	6e00 00e0      	bgtw 4062 <scalbn+0x15e>
    3f84:	4a80           	tstl %d0
    3f86:	6e00 00bc      	bgtw 4044 <scalbn+0x140>
    3f8a:	78cb           	moveq #-53,%d4
    3f8c:	b880           	cmpl %d0,%d4
    3f8e:	6e00 013a      	bgtw 40ca <scalbn+0x1c6>
    3f92:	7836           	moveq #54,%d4
    3f94:	d084           	addl %d4,%d0
    3f96:	e948           	lslw #4,%d0
    3f98:	4840           	swap %d0
    3f9a:	4240           	clrw %d0
    3f9c:	0281 800f ffff 	andil #-2146435073,%d1
    3fa2:	2800           	movel %d0,%d4
    3fa4:	8881           	orl %d1,%d4
    3fa6:	42a7           	clrl %sp@-
    3fa8:	2f3c 3c90 0000 	movel #1016070144,%sp@-
    3fae:	2f03           	movel %d3,%sp@-
    3fb0:	2f04           	movel %d4,%sp@-
    3fb2:	4eb9 0000 4536 	jsr 4536 <__muldf3>
    3fb8:	4fef 0010      	lea %sp@(16),%sp
    3fbc:	2240           	moveal %d0,%a1
    3fbe:	2041           	moveal %d1,%a0
    3fc0:	2009           	movel %a1,%d0
    3fc2:	2208           	movel %a0,%d1
    3fc4:	4cdf 043c      	moveml %sp@+,%d2-%d5/%a2
    3fc8:	4e75           	rts
    3fca:	0c80 0000 07ff 	cmpil #2047,%d0
    3fd0:	669a           	bnes 3f6c <scalbn+0x68>
    3fd2:	2f03           	movel %d3,%sp@-
    3fd4:	2f02           	movel %d2,%sp@-
    3fd6:	2f03           	movel %d3,%sp@-
    3fd8:	2f02           	movel %d2,%sp@-
    3fda:	4eb9 0000 41a0 	jsr 41a0 <__adddf3>
    3fe0:	4fef 0010      	lea %sp@(16),%sp
    3fe4:	2240           	moveal %d0,%a1
    3fe6:	2041           	moveal %d1,%a0
    3fe8:	2009           	movel %a1,%d0
    3fea:	2208           	movel %a0,%d1
    3fec:	4cdf 043c      	moveml %sp@+,%d2-%d5/%a2
    3ff0:	4e75           	rts
    3ff2:	203c 7e37 e43c 	movel #2117592124,%d0
    3ff8:	223c 8800 759c 	movel #-2013235812,%d1
    3ffe:	4a82           	tstl %d2
    4000:	6c0c           	bges 400e <scalbn+0x10a>
    4002:	203c fe37 e43c 	movel #-29891524,%d0
    4008:	223c 8800 759c 	movel #-2013235812,%d1
    400e:	2f3c 8800 759c 	movel #-2013235812,%sp@-
    4014:	2f3c 7e37 e43c 	movel #2117592124,%sp@-
    401a:	2f01           	movel %d1,%sp@-
    401c:	2f00           	movel %d0,%sp@-
    401e:	4eb9 0000 4536 	jsr 4536 <__muldf3>
    4024:	4fef 0010      	lea %sp@(16),%sp
    4028:	2240           	moveal %d0,%a1
    402a:	2041           	moveal %d1,%a0
    402c:	2009           	movel %a1,%d0
    402e:	2208           	movel %a0,%d1
    4030:	4cdf 043c      	moveml %sp@+,%d2-%d5/%a2
    4034:	4e75           	rts
    4036:	2242           	moveal %d2,%a1
    4038:	2043           	moveal %d3,%a0
    403a:	2009           	movel %a1,%d0
    403c:	2208           	movel %a0,%d1
    403e:	4cdf 043c      	moveml %sp@+,%d2-%d5/%a2
    4042:	4e75           	rts
    4044:	2401           	movel %d1,%d2
    4046:	0282 800f ffff 	andil #-2146435073,%d2
    404c:	e948           	lslw #4,%d0
    404e:	4840           	swap %d0
    4050:	4240           	clrw %d0
    4052:	8480           	orl %d0,%d2
    4054:	2242           	moveal %d2,%a1
    4056:	2043           	moveal %d3,%a0
    4058:	2009           	movel %a1,%d0
    405a:	2208           	movel %a0,%d1
    405c:	4cdf 043c      	moveml %sp@+,%d2-%d5/%a2
    4060:	4e75           	rts
    4062:	203c 7e37 e43c 	movel #2117592124,%d0
    4068:	223c 8800 759c 	movel #-2013235812,%d1
    406e:	4a82           	tstl %d2
    4070:	6c0c           	bges 407e <scalbn+0x17a>
    4072:	203c fe37 e43c 	movel #-29891524,%d0
    4078:	223c 8800 759c 	movel #-2013235812,%d1
    407e:	2f3c 8800 759c 	movel #-2013235812,%sp@-
    4084:	2f3c 7e37 e43c 	movel #2117592124,%sp@-
    408a:	2f01           	movel %d1,%sp@-
    408c:	2f00           	movel %d0,%sp@-
    408e:	4eb9 0000 4536 	jsr 4536 <__muldf3>
    4094:	4fef 0010      	lea %sp@(16),%sp
    4098:	2240           	moveal %d0,%a1
    409a:	2041           	moveal %d1,%a0
    409c:	2009           	movel %a1,%d0
    409e:	2208           	movel %a0,%d1
    40a0:	4cdf 043c      	moveml %sp@+,%d2-%d5/%a2
    40a4:	4e75           	rts
    40a6:	2f3c c2f8 f359 	movel #-1023872167,%sp@-
    40ac:	2f3c 01a5 6e1f 	movel #27618847,%sp@-
    40b2:	2f01           	movel %d1,%sp@-
    40b4:	2f02           	movel %d2,%sp@-
    40b6:	4e92           	jsr %a2@
    40b8:	4fef 0010      	lea %sp@(16),%sp
    40bc:	2240           	moveal %d0,%a1
    40be:	2041           	moveal %d1,%a0
    40c0:	2009           	movel %a1,%d0
    40c2:	2208           	movel %a0,%d1
    40c4:	4cdf 043c      	moveml %sp@+,%d2-%d5/%a2
    40c8:	4e75           	rts
    40ca:	203c 01a5 6e1f 	movel #27618847,%d0
    40d0:	223c c2f8 f359 	movel #-1023872167,%d1
    40d6:	4a82           	tstl %d2
    40d8:	6c0c           	bges 40e6 <scalbn+0x1e2>
    40da:	203c 81a5 6e1f 	movel #-2119864801,%d0
    40e0:	223c c2f8 f359 	movel #-1023872167,%d1
    40e6:	2f3c c2f8 f359 	movel #-1023872167,%sp@-
    40ec:	2f3c 01a5 6e1f 	movel #27618847,%sp@-
    40f2:	2f01           	movel %d1,%sp@-
    40f4:	2f00           	movel %d0,%sp@-
    40f6:	4eb9 0000 4536 	jsr 4536 <__muldf3>
    40fc:	4fef 0010      	lea %sp@(16),%sp
    4100:	2240           	moveal %d0,%a1
    4102:	2041           	moveal %d1,%a0
    4104:	2009           	movel %a1,%d0
    4106:	2208           	movel %a0,%d1
    4108:	4cdf 043c      	moveml %sp@+,%d2-%d5/%a2
    410c:	4e75           	rts
	...

00004110 <__divsi3>:
    4110:	2f02           	movel %d2,%sp@-
    4112:	7401           	moveq #1,%d2
    4114:	222f 000c      	movel %sp@(12),%d1
    4118:	6a04           	bpls 411e <L1>
    411a:	4481           	negl %d1
    411c:	4402           	negb %d2

0000411e <L1>:
    411e:	202f 0008      	movel %sp@(8),%d0
    4122:	6a04           	bpls 4128 <L2>
    4124:	4480           	negl %d0
    4126:	4402           	negb %d2

00004128 <L2>:
    4128:	2f01           	movel %d1,%sp@-
    412a:	2f00           	movel %d0,%sp@-
    412c:	4eb9 0000 5114 	jsr 5114 <__udivsi3>
    4132:	508f           	addql #8,%sp
    4134:	4a02           	tstb %d2
    4136:	6a02           	bpls 413a <L3>
    4138:	4480           	negl %d0

0000413a <L3>:
    413a:	241f           	movel %sp@+,%d2
    413c:	4e75           	rts
	...

00004140 <Ld$den>:
    4140:	8087           	orl %d7,%d0
    4142:	3e3c 0003      	movew #3,%d7
    4146:	7c02           	moveq #2,%d6
    4148:	4ef9 0000 4b1e 	jmp 4b1e <$_exception_handler>

0000414e <Ld$infty>:
    414e:	203c 7ff0 0000 	movel #2146435072,%d0
    4154:	7200           	moveq #0,%d1
    4156:	8087           	orl %d7,%d0
    4158:	3e3c 0005      	movew #5,%d7
    415c:	7c02           	moveq #2,%d6
    415e:	4ef9 0000 4b1e 	jmp 4b1e <$_exception_handler>

00004164 <Ld$underflow>:
    4164:	7000           	moveq #0,%d0
    4166:	2200           	movel %d0,%d1
    4168:	3e3c 0003      	movew #3,%d7
    416c:	7c02           	moveq #2,%d6
    416e:	4ef9 0000 4b1e 	jmp 4b1e <$_exception_handler>

00004174 <Ld$inop>:
    4174:	70ff           	moveq #-1,%d0
    4176:	2200           	movel %d0,%d1
    4178:	3e3c 0011      	movew #17,%d7
    417c:	7c02           	moveq #2,%d6
    417e:	4ef9 0000 4b1e 	jmp 4b1e <$_exception_handler>

00004184 <Ld$div$0>:
    4184:	203c 7ff0 0000 	movel #2146435072,%d0
    418a:	7200           	moveq #0,%d1
    418c:	8087           	orl %d7,%d0
    418e:	3e3c 0009      	movew #9,%d7
    4192:	7c02           	moveq #2,%d6
    4194:	4ef9 0000 4b1e 	jmp 4b1e <$_exception_handler>

0000419a <__subdf3>:
    419a:	086f 001f 000c 	bchg #31,%sp@(12)

000041a0 <__adddf3>:
    41a0:	4e56 0000      	linkw %fp,#0
    41a4:	48e7 3f00      	moveml %d2-%d7,%sp@-
    41a8:	202e 0008      	movel %fp@(8),%d0
    41ac:	222e 000c      	movel %fp@(12),%d1
    41b0:	242e 0010      	movel %fp@(16),%d2
    41b4:	262e 0014      	movel %fp@(20),%d3
    41b8:	2e00           	movel %d0,%d7
    41ba:	d281           	addl %d1,%d1
    41bc:	d180           	addxl %d0,%d0
    41be:	6700 0286      	beqw 4446 <Ladddf$b>
    41c2:	2c02           	movel %d2,%d6
    41c4:	d683           	addl %d3,%d3
    41c6:	d582           	addxl %d2,%d2
    41c8:	6700 029a      	beqw 4464 <Ladddf$a>
    41cc:	0287 8000 0000 	andil #-2147483648,%d7
    41d2:	4846           	swap %d6
    41d4:	0246 8000      	andiw #-32768,%d6
    41d8:	8e46           	orw %d6,%d7
    41da:	2047           	moveal %d7,%a0
    41dc:	2c3c 001f ffff 	movel #2097151,%d6
    41e2:	2e3c 0020 0000 	movel #2097152,%d7
    41e8:	2800           	movel %d0,%d4
    41ea:	c086           	andl %d6,%d0
    41ec:	4686           	notl %d6
    41ee:	c886           	andl %d6,%d4
    41f0:	6700 0246      	beqw 4438 <Ladddf$a$den>
    41f4:	b886           	cmpl %d6,%d4
    41f6:	6700 02ca      	beqw 44c2 <Ladddf$nf>
    41fa:	8087           	orl %d7,%d0

000041fc <Ladddf$1>:
    41fc:	4844           	swap %d4
    41fe:	ea4c           	lsrw #5,%d4
    4200:	2a02           	movel %d2,%d5
    4202:	ca86           	andl %d6,%d5
    4204:	6700 0238      	beqw 443e <Ladddf$b$den>
    4208:	ba86           	cmpl %d6,%d5
    420a:	6700 02b6      	beqw 44c2 <Ladddf$nf>
    420e:	4686           	notl %d6
    4210:	c486           	andl %d6,%d2
    4212:	8487           	orl %d7,%d2

00004214 <Ladddf$2>:
    4214:	4845           	swap %d5
    4216:	ea4d           	lsrw #5,%d5
    4218:	48e7 0030      	moveml %a2-%a3,%sp@-
    421c:	2444           	moveal %d4,%a2
    421e:	2645           	moveal %d5,%a3
    4220:	7e00           	moveq #0,%d7
    4222:	2c07           	movel %d7,%d6
    4224:	2a03           	movel %d3,%d5
    4226:	2802           	movel %d2,%d4
    4228:	2607           	movel %d7,%d3
    422a:	2407           	movel %d7,%d2
    422c:	c98a           	exg %d4,%a2
    422e:	cb8b           	exg %d5,%a3
    4230:	ba44           	cmpw %d4,%d5
    4232:	6700 00cc      	beqw 4300 <Ladddf$3>
    4236:	6200 0064      	bhiw 429c <Ladddf$2+0x88>
    423a:	3404           	movew %d4,%d2
    423c:	9445           	subw %d5,%d2
    423e:	c98a           	exg %d4,%a2
    4240:	cb8b           	exg %d5,%a3
    4242:	0c42 0037      	cmpiw #55,%d2
    4246:	6c00 01d2      	bgew 441a <Ladddf$b$small>
    424a:	0c42 0020      	cmpiw #32,%d2
    424e:	6c00 0022      	bgew 4272 <Ladddf$2+0x5e>
    4252:	0c42 0010      	cmpiw #16,%d2
    4256:	6c00 002a      	bgew 4282 <Ladddf$2+0x6e>
    425a:	6000 000a      	braw 4266 <Ladddf$2+0x52>
    425e:	e28c           	lsrl #1,%d4
    4260:	e295           	roxrl #1,%d5
    4262:	e296           	roxrl #1,%d6
    4264:	e297           	roxrl #1,%d7
    4266:	51ca fff6      	dbf %d2,425e <Ladddf$2+0x4a>
    426a:	7400           	moveq #0,%d2
    426c:	2602           	movel %d2,%d3
    426e:	6000 0094      	braw 4304 <Ladddf$4>
    4272:	2e06           	movel %d6,%d7
    4274:	2c05           	movel %d5,%d6
    4276:	2a04           	movel %d4,%d5
    4278:	7800           	moveq #0,%d4
    427a:	0442 0020      	subiw #32,%d2
    427e:	6000 ffd2      	braw 4252 <Ladddf$2+0x3e>
    4282:	3e06           	movew %d6,%d7
    4284:	4847           	swap %d7
    4286:	3c05           	movew %d5,%d6
    4288:	4846           	swap %d6
    428a:	3a04           	movew %d4,%d5
    428c:	4845           	swap %d5
    428e:	383c 0000      	movew #0,%d4
    4292:	4844           	swap %d4
    4294:	0442 0010      	subiw #16,%d2
    4298:	6000 ffcc      	braw 4266 <Ladddf$2+0x52>
    429c:	c945           	exg %d4,%d5
    429e:	3c04           	movew %d4,%d6
    42a0:	9c45           	subw %d5,%d6
    42a2:	c98a           	exg %d4,%a2
    42a4:	cb8b           	exg %d5,%a3
    42a6:	0c46 0037      	cmpiw #55,%d6
    42aa:	6c00 0150      	bgew 43fc <Ladddf$a$small>
    42ae:	0c46 0020      	cmpiw #32,%d6
    42b2:	6c00 0022      	bgew 42d6 <Ladddf$2+0xc2>
    42b6:	0c46 0010      	cmpiw #16,%d6
    42ba:	6c00 002a      	bgew 42e6 <Ladddf$2+0xd2>
    42be:	6000 000a      	braw 42ca <Ladddf$2+0xb6>
    42c2:	e288           	lsrl #1,%d0
    42c4:	e291           	roxrl #1,%d1
    42c6:	e292           	roxrl #1,%d2
    42c8:	e293           	roxrl #1,%d3
    42ca:	51ce fff6      	dbf %d6,42c2 <Ladddf$2+0xae>
    42ce:	7e00           	moveq #0,%d7
    42d0:	2c07           	movel %d7,%d6
    42d2:	6000 0030      	braw 4304 <Ladddf$4>
    42d6:	2602           	movel %d2,%d3
    42d8:	2401           	movel %d1,%d2
    42da:	2200           	movel %d0,%d1
    42dc:	7000           	moveq #0,%d0
    42de:	0446 0020      	subiw #32,%d6
    42e2:	6000 ffd2      	braw 42b6 <Ladddf$2+0xa2>
    42e6:	3602           	movew %d2,%d3
    42e8:	4843           	swap %d3
    42ea:	3401           	movew %d1,%d2
    42ec:	4842           	swap %d2
    42ee:	3200           	movew %d0,%d1
    42f0:	4841           	swap %d1
    42f2:	303c 0000      	movew #0,%d0
    42f6:	4840           	swap %d0
    42f8:	0446 0010      	subiw #16,%d6
    42fc:	6000 ffcc      	braw 42ca <Ladddf$2+0xb6>

00004300 <Ladddf$3>:
    4300:	c98a           	exg %d4,%a2
    4302:	cb8b           	exg %d5,%a3

00004304 <Ladddf$4>:
    4304:	cf88           	exg %d7,%a0
    4306:	cd8b           	exg %d6,%a3
    4308:	2c07           	movel %d7,%d6
    430a:	3e3c 0000      	movew #0,%d7
    430e:	4846           	swap %d6
    4310:	3c3c 0000      	movew #0,%d6
    4314:	bf86           	eorl %d7,%d6
    4316:	6b00 006e      	bmiw 4386 <Lsubdf$0>
    431a:	cf88           	exg %d7,%a0
    431c:	cd8b           	exg %d6,%a3
    431e:	d687           	addl %d7,%d3
    4320:	d586           	addxl %d6,%d2
    4322:	d385           	addxl %d5,%d1
    4324:	d184           	addxl %d4,%d0
    4326:	280a           	movel %a2,%d4
    4328:	2e08           	movel %a0,%d7
    432a:	0287 8000 0000 	andil #-2147483648,%d7
    4330:	4cdf 0c00      	moveml %sp@+,%a2-%a3
    4334:	0800 0036      	btst #54,%d0
    4338:	6700 000c      	beqw 4346 <Ladddf$4+0x42>
    433c:	e288           	lsrl #1,%d0
    433e:	e291           	roxrl #1,%d1
    4340:	e292           	roxrl #1,%d2
    4342:	e293           	roxrl #1,%d3
    4344:	5244           	addqw #1,%d4
    4346:	41fa 0020      	lea %pc@(4368 <Ladddf$5>),%a0
    434a:	43f9 0001 4d24 	lea 14d24 <_fpCCR>,%a1
    4350:	3c29 0006      	movew %a1@(6),%d6
    4354:	6700 0752      	beqw 4aa8 <Lround$to$nearest>
    4358:	0c46 0002      	cmpiw #2,%d6
    435c:	6200 07ae      	bhiw 4b0c <Lround$to$minus>
    4360:	6d00 07aa      	bltw 4b0c <Lround$to$minus>
    4364:	6000 07a6      	braw 4b0c <Lround$to$minus>

00004368 <Ladddf$5>:
    4368:	0c44 07ff      	cmpiw #2047,%d4
    436c:	6c00 0012      	bgew 4380 <Ladddf$5+0x18>
    4370:	0880 0034      	bclr #52,%d0
    4374:	e94c           	lslw #4,%d4
    4376:	4840           	swap %d0
    4378:	8044           	orw %d4,%d0
    437a:	4840           	swap %d0
    437c:	6000 0128      	braw 44a6 <Ladddf$ret>
    4380:	7a01           	moveq #1,%d5
    4382:	6000 fdca      	braw 414e <Ld$infty>

00004386 <Lsubdf$0>:
    4386:	cf88           	exg %d7,%a0
    4388:	cd8b           	exg %d6,%a3
    438a:	9687           	subl %d7,%d3
    438c:	9586           	subxl %d6,%d2
    438e:	9385           	subxl %d5,%d1
    4390:	9184           	subxl %d4,%d0
    4392:	6700 010e      	beqw 44a2 <Ladddf$ret$1>
    4396:	6a00 0012      	bplw 43aa <Lsubdf$0+0x24>
    439a:	2e08           	movel %a0,%d7
    439c:	0847 001f      	bchg #31,%d7
    43a0:	2047           	moveal %d7,%a0
    43a2:	4483           	negl %d3
    43a4:	4082           	negxl %d2
    43a6:	4081           	negxl %d1
    43a8:	4080           	negxl %d0
    43aa:	280a           	movel %a2,%d4
    43ac:	2e08           	movel %a0,%d7
    43ae:	0287 8000 0000 	andil #-2147483648,%d7
    43b4:	4cdf 0c00      	moveml %sp@+,%a2-%a3
    43b8:	0800 0036      	btst #54,%d0
    43bc:	6700 000c      	beqw 43ca <Lsubdf$0+0x44>
    43c0:	e288           	lsrl #1,%d0
    43c2:	e291           	roxrl #1,%d1
    43c4:	e292           	roxrl #1,%d2
    43c6:	e293           	roxrl #1,%d3
    43c8:	5244           	addqw #1,%d4
    43ca:	41fa 0020      	lea %pc@(43ec <Lsubdf$1>),%a0
    43ce:	43f9 0001 4d24 	lea 14d24 <_fpCCR>,%a1
    43d4:	3c29 0006      	movew %a1@(6),%d6
    43d8:	6700 06ce      	beqw 4aa8 <Lround$to$nearest>
    43dc:	0c46 0002      	cmpiw #2,%d6
    43e0:	6200 072a      	bhiw 4b0c <Lround$to$minus>
    43e4:	6d00 0726      	bltw 4b0c <Lround$to$minus>
    43e8:	6000 0722      	braw 4b0c <Lround$to$minus>

000043ec <Lsubdf$1>:
    43ec:	0880 0034      	bclr #52,%d0
    43f0:	e94c           	lslw #4,%d4
    43f2:	4840           	swap %d0
    43f4:	8044           	orw %d4,%d0
    43f6:	4840           	swap %d0
    43f8:	6000 00ac      	braw 44a6 <Ladddf$ret>

000043fc <Ladddf$a$small>:
    43fc:	4cdf 0c00      	moveml %sp@+,%a2-%a3
    4400:	202e 0010      	movel %fp@(16),%d0
    4404:	222e 0014      	movel %fp@(20),%d1
    4408:	41f9 0001 4d24 	lea 14d24 <_fpCCR>,%a0
    440e:	30bc 0000      	movew #0,%a0@
    4412:	4cdf 00fc      	moveml %sp@+,%d2-%d7
    4416:	4e5e           	unlk %fp
    4418:	4e75           	rts

0000441a <Ladddf$b$small>:
    441a:	4cdf 0c00      	moveml %sp@+,%a2-%a3
    441e:	202e 0008      	movel %fp@(8),%d0
    4422:	222e 000c      	movel %fp@(12),%d1
    4426:	41f9 0001 4d24 	lea 14d24 <_fpCCR>,%a0
    442c:	30bc 0000      	movew #0,%a0@
    4430:	4cdf 00fc      	moveml %sp@+,%d2-%d7
    4434:	4e5e           	unlk %fp
    4436:	4e75           	rts

00004438 <Ladddf$a$den>:
    4438:	2807           	movel %d7,%d4
    443a:	6000 fdc0      	braw 41fc <Ladddf$1>

0000443e <Ladddf$b$den>:
    443e:	2a07           	movel %d7,%d5
    4440:	4686           	notl %d6
    4442:	6000 fdd0      	braw 4214 <Ladddf$2>

00004446 <Ladddf$b>:
    4446:	2002           	movel %d2,%d0
    4448:	2203           	movel %d3,%d1
    444a:	6600 0020      	bnew 446c <Ladddf$a+0x8>
    444e:	0c80 8000 0000 	cmpil #-2147483648,%d0
    4454:	6600 0016      	bnew 446c <Ladddf$a+0x8>
    4458:	0287 8000 0000 	andil #-2147483648,%d7
    445e:	4280           	clrl %d0
    4460:	6000 0044      	braw 44a6 <Ladddf$ret>

00004464 <Ladddf$a>:
    4464:	202e 0008      	movel %fp@(8),%d0
    4468:	222e 000c      	movel %fp@(12),%d1
    446c:	7a01           	moveq #1,%d5
    446e:	2e00           	movel %d0,%d7
    4470:	0287 8000 0000 	andil #-2147483648,%d7
    4476:	0880 001f      	bclr #31,%d0
    447a:	0c80 7ff0 0000 	cmpil #2146435072,%d0
    4480:	6c00 0010      	bgew 4492 <Ladddf$a+0x2e>
    4484:	2000           	movel %d0,%d0
    4486:	6600 001e      	bnew 44a6 <Ladddf$ret>
    448a:	0887 001f      	bclr #31,%d7
    448e:	6000 0016      	braw 44a6 <Ladddf$ret>
    4492:	0280 000f ffff 	andil #1048575,%d0
    4498:	8081           	orl %d1,%d0
    449a:	6600 fcd8      	bnew 4174 <Ld$inop>
    449e:	6000 fcae      	braw 414e <Ld$infty>

000044a2 <Ladddf$ret$1>:
    44a2:	4cdf 0c00      	moveml %sp@+,%a2-%a3

000044a6 <Ladddf$ret>:
    44a6:	41f9 0001 4d24 	lea 14d24 <_fpCCR>,%a0
    44ac:	30bc 0000      	movew #0,%a0@
    44b0:	8087           	orl %d7,%d0
    44b2:	4cdf 00fc      	moveml %sp@+,%d2-%d7
    44b6:	4e5e           	unlk %fp
    44b8:	4e75           	rts

000044ba <Ladddf$ret$den>:
    44ba:	e288           	lsrl #1,%d0
    44bc:	e291           	roxrl #1,%d1
    44be:	6000 ffe6      	braw 44a6 <Ladddf$ret>

000044c2 <Ladddf$nf>:
    44c2:	7a01           	moveq #1,%d5
    44c4:	202e 0008      	movel %fp@(8),%d0
    44c8:	222e 000c      	movel %fp@(12),%d1
    44cc:	242e 0010      	movel %fp@(16),%d2
    44d0:	262e 0014      	movel %fp@(20),%d3
    44d4:	283c 7ff0 0000 	movel #2146435072,%d4
    44da:	2e00           	movel %d0,%d7
    44dc:	2c02           	movel %d2,%d6
    44de:	0880 001f      	bclr #31,%d0
    44e2:	0882 001f      	bclr #31,%d2
    44e6:	b084           	cmpl %d4,%d0
    44e8:	6200 fc8a      	bhiw 4174 <Ld$inop>
    44ec:	6600 0008      	bnew 44f6 <Ladddf$nf+0x34>
    44f0:	4a81           	tstl %d1
    44f2:	6600 fc80      	bnew 4174 <Ld$inop>
    44f6:	b484           	cmpl %d4,%d2
    44f8:	6200 fc7a      	bhiw 4174 <Ld$inop>
    44fc:	6600 0008      	bnew 4506 <Ladddf$nf+0x44>
    4500:	4a83           	tstl %d3
    4502:	6600 fc70      	bnew 4174 <Ld$inop>
    4506:	bf86           	eorl %d7,%d6
    4508:	6b00 000c      	bmiw 4516 <Ladddf$nf+0x54>
    450c:	0287 8000 0000 	andil #-2147483648,%d7
    4512:	6000 fc3a      	braw 414e <Ld$infty>
    4516:	b082           	cmpl %d2,%d0
    4518:	6600 0008      	bnew 4522 <Ladddf$nf+0x60>
    451c:	b283           	cmpl %d3,%d1
    451e:	6700 fc54      	beqw 4174 <Ld$inop>
    4522:	0287 8000 0000 	andil #-2147483648,%d7
    4528:	b084           	cmpl %d4,%d0
    452a:	6700 fc22      	beqw 414e <Ld$infty>
    452e:	0847 001f      	bchg #31,%d7
    4532:	6000 fc1a      	braw 414e <Ld$infty>

00004536 <__muldf3>:
    4536:	4e56 0000      	linkw %fp,#0
    453a:	48e7 3f00      	moveml %d2-%d7,%sp@-
    453e:	202e 0008      	movel %fp@(8),%d0
    4542:	222e 000c      	movel %fp@(12),%d1
    4546:	242e 0010      	movel %fp@(16),%d2
    454a:	262e 0014      	movel %fp@(20),%d3
    454e:	2e00           	movel %d0,%d7
    4550:	b587           	eorl %d2,%d7
    4552:	0287 8000 0000 	andil #-2147483648,%d7
    4558:	2047           	moveal %d7,%a0
    455a:	2e3c 7ff0 0000 	movel #2146435072,%d7
    4560:	2c07           	movel %d7,%d6
    4562:	4686           	notl %d6
    4564:	0880 001f      	bclr #31,%d0
    4568:	2800           	movel %d0,%d4
    456a:	8881           	orl %d1,%d4
    456c:	6700 0120      	beqw 468e <Lmuldf$a$0>
    4570:	2800           	movel %d0,%d4
    4572:	0882 001f      	bclr #31,%d2
    4576:	2a02           	movel %d2,%d5
    4578:	8a83           	orl %d3,%d5
    457a:	6700 0106      	beqw 4682 <Lmuldf$b$0>
    457e:	2a02           	movel %d2,%d5
    4580:	b087           	cmpl %d7,%d0
    4582:	6200 00dc      	bhiw 4660 <Lmuldf$inop>
    4586:	6700 00ec      	beqw 4674 <Lmuldf$a$nf>
    458a:	b487           	cmpl %d7,%d2
    458c:	6200 00d2      	bhiw 4660 <Lmuldf$inop>
    4590:	6700 00d4      	beqw 4666 <Lmuldf$b$nf>
    4594:	c887           	andl %d7,%d4
    4596:	6700 0120      	beqw 46b8 <Lmuldf$a$den>
    459a:	c086           	andl %d6,%d0
    459c:	0080 0010 0000 	oril #1048576,%d0
    45a2:	4844           	swap %d4
    45a4:	e84c           	lsrw #4,%d4

000045a6 <Lmuldf$1>:
    45a6:	ca87           	andl %d7,%d5
    45a8:	6700 0124      	beqw 46ce <Lmuldf$b$den>
    45ac:	c486           	andl %d6,%d2
    45ae:	0082 0010 0000 	oril #1048576,%d2
    45b4:	4845           	swap %d5
    45b6:	e84d           	lsrw #4,%d5

000045b8 <Lmuldf$2>:
    45b8:	d845           	addw %d5,%d4
    45ba:	0444 03ff      	subiw #1023,%d4
    45be:	48e7 0030      	moveml %a2-%a3,%sp@-
    45c2:	247c 0000 0000 	moveal #0,%a2
    45c8:	2644           	moveal %d4,%a3
    45ca:	ea9a           	rorl #5,%d2
    45cc:	4842           	swap %d2
    45ce:	ea9b           	rorl #5,%d3
    45d0:	4843           	swap %d3
    45d2:	3c03           	movew %d3,%d6
    45d4:	0246 07ff      	andiw #2047,%d6
    45d8:	8446           	orw %d6,%d2
    45da:	0243 f800      	andiw #-2048,%d3
    45de:	2c02           	movel %d2,%d6
    45e0:	2e03           	movel %d3,%d7
    45e2:	2800           	movel %d0,%d4
    45e4:	2a01           	movel %d1,%d5
    45e6:	7600           	moveq #0,%d3
    45e8:	2403           	movel %d3,%d2
    45ea:	2203           	movel %d3,%d1
    45ec:	2003           	movel %d3,%d0
    45ee:	227c 0000 0034 	moveal #52,%a1
    45f4:	cf89           	exg %d7,%a1
    45f6:	cf89           	exg %d7,%a1
    45f8:	d683           	addl %d3,%d3
    45fa:	d582           	addxl %d2,%d2
    45fc:	d381           	addxl %d1,%d1
    45fe:	d180           	addxl %d0,%d0
    4600:	de87           	addl %d7,%d7
    4602:	dd86           	addxl %d6,%d6
    4604:	6400 000e      	bccw 4614 <Lmuldf$2+0x5c>
    4608:	cf8a           	exg %d7,%a2
    460a:	d685           	addl %d5,%d3
    460c:	d584           	addxl %d4,%d2
    460e:	d387           	addxl %d7,%d1
    4610:	d187           	addxl %d7,%d0
    4612:	cf8a           	exg %d7,%a2
    4614:	cf89           	exg %d7,%a1
    4616:	51cf ffde      	dbf %d7,45f6 <Lmuldf$2+0x3e>
    461a:	280b           	movel %a3,%d4
    461c:	4cdf 0c00      	moveml %sp@+,%a2-%a3
    4620:	4840           	swap %d0
    4622:	4841           	swap %d1
    4624:	3001           	movew %d1,%d0
    4626:	4842           	swap %d2
    4628:	3202           	movew %d2,%d1
    462a:	4843           	swap %d3
    462c:	3403           	movew %d3,%d2
    462e:	363c 0000      	movew #0,%d3
    4632:	e288           	lsrl #1,%d0
    4634:	e291           	roxrl #1,%d1
    4636:	e292           	roxrl #1,%d2
    4638:	e293           	roxrl #1,%d3
    463a:	e288           	lsrl #1,%d0
    463c:	e291           	roxrl #1,%d1
    463e:	e292           	roxrl #1,%d2
    4640:	e293           	roxrl #1,%d3
    4642:	e288           	lsrl #1,%d0
    4644:	e291           	roxrl #1,%d1
    4646:	e292           	roxrl #1,%d2
    4648:	e293           	roxrl #1,%d3
    464a:	2e08           	movel %a0,%d7
    464c:	7a02           	moveq #2,%d5
    464e:	0800 0016      	btst #22,%d0
    4652:	6700 027a      	beqw 48ce <Lround$exit>
    4656:	e288           	lsrl #1,%d0
    4658:	e291           	roxrl #1,%d1
    465a:	5244           	addqw #1,%d4
    465c:	6000 0270      	braw 48ce <Lround$exit>

00004660 <Lmuldf$inop>:
    4660:	7a02           	moveq #2,%d5
    4662:	6000 fb10      	braw 4174 <Ld$inop>

00004666 <Lmuldf$b$nf>:
    4666:	7a02           	moveq #2,%d5
    4668:	2e08           	movel %a0,%d7
    466a:	4a83           	tstl %d3
    466c:	6600 fb06      	bnew 4174 <Ld$inop>
    4670:	6000 fadc      	braw 414e <Ld$infty>

00004674 <Lmuldf$a$nf>:
    4674:	7a02           	moveq #2,%d5
    4676:	2e08           	movel %a0,%d7
    4678:	4a81           	tstl %d1
    467a:	6600 faf8      	bnew 4174 <Ld$inop>
    467e:	6000 face      	braw 414e <Ld$infty>

00004682 <Lmuldf$b$0>:
    4682:	7a02           	moveq #2,%d5
    4684:	c540           	exg %d2,%d0
    4686:	c741           	exg %d3,%d1
    4688:	2008           	movel %a0,%d0
    468a:	6000 0010      	braw 469c <Lmuldf$a$0+0xe>

0000468e <Lmuldf$a$0>:
    468e:	2008           	movel %a0,%d0
    4690:	242e 0010      	movel %fp@(16),%d2
    4694:	262e 0014      	movel %fp@(20),%d3
    4698:	0882 001f      	bclr #31,%d2
    469c:	0c82 7ff0 0000 	cmpil #2146435072,%d2
    46a2:	6c00 fad0      	bgew 4174 <Ld$inop>
    46a6:	41f9 0001 4d24 	lea 14d24 <_fpCCR>,%a0
    46ac:	30bc 0000      	movew #0,%a0@
    46b0:	4cdf 00fc      	moveml %sp@+,%d2-%d7
    46b4:	4e5e           	unlk %fp
    46b6:	4e75           	rts

000046b8 <Lmuldf$a$den>:
    46b8:	7801           	moveq #1,%d4
    46ba:	c086           	andl %d6,%d0
    46bc:	d281           	addl %d1,%d1
    46be:	d180           	addxl %d0,%d0
    46c0:	5344           	subqw #1,%d4
    46c2:	0800 0014      	btst #20,%d0
    46c6:	6600 fede      	bnew 45a6 <Lmuldf$1>
    46ca:	6000 fff0      	braw 46bc <Lmuldf$a$den+0x4>

000046ce <Lmuldf$b$den>:
    46ce:	7a01           	moveq #1,%d5
    46d0:	c486           	andl %d6,%d2
    46d2:	d683           	addl %d3,%d3
    46d4:	d582           	addxl %d2,%d2
    46d6:	5345           	subqw #1,%d5
    46d8:	0802 0014      	btst #20,%d2
    46dc:	6600 feda      	bnew 45b8 <Lmuldf$2>
    46e0:	6000 fff0      	braw 46d2 <Lmuldf$b$den+0x4>

000046e4 <__divdf3>:
    46e4:	4e56 0000      	linkw %fp,#0
    46e8:	48e7 3f00      	moveml %d2-%d7,%sp@-
    46ec:	202e 0008      	movel %fp@(8),%d0
    46f0:	222e 000c      	movel %fp@(12),%d1
    46f4:	242e 0010      	movel %fp@(16),%d2
    46f8:	262e 0014      	movel %fp@(20),%d3
    46fc:	2e00           	movel %d0,%d7
    46fe:	b587           	eorl %d2,%d7
    4700:	0287 8000 0000 	andil #-2147483648,%d7
    4706:	2047           	moveal %d7,%a0
    4708:	2e3c 7ff0 0000 	movel #2146435072,%d7
    470e:	2c07           	movel %d7,%d6
    4710:	4686           	notl %d6
    4712:	0880 001f      	bclr #31,%d0
    4716:	2800           	movel %d0,%d4
    4718:	8881           	orl %d1,%d4
    471a:	6700 0112      	beqw 482e <Ldivdf$a$0>
    471e:	2800           	movel %d0,%d4
    4720:	0882 001f      	bclr #31,%d2
    4724:	2a02           	movel %d2,%d5
    4726:	8a83           	orl %d3,%d5
    4728:	6700 013c      	beqw 4866 <Ldivdf$b$0>
    472c:	2a02           	movel %d2,%d5
    472e:	b087           	cmpl %d7,%d0
    4730:	6200 00f6      	bhiw 4828 <Ldivdf$inop>
    4734:	6700 0154      	beqw 488a <Ldivdf$a$nf>
    4738:	b487           	cmpl %d7,%d2
    473a:	6200 00ec      	bhiw 4828 <Ldivdf$inop>
    473e:	6700 013e      	beqw 487e <Ldivdf$b$nf>
    4742:	c887           	andl %d7,%d4
    4744:	6700 015c      	beqw 48a2 <Ldivdf$a$den>
    4748:	c086           	andl %d6,%d0
    474a:	0080 0010 0000 	oril #1048576,%d0
    4750:	4844           	swap %d4
    4752:	e84c           	lsrw #4,%d4

00004754 <Ldivdf$1>:
    4754:	ca87           	andl %d7,%d5
    4756:	6700 0160      	beqw 48b8 <Ldivdf$b$den>
    475a:	c486           	andl %d6,%d2
    475c:	0082 0010 0000 	oril #1048576,%d2
    4762:	4845           	swap %d5
    4764:	e84d           	lsrw #4,%d5

00004766 <Ldivdf$2>:
    4766:	9845           	subw %d5,%d4
    4768:	0644 03fe      	addiw #1022,%d4
    476c:	7c00           	moveq #0,%d6
    476e:	2e06           	movel %d6,%d7
    4770:	227c 0000 0000 	moveal #0,%a1
    4776:	7a16           	moveq #22,%d5
    4778:	b480           	cmpl %d0,%d2
    477a:	6200 000c      	bhiw 4788 <Ldivdf$2+0x22>
    477e:	6700 0014      	beqw 4794 <Ldivdf$2+0x2e>
    4782:	9283           	subl %d3,%d1
    4784:	9182           	subxl %d2,%d0
    4786:	0bc6           	bset %d5,%d6
    4788:	d281           	addl %d1,%d1
    478a:	d180           	addxl %d0,%d0
    478c:	51cd ffea      	dbf %d5,4778 <Ldivdf$2+0x12>
    4790:	6000 000c      	braw 479e <Ldivdf$2+0x38>
    4794:	b681           	cmpl %d1,%d3
    4796:	6200 fff0      	bhiw 4788 <Ldivdf$2+0x22>
    479a:	6000 ffe6      	braw 4782 <Ldivdf$2+0x1c>
    479e:	7a1f           	moveq #31,%d5
    47a0:	b480           	cmpl %d0,%d2
    47a2:	6200 000c      	bhiw 47b0 <Ldivdf$2+0x4a>
    47a6:	6700 0014      	beqw 47bc <Ldivdf$2+0x56>
    47aa:	9283           	subl %d3,%d1
    47ac:	9182           	subxl %d2,%d0
    47ae:	0bc7           	bset %d5,%d7
    47b0:	d281           	addl %d1,%d1
    47b2:	d180           	addxl %d0,%d0
    47b4:	51cd ffea      	dbf %d5,47a0 <Ldivdf$2+0x3a>
    47b8:	6000 000c      	braw 47c6 <Ldivdf$2+0x60>
    47bc:	b681           	cmpl %d1,%d3
    47be:	6200 fff0      	bhiw 47b0 <Ldivdf$2+0x4a>
    47c2:	6000 ffe6      	braw 47aa <Ldivdf$2+0x44>
    47c6:	7a35           	moveq #53,%d5
    47c8:	b082           	cmpl %d2,%d0
    47ca:	6200 001c      	bhiw 47e8 <Ldivdf$2+0x82>
    47ce:	6700 0012      	beqw 47e2 <Ldivdf$2+0x7c>
    47d2:	d281           	addl %d1,%d1
    47d4:	d180           	addxl %d0,%d0
    47d6:	51cd fff0      	dbf %d5,47c8 <Ldivdf$2+0x62>
    47da:	7400           	moveq #0,%d2
    47dc:	2602           	movel %d2,%d3
    47de:	6000 0028      	braw 4808 <Ldivdf$2+0xa2>
    47e2:	b681           	cmpl %d1,%d3
    47e4:	6200 ffec      	bhiw 47d2 <Ldivdf$2+0x6c>
    47e8:	7400           	moveq #0,%d2
    47ea:	2602           	movel %d2,%d3
    47ec:	0445 0035      	subiw #53,%d5
    47f0:	0645 003f      	addiw #63,%d5
    47f4:	0c45 001f      	cmpiw #31,%d5
    47f8:	6200 000c      	bhiw 4806 <Ldivdf$2+0xa0>
    47fc:	0bc3           	bset %d5,%d3
    47fe:	6000 0008      	braw 4808 <Ldivdf$2+0xa2>
    4802:	0445 0020      	subiw #32,%d5
    4806:	0bc2           	bset %d5,%d2
    4808:	2006           	movel %d6,%d0
    480a:	2207           	movel %d7,%d1
    480c:	7600           	moveq #0,%d3
    480e:	0800 0016      	btst #22,%d0
    4812:	6700 000c      	beqw 4820 <Ldivdf$2+0xba>
    4816:	e288           	lsrl #1,%d0
    4818:	e291           	roxrl #1,%d1
    481a:	e292           	roxrl #1,%d2
    481c:	e293           	roxrl #1,%d3
    481e:	5244           	addqw #1,%d4
    4820:	2e08           	movel %a0,%d7
    4822:	7a03           	moveq #3,%d5
    4824:	6000 00a8      	braw 48ce <Lround$exit>

00004828 <Ldivdf$inop>:
    4828:	7a03           	moveq #3,%d5
    482a:	6000 f948      	braw 4174 <Ld$inop>

0000482e <Ldivdf$a$0>:
    482e:	7a03           	moveq #3,%d5
    4830:	0882 001f      	bclr #31,%d2
    4834:	2802           	movel %d2,%d4
    4836:	8883           	orl %d3,%d4
    4838:	6700 f93a      	beqw 4174 <Ld$inop>
    483c:	0c82 7ff0 0000 	cmpil #2146435072,%d2
    4842:	6200 f930      	bhiw 4174 <Ld$inop>
    4846:	6d00 0008      	bltw 4850 <Ldivdf$a$0+0x22>
    484a:	4a83           	tstl %d3
    484c:	6600 f926      	bnew 4174 <Ld$inop>
    4850:	2008           	movel %a0,%d0
    4852:	7200           	moveq #0,%d1
    4854:	41f9 0001 4d24 	lea 14d24 <_fpCCR>,%a0
    485a:	30bc 0000      	movew #0,%a0@
    485e:	4cdf 00fc      	moveml %sp@+,%d2-%d7
    4862:	4e5e           	unlk %fp
    4864:	4e75           	rts

00004866 <Ldivdf$b$0>:
    4866:	7a03           	moveq #3,%d5
    4868:	2e08           	movel %a0,%d7
    486a:	0c80 7ff0 0000 	cmpil #2146435072,%d0
    4870:	6200 f902      	bhiw 4174 <Ld$inop>
    4874:	4a81           	tstl %d1
    4876:	6600 f8fc      	bnew 4174 <Ld$inop>
    487a:	6000 f908      	braw 4184 <Ld$div$0>

0000487e <Ldivdf$b$nf>:
    487e:	7a03           	moveq #3,%d5
    4880:	4a83           	tstl %d3
    4882:	6600 f8f0      	bnew 4174 <Ld$inop>
    4886:	6000 f8dc      	braw 4164 <Ld$underflow>

0000488a <Ldivdf$a$nf>:
    488a:	7a03           	moveq #3,%d5
    488c:	4a81           	tstl %d1
    488e:	6600 f8e4      	bnew 4174 <Ld$inop>
    4892:	b487           	cmpl %d7,%d2
    4894:	6c00 f8de      	bgew 4174 <Ld$inop>
    4898:	4a83           	tstl %d3
    489a:	6600 f8d8      	bnew 4174 <Ld$inop>
    489e:	6000 f8ae      	braw 414e <Ld$infty>

000048a2 <Ldivdf$a$den>:
    48a2:	7801           	moveq #1,%d4
    48a4:	c086           	andl %d6,%d0
    48a6:	d281           	addl %d1,%d1
    48a8:	d180           	addxl %d0,%d0
    48aa:	5344           	subqw #1,%d4
    48ac:	0800 0014      	btst #20,%d0
    48b0:	6600 fea2      	bnew 4754 <Ldivdf$1>
    48b4:	6000 fff0      	braw 48a6 <Ldivdf$a$den+0x4>

000048b8 <Ldivdf$b$den>:
    48b8:	7a01           	moveq #1,%d5
    48ba:	c486           	andl %d6,%d2
    48bc:	d683           	addl %d3,%d3
    48be:	d582           	addxl %d2,%d2
    48c0:	5345           	subqw #1,%d5
    48c2:	0802 0014      	btst #20,%d2
    48c6:	6600 fe9e      	bnew 4766 <Ldivdf$2>
    48ca:	6000 fff0      	braw 48bc <Ldivdf$b$den+0x4>

000048ce <Lround$exit>:
    48ce:	0c44 ffca      	cmpiw #-54,%d4
    48d2:	6d00 f890      	bltw 4164 <Ld$underflow>
    48d6:	2047           	moveal %d7,%a0
    48d8:	7c00           	moveq #0,%d6
    48da:	2e06           	movel %d6,%d7
    48dc:	0c44 0001      	cmpiw #1,%d4
    48e0:	6c00 0020      	bgew 4902 <Lround$exit+0x34>
    48e4:	5244           	addqw #1,%d4
    48e6:	e288           	lsrl #1,%d0
    48e8:	e291           	roxrl #1,%d1
    48ea:	e292           	roxrl #1,%d2
    48ec:	e293           	roxrl #1,%d3
    48ee:	e296           	roxrl #1,%d6
    48f0:	e297           	roxrl #1,%d7
    48f2:	0c44 0001      	cmpiw #1,%d4
    48f6:	6700 000a      	beqw 4902 <Lround$exit+0x34>
    48fa:	6000 ffe8      	braw 48e4 <Lround$exit+0x16>
    48fe:	6000 f864      	braw 4164 <Ld$underflow>
    4902:	8486           	orl %d6,%d2
    4904:	8687           	orl %d7,%d3
    4906:	2e08           	movel %a0,%d7
    4908:	41fa 0020      	lea %pc@(492a <Lround$0>),%a0
    490c:	43f9 0001 4d24 	lea 14d24 <_fpCCR>,%a1
    4912:	3c29 0006      	movew %a1@(6),%d6
    4916:	6700 0190      	beqw 4aa8 <Lround$to$nearest>
    491a:	0c46 0002      	cmpiw #2,%d6
    491e:	6200 01ec      	bhiw 4b0c <Lround$to$minus>
    4922:	6d00 01e8      	bltw 4b0c <Lround$to$minus>
    4926:	6000 01e4      	braw 4b0c <Lround$to$minus>

0000492a <Lround$0>:
    492a:	0c44 07ff      	cmpiw #2047,%d4
    492e:	6c00 f81e      	bgew 414e <Ld$infty>
    4932:	3804           	movew %d4,%d4
    4934:	6700 f80a      	beqw 4140 <Ld$den>
    4938:	e94c           	lslw #4,%d4
    493a:	0880 0014      	bclr #20,%d0
    493e:	4840           	swap %d0
    4940:	8044           	orw %d4,%d0
    4942:	4840           	swap %d0
    4944:	8087           	orl %d7,%d0
    4946:	41f9 0001 4d24 	lea 14d24 <_fpCCR>,%a0
    494c:	30bc 0000      	movew #0,%a0@
    4950:	4cdf 00fc      	moveml %sp@+,%d2-%d7
    4954:	4e5e           	unlk %fp
    4956:	4e75           	rts

00004958 <__negdf2>:
    4958:	4e56 0000      	linkw %fp,#0
    495c:	48e7 3f00      	moveml %d2-%d7,%sp@-
    4960:	7a04           	moveq #4,%d5
    4962:	202e 0008      	movel %fp@(8),%d0
    4966:	222e 000c      	movel %fp@(12),%d1
    496a:	0840 001f      	bchg #31,%d0
    496e:	2400           	movel %d0,%d2
    4970:	0882 001f      	bclr #31,%d2
    4974:	2802           	movel %d2,%d4
    4976:	8881           	orl %d1,%d4
    4978:	6700 0034      	beqw 49ae <__negdf2+0x56>
    497c:	0c82 7ff0 0000 	cmpil #2146435072,%d2
    4982:	6d00 0018      	bltw 499c <__negdf2+0x44>
    4986:	6200 f7ec      	bhiw 4174 <Ld$inop>
    498a:	4a81           	tstl %d1
    498c:	6600 f7e6      	bnew 4174 <Ld$inop>
    4990:	2e00           	movel %d0,%d7
    4992:	0287 8000 0000 	andil #-2147483648,%d7
    4998:	6000 f7b4      	braw 414e <Ld$infty>
    499c:	41f9 0001 4d24 	lea 14d24 <_fpCCR>,%a0
    49a2:	30bc 0000      	movew #0,%a0@
    49a6:	4cdf 00fc      	moveml %sp@+,%d2-%d7
    49aa:	4e5e           	unlk %fp
    49ac:	4e75           	rts
    49ae:	0880 001f      	bclr #31,%d0
    49b2:	6000 ffe8      	braw 499c <__negdf2+0x44>

000049b6 <__cmpdf2_internal>:
    49b6:	4e56 0000      	linkw %fp,#0
    49ba:	48e7 3f00      	moveml %d2-%d7,%sp@-
    49be:	7a05           	moveq #5,%d5
    49c0:	202e 0008      	movel %fp@(8),%d0
    49c4:	222e 000c      	movel %fp@(12),%d1
    49c8:	242e 0010      	movel %fp@(16),%d2
    49cc:	262e 0014      	movel %fp@(20),%d3
    49d0:	2c00           	movel %d0,%d6
    49d2:	0880 001f      	bclr #31,%d0
    49d6:	2e02           	movel %d2,%d7
    49d8:	0882 001f      	bclr #31,%d2
    49dc:	0c80 7ff0 0000 	cmpil #2146435072,%d0
    49e2:	6200 0094      	bhiw 4a78 <Lcmpd$inop>
    49e6:	6700 007c      	beqw 4a64 <Lcmpdf$a$nf>
    49ea:	2800           	movel %d0,%d4
    49ec:	8881           	orl %d1,%d4
    49ee:	6700 0064      	beqw 4a54 <Lcmpdf$a$0>

000049f2 <Lcmpdf$0>:
    49f2:	0c82 7ff0 0000 	cmpil #2146435072,%d2
    49f8:	6200 007e      	bhiw 4a78 <Lcmpd$inop>
    49fc:	6700 0070      	beqw 4a6e <Lcmpdf$b$nf>
    4a00:	2802           	movel %d2,%d4
    4a02:	8883           	orl %d3,%d4
    4a04:	6700 0056      	beqw 4a5c <Lcmpdf$b$0>

00004a08 <Lcmpdf$1>:
    4a08:	bd87           	eorl %d6,%d7
    4a0a:	6a00 000c      	bplw 4a18 <Lcmpdf$1+0x10>
    4a0e:	4a86           	tstl %d6
    4a10:	6a00 002e      	bplw 4a40 <Lcmpdf$a$gt$b>
    4a14:	6b00 0034      	bmiw 4a4a <Lcmpdf$b$gt$a>
    4a18:	4a86           	tstl %d6
    4a1a:	6a00 0006      	bplw 4a22 <Lcmpdf$1+0x1a>
    4a1e:	c142           	exg %d0,%d2
    4a20:	c343           	exg %d1,%d3
    4a22:	b480           	cmpl %d0,%d2
    4a24:	6200 0024      	bhiw 4a4a <Lcmpdf$b$gt$a>
    4a28:	6600 0016      	bnew 4a40 <Lcmpdf$a$gt$b>
    4a2c:	b681           	cmpl %d1,%d3
    4a2e:	6200 001a      	bhiw 4a4a <Lcmpdf$b$gt$a>
    4a32:	6600 000c      	bnew 4a40 <Lcmpdf$a$gt$b>
    4a36:	7000           	moveq #0,%d0
    4a38:	4cdf 00fc      	moveml %sp@+,%d2-%d7
    4a3c:	4e5e           	unlk %fp
    4a3e:	4e75           	rts

00004a40 <Lcmpdf$a$gt$b>:
    4a40:	7001           	moveq #1,%d0
    4a42:	4cdf 00fc      	moveml %sp@+,%d2-%d7
    4a46:	4e5e           	unlk %fp
    4a48:	4e75           	rts

00004a4a <Lcmpdf$b$gt$a>:
    4a4a:	70ff           	moveq #-1,%d0
    4a4c:	4cdf 00fc      	moveml %sp@+,%d2-%d7
    4a50:	4e5e           	unlk %fp
    4a52:	4e75           	rts

00004a54 <Lcmpdf$a$0>:
    4a54:	0886 001f      	bclr #31,%d6
    4a58:	6000 ff98      	braw 49f2 <Lcmpdf$0>

00004a5c <Lcmpdf$b$0>:
    4a5c:	0887 001f      	bclr #31,%d7
    4a60:	6000 ffa6      	braw 4a08 <Lcmpdf$1>

00004a64 <Lcmpdf$a$nf>:
    4a64:	4a81           	tstl %d1
    4a66:	6600 f70c      	bnew 4174 <Ld$inop>
    4a6a:	6000 ff86      	braw 49f2 <Lcmpdf$0>

00004a6e <Lcmpdf$b$nf>:
    4a6e:	4a83           	tstl %d3
    4a70:	6600 f702      	bnew 4174 <Ld$inop>
    4a74:	6000 ff92      	braw 4a08 <Lcmpdf$1>

00004a78 <Lcmpd$inop>:
    4a78:	202e 0018      	movel %fp@(24),%d0
    4a7c:	7e11           	moveq #17,%d7
    4a7e:	7c02           	moveq #2,%d6
    4a80:	4ef9 0000 4b1e 	jmp 4b1e <$_exception_handler>

00004a86 <__cmpdf2>:
    4a86:	4e56 0000      	linkw %fp,#0
    4a8a:	4878 0001      	pea 1 <ADD>
    4a8e:	2f2e 0014      	movel %fp@(20),%sp@-
    4a92:	2f2e 0010      	movel %fp@(16),%sp@-
    4a96:	2f2e 000c      	movel %fp@(12),%sp@-
    4a9a:	2f2e 0008      	movel %fp@(8),%sp@-
    4a9e:	4eb9 0000 49b6 	jsr 49b6 <__cmpdf2_internal>
    4aa4:	4e5e           	unlk %fp
    4aa6:	4e75           	rts

00004aa8 <Lround$to$nearest>:
    4aa8:	0800 0015      	btst #21,%d0
    4aac:	6600 0016      	bnew 4ac4 <Lround$to$nearest+0x1c>
    4ab0:	0c44 0001      	cmpiw #1,%d4
    4ab4:	6700 000e      	beqw 4ac4 <Lround$to$nearest+0x1c>
    4ab8:	d683           	addl %d3,%d3
    4aba:	d582           	addxl %d2,%d2
    4abc:	d381           	addxl %d1,%d1
    4abe:	d180           	addxl %d0,%d0
    4ac0:	51cc ffe6      	dbf %d4,4aa8 <Lround$to$nearest>
    4ac4:	0801 0000      	btst #0,%d1
    4ac8:	6700 0022      	beqw 4aec <Lround$to$nearest+0x44>
    4acc:	8682           	orl %d2,%d3
    4ace:	6600 0014      	bnew 4ae4 <Lround$to$nearest+0x3c>
    4ad2:	2601           	movel %d1,%d3
    4ad4:	0283 0000 0002 	andil #2,%d3
    4ada:	7400           	moveq #0,%d2
    4adc:	d283           	addl %d3,%d1
    4ade:	d182           	addxl %d2,%d0
    4ae0:	6000 000a      	braw 4aec <Lround$to$nearest+0x44>
    4ae4:	7601           	moveq #1,%d3
    4ae6:	7400           	moveq #0,%d2
    4ae8:	d283           	addl %d3,%d1
    4aea:	d182           	addxl %d2,%d0
    4aec:	e288           	lsrl #1,%d0
    4aee:	e291           	roxrl #1,%d1
    4af0:	0800 0015      	btst #21,%d0
    4af4:	6700 0008      	beqw 4afe <Lround$to$nearest+0x56>
    4af8:	e288           	lsrl #1,%d0
    4afa:	e291           	roxrl #1,%d1
    4afc:	5244           	addqw #1,%d4
    4afe:	0800 0014      	btst #20,%d0
    4b02:	6700 0004      	beqw 4b08 <Lround$to$nearest+0x60>
    4b06:	4ed0           	jmp %a0@
    4b08:	7800           	moveq #0,%d4
    4b0a:	4ed0           	jmp %a0@

00004b0c <Lround$to$minus>:
    4b0c:	4ed0           	jmp %a0@
	...

00004b10 <__clear_sticky_bit>:
    4b10:	41f9 0001 4d24 	lea 14d24 <_fpCCR>,%a0
    4b16:	317c 0000 0004 	movew #0,%a0@(4)
    4b1c:	4e75           	rts

00004b1e <$_exception_handler>:
    4b1e:	41f9 0001 4d24 	lea 14d24 <_fpCCR>,%a0
    4b24:	3087           	movew %d7,%a0@
    4b26:	8f68 0004      	orw %d7,%a0@(4)
    4b2a:	3146 0008      	movew %d6,%a0@(8)
    4b2e:	3145 000a      	movew %d5,%a0@(10)
    4b32:	0c46 0001      	cmpiw #1,%d6
    4b36:	6700 001e      	beqw 4b56 <$_exception_handler+0x38>
    4b3a:	216e 0008 000c 	movel %fp@(8),%a0@(12)
    4b40:	216e 000c 0010 	movel %fp@(12),%a0@(16)
    4b46:	216e 0010 0014 	movel %fp@(16),%a0@(20)
    4b4c:	216e 0014 0018 	movel %fp@(20),%a0@(24)
    4b52:	6000 000e      	braw 4b62 <$_exception_handler+0x44>
    4b56:	216e 0008 000c 	movel %fp@(8),%a0@(12)
    4b5c:	216e 000c 0014 	movel %fp@(12),%a0@(20)
    4b62:	ce68 0002      	andw %a0@(2),%d7
    4b66:	6700 000a      	beqw 4b72 <$_exception_handler+0x54>
    4b6a:	4879 0001 4d24 	pea 14d24 <_fpCCR>
    4b70:	4e4f           	trap #15
    4b72:	4cdf 00fc      	moveml %sp@+,%d2-%d7
    4b76:	4e5e           	unlk %fp
    4b78:	4e75           	rts
	...

00004b7c <__eqdf2>:
    4b7c:	4e56 0000      	linkw %fp,#0
    4b80:	4878 0001      	pea 1 <ADD>
    4b84:	2f2e 0014      	movel %fp@(20),%sp@-
    4b88:	2f2e 0010      	movel %fp@(16),%sp@-
    4b8c:	2f2e 000c      	movel %fp@(12),%sp@-
    4b90:	2f2e 0008      	movel %fp@(8),%sp@-
    4b94:	4eb9 0000 49b6 	jsr 49b6 <__cmpdf2_internal>
    4b9a:	4e5e           	unlk %fp
    4b9c:	4e75           	rts
	...

00004ba0 <__gtdf2>:
    4ba0:	4e56 0000      	linkw %fp,#0
    4ba4:	4878 ffff      	pea ffffffff <LESS+0x0>
    4ba8:	2f2e 0014      	movel %fp@(20),%sp@-
    4bac:	2f2e 0010      	movel %fp@(16),%sp@-
    4bb0:	2f2e 000c      	movel %fp@(12),%sp@-
    4bb4:	2f2e 0008      	movel %fp@(8),%sp@-
    4bb8:	4eb9 0000 49b6 	jsr 49b6 <__cmpdf2_internal>
    4bbe:	4e5e           	unlk %fp
    4bc0:	4e75           	rts
	...

00004bc4 <__gedf2>:
    4bc4:	4e56 0000      	linkw %fp,#0
    4bc8:	4878 ffff      	pea ffffffff <LESS+0x0>
    4bcc:	2f2e 0014      	movel %fp@(20),%sp@-
    4bd0:	2f2e 0010      	movel %fp@(16),%sp@-
    4bd4:	2f2e 000c      	movel %fp@(12),%sp@-
    4bd8:	2f2e 0008      	movel %fp@(8),%sp@-
    4bdc:	4eb9 0000 49b6 	jsr 49b6 <__cmpdf2_internal>
    4be2:	4e5e           	unlk %fp
    4be4:	4e75           	rts
	...

00004be8 <__floatsidf.part.0>:
    4be8:	48e7 3800      	moveml %d2-%d4,%sp@-
    4bec:	202f 0010      	movel %sp@(16),%d0
    4bf0:	6b58           	bmis 4c4a <__floatsidf.part.0+0x62>
    4bf2:	7400           	moveq #0,%d2
    4bf4:	223c 0000 041d 	movel #1053,%d1
    4bfa:	0c80 00ff ffff 	cmpil #16777215,%d0
    4c00:	6e0c           	bgts 4c0e <__floatsidf.part.0+0x26>
    4c02:	e988           	lsll #4,%d0
    4c04:	5981           	subql #4,%d1
    4c06:	0c80 00ff ffff 	cmpil #16777215,%d0
    4c0c:	6ff4           	bles 4c02 <__floatsidf.part.0+0x1a>
    4c0e:	0c80 3fff ffff 	cmpil #1073741823,%d0
    4c14:	6e0c           	bgts 4c22 <__floatsidf.part.0+0x3a>
    4c16:	d080           	addl %d0,%d0
    4c18:	5381           	subql #1,%d1
    4c1a:	0c80 3fff ffff 	cmpil #1073741823,%d0
    4c20:	6ff4           	bles 4c16 <__floatsidf.part.0+0x2e>
    4c22:	e949           	lslw #4,%d1
    4c24:	4841           	swap %d1
    4c26:	4241           	clrw %d1
    4c28:	8282           	orl %d2,%d1
    4c2a:	2400           	movel %d0,%d2
    4c2c:	760a           	moveq #10,%d3
    4c2e:	e6a2           	asrl %d3,%d2
    4c30:	0882 0014      	bclr #20,%d2
    4c34:	2801           	movel %d1,%d4
    4c36:	8882           	orl %d2,%d4
    4c38:	2600           	movel %d0,%d3
    4c3a:	ed4b           	lslw #6,%d3
    4c3c:	4843           	swap %d3
    4c3e:	4243           	clrw %d3
    4c40:	2004           	movel %d4,%d0
    4c42:	2203           	movel %d3,%d1
    4c44:	4cdf 001c      	moveml %sp@+,%d2-%d4
    4c48:	4e75           	rts
    4c4a:	4480           	negl %d0
    4c4c:	6b16           	bmis 4c64 <__floatsidf.part.0+0x7c>
    4c4e:	243c 8000 0000 	movel #-2147483648,%d2
    4c54:	223c 0000 041d 	movel #1053,%d1
    4c5a:	0c80 00ff ffff 	cmpil #16777215,%d0
    4c60:	6fa0           	bles 4c02 <__floatsidf.part.0+0x1a>
    4c62:	60aa           	bras 4c0e <__floatsidf.part.0+0x26>
    4c64:	203c c1e0 0000 	movel #-1042284544,%d0
    4c6a:	4281           	clrl %d1
    4c6c:	4cdf 001c      	moveml %sp@+,%d2-%d4
    4c70:	4e75           	rts

00004c72 <__unordsf2>:
    4c72:	202f 0004      	movel %sp@(4),%d0
    4c76:	0280 7f80 0000 	andil #2139095040,%d0
    4c7c:	0c80 7f80 0000 	cmpil #2139095040,%d0
    4c82:	6716           	beqs 4c9a <__unordsf2+0x28>
    4c84:	202f 0008      	movel %sp@(8),%d0
    4c88:	0280 7f80 0000 	andil #2139095040,%d0
    4c8e:	0c80 7f80 0000 	cmpil #2139095040,%d0
    4c94:	6714           	beqs 4caa <__unordsf2+0x38>
    4c96:	7000           	moveq #0,%d0
    4c98:	4e75           	rts
    4c9a:	202f 0004      	movel %sp@(4),%d0
    4c9e:	0280 007f ffff 	andil #8388607,%d0
    4ca4:	67de           	beqs 4c84 <__unordsf2+0x12>
    4ca6:	7001           	moveq #1,%d0
    4ca8:	4e75           	rts
    4caa:	202f 0008      	movel %sp@(8),%d0
    4cae:	0280 007f ffff 	andil #8388607,%d0
    4cb4:	56c0           	sne %d0
    4cb6:	4880           	extw %d0
    4cb8:	48c0           	extl %d0
    4cba:	4480           	negl %d0
    4cbc:	4e75           	rts

00004cbe <__unorddf2>:
    4cbe:	48e7 3800      	moveml %d2-%d4,%sp@-
    4cc2:	222f 0010      	movel %sp@(16),%d1
    4cc6:	262f 0014      	movel %sp@(20),%d3
    4cca:	202f 0018      	movel %sp@(24),%d0
    4cce:	282f 001c      	movel %sp@(28),%d4
    4cd2:	2401           	movel %d1,%d2
    4cd4:	0282 7ff0 0000 	andil #2146435072,%d2
    4cda:	0c82 7ff0 0000 	cmpil #2146435072,%d2
    4ce0:	6718           	beqs 4cfa <__unorddf2+0x3c>
    4ce2:	2200           	movel %d0,%d1
    4ce4:	0281 7ff0 0000 	andil #2146435072,%d1
    4cea:	0c81 7ff0 0000 	cmpil #2146435072,%d1
    4cf0:	671a           	beqs 4d0c <__unorddf2+0x4e>
    4cf2:	7000           	moveq #0,%d0
    4cf4:	4cdf 001c      	moveml %sp@+,%d2-%d4
    4cf8:	4e75           	rts
    4cfa:	0281 000f ffff 	andil #1048575,%d1
    4d00:	8283           	orl %d3,%d1
    4d02:	67de           	beqs 4ce2 <__unorddf2+0x24>
    4d04:	7001           	moveq #1,%d0
    4d06:	4cdf 001c      	moveml %sp@+,%d2-%d4
    4d0a:	4e75           	rts
    4d0c:	0280 000f ffff 	andil #1048575,%d0
    4d12:	8084           	orl %d4,%d0
    4d14:	56c0           	sne %d0
    4d16:	4880           	extw %d0
    4d18:	48c0           	extl %d0
    4d1a:	4480           	negl %d0
    4d1c:	4cdf 001c      	moveml %sp@+,%d2-%d4
    4d20:	4e75           	rts

00004d22 <__floatunsidf>:
    4d22:	48e7 3800      	moveml %d2-%d4,%sp@-
    4d26:	202f 0010      	movel %sp@(16),%d0
    4d2a:	6748           	beqs 4d74 <__floatunsidf+0x52>
    4d2c:	223c 0000 041e 	movel #1054,%d1
    4d32:	0c80 01ff ffff 	cmpil #33554431,%d0
    4d38:	6244           	bhis 4d7e <__floatunsidf+0x5c>
    4d3a:	e988           	lsll #4,%d0
    4d3c:	5981           	subql #4,%d1
    4d3e:	0c80 01ff ffff 	cmpil #33554431,%d0
    4d44:	63f4           	blss 4d3a <__floatunsidf+0x18>
    4d46:	d080           	addl %d0,%d0
    4d48:	5381           	subql #1,%d1
    4d4a:	4a80           	tstl %d0
    4d4c:	6cf8           	bges 4d46 <__floatunsidf+0x24>
    4d4e:	2400           	movel %d0,%d2
    4d50:	760b           	moveq #11,%d3
    4d52:	e6aa           	lsrl %d3,%d2
    4d54:	0882 0014      	bclr #20,%d2
    4d58:	e949           	lslw #4,%d1
    4d5a:	4841           	swap %d1
    4d5c:	4241           	clrw %d1
    4d5e:	2802           	movel %d2,%d4
    4d60:	8881           	orl %d1,%d4
    4d62:	2600           	movel %d0,%d3
    4d64:	eb4b           	lslw #5,%d3
    4d66:	4843           	swap %d3
    4d68:	4243           	clrw %d3
    4d6a:	2004           	movel %d4,%d0
    4d6c:	2203           	movel %d3,%d1
    4d6e:	4cdf 001c      	moveml %sp@+,%d2-%d4
    4d72:	4e75           	rts
    4d74:	4280           	clrl %d0
    4d76:	4281           	clrl %d1
    4d78:	4cdf 001c      	moveml %sp@+,%d2-%d4
    4d7c:	4e75           	rts
    4d7e:	4a80           	tstl %d0
    4d80:	6cc4           	bges 4d46 <__floatunsidf+0x24>
    4d82:	2400           	movel %d0,%d2
    4d84:	760b           	moveq #11,%d3
    4d86:	e6aa           	lsrl %d3,%d2
    4d88:	0882 0014      	bclr #20,%d2
    4d8c:	e949           	lslw #4,%d1
    4d8e:	4841           	swap %d1
    4d90:	4241           	clrw %d1
    4d92:	2802           	movel %d2,%d4
    4d94:	8881           	orl %d1,%d4
    4d96:	2600           	movel %d0,%d3
    4d98:	eb4b           	lslw #5,%d3
    4d9a:	4843           	swap %d3
    4d9c:	4243           	clrw %d3
    4d9e:	2004           	movel %d4,%d0
    4da0:	2203           	movel %d3,%d1
    4da2:	60ca           	bras 4d6e <__floatunsidf+0x4c>

00004da4 <__floatsidf>:
    4da4:	202f 0004      	movel %sp@(4),%d0
    4da8:	6708           	beqs 4db2 <__floatsidf+0xe>
    4daa:	2f40 0004      	movel %d0,%sp@(4)
    4dae:	6000 fe38      	braw 4be8 <__floatsidf.part.0>
    4db2:	4280           	clrl %d0
    4db4:	4281           	clrl %d1
    4db6:	4e75           	rts

00004db8 <__floatunsisf>:
    4db8:	48e7 3800      	moveml %d2-%d4,%sp@-
    4dbc:	202f 0010      	movel %sp@(16),%d0
    4dc0:	6750           	beqs 4e12 <__floatunsisf+0x5a>
    4dc2:	223c 0000 041e 	movel #1054,%d1
    4dc8:	0c80 01ff ffff 	cmpil #33554431,%d0
    4dce:	624a           	bhis 4e1a <__floatunsisf+0x62>
    4dd0:	e988           	lsll #4,%d0
    4dd2:	5981           	subql #4,%d1
    4dd4:	0c80 01ff ffff 	cmpil #33554431,%d0
    4dda:	63f4           	blss 4dd0 <__floatunsisf+0x18>
    4ddc:	d080           	addl %d0,%d0
    4dde:	5381           	subql #1,%d1
    4de0:	4a80           	tstl %d0
    4de2:	6cf8           	bges 4ddc <__floatunsisf+0x24>
    4de4:	2800           	movel %d0,%d4
    4de6:	740b           	moveq #11,%d2
    4de8:	e4ac           	lsrl %d2,%d4
    4dea:	0884 0014      	bclr #20,%d4
    4dee:	e949           	lslw #4,%d1
    4df0:	4841           	swap %d1
    4df2:	4241           	clrw %d1
    4df4:	2404           	movel %d4,%d2
    4df6:	8481           	orl %d1,%d2
    4df8:	2600           	movel %d0,%d3
    4dfa:	eb4b           	lslw #5,%d3
    4dfc:	4843           	swap %d3
    4dfe:	4243           	clrw %d3
    4e00:	2f03           	movel %d3,%sp@-
    4e02:	2f02           	movel %d2,%sp@-
    4e04:	4eb9 0000 4eda 	jsr 4eda <__truncdfsf2>
    4e0a:	508f           	addql #8,%sp
    4e0c:	4cdf 001c      	moveml %sp@+,%d2-%d4
    4e10:	4e75           	rts
    4e12:	7000           	moveq #0,%d0
    4e14:	4cdf 001c      	moveml %sp@+,%d2-%d4
    4e18:	4e75           	rts
    4e1a:	4a80           	tstl %d0
    4e1c:	6cbe           	bges 4ddc <__floatunsisf+0x24>
    4e1e:	2800           	movel %d0,%d4
    4e20:	740b           	moveq #11,%d2
    4e22:	e4ac           	lsrl %d2,%d4
    4e24:	0884 0014      	bclr #20,%d4
    4e28:	e949           	lslw #4,%d1
    4e2a:	4841           	swap %d1
    4e2c:	4241           	clrw %d1
    4e2e:	2404           	movel %d4,%d2
    4e30:	8481           	orl %d1,%d2
    4e32:	2600           	movel %d0,%d3
    4e34:	eb4b           	lslw #5,%d3
    4e36:	4843           	swap %d3
    4e38:	4243           	clrw %d3
    4e3a:	2f03           	movel %d3,%sp@-
    4e3c:	2f02           	movel %d2,%sp@-
    4e3e:	4eb9 0000 4eda 	jsr 4eda <__truncdfsf2>
    4e44:	508f           	addql #8,%sp
    4e46:	60c4           	bras 4e0c <__floatunsisf+0x54>

00004e48 <__floatsisf>:
    4e48:	202f 0004      	movel %sp@(4),%d0
    4e4c:	6714           	beqs 4e62 <__floatsisf+0x1a>
    4e4e:	2f00           	movel %d0,%sp@-
    4e50:	4eba fd96      	jsr %pc@(4be8 <__floatsidf.part.0>)
    4e54:	2e81           	movel %d1,%sp@
    4e56:	2f00           	movel %d0,%sp@-
    4e58:	4eb9 0000 4eda 	jsr 4eda <__truncdfsf2>
    4e5e:	508f           	addql #8,%sp
    4e60:	4e75           	rts
    4e62:	7000           	moveq #0,%d0
    4e64:	4e75           	rts

00004e66 <__extendsfdf2>:
    4e66:	48e7 3800      	moveml %d2-%d4,%sp@-
    4e6a:	202f 0010      	movel %sp@(16),%d0
    4e6e:	2600           	movel %d0,%d3
    4e70:	0283 8000 0000 	andil #-2147483648,%d3
    4e76:	2200           	movel %d0,%d1
    4e78:	0881 001f      	bclr #31,%d1
    4e7c:	4a81           	tstl %d1
    4e7e:	674e           	beqs 4ece <__extendsfdf2+0x68>
    4e80:	2400           	movel %d0,%d2
    4e82:	4842           	swap %d2
    4e84:	ee42           	asrw #7,%d2
    4e86:	48c2           	extl %d2
    4e88:	7200           	moveq #0,%d1
    4e8a:	4601           	notb %d1
    4e8c:	c282           	andl %d2,%d1
    4e8e:	0280 007f ffff 	andil #8388607,%d0
    4e94:	4a02           	tstb %d2
    4e96:	6610           	bnes 4ea8 <__extendsfdf2+0x42>
    4e98:	7201           	moveq #1,%d1
    4e9a:	d080           	addl %d0,%d0
    4e9c:	5381           	subql #1,%d1
    4e9e:	0800 0017      	btst #23,%d0
    4ea2:	67f6           	beqs 4e9a <__extendsfdf2+0x34>
    4ea4:	0880 0017      	bclr #23,%d0
    4ea8:	0681 0000 0380 	addil #896,%d1
    4eae:	e949           	lslw #4,%d1
    4eb0:	4841           	swap %d1
    4eb2:	4241           	clrw %d1
    4eb4:	2400           	movel %d0,%d2
    4eb6:	e682           	asrl #3,%d2
    4eb8:	8483           	orl %d3,%d2
    4eba:	2801           	movel %d1,%d4
    4ebc:	8882           	orl %d2,%d4
    4ebe:	2600           	movel %d0,%d3
    4ec0:	721d           	moveq #29,%d1
    4ec2:	e3ab           	lsll %d1,%d3
    4ec4:	2004           	movel %d4,%d0
    4ec6:	2203           	movel %d3,%d1
    4ec8:	4cdf 001c      	moveml %sp@+,%d2-%d4
    4ecc:	4e75           	rts
    4ece:	91c8           	subal %a0,%a0
    4ed0:	2003           	movel %d3,%d0
    4ed2:	2208           	movel %a0,%d1
    4ed4:	4cdf 001c      	moveml %sp@+,%d2-%d4
    4ed8:	4e75           	rts

00004eda <__truncdfsf2>:
    4eda:	48e7 3e00      	moveml %d2-%d6,%sp@-
    4ede:	222f 0018      	movel %sp@(24),%d1
    4ee2:	202f 001c      	movel %sp@(28),%d0
    4ee6:	2601           	movel %d1,%d3
    4ee8:	0283 8000 0000 	andil #-2147483648,%d3
    4eee:	2401           	movel %d1,%d2
    4ef0:	0882 001f      	bclr #31,%d2
    4ef4:	8480           	orl %d0,%d2
    4ef6:	6700 00d8      	beqw 4fd0 <__truncdfsf2+0xf6>
    4efa:	2801           	movel %d1,%d4
    4efc:	4844           	swap %d4
    4efe:	e844           	asrw #4,%d4
    4f00:	48c4           	extl %d4
    4f02:	0284 0000 07ff 	andil #2047,%d4
    4f08:	0684 ffff fc80 	addil #-896,%d4
    4f0e:	740a           	moveq #10,%d2
    4f10:	e5a9           	lsll %d2,%d1
    4f12:	0281 3fff fc00 	andil #1073740800,%d1
    4f18:	2400           	movel %d0,%d2
    4f1a:	4242           	clrw %d2
    4f1c:	4842           	swap %d2
    4f1e:	ec4a           	lsrw #6,%d2
    4f20:	8282           	orl %d2,%d1
    4f22:	0280 003f ffff 	andil #4194303,%d0
    4f28:	7a3f           	moveq #63,%d5
    4f2a:	c485           	andl %d5,%d2
    4f2c:	8082           	orl %d2,%d0
    4f2e:	ec81           	asrl #6,%d1
    4f30:	2401           	movel %d1,%d2
    4f32:	08c2 0018      	bset #24,%d2
    4f36:	4a84           	tstl %d4
    4f38:	6f44           	bles 4f7e <__truncdfsf2+0xa4>
    4f3a:	0801 0000      	btst #0,%d1
    4f3e:	6770           	beqs 4fb0 <__truncdfsf2+0xd6>
    4f40:	7a02           	moveq #2,%d5
    4f42:	c285           	andl %d5,%d1
    4f44:	8280           	orl %d0,%d1
    4f46:	6768           	beqs 4fb0 <__truncdfsf2+0xd6>
    4f48:	4205           	clrb %d5
    4f4a:	7202           	moveq #2,%d1
    4f4c:	5282           	addql #1,%d2
    4f4e:	203c 0200 0000 	movel #33554432,%d0
    4f54:	4a05           	tstb %d5
    4f56:	6706           	beqs 4f5e <__truncdfsf2+0x84>
    4f58:	203c 0100 0000 	movel #16777216,%d0
    4f5e:	b480           	cmpl %d0,%d2
    4f60:	6d4e           	blts 4fb0 <__truncdfsf2+0xd6>
    4f62:	2002           	movel %d2,%d0
    4f64:	e2a0           	asrl %d1,%d0
    4f66:	0880 0017      	bclr #23,%d0
    4f6a:	5284           	addql #1,%d4
    4f6c:	2204           	movel %d4,%d1
    4f6e:	ef49           	lslw #7,%d1
    4f70:	4841           	swap %d1
    4f72:	4241           	clrw %d1
    4f74:	8081           	orl %d1,%d0
    4f76:	8083           	orl %d3,%d0
    4f78:	4cdf 007c      	moveml %sp@+,%d2-%d6
    4f7c:	4e75           	rts
    4f7e:	72e8           	moveq #-24,%d1
    4f80:	b284           	cmpl %d4,%d1
    4f82:	6e42           	bgts 4fc6 <__truncdfsf2+0xec>
    4f84:	7c01           	moveq #1,%d6
    4f86:	9c84           	subl %d4,%d6
    4f88:	2a02           	movel %d2,%d5
    4f8a:	eca5           	asrl %d6,%d5
    4f8c:	7201           	moveq #1,%d1
    4f8e:	c285           	andl %d5,%d1
    4f90:	0805 0000      	btst #0,%d5
    4f94:	6742           	beqs 4fd8 <__truncdfsf2+0xfe>
    4f96:	7801           	moveq #1,%d4
    4f98:	edac           	lsll %d6,%d4
    4f9a:	5384           	subql #1,%d4
    4f9c:	c484           	andl %d4,%d2
    4f9e:	8082           	orl %d2,%d0
    4fa0:	7402           	moveq #2,%d2
    4fa2:	c485           	andl %d5,%d2
    4fa4:	8082           	orl %d2,%d0
    4fa6:	673a           	beqs 4fe2 <__truncdfsf2+0x108>
    4fa8:	2405           	movel %d5,%d2
    4faa:	7a01           	moveq #1,%d5
    4fac:	7800           	moveq #0,%d4
    4fae:	609c           	bras 4f4c <__truncdfsf2+0x72>
    4fb0:	2002           	movel %d2,%d0
    4fb2:	e280           	asrl #1,%d0
    4fb4:	0880 0017      	bclr #23,%d0
    4fb8:	2204           	movel %d4,%d1
    4fba:	ef49           	lslw #7,%d1
    4fbc:	4841           	swap %d1
    4fbe:	4241           	clrw %d1
    4fc0:	8081           	orl %d1,%d0
    4fc2:	8083           	orl %d3,%d0
    4fc4:	60b2           	bras 4f78 <__truncdfsf2+0x9e>
    4fc6:	7200           	moveq #0,%d1
    4fc8:	7000           	moveq #0,%d0
    4fca:	8081           	orl %d1,%d0
    4fcc:	8083           	orl %d3,%d0
    4fce:	60a8           	bras 4f78 <__truncdfsf2+0x9e>
    4fd0:	2003           	movel %d3,%d0
    4fd2:	4cdf 007c      	moveml %sp@+,%d2-%d6
    4fd6:	4e75           	rts
    4fd8:	2005           	movel %d5,%d0
    4fda:	e280           	asrl #1,%d0
    4fdc:	8081           	orl %d1,%d0
    4fde:	8083           	orl %d3,%d0
    4fe0:	6096           	bras 4f78 <__truncdfsf2+0x9e>
    4fe2:	2005           	movel %d5,%d0
    4fe4:	e280           	asrl #1,%d0
    4fe6:	7200           	moveq #0,%d1
    4fe8:	8081           	orl %d1,%d0
    4fea:	8083           	orl %d3,%d0
    4fec:	608a           	bras 4f78 <__truncdfsf2+0x9e>

00004fee <__fixdfsi>:
    4fee:	48e7 3800      	moveml %d2-%d4,%sp@-
    4ff2:	222f 0010      	movel %sp@(16),%d1
    4ff6:	262f 0014      	movel %sp@(20),%d3
    4ffa:	2001           	movel %d1,%d0
    4ffc:	6724           	beqs 5022 <__fixdfsi+0x34>
    4ffe:	2401           	movel %d1,%d2
    5000:	4842           	swap %d2
    5002:	e842           	asrw #4,%d2
    5004:	48c2           	extl %d2
    5006:	0282 0000 07ff 	andil #2047,%d2
    500c:	2042           	moveal %d2,%a0
    500e:	41e8 fbe3      	lea %a0@(-1053),%a0
    5012:	b0fc 0000      	cmpaw #0,%a0
    5016:	6f10           	bles 5028 <__fixdfsi+0x3a>
    5018:	4a81           	tstl %d1
    501a:	6d4e           	blts 506a <__fixdfsi+0x7c>
    501c:	203c 7fff ffff 	movel #2147483647,%d0
    5022:	4cdf 001c      	moveml %sp@+,%d2-%d4
    5026:	4e75           	rts
    5028:	78e1           	moveq #-31,%d4
    502a:	b888           	cmpl %a0,%d4
    502c:	6e48           	bgts 5076 <__fixdfsi+0x88>
    502e:	780a           	moveq #10,%d4
    5030:	e9a9           	lsll %d4,%d1
    5032:	0281 3fff fc00 	andil #1073740800,%d1
    5038:	4243           	clrw %d3
    503a:	4843           	swap %d3
    503c:	ec4b           	lsrw #6,%d3
    503e:	8283           	orl %d3,%d1
    5040:	08c1 001e      	bset #30,%d1
    5044:	b0fc 0000      	cmpaw #0,%a0
    5048:	670a           	beqs 5054 <__fixdfsi+0x66>
    504a:	263c 0000 041d 	movel #1053,%d3
    5050:	9682           	subl %d2,%d3
    5052:	e6a1           	asrl %d3,%d1
    5054:	4a80           	tstl %d0
    5056:	6d08           	blts 5060 <__fixdfsi+0x72>
    5058:	2001           	movel %d1,%d0
    505a:	4cdf 001c      	moveml %sp@+,%d2-%d4
    505e:	4e75           	rts
    5060:	2001           	movel %d1,%d0
    5062:	4480           	negl %d0
    5064:	4cdf 001c      	moveml %sp@+,%d2-%d4
    5068:	4e75           	rts
    506a:	203c 8000 0000 	movel #-2147483648,%d0
    5070:	4cdf 001c      	moveml %sp@+,%d2-%d4
    5074:	4e75           	rts
    5076:	7000           	moveq #0,%d0
    5078:	4cdf 001c      	moveml %sp@+,%d2-%d4
    507c:	4e75           	rts

0000507e <__fixsfsi>:
    507e:	48e7 3800      	moveml %d2-%d4,%sp@-
    5082:	2f2f 0010      	movel %sp@(16),%sp@-
    5086:	4eb9 0000 4e66 	jsr 4e66 <__extendsfdf2>
    508c:	588f           	addql #4,%sp
    508e:	2400           	movel %d0,%d2
    5090:	2002           	movel %d2,%d0
    5092:	6724           	beqs 50b8 <__fixsfsi+0x3a>
    5094:	2602           	movel %d2,%d3
    5096:	4843           	swap %d3
    5098:	e843           	asrw #4,%d3
    509a:	48c3           	extl %d3
    509c:	0283 0000 07ff 	andil #2047,%d3
    50a2:	2043           	moveal %d3,%a0
    50a4:	41e8 fbe3      	lea %a0@(-1053),%a0
    50a8:	b0fc 0000      	cmpaw #0,%a0
    50ac:	6f10           	bles 50be <__fixsfsi+0x40>
    50ae:	4a82           	tstl %d2
    50b0:	6d4e           	blts 5100 <__fixsfsi+0x82>
    50b2:	203c 7fff ffff 	movel #2147483647,%d0
    50b8:	4cdf 001c      	moveml %sp@+,%d2-%d4
    50bc:	4e75           	rts
    50be:	78e1           	moveq #-31,%d4
    50c0:	b888           	cmpl %a0,%d4
    50c2:	6e48           	bgts 510c <__fixsfsi+0x8e>
    50c4:	780a           	moveq #10,%d4
    50c6:	e9aa           	lsll %d4,%d2
    50c8:	0282 3fff fc00 	andil #1073740800,%d2
    50ce:	4241           	clrw %d1
    50d0:	4841           	swap %d1
    50d2:	ec49           	lsrw #6,%d1
    50d4:	8481           	orl %d1,%d2
    50d6:	08c2 001e      	bset #30,%d2
    50da:	b0fc 0000      	cmpaw #0,%a0
    50de:	670a           	beqs 50ea <__fixsfsi+0x6c>
    50e0:	223c 0000 041d 	movel #1053,%d1
    50e6:	9283           	subl %d3,%d1
    50e8:	e2a2           	asrl %d1,%d2
    50ea:	4a80           	tstl %d0
    50ec:	6d08           	blts 50f6 <__fixsfsi+0x78>
    50ee:	2002           	movel %d2,%d0
    50f0:	4cdf 001c      	moveml %sp@+,%d2-%d4
    50f4:	4e75           	rts
    50f6:	2002           	movel %d2,%d0
    50f8:	4480           	negl %d0
    50fa:	4cdf 001c      	moveml %sp@+,%d2-%d4
    50fe:	4e75           	rts
    5100:	203c 8000 0000 	movel #-2147483648,%d0
    5106:	4cdf 001c      	moveml %sp@+,%d2-%d4
    510a:	4e75           	rts
    510c:	7000           	moveq #0,%d0
    510e:	4cdf 001c      	moveml %sp@+,%d2-%d4
    5112:	4e75           	rts

00005114 <__udivsi3>:
    5114:	2f02           	movel %d2,%sp@-
    5116:	222f 000c      	movel %sp@(12),%d1
    511a:	202f 0008      	movel %sp@(8),%d0
    511e:	0c81 0001 0000 	cmpil #65536,%d1
    5124:	6416           	bccs 513c <L3>
    5126:	2400           	movel %d0,%d2
    5128:	4242           	clrw %d2
    512a:	4842           	swap %d2
    512c:	84c1           	divuw %d1,%d2
    512e:	3002           	movew %d2,%d0
    5130:	4840           	swap %d0
    5132:	342f 000a      	movew %sp@(10),%d2
    5136:	84c1           	divuw %d1,%d2
    5138:	3002           	movew %d2,%d0
    513a:	6030           	bras 516c <L6>

0000513c <L3>:
    513c:	2401           	movel %d1,%d2

0000513e <L4>:
    513e:	e289           	lsrl #1,%d1
    5140:	e288           	lsrl #1,%d0
    5142:	0c81 0001 0000 	cmpil #65536,%d1
    5148:	64f4           	bccs 513e <L4>
    514a:	80c1           	divuw %d1,%d0
    514c:	0280 0000 ffff 	andil #65535,%d0
    5152:	2202           	movel %d2,%d1
    5154:	c2c0           	muluw %d0,%d1
    5156:	4842           	swap %d2
    5158:	c4c0           	muluw %d0,%d2
    515a:	4842           	swap %d2
    515c:	4a42           	tstw %d2
    515e:	660a           	bnes 516a <L5>
    5160:	d282           	addl %d2,%d1
    5162:	6506           	bcss 516a <L5>
    5164:	b2af 0008      	cmpl %sp@(8),%d1
    5168:	6302           	blss 516c <L6>

0000516a <L5>:
    516a:	5380           	subql #1,%d0

0000516c <L6>:
    516c:	241f           	movel %sp@+,%d2
    516e:	4e75           	rts

00005170 <atexit>:
    5170:	42a7           	clrl %sp@-
    5172:	42a7           	clrl %sp@-
    5174:	2f2f 000c      	movel %sp@(12),%sp@-
    5178:	42a7           	clrl %sp@-
    517a:	4eb9 0000 5614 	jsr 5614 <__register_exitproc>
    5180:	4fef 0010      	lea %sp@(16),%sp
    5184:	4e75           	rts
	...

00005188 <exit>:
    5188:	2f02           	movel %d2,%sp@-
    518a:	242f 0008      	movel %sp@(8),%d2
    518e:	42a7           	clrl %sp@-
    5190:	2f02           	movel %d2,%sp@-
    5192:	4eb9 0000 56ac 	jsr 56ac <__call_exitprocs>
    5198:	2079 0001 5544 	moveal 15544 <__stdio_exit_handler>,%a0
    519e:	508f           	addql #8,%sp
    51a0:	b0fc 0000      	cmpaw #0,%a0
    51a4:	6702           	beqs 51a8 <exit+0x20>
    51a6:	4e90           	jsr %a0@
    51a8:	2f02           	movel %d2,%sp@-
    51aa:	4eb9 0000 d698 	jsr d698 <_exit>

000051b0 <_printf_r>:
    51b0:	4e56 0000      	linkw %fp,#0
    51b4:	206e 0008      	moveal %fp@(8),%a0
    51b8:	486e 0010      	pea %fp@(16)
    51bc:	2f2e 000c      	movel %fp@(12),%sp@-
    51c0:	2f28 0008      	movel %a0@(8),%sp@-
    51c4:	2f08           	movel %a0,%sp@-
    51c6:	4eb9 0000 5fac 	jsr 5fac <_vfprintf_r>
    51cc:	4fef 0010      	lea %sp@(16),%sp
    51d0:	4e5e           	unlk %fp
    51d2:	4e75           	rts

000051d4 <printf>:
    51d4:	4e56 0000      	linkw %fp,#0
    51d8:	2079 0001 4d4c 	moveal 14d4c <_impure_ptr>,%a0
    51de:	486e 000c      	pea %fp@(12)
    51e2:	2f2e 0008      	movel %fp@(8),%sp@-
    51e6:	2f28 0008      	movel %a0@(8),%sp@-
    51ea:	2f08           	movel %a0,%sp@-
    51ec:	4eb9 0000 5fac 	jsr 5fac <_vfprintf_r>
    51f2:	4fef 0010      	lea %sp@(16),%sp
    51f6:	4e5e           	unlk %fp
    51f8:	4e75           	rts
	...

000051fc <__fp_lock>:
    51fc:	7000           	moveq #0,%d0
    51fe:	4e75           	rts

00005200 <stdio_exit_handler>:
    5200:	4879 0001 4d40 	pea 14d40 <__sglue>
    5206:	4879 0000 7db0 	pea 7db0 <_fclose_r>
    520c:	4879 0001 4d50 	pea 14d50 <_impure_data>
    5212:	4eb9 0000 5548 	jsr 5548 <_fwalk_sglue>
    5218:	4fef 000c      	lea %sp@(12),%sp
    521c:	4e75           	rts

0000521e <cleanup_stdio>:
    521e:	2f0a           	movel %a2,%sp@-
    5220:	246f 0008      	moveal %sp@(8),%a2
    5224:	202a 0004      	movel %a2@(4),%d0
    5228:	0c80 0001 540c 	cmpil #87052,%d0
    522e:	670c           	beqs 523c <cleanup_stdio+0x1e>
    5230:	2f00           	movel %d0,%sp@-
    5232:	2f0a           	movel %a2,%sp@-
    5234:	4eb9 0000 7db0 	jsr 7db0 <_fclose_r>
    523a:	508f           	addql #8,%sp
    523c:	202a 0008      	movel %a2@(8),%d0
    5240:	0c80 0001 5474 	cmpil #87156,%d0
    5246:	670c           	beqs 5254 <cleanup_stdio+0x36>
    5248:	2f00           	movel %d0,%sp@-
    524a:	2f0a           	movel %a2,%sp@-
    524c:	4eb9 0000 7db0 	jsr 7db0 <_fclose_r>
    5252:	508f           	addql #8,%sp
    5254:	202a 000c      	movel %a2@(12),%d0
    5258:	0c80 0001 54dc 	cmpil #87260,%d0
    525e:	670c           	beqs 526c <cleanup_stdio+0x4e>
    5260:	2f00           	movel %d0,%sp@-
    5262:	2f0a           	movel %a2,%sp@-
    5264:	4eb9 0000 7db0 	jsr 7db0 <_fclose_r>
    526a:	508f           	addql #8,%sp
    526c:	245f           	moveal %sp@+,%a2
    526e:	4e75           	rts

00005270 <__fp_unlock>:
    5270:	7000           	moveq #0,%d0
    5272:	4e75           	rts

00005274 <global_stdio_init.part.0>:
    5274:	2f0b           	movel %a3,%sp@-
    5276:	2f0a           	movel %a2,%sp@-
    5278:	23fc 0000 5200 	movel #20992,15544 <__stdio_exit_handler>
    527e:	0001 5544 
    5282:	47f9 0001 540c 	lea 1540c <__sf>,%a3
    5288:	4293           	clrl %a3@
    528a:	42b9 0001 5410 	clrl 15410 <__sf+0x4>
    5290:	42b9 0001 5414 	clrl 15414 <__sf+0x8>
    5296:	42b9 0001 5470 	clrl 15470 <__sf+0x64>
    529c:	23fc 0004 0000 	movel #262144,15418 <__sf+0xc>
    52a2:	0001 5418 
    52a6:	42b9 0001 541c 	clrl 1541c <__sf+0x10>
    52ac:	42b9 0001 5420 	clrl 15420 <__sf+0x14>
    52b2:	42b9 0001 5424 	clrl 15424 <__sf+0x18>
    52b8:	4878 0008      	pea 8 <DIVIDE_BY_ZERO>
    52bc:	42a7           	clrl %sp@-
    52be:	4879 0001 5468 	pea 15468 <__sf+0x5c>
    52c4:	45f9 0000 55a0 	lea 55a0 <memset>,%a2
    52ca:	4e92           	jsr %a2@
    52cc:	23cb 0001 5428 	movel %a3,15428 <__sf+0x1c>
    52d2:	23fc 0000 8110 	movel #33040,1542c <__sf+0x20>
    52d8:	0001 542c 
    52dc:	23fc 0000 814c 	movel #33100,15430 <__sf+0x24>
    52e2:	0001 5430 
    52e6:	23fc 0000 81d2 	movel #33234,15434 <__sf+0x28>
    52ec:	0001 5434 
    52f0:	23fc 0000 8212 	movel #33298,15438 <__sf+0x2c>
    52f6:	0001 5438 
    52fa:	42b9 0001 5474 	clrl 15474 <__sf+0x68>
    5300:	42b9 0001 5478 	clrl 15478 <__sf+0x6c>
    5306:	42b9 0001 547c 	clrl 1547c <__sf+0x70>
    530c:	42b9 0001 54d8 	clrl 154d8 <__sf+0xcc>
    5312:	23fc 0009 0001 	movel #589825,15480 <__sf+0x74>
    5318:	0001 5480 
    531c:	42b9 0001 5484 	clrl 15484 <__sf+0x78>
    5322:	42b9 0001 5488 	clrl 15488 <__sf+0x7c>
    5328:	42b9 0001 548c 	clrl 1548c <__sf+0x80>
    532e:	4878 0008      	pea 8 <DIVIDE_BY_ZERO>
    5332:	42a7           	clrl %sp@-
    5334:	4879 0001 54d0 	pea 154d0 <__sf+0xc4>
    533a:	4e92           	jsr %a2@
    533c:	23fc 0001 5474 	movel #87156,15490 <__sf+0x84>
    5342:	0001 5490 
    5346:	23fc 0000 8110 	movel #33040,15494 <__sf+0x88>
    534c:	0001 5494 
    5350:	23fc 0000 814c 	movel #33100,15498 <__sf+0x8c>
    5356:	0001 5498 
    535a:	23fc 0000 81d2 	movel #33234,1549c <__sf+0x90>
    5360:	0001 549c 
    5364:	23fc 0000 8212 	movel #33298,154a0 <__sf+0x94>
    536a:	0001 54a0 
    536e:	42b9 0001 54dc 	clrl 154dc <__sf+0xd0>
    5374:	42b9 0001 54e0 	clrl 154e0 <__sf+0xd4>
    537a:	42b9 0001 54e4 	clrl 154e4 <__sf+0xd8>
    5380:	42b9 0001 5540 	clrl 15540 <__sf+0x134>
    5386:	23fc 0012 0002 	movel #1179650,154e8 <__sf+0xdc>
    538c:	0001 54e8 
    5390:	42b9 0001 54ec 	clrl 154ec <__sf+0xe0>
    5396:	42b9 0001 54f0 	clrl 154f0 <__sf+0xe4>
    539c:	42b9 0001 54f4 	clrl 154f4 <__sf+0xe8>
    53a2:	4878 0008      	pea 8 <DIVIDE_BY_ZERO>
    53a6:	42a7           	clrl %sp@-
    53a8:	4879 0001 5538 	pea 15538 <__sf+0x12c>
    53ae:	4e92           	jsr %a2@
    53b0:	23fc 0001 54dc 	movel #87260,154f8 <__sf+0xec>
    53b6:	0001 54f8 
    53ba:	23fc 0000 8110 	movel #33040,154fc <__sf+0xf0>
    53c0:	0001 54fc 
    53c4:	23fc 0000 814c 	movel #33100,15500 <__sf+0xf4>
    53ca:	0001 5500 
    53ce:	23fc 0000 81d2 	movel #33234,15504 <__sf+0xf8>
    53d4:	0001 5504 
    53d8:	23fc 0000 8212 	movel #33298,15508 <__sf+0xfc>
    53de:	0001 5508 
    53e2:	4fef 0024      	lea %sp@(36),%sp
    53e6:	245f           	moveal %sp@+,%a2
    53e8:	265f           	moveal %sp@+,%a3
    53ea:	4e75           	rts

000053ec <__sfp>:
    53ec:	2f0b           	movel %a3,%sp@-
    53ee:	2f0a           	movel %a2,%sp@-
    53f0:	4ab9 0001 5544 	tstl 15544 <__stdio_exit_handler>
    53f6:	6700 00d2      	beqw 54ca <__sfp+0xde>
    53fa:	47f9 0001 4d40 	lea 14d40 <__sglue>,%a3
    5400:	246b 0008      	moveal %a3@(8),%a2
    5404:	202b 0004      	movel %a3@(4),%d0
    5408:	5380           	subql #1,%d0
    540a:	6b14           	bmis 5420 <__sfp+0x34>
    540c:	4a6a 000c      	tstw %a2@(12)
    5410:	6726           	beqs 5438 <__sfp+0x4c>
    5412:	45ea 0068      	lea %a2@(104),%a2
    5416:	51c8 fff4      	dbf %d0,540c <__sfp+0x20>
    541a:	4240           	clrw %d0
    541c:	5380           	subql #1,%d0
    541e:	64ec           	bccs 540c <__sfp+0x20>
    5420:	2453           	moveal %a3@,%a2
    5422:	b4fc 0000      	cmpaw #0,%a2
    5426:	6762           	beqs 548a <__sfp+0x9e>
    5428:	264a           	moveal %a2,%a3
    542a:	246b 0008      	moveal %a3@(8),%a2
    542e:	202b 0004      	movel %a3@(4),%d0
    5432:	5380           	subql #1,%d0
    5434:	6ad6           	bpls 540c <__sfp+0x20>
    5436:	60e8           	bras 5420 <__sfp+0x34>
    5438:	357c ffff 000e 	movew #-1,%a2@(14)
    543e:	357c 0001 000c 	movew #1,%a2@(12)
    5444:	42aa 0064      	clrl %a2@(100)
    5448:	4292           	clrl %a2@
    544a:	42aa 0008      	clrl %a2@(8)
    544e:	42aa 0004      	clrl %a2@(4)
    5452:	42aa 0010      	clrl %a2@(16)
    5456:	42aa 0014      	clrl %a2@(20)
    545a:	42aa 0018      	clrl %a2@(24)
    545e:	4878 0008      	pea 8 <DIVIDE_BY_ZERO>
    5462:	42a7           	clrl %sp@-
    5464:	486a 005c      	pea %a2@(92)
    5468:	4eb9 0000 55a0 	jsr 55a0 <memset>
    546e:	42aa 0030      	clrl %a2@(48)
    5472:	42aa 0034      	clrl %a2@(52)
    5476:	42aa 0044      	clrl %a2@(68)
    547a:	42aa 0048      	clrl %a2@(72)
    547e:	4fef 000c      	lea %sp@(12),%sp
    5482:	200a           	movel %a2,%d0
    5484:	245f           	moveal %sp@+,%a2
    5486:	265f           	moveal %sp@+,%a3
    5488:	4e75           	rts
    548a:	4878 01ac      	pea 1ac <DBL_MANT_DIG+0x177>
    548e:	2f2f 0010      	movel %sp@(16),%sp@-
    5492:	4eb9 0000 5768 	jsr 5768 <_malloc_r>
    5498:	2440           	moveal %d0,%a2
    549a:	508f           	addql #8,%sp
    549c:	4a80           	tstl %d0
    549e:	673a           	beqs 54da <__sfp+0xee>
    54a0:	4292           	clrl %a2@
    54a2:	7004           	moveq #4,%d0
    54a4:	2540 0004      	movel %d0,%a2@(4)
    54a8:	41ea 000c      	lea %a2@(12),%a0
    54ac:	2548 0008      	movel %a0,%a2@(8)
    54b0:	4878 01a0      	pea 1a0 <DBL_MANT_DIG+0x16b>
    54b4:	42a7           	clrl %sp@-
    54b6:	2f08           	movel %a0,%sp@-
    54b8:	4eb9 0000 55a0 	jsr 55a0 <memset>
    54be:	268a           	movel %a2,%a3@
    54c0:	4fef 000c      	lea %sp@(12),%sp
    54c4:	264a           	moveal %a2,%a3
    54c6:	6000 ff62      	braw 542a <__sfp+0x3e>
    54ca:	4eb9 0000 5274 	jsr 5274 <global_stdio_init.part.0>
    54d0:	47f9 0001 4d40 	lea 14d40 <__sglue>,%a3
    54d6:	6000 ff28      	braw 5400 <__sfp+0x14>
    54da:	4293           	clrl %a3@
    54dc:	700c           	moveq #12,%d0
    54de:	206f 000c      	moveal %sp@(12),%a0
    54e2:	2080           	movel %d0,%a0@
    54e4:	200a           	movel %a2,%d0
    54e6:	245f           	moveal %sp@+,%a2
    54e8:	265f           	moveal %sp@+,%a3
    54ea:	4e75           	rts

000054ec <__sinit>:
    54ec:	206f 0004      	moveal %sp@(4),%a0
    54f0:	4aa8 0032      	tstl %a0@(50)
    54f4:	6702           	beqs 54f8 <__sinit+0xc>
    54f6:	4e75           	rts
    54f8:	217c 0000 521e 	movel #21022,%a0@(50)
    54fe:	0032 
    5500:	4ab9 0001 5544 	tstl 15544 <__stdio_exit_handler>
    5506:	66ee           	bnes 54f6 <__sinit+0xa>
    5508:	4ef9 0000 5274 	jmp 5274 <global_stdio_init.part.0>

0000550e <__sfp_lock_acquire>:
    550e:	4e75           	rts

00005510 <__sfp_lock_release>:
    5510:	4e75           	rts

00005512 <__fp_lock_all>:
    5512:	4879 0001 4d40 	pea 14d40 <__sglue>
    5518:	4879 0000 51fc 	pea 51fc <__fp_lock>
    551e:	42a7           	clrl %sp@-
    5520:	4eb9 0000 5548 	jsr 5548 <_fwalk_sglue>
    5526:	4fef 000c      	lea %sp@(12),%sp
    552a:	4e75           	rts

0000552c <__fp_unlock_all>:
    552c:	4879 0001 4d40 	pea 14d40 <__sglue>
    5532:	4879 0000 5270 	pea 5270 <__fp_unlock>
    5538:	42a7           	clrl %sp@-
    553a:	4eb9 0000 5548 	jsr 5548 <_fwalk_sglue>
    5540:	4fef 000c      	lea %sp@(12),%sp
    5544:	4e75           	rts
	...

00005548 <_fwalk_sglue>:
    5548:	48e7 3838      	moveml %d2-%d4/%a2-%a4,%sp@-
    554c:	282f 001c      	movel %sp@(28),%d4
    5550:	286f 0020      	moveal %sp@(32),%a4
    5554:	266f 0024      	moveal %sp@(36),%a3
    5558:	7600           	moveq #0,%d3
    555a:	246b 0008      	moveal %a3@(8),%a2
    555e:	242b 0004      	movel %a3@(4),%d2
    5562:	5382           	subql #1,%d2
    5564:	6b28           	bmis 558e <_fwalk_sglue+0x46>
    5566:	0c6a 0001 000c 	cmpiw #1,%a2@(12)
    556c:	6312           	blss 5580 <_fwalk_sglue+0x38>
    556e:	0c6a ffff 000e 	cmpiw #-1,%a2@(14)
    5574:	670a           	beqs 5580 <_fwalk_sglue+0x38>
    5576:	2f0a           	movel %a2,%sp@-
    5578:	2f04           	movel %d4,%sp@-
    557a:	4e94           	jsr %a4@
    557c:	8680           	orl %d0,%d3
    557e:	508f           	addql #8,%sp
    5580:	45ea 0068      	lea %a2@(104),%a2
    5584:	51ca ffe0      	dbf %d2,5566 <_fwalk_sglue+0x1e>
    5588:	4242           	clrw %d2
    558a:	5382           	subql #1,%d2
    558c:	64d8           	bccs 5566 <_fwalk_sglue+0x1e>
    558e:	2653           	moveal %a3@,%a3
    5590:	b6fc 0000      	cmpaw #0,%a3
    5594:	66c4           	bnes 555a <_fwalk_sglue+0x12>
    5596:	2003           	movel %d3,%d0
    5598:	4cdf 1c1c      	moveml %sp@+,%d2-%d4/%a2-%a4
    559c:	4e75           	rts
	...

000055a0 <memset>:
    55a0:	206f 0004      	moveal %sp@(4),%a0
    55a4:	202f 0008      	movel %sp@(8),%d0
    55a8:	222f 000c      	movel %sp@(12),%d1
    55ac:	0c81 0000 0010 	cmpil #16,%d1
    55b2:	6500 0054      	bcsw 5608 <memset+0x68>
    55b6:	2f02           	movel %d2,%sp@-
    55b8:	1400           	moveb %d0,%d2
    55ba:	e188           	lsll #8,%d0
    55bc:	1002           	moveb %d2,%d0
    55be:	3400           	movew %d0,%d2
    55c0:	4840           	swap %d0
    55c2:	3002           	movew %d2,%d0
    55c4:	2408           	movel %a0,%d2
    55c6:	4482           	negl %d2
    55c8:	0282 0000 0003 	andil #3,%d2
    55ce:	6700 0014      	beqw 55e4 <memset+0x44>
    55d2:	9282           	subl %d2,%d1
    55d4:	e28a           	lsrl #1,%d2
    55d6:	6400 0004      	bccw 55dc <memset+0x3c>
    55da:	10c0           	moveb %d0,%a0@+
    55dc:	e28a           	lsrl #1,%d2
    55de:	6400 0004      	bccw 55e4 <memset+0x44>
    55e2:	30c0           	movew %d0,%a0@+
    55e4:	2401           	movel %d1,%d2
    55e6:	e48a           	lsrl #2,%d2
    55e8:	5382           	subql #1,%d2
    55ea:	20c0           	movel %d0,%a0@+
    55ec:	51ca fffc      	dbf %d2,55ea <memset+0x4a>
    55f0:	0482 0001 0000 	subil #65536,%d2
    55f6:	6a00 fff2      	bplw 55ea <memset+0x4a>
    55fa:	0281 0000 0003 	andil #3,%d1
    5600:	241f           	movel %sp@+,%d2
    5602:	6000 0004      	braw 5608 <memset+0x68>
    5606:	10c0           	moveb %d0,%a0@+
    5608:	51c9 fffc      	dbf %d1,5606 <memset+0x66>
    560c:	202f 0004      	movel %sp@(4),%d0
    5610:	4e75           	rts
	...

00005614 <__register_exitproc>:
    5614:	2f03           	movel %d3,%sp@-
    5616:	2f02           	movel %d2,%sp@-
    5618:	222f 000c      	movel %sp@(12),%d1
    561c:	2079 0001 56d8 	moveal 156d8 <__atexit>,%a0
    5622:	b0fc 0000      	cmpaw #0,%a0
    5626:	674c           	beqs 5674 <__register_exitproc+0x60>
    5628:	2028 0004      	movel %a0@(4),%d0
    562c:	741f           	moveq #31,%d2
    562e:	b480           	cmpl %d0,%d2
    5630:	6d70           	blts 56a2 <__register_exitproc+0x8e>
    5632:	4a81           	tstl %d1
    5634:	6722           	beqs 5658 <__register_exitproc+0x44>
    5636:	2240           	moveal %d0,%a1
    5638:	d3c0           	addal %d0,%a1
    563a:	d3c9           	addal %a1,%a1
    563c:	43f0 9800      	lea %a0@(0,%a1:l),%a1
    5640:	236f 0014 0088 	movel %sp@(20),%a1@(136)
    5646:	7401           	moveq #1,%d2
    5648:	e1aa           	lsll %d0,%d2
    564a:	85a8 0188      	orl %d2,%a0@(392)
    564e:	236f 0018 0108 	movel %sp@(24),%a1@(264)
    5654:	5581           	subql #2,%d1
    5656:	672e           	beqs 5686 <__register_exitproc+0x72>
    5658:	2200           	movel %d0,%d1
    565a:	5281           	addql #1,%d1
    565c:	2141 0004      	movel %d1,%a0@(4)
    5660:	5480           	addql #2,%d0
    5662:	d080           	addl %d0,%d0
    5664:	d080           	addl %d0,%d0
    5666:	21af 0010 0800 	movel %sp@(16),%a0@(0,%d0:l)
    566c:	7000           	moveq #0,%d0
    566e:	241f           	movel %sp@+,%d2
    5670:	261f           	movel %sp@+,%d3
    5672:	4e75           	rts
    5674:	23fc 0001 5548 	movel #87368,156d8 <__atexit>
    567a:	0001 56d8 
    567e:	41f9 0001 5548 	lea 15548 <__atexit0>,%a0
    5684:	60a2           	bras 5628 <__register_exitproc+0x14>
    5686:	85a8 018c      	orl %d2,%a0@(396)
    568a:	2200           	movel %d0,%d1
    568c:	5281           	addql #1,%d1
    568e:	2141 0004      	movel %d1,%a0@(4)
    5692:	5480           	addql #2,%d0
    5694:	d080           	addl %d0,%d0
    5696:	d080           	addl %d0,%d0
    5698:	21af 0010 0800 	movel %sp@(16),%a0@(0,%d0:l)
    569e:	7000           	moveq #0,%d0
    56a0:	60cc           	bras 566e <__register_exitproc+0x5a>
    56a2:	70ff           	moveq #-1,%d0
    56a4:	241f           	movel %sp@+,%d2
    56a6:	261f           	movel %sp@+,%d3
    56a8:	4e75           	rts
	...

000056ac <__call_exitprocs>:
    56ac:	48e7 3e30      	moveml %d2-%d6/%a2-%a3,%sp@-
    56b0:	2a2f 0020      	movel %sp@(32),%d5
    56b4:	262f 0024      	movel %sp@(36),%d3
    56b8:	2679 0001 56d8 	moveal 156d8 <__atexit>,%a3
    56be:	7801           	moveq #1,%d4
    56c0:	b6fc 0000      	cmpaw #0,%a3
    56c4:	675a           	beqs 5720 <__call_exitprocs+0x74>
    56c6:	202b 0004      	movel %a3@(4),%d0
    56ca:	2400           	movel %d0,%d2
    56cc:	5382           	subql #1,%d2
    56ce:	6b50           	bmis 5720 <__call_exitprocs+0x74>
    56d0:	5280           	addql #1,%d0
    56d2:	d080           	addl %d0,%d0
    56d4:	d080           	addl %d0,%d0
    56d6:	45f3 0800      	lea %a3@(0,%d0:l),%a2
    56da:	4a83           	tstl %d3
    56dc:	6648           	bnes 5726 <__call_exitprocs+0x7a>
    56de:	2052           	moveal %a2@,%a0
    56e0:	202b 0004      	movel %a3@(4),%d0
    56e4:	5380           	subql #1,%d0
    56e6:	b480           	cmpl %d0,%d2
    56e8:	6770           	beqs 575a <__call_exitprocs+0xae>
    56ea:	4292           	clrl %a2@
    56ec:	b0fc 0000      	cmpaw #0,%a0
    56f0:	6722           	beqs 5714 <__call_exitprocs+0x68>
    56f2:	2c2b 0004      	movel %a3@(4),%d6
    56f6:	2004           	movel %d4,%d0
    56f8:	e5a8           	lsll %d2,%d0
    56fa:	2200           	movel %d0,%d1
    56fc:	c2ab 0188      	andl %a3@(392),%d1
    5700:	6644           	bnes 5746 <__call_exitprocs+0x9a>
    5702:	4e90           	jsr %a0@
    5704:	2039 0001 56d8 	movel 156d8 <__atexit>,%d0
    570a:	bcab 0004      	cmpl %a3@(4),%d6
    570e:	662e           	bnes 573e <__call_exitprocs+0x92>
    5710:	b7c0           	cmpal %d0,%a3
    5712:	662a           	bnes 573e <__call_exitprocs+0x92>
    5714:	598a           	subql #4,%a2
    5716:	51ca ffc2      	dbf %d2,56da <__call_exitprocs+0x2e>
    571a:	4242           	clrw %d2
    571c:	5382           	subql #1,%d2
    571e:	64ba           	bccs 56da <__call_exitprocs+0x2e>
    5720:	4cdf 0c7c      	moveml %sp@+,%d2-%d6/%a2-%a3
    5724:	4e75           	rts
    5726:	b6aa 0100      	cmpl %a2@(256),%d3
    572a:	67b2           	beqs 56de <__call_exitprocs+0x32>
    572c:	598a           	subql #4,%a2
    572e:	51ca fff6      	dbf %d2,5726 <__call_exitprocs+0x7a>
    5732:	4242           	clrw %d2
    5734:	5382           	subql #1,%d2
    5736:	64ee           	bccs 5726 <__call_exitprocs+0x7a>
    5738:	4cdf 0c7c      	moveml %sp@+,%d2-%d6/%a2-%a3
    573c:	4e75           	rts
    573e:	4a80           	tstl %d0
    5740:	67de           	beqs 5720 <__call_exitprocs+0x74>
    5742:	2640           	moveal %d0,%a3
    5744:	6080           	bras 56c6 <__call_exitprocs+0x1a>
    5746:	222a 0080      	movel %a2@(128),%d1
    574a:	c0ab 018c      	andl %a3@(396),%d0
    574e:	6610           	bnes 5760 <__call_exitprocs+0xb4>
    5750:	2f01           	movel %d1,%sp@-
    5752:	2f05           	movel %d5,%sp@-
    5754:	4e90           	jsr %a0@
    5756:	508f           	addql #8,%sp
    5758:	60aa           	bras 5704 <__call_exitprocs+0x58>
    575a:	2742 0004      	movel %d2,%a3@(4)
    575e:	608c           	bras 56ec <__call_exitprocs+0x40>
    5760:	2f01           	movel %d1,%sp@-
    5762:	4e90           	jsr %a0@
    5764:	588f           	addql #4,%sp
    5766:	609c           	bras 5704 <__call_exitprocs+0x58>

00005768 <_malloc_r>:
    5768:	48e7 3e3e      	moveml %d2-%d6/%a2-%fp,%sp@-
    576c:	266f 002c      	moveal %sp@(44),%a3
    5770:	226f 0030      	moveal %sp@(48),%a1
    5774:	41e9 000b      	lea %a1@(11),%a0
    5778:	7016           	moveq #22,%d0
    577a:	b088           	cmpl %a0,%d0
    577c:	655e           	bcss 57dc <_malloc_r+0x74>
    577e:	7210           	moveq #16,%d1
    5780:	b289           	cmpl %a1,%d1
    5782:	6500 01e2      	bcsw 5966 <_malloc_r+0x1fe>
    5786:	2f0b           	movel %a3,%sp@-
    5788:	4eb9 0000 7d74 	jsr 7d74 <__malloc_lock>
    578e:	588f           	addql #4,%sp
    5790:	307c 0018      	moveaw #24,%a0
    5794:	7602           	moveq #2,%d3
    5796:	7410           	moveq #16,%d2
    5798:	d1fc 0001 4e70 	addal #85616,%a0
    579e:	2468 0004      	moveal %a0@(4),%a2
    57a2:	2008           	movel %a0,%d0
    57a4:	5180           	subql #8,%d0
    57a6:	b08a           	cmpl %a2,%d0
    57a8:	6700 01ee      	beqw 5998 <_malloc_r+0x230>
    57ac:	70fc           	moveq #-4,%d0
    57ae:	c0aa 0004      	andl %a2@(4),%d0
    57b2:	206a 000c      	moveal %a2@(12),%a0
    57b6:	226a 0008      	moveal %a2@(8),%a1
    57ba:	2348 000c      	movel %a0,%a1@(12)
    57be:	2149 0008      	movel %a1,%a0@(8)
    57c2:	7a01           	moveq #1,%d5
    57c4:	8bb2 0804      	orl %d5,%a2@(4,%d0:l)
    57c8:	2f0b           	movel %a3,%sp@-
    57ca:	4eb9 0000 7d76 	jsr 7d76 <__malloc_unlock>
    57d0:	200a           	movel %a2,%d0
    57d2:	5080           	addql #8,%d0
    57d4:	588f           	addql #4,%sp
    57d6:	4cdf 7c7c      	moveml %sp@+,%d2-%d6/%a2-%fp
    57da:	4e75           	rts
    57dc:	2408           	movel %a0,%d2
    57de:	76f8           	moveq #-8,%d3
    57e0:	c483           	andl %d3,%d2
    57e2:	b0fc 0000      	cmpaw #0,%a0
    57e6:	6d00 017e      	bltw 5966 <_malloc_r+0x1fe>
    57ea:	b489           	cmpl %a1,%d2
    57ec:	6500 0178      	bcsw 5966 <_malloc_r+0x1fe>
    57f0:	2f0b           	movel %a3,%sp@-
    57f2:	4eb9 0000 7d74 	jsr 7d74 <__malloc_lock>
    57f8:	588f           	addql #4,%sp
    57fa:	2602           	movel %d2,%d3
    57fc:	0c82 0000 01f7 	cmpil #503,%d2
    5802:	6300 041c      	blsw 5c20 <_malloc_r+0x4b8>
    5806:	7c09           	moveq #9,%d6
    5808:	ecab           	lsrl %d6,%d3
    580a:	6700 0166      	beqw 5972 <_malloc_r+0x20a>
    580e:	7004           	moveq #4,%d0
    5810:	b083           	cmpl %d3,%d0
    5812:	6500 0324      	bcsw 5b38 <_malloc_r+0x3d0>
    5816:	2602           	movel %d2,%d3
    5818:	ec8b           	lsrl #6,%d3
    581a:	387c 0038      	moveaw #56,%a4
    581e:	d9c3           	addal %d3,%a4
    5820:	7239           	moveq #57,%d1
    5822:	d681           	addl %d1,%d3
    5824:	2003           	movel %d3,%d0
    5826:	e788           	lsll #3,%d0
    5828:	2040           	moveal %d0,%a0
    582a:	d1fc 0001 4e70 	addal #85616,%a0
    5830:	43e8 fff8      	lea %a0@(-8),%a1
    5834:	2468 0004      	moveal %a0@(4),%a2
    5838:	b5c9           	cmpal %a1,%a2
    583a:	6732           	beqs 586e <_malloc_r+0x106>
    583c:	72fc           	moveq #-4,%d1
    583e:	c2aa 0004      	andl %a2@(4),%d1
    5842:	2001           	movel %d1,%d0
    5844:	9082           	subl %d2,%d0
    5846:	780f           	moveq #15,%d4
    5848:	b880           	cmpl %d0,%d4
    584a:	6d20           	blts 586c <_malloc_r+0x104>
    584c:	206a 000c      	moveal %a2@(12),%a0
    5850:	4a80           	tstl %d0
    5852:	6c00 0260      	bgew 5ab4 <_malloc_r+0x34c>
    5856:	b1c9           	cmpal %a1,%a0
    5858:	6714           	beqs 586e <_malloc_r+0x106>
    585a:	2448           	moveal %a0,%a2
    585c:	72fc           	moveq #-4,%d1
    585e:	c2aa 0004      	andl %a2@(4),%d1
    5862:	2001           	movel %d1,%d0
    5864:	9082           	subl %d2,%d0
    5866:	780f           	moveq #15,%d4
    5868:	b880           	cmpl %d0,%d4
    586a:	6ce0           	bges 584c <_malloc_r+0xe4>
    586c:	260c           	movel %a4,%d3
    586e:	2479 0001 4e80 	moveal 14e80 <__malloc_av_+0x10>,%a2
    5874:	b5fc 0001 4e78 	cmpal #85624,%a2
    587a:	6700 0138      	beqw 59b4 <_malloc_r+0x24c>
    587e:	70fc           	moveq #-4,%d0
    5880:	c0aa 0004      	andl %a2@(4),%d0
    5884:	2200           	movel %d0,%d1
    5886:	9282           	subl %d2,%d1
    5888:	7c0f           	moveq #15,%d6
    588a:	bc81           	cmpl %d1,%d6
    588c:	6d00 03b0      	bltw 5c3e <_malloc_r+0x4d6>
    5890:	23fc 0001 4e78 	movel #85624,14e84 <__malloc_av_+0x14>
    5896:	0001 4e84 
    589a:	23fc 0001 4e78 	movel #85624,14e80 <__malloc_av_+0x10>
    58a0:	0001 4e80 
    58a4:	4a81           	tstl %d1
    58a6:	6c00 0360      	bgew 5c08 <_malloc_r+0x4a0>
    58aa:	2239 0001 4e74 	movel 14e74 <__malloc_av_+0x4>,%d1
    58b0:	0c80 0000 01ff 	cmpil #511,%d0
    58b6:	6200 0220      	bhiw 5ad8 <_malloc_r+0x370>
    58ba:	e688           	lsrl #3,%d0
    58bc:	2a00           	movel %d0,%d5
    58be:	e485           	asrl #2,%d5
    58c0:	7801           	moveq #1,%d4
    58c2:	ebac           	lsll %d5,%d4
    58c4:	8284           	orl %d4,%d1
    58c6:	23c1 0001 4e74 	movel %d1,14e74 <__malloc_av_+0x4>
    58cc:	e788           	lsll #3,%d0
    58ce:	2040           	moveal %d0,%a0
    58d0:	d1fc 0001 4e78 	addal #85624,%a0
    58d6:	2250           	moveal %a0@,%a1
    58d8:	49e8 fff8      	lea %a0@(-8),%a4
    58dc:	254c 000c      	movel %a4,%a2@(12)
    58e0:	2549 0008      	movel %a1,%a2@(8)
    58e4:	208a           	movel %a2,%a0@
    58e6:	234a 000c      	movel %a2,%a1@(12)
    58ea:	2003           	movel %d3,%d0
    58ec:	e480           	asrl #2,%d0
    58ee:	7801           	moveq #1,%d4
    58f0:	e1ac           	lsll %d0,%d4
    58f2:	b284           	cmpl %d4,%d1
    58f4:	6500 00d2      	bcsw 59c8 <_malloc_r+0x260>
    58f8:	2004           	movel %d4,%d0
    58fa:	c081           	andl %d1,%d0
    58fc:	660e           	bnes 590c <_malloc_r+0x1a4>
    58fe:	7afc           	moveq #-4,%d5
    5900:	c685           	andl %d5,%d3
    5902:	5883           	addql #4,%d3
    5904:	d884           	addl %d4,%d4
    5906:	2004           	movel %d4,%d0
    5908:	c081           	andl %d1,%d0
    590a:	67f6           	beqs 5902 <_malloc_r+0x19a>
    590c:	2003           	movel %d3,%d0
    590e:	e788           	lsll #3,%d0
    5910:	2840           	moveal %d0,%a4
    5912:	d9fc 0001 4e70 	addal #85616,%a4
    5918:	224c           	moveal %a4,%a1
    591a:	2a03           	movel %d3,%d5
    591c:	2069 000c      	moveal %a1@(12),%a0
    5920:	b1c9           	cmpal %a1,%a0
    5922:	6700 0252      	beqw 5b76 <_malloc_r+0x40e>
    5926:	72fc           	moveq #-4,%d1
    5928:	c2a8 0004      	andl %a0@(4),%d1
    592c:	2001           	movel %d1,%d0
    592e:	9082           	subl %d2,%d0
    5930:	2448           	moveal %a0,%a2
    5932:	2068 000c      	moveal %a0@(12),%a0
    5936:	7c0f           	moveq #15,%d6
    5938:	bc80           	cmpl %d0,%d6
    593a:	6d00 027a      	bltw 5bb6 <_malloc_r+0x44e>
    593e:	4a80           	tstl %d0
    5940:	6dde           	blts 5920 <_malloc_r+0x1b8>
    5942:	7a01           	moveq #1,%d5
    5944:	8bb2 1804      	orl %d5,%a2@(4,%d1:l)
    5948:	226a 0008      	moveal %a2@(8),%a1
    594c:	2348 000c      	movel %a0,%a1@(12)
    5950:	2149 0008      	movel %a1,%a0@(8)
    5954:	2f0b           	movel %a3,%sp@-
    5956:	4eb9 0000 7d76 	jsr 7d76 <__malloc_unlock>
    595c:	200a           	movel %a2,%d0
    595e:	5080           	addql #8,%d0
    5960:	588f           	addql #4,%sp
    5962:	6000 fe72      	braw 57d6 <_malloc_r+0x6e>
    5966:	780c           	moveq #12,%d4
    5968:	2684           	movel %d4,%a3@
    596a:	7000           	moveq #0,%d0
    596c:	4cdf 7c7c      	moveml %sp@+,%d2-%d6/%a2-%fp
    5970:	4e75           	rts
    5972:	203c 0000 0200 	movel #512,%d0
    5978:	7640           	moveq #64,%d3
    597a:	387c 003f      	moveaw #63,%a4
    597e:	2040           	moveal %d0,%a0
    5980:	d1fc 0001 4e70 	addal #85616,%a0
    5986:	43e8 fff8      	lea %a0@(-8),%a1
    598a:	2468 0004      	moveal %a0@(4),%a2
    598e:	b5c9           	cmpal %a1,%a2
    5990:	6600 feaa      	bnew 583c <_malloc_r+0xd4>
    5994:	6000 fed8      	braw 586e <_malloc_r+0x106>
    5998:	2468 000c      	moveal %a0@(12),%a2
    599c:	b5c8           	cmpal %a0,%a2
    599e:	6600 fe0c      	bnew 57ac <_malloc_r+0x44>
    59a2:	5483           	addql #2,%d3
    59a4:	2479 0001 4e80 	moveal 14e80 <__malloc_av_+0x10>,%a2
    59aa:	b5fc 0001 4e78 	cmpal #85624,%a2
    59b0:	6600 fecc      	bnew 587e <_malloc_r+0x116>
    59b4:	2239 0001 4e74 	movel 14e74 <__malloc_av_+0x4>,%d1
    59ba:	2003           	movel %d3,%d0
    59bc:	e480           	asrl #2,%d0
    59be:	7801           	moveq #1,%d4
    59c0:	e1ac           	lsll %d0,%d4
    59c2:	b284           	cmpl %d4,%d1
    59c4:	6400 ff32      	bccw 58f8 <_malloc_r+0x190>
    59c8:	2479 0001 4e78 	moveal 14e78 <__malloc_av_+0x8>,%a2
    59ce:	7afc           	moveq #-4,%d5
    59d0:	caaa 0004      	andl %a2@(4),%d5
    59d4:	b485           	cmpl %d5,%d2
    59d6:	620c           	bhis 59e4 <_malloc_r+0x27c>
    59d8:	2005           	movel %d5,%d0
    59da:	9082           	subl %d2,%d0
    59dc:	7c0f           	moveq #15,%d6
    59de:	bc80           	cmpl %d0,%d6
    59e0:	6d00 00a6      	bltw 5a88 <_malloc_r+0x320>
    59e4:	280a           	movel %a2,%d4
    59e6:	d885           	addl %d5,%d4
    59e8:	2602           	movel %d2,%d3
    59ea:	d6b9 0001 570c 	addl 1570c <__malloc_top_pad>,%d3
    59f0:	70ff           	moveq #-1,%d0
    59f2:	b0b9 0001 4e68 	cmpl 14e68 <__malloc_sbrk_base>,%d0
    59f8:	6700 03de      	beqw 5dd8 <_malloc_r+0x670>
    59fc:	0683 0000 100f 	addil #4111,%d3
    5a02:	0243 f000      	andiw #-4096,%d3
    5a06:	2f03           	movel %d3,%sp@-
    5a08:	2f0b           	movel %a3,%sp@-
    5a0a:	4df9 0000 8a00 	lea 8a00 <_sbrk_r>,%fp
    5a10:	4e96           	jsr %fp@
    5a12:	2840           	moveal %d0,%a4
    5a14:	508f           	addql #8,%sp
    5a16:	7cff           	moveq #-1,%d6
    5a18:	bc80           	cmpl %d0,%d6
    5a1a:	6700 0298      	beqw 5cb4 <_malloc_r+0x54c>
    5a1e:	b084           	cmpl %d4,%d0
    5a20:	6500 028a      	bcsw 5cac <_malloc_r+0x544>
    5a24:	4bf9 0001 56dc 	lea 156dc <__malloc_current_mallinfo>,%a5
    5a2a:	2043           	moveal %d3,%a0
    5a2c:	d1d5           	addal %a5@,%a0
    5a2e:	2008           	movel %a0,%d0
    5a30:	2a88           	movel %a0,%a5@
    5a32:	b9c4           	cmpal %d4,%a4
    5a34:	6600 02e4      	bnew 5d1a <_malloc_r+0x5b2>
    5a38:	220c           	movel %a4,%d1
    5a3a:	0281 0000 0fff 	andil #4095,%d1
    5a40:	6600 02d8      	bnew 5d1a <_malloc_r+0x5b2>
    5a44:	2879 0001 4e78 	moveal 14e78 <__malloc_av_+0x8>,%a4
    5a4a:	d685           	addl %d5,%d3
    5a4c:	7001           	moveq #1,%d0
    5a4e:	8680           	orl %d0,%d3
    5a50:	2943 0004      	movel %d3,%a4@(4)
    5a54:	b1f9 0001 5708 	cmpal 15708 <__malloc_max_sbrked_mem>,%a0
    5a5a:	6306           	blss 5a62 <_malloc_r+0x2fa>
    5a5c:	23c8 0001 5708 	movel %a0,15708 <__malloc_max_sbrked_mem>
    5a62:	b1f9 0001 5704 	cmpal 15704 <__malloc_max_total_mem>,%a0
    5a68:	6306           	blss 5a70 <_malloc_r+0x308>
    5a6a:	23c8 0001 5704 	movel %a0,15704 <__malloc_max_total_mem>
    5a70:	244c           	moveal %a4,%a2
    5a72:	7cfc           	moveq #-4,%d6
    5a74:	c686           	andl %d6,%d3
    5a76:	2003           	movel %d3,%d0
    5a78:	9082           	subl %d2,%d0
    5a7a:	b483           	cmpl %d3,%d2
    5a7c:	6200 033c      	bhiw 5dba <_malloc_r+0x652>
    5a80:	720f           	moveq #15,%d1
    5a82:	b280           	cmpl %d0,%d1
    5a84:	6c00 0334      	bgew 5dba <_malloc_r+0x652>
    5a88:	7601           	moveq #1,%d3
    5a8a:	8682           	orl %d2,%d3
    5a8c:	2543 0004      	movel %d3,%a2@(4)
    5a90:	41f2 2800      	lea %a2@(0,%d2:l),%a0
    5a94:	23c8 0001 4e78 	movel %a0,14e78 <__malloc_av_+0x8>
    5a9a:	7801           	moveq #1,%d4
    5a9c:	8880           	orl %d0,%d4
    5a9e:	2144 0004      	movel %d4,%a0@(4)
    5aa2:	2f0b           	movel %a3,%sp@-
    5aa4:	4eb9 0000 7d76 	jsr 7d76 <__malloc_unlock>
    5aaa:	200a           	movel %a2,%d0
    5aac:	5080           	addql #8,%d0
    5aae:	588f           	addql #4,%sp
    5ab0:	6000 fd24      	braw 57d6 <_malloc_r+0x6e>
    5ab4:	226a 0008      	moveal %a2@(8),%a1
    5ab8:	2348 000c      	movel %a0,%a1@(12)
    5abc:	2149 0008      	movel %a1,%a0@(8)
    5ac0:	7a01           	moveq #1,%d5
    5ac2:	8bb2 1804      	orl %d5,%a2@(4,%d1:l)
    5ac6:	2f0b           	movel %a3,%sp@-
    5ac8:	4eb9 0000 7d76 	jsr 7d76 <__malloc_unlock>
    5ace:	200a           	movel %a2,%d0
    5ad0:	5080           	addql #8,%d0
    5ad2:	588f           	addql #4,%sp
    5ad4:	6000 fd00      	braw 57d6 <_malloc_r+0x6e>
    5ad8:	2800           	movel %d0,%d4
    5ada:	7a09           	moveq #9,%d5
    5adc:	eaac           	lsrl %d5,%d4
    5ade:	7c04           	moveq #4,%d6
    5ae0:	bc84           	cmpl %d4,%d6
    5ae2:	6400 01a0      	bccw 5c84 <_malloc_r+0x51c>
    5ae6:	7a14           	moveq #20,%d5
    5ae8:	ba84           	cmpl %d4,%d5
    5aea:	6500 0316      	bcsw 5e02 <_malloc_r+0x69a>
    5aee:	327c 005b      	moveaw #91,%a1
    5af2:	d3c4           	addal %d4,%a1
    5af4:	7c5c           	moveq #92,%d6
    5af6:	d886           	addl %d6,%d4
    5af8:	e78c           	lsll #3,%d4
    5afa:	2044           	moveal %d4,%a0
    5afc:	d1fc 0001 4e70 	addal #85616,%a0
    5b02:	49e8 fff8      	lea %a0@(-8),%a4
    5b06:	2050           	moveal %a0@,%a0
    5b08:	b1cc           	cmpal %a4,%a0
    5b0a:	6700 01de      	beqw 5cea <_malloc_r+0x582>
    5b0e:	78fc           	moveq #-4,%d4
    5b10:	c8a8 0004      	andl %a0@(4),%d4
    5b14:	b084           	cmpl %d4,%d0
    5b16:	6408           	bccs 5b20 <_malloc_r+0x3b8>
    5b18:	2068 0008      	moveal %a0@(8),%a0
    5b1c:	b1cc           	cmpal %a4,%a0
    5b1e:	66ee           	bnes 5b0e <_malloc_r+0x3a6>
    5b20:	2868 000c      	moveal %a0@(12),%a4
    5b24:	254c 000c      	movel %a4,%a2@(12)
    5b28:	2548 0008      	movel %a0,%a2@(8)
    5b2c:	294a 0008      	movel %a2,%a4@(8)
    5b30:	214a 000c      	movel %a2,%a0@(12)
    5b34:	6000 fdb4      	braw 58ea <_malloc_r+0x182>
    5b38:	7814           	moveq #20,%d4
    5b3a:	b883           	cmpl %d3,%d4
    5b3c:	6400 0184      	bccw 5cc2 <_malloc_r+0x55a>
    5b40:	7c54           	moveq #84,%d6
    5b42:	bc83           	cmpl %d3,%d6
    5b44:	6500 02ee      	bcsw 5e34 <_malloc_r+0x6cc>
    5b48:	2602           	movel %d2,%d3
    5b4a:	700c           	moveq #12,%d0
    5b4c:	e0ab           	lsrl %d0,%d3
    5b4e:	387c 006e      	moveaw #110,%a4
    5b52:	d9c3           	addal %d3,%a4
    5b54:	726f           	moveq #111,%d1
    5b56:	d681           	addl %d1,%d3
    5b58:	2003           	movel %d3,%d0
    5b5a:	e788           	lsll #3,%d0
    5b5c:	2040           	moveal %d0,%a0
    5b5e:	d1fc 0001 4e70 	addal #85616,%a0
    5b64:	43e8 fff8      	lea %a0@(-8),%a1
    5b68:	2468 0004      	moveal %a0@(4),%a2
    5b6c:	b5c9           	cmpal %a1,%a2
    5b6e:	6600 fccc      	bnew 583c <_malloc_r+0xd4>
    5b72:	6000 fcfa      	braw 586e <_malloc_r+0x106>
    5b76:	5089           	addql #8,%a1
    5b78:	5285           	addql #1,%d5
    5b7a:	7003           	moveq #3,%d0
    5b7c:	c085           	andl %d5,%d0
    5b7e:	6600 fd9c      	bnew 591c <_malloc_r+0x1b4>
    5b82:	7003           	moveq #3,%d0
    5b84:	c083           	andl %d3,%d0
    5b86:	6700 040e      	beqw 5f96 <_malloc_r+0x82e>
    5b8a:	5383           	subql #1,%d3
    5b8c:	518c           	subql #8,%a4
    5b8e:	b9ec 0008      	cmpal %a4@(8),%a4
    5b92:	67ee           	beqs 5b82 <_malloc_r+0x41a>
    5b94:	2039 0001 4e74 	movel 14e74 <__malloc_av_+0x4>,%d0
    5b9a:	d884           	addl %d4,%d4
    5b9c:	b084           	cmpl %d4,%d0
    5b9e:	6500 fe28      	bcsw 59c8 <_malloc_r+0x260>
    5ba2:	4a84           	tstl %d4
    5ba4:	6700 fe22      	beqw 59c8 <_malloc_r+0x260>
    5ba8:	2204           	movel %d4,%d1
    5baa:	c280           	andl %d0,%d1
    5bac:	6600 03b0      	bnew 5f5e <_malloc_r+0x7f6>
    5bb0:	5885           	addql #4,%d5
    5bb2:	d884           	addl %d4,%d4
    5bb4:	60f2           	bras 5ba8 <_malloc_r+0x440>
    5bb6:	43f2 2800      	lea %a2@(0,%d2:l),%a1
    5bba:	7601           	moveq #1,%d3
    5bbc:	8682           	orl %d2,%d3
    5bbe:	2543 0004      	movel %d3,%a2@(4)
    5bc2:	286a 0008      	moveal %a2@(8),%a4
    5bc6:	2948 000c      	movel %a0,%a4@(12)
    5bca:	214c 0008      	movel %a4,%a0@(8)
    5bce:	23c9 0001 4e84 	movel %a1,14e84 <__malloc_av_+0x14>
    5bd4:	23c9 0001 4e80 	movel %a1,14e80 <__malloc_av_+0x10>
    5bda:	237c 0001 4e78 	movel #85624,%a1@(12)
    5be0:	000c 
    5be2:	237c 0001 4e78 	movel #85624,%a1@(8)
    5be8:	0008 
    5bea:	7801           	moveq #1,%d4
    5bec:	8880           	orl %d0,%d4
    5bee:	2344 0004      	movel %d4,%a1@(4)
    5bf2:	2580 1800      	movel %d0,%a2@(0,%d1:l)
    5bf6:	2f0b           	movel %a3,%sp@-
    5bf8:	4eb9 0000 7d76 	jsr 7d76 <__malloc_unlock>
    5bfe:	200a           	movel %a2,%d0
    5c00:	5080           	addql #8,%d0
    5c02:	588f           	addql #4,%sp
    5c04:	6000 fbd0      	braw 57d6 <_malloc_r+0x6e>
    5c08:	7a01           	moveq #1,%d5
    5c0a:	8bb2 0804      	orl %d5,%a2@(4,%d0:l)
    5c0e:	2f0b           	movel %a3,%sp@-
    5c10:	4eb9 0000 7d76 	jsr 7d76 <__malloc_unlock>
    5c16:	200a           	movel %a2,%d0
    5c18:	5080           	addql #8,%d0
    5c1a:	588f           	addql #4,%sp
    5c1c:	6000 fbb8      	braw 57d6 <_malloc_r+0x6e>
    5c20:	e68b           	lsrl #3,%d3
    5c22:	2042           	moveal %d2,%a0
    5c24:	5088           	addql #8,%a0
    5c26:	d1fc 0001 4e70 	addal #85616,%a0
    5c2c:	2468 0004      	moveal %a0@(4),%a2
    5c30:	2008           	movel %a0,%d0
    5c32:	5180           	subql #8,%d0
    5c34:	b08a           	cmpl %a2,%d0
    5c36:	6600 fb74      	bnew 57ac <_malloc_r+0x44>
    5c3a:	6000 fd5c      	braw 5998 <_malloc_r+0x230>
    5c3e:	41f2 2800      	lea %a2@(0,%d2:l),%a0
    5c42:	7601           	moveq #1,%d3
    5c44:	8682           	orl %d2,%d3
    5c46:	2543 0004      	movel %d3,%a2@(4)
    5c4a:	23c8 0001 4e84 	movel %a0,14e84 <__malloc_av_+0x14>
    5c50:	23c8 0001 4e80 	movel %a0,14e80 <__malloc_av_+0x10>
    5c56:	217c 0001 4e78 	movel #85624,%a0@(12)
    5c5c:	000c 
    5c5e:	217c 0001 4e78 	movel #85624,%a0@(8)
    5c64:	0008 
    5c66:	7801           	moveq #1,%d4
    5c68:	8881           	orl %d1,%d4
    5c6a:	2144 0004      	movel %d4,%a0@(4)
    5c6e:	2581 0800      	movel %d1,%a2@(0,%d0:l)
    5c72:	2f0b           	movel %a3,%sp@-
    5c74:	4eb9 0000 7d76 	jsr 7d76 <__malloc_unlock>
    5c7a:	200a           	movel %a2,%d0
    5c7c:	5080           	addql #8,%d0
    5c7e:	588f           	addql #4,%sp
    5c80:	6000 fb54      	braw 57d6 <_malloc_r+0x6e>
    5c84:	2800           	movel %d0,%d4
    5c86:	ec8c           	lsrl #6,%d4
    5c88:	2044           	moveal %d4,%a0
    5c8a:	43e8 0038      	lea %a0@(56),%a1
    5c8e:	41e8 0039      	lea %a0@(57),%a0
    5c92:	2808           	movel %a0,%d4
    5c94:	e78c           	lsll #3,%d4
    5c96:	2044           	moveal %d4,%a0
    5c98:	d1fc 0001 4e70 	addal #85616,%a0
    5c9e:	49e8 fff8      	lea %a0@(-8),%a4
    5ca2:	2050           	moveal %a0@,%a0
    5ca4:	b1cc           	cmpal %a4,%a0
    5ca6:	6600 fe66      	bnew 5b0e <_malloc_r+0x3a6>
    5caa:	603e           	bras 5cea <_malloc_r+0x582>
    5cac:	b5fc 0001 4e70 	cmpal #85616,%a2
    5cb2:	675a           	beqs 5d0e <_malloc_r+0x5a6>
    5cb4:	2479 0001 4e78 	moveal 14e78 <__malloc_av_+0x8>,%a2
    5cba:	262a 0004      	movel %a2@(4),%d3
    5cbe:	6000 fdb2      	braw 5a72 <_malloc_r+0x30a>
    5cc2:	387c 005b      	moveaw #91,%a4
    5cc6:	d9c3           	addal %d3,%a4
    5cc8:	7a5c           	moveq #92,%d5
    5cca:	d685           	addl %d5,%d3
    5ccc:	2003           	movel %d3,%d0
    5cce:	e788           	lsll #3,%d0
    5cd0:	2040           	moveal %d0,%a0
    5cd2:	d1fc 0001 4e70 	addal #85616,%a0
    5cd8:	43e8 fff8      	lea %a0@(-8),%a1
    5cdc:	2468 0004      	moveal %a0@(4),%a2
    5ce0:	b5c9           	cmpal %a1,%a2
    5ce2:	6600 fb58      	bnew 583c <_malloc_r+0xd4>
    5ce6:	6000 fb86      	braw 586e <_malloc_r+0x106>
    5cea:	2009           	movel %a1,%d0
    5cec:	e480           	asrl #2,%d0
    5cee:	7801           	moveq #1,%d4
    5cf0:	e1ac           	lsll %d0,%d4
    5cf2:	8284           	orl %d4,%d1
    5cf4:	23c1 0001 4e74 	movel %d1,14e74 <__malloc_av_+0x4>
    5cfa:	254c 000c      	movel %a4,%a2@(12)
    5cfe:	2548 0008      	movel %a0,%a2@(8)
    5d02:	294a 0008      	movel %a2,%a4@(8)
    5d06:	214a 000c      	movel %a2,%a0@(12)
    5d0a:	6000 fbde      	braw 58ea <_malloc_r+0x182>
    5d0e:	4bf9 0001 56dc 	lea 156dc <__malloc_current_mallinfo>,%a5
    5d14:	2003           	movel %d3,%d0
    5d16:	d095           	addl %a5@,%d0
    5d18:	2a80           	movel %d0,%a5@
    5d1a:	72ff           	moveq #-1,%d1
    5d1c:	b2b9 0001 4e68 	cmpl 14e68 <__malloc_sbrk_base>,%d1
    5d22:	6700 0146      	beqw 5e6a <_malloc_r+0x702>
    5d26:	220c           	movel %a4,%d1
    5d28:	9284           	subl %d4,%d1
    5d2a:	d280           	addl %d0,%d1
    5d2c:	2a81           	movel %d1,%a5@
    5d2e:	2c0c           	movel %a4,%d6
    5d30:	7807           	moveq #7,%d4
    5d32:	cc84           	andl %d4,%d6
    5d34:	6700 00aa      	beqw 5de0 <_malloc_r+0x678>
    5d38:	7008           	moveq #8,%d0
    5d3a:	9086           	subl %d6,%d0
    5d3c:	d9c0           	addal %d0,%a4
    5d3e:	d68c           	addl %a4,%d3
    5d40:	283c 0000 1008 	movel #4104,%d4
    5d46:	9886           	subl %d6,%d4
    5d48:	9883           	subl %d3,%d4
    5d4a:	0284 0000 0fff 	andil #4095,%d4
    5d50:	2f04           	movel %d4,%sp@-
    5d52:	2f0b           	movel %a3,%sp@-
    5d54:	4e96           	jsr %fp@
    5d56:	508f           	addql #8,%sp
    5d58:	72ff           	moveq #-1,%d1
    5d5a:	b280           	cmpl %d0,%d1
    5d5c:	676c           	beqs 5dca <_malloc_r+0x662>
    5d5e:	908c           	subl %a4,%d0
    5d60:	2600           	movel %d0,%d3
    5d62:	d684           	addl %d4,%d3
    5d64:	2044           	moveal %d4,%a0
    5d66:	d1d5           	addal %a5@,%a0
    5d68:	2a88           	movel %a0,%a5@
    5d6a:	23cc 0001 4e78 	movel %a4,14e78 <__malloc_av_+0x8>
    5d70:	7001           	moveq #1,%d0
    5d72:	8680           	orl %d0,%d3
    5d74:	2943 0004      	movel %d3,%a4@(4)
    5d78:	b5fc 0001 4e70 	cmpal #85616,%a2
    5d7e:	6700 fcd4      	beqw 5a54 <_malloc_r+0x2ec>
    5d82:	720f           	moveq #15,%d1
    5d84:	b285           	cmpl %d5,%d1
    5d86:	642e           	bccs 5db6 <_malloc_r+0x64e>
    5d88:	72f4           	moveq #-12,%d1
    5d8a:	d285           	addl %d5,%d1
    5d8c:	76f8           	moveq #-8,%d3
    5d8e:	c283           	andl %d3,%d1
    5d90:	7001           	moveq #1,%d0
    5d92:	c0aa 0004      	andl %a2@(4),%d0
    5d96:	8081           	orl %d1,%d0
    5d98:	2540 0004      	movel %d0,%a2@(4)
    5d9c:	7805           	moveq #5,%d4
    5d9e:	2584 1804      	movel %d4,%a2@(4,%d1:l)
    5da2:	2584 1808      	movel %d4,%a2@(8,%d1:l)
    5da6:	7a0f           	moveq #15,%d5
    5da8:	ba81           	cmpl %d1,%d5
    5daa:	6500 0138      	bcsw 5ee4 <_malloc_r+0x77c>
    5dae:	262c 0004      	movel %a4@(4),%d3
    5db2:	6000 fca0      	braw 5a54 <_malloc_r+0x2ec>
    5db6:	2940 0004      	movel %d0,%a4@(4)
    5dba:	2f0b           	movel %a3,%sp@-
    5dbc:	4eb9 0000 7d76 	jsr 7d76 <__malloc_unlock>
    5dc2:	588f           	addql #4,%sp
    5dc4:	7000           	moveq #0,%d0
    5dc6:	6000 fba4      	braw 596c <_malloc_r+0x204>
    5dca:	2243           	moveal %d3,%a1
    5dcc:	41f1 68f8      	lea %a1@(fffffffffffffff8,%d6:l),%a0
    5dd0:	2608           	movel %a0,%d3
    5dd2:	968c           	subl %a4,%d3
    5dd4:	7800           	moveq #0,%d4
    5dd6:	608c           	bras 5d64 <_malloc_r+0x5fc>
    5dd8:	7210           	moveq #16,%d1
    5dda:	d681           	addl %d1,%d3
    5ddc:	6000 fc28      	braw 5a06 <_malloc_r+0x29e>
    5de0:	280c           	movel %a4,%d4
    5de2:	d883           	addl %d3,%d4
    5de4:	4484           	negl %d4
    5de6:	0284 0000 0fff 	andil #4095,%d4
    5dec:	2f04           	movel %d4,%sp@-
    5dee:	2f0b           	movel %a3,%sp@-
    5df0:	4e96           	jsr %fp@
    5df2:	508f           	addql #8,%sp
    5df4:	7cff           	moveq #-1,%d6
    5df6:	bc80           	cmpl %d0,%d6
    5df8:	6600 ff64      	bnew 5d5e <_malloc_r+0x5f6>
    5dfc:	7800           	moveq #0,%d4
    5dfe:	6000 ff64      	braw 5d64 <_malloc_r+0x5fc>
    5e02:	7a54           	moveq #84,%d5
    5e04:	ba84           	cmpl %d4,%d5
    5e06:	656c           	bcss 5e74 <_malloc_r+0x70c>
    5e08:	2c00           	movel %d0,%d6
    5e0a:	780c           	moveq #12,%d4
    5e0c:	e8ae           	lsrl %d4,%d6
    5e0e:	2046           	moveal %d6,%a0
    5e10:	43e8 006e      	lea %a0@(110),%a1
    5e14:	41e8 006f      	lea %a0@(111),%a0
    5e18:	2808           	movel %a0,%d4
    5e1a:	e78c           	lsll #3,%d4
    5e1c:	2044           	moveal %d4,%a0
    5e1e:	d1fc 0001 4e70 	addal #85616,%a0
    5e24:	49e8 fff8      	lea %a0@(-8),%a4
    5e28:	2050           	moveal %a0@,%a0
    5e2a:	b1cc           	cmpal %a4,%a0
    5e2c:	6600 fce0      	bnew 5b0e <_malloc_r+0x3a6>
    5e30:	6000 feb8      	braw 5cea <_malloc_r+0x582>
    5e34:	0c83 0000 0154 	cmpil #340,%d3
    5e3a:	626e           	bhis 5eaa <_malloc_r+0x742>
    5e3c:	2602           	movel %d2,%d3
    5e3e:	780f           	moveq #15,%d4
    5e40:	e8ab           	lsrl %d4,%d3
    5e42:	387c 0077      	moveaw #119,%a4
    5e46:	d9c3           	addal %d3,%a4
    5e48:	7a78           	moveq #120,%d5
    5e4a:	d685           	addl %d5,%d3
    5e4c:	2003           	movel %d3,%d0
    5e4e:	e788           	lsll #3,%d0
    5e50:	2040           	moveal %d0,%a0
    5e52:	d1fc 0001 4e70 	addal #85616,%a0
    5e58:	43e8 fff8      	lea %a0@(-8),%a1
    5e5c:	2468 0004      	moveal %a0@(4),%a2
    5e60:	b5c9           	cmpal %a1,%a2
    5e62:	6600 f9d8      	bnew 583c <_malloc_r+0xd4>
    5e66:	6000 fa06      	braw 586e <_malloc_r+0x106>
    5e6a:	23cc 0001 4e68 	movel %a4,14e68 <__malloc_sbrk_base>
    5e70:	6000 febc      	braw 5d2e <_malloc_r+0x5c6>
    5e74:	0c84 0000 0154 	cmpil #340,%d4
    5e7a:	6200 0086      	bhiw 5f02 <_malloc_r+0x79a>
    5e7e:	2a00           	movel %d0,%d5
    5e80:	7c0f           	moveq #15,%d6
    5e82:	ecad           	lsrl %d6,%d5
    5e84:	2045           	moveal %d5,%a0
    5e86:	43e8 0077      	lea %a0@(119),%a1
    5e8a:	41e8 0078      	lea %a0@(120),%a0
    5e8e:	2808           	movel %a0,%d4
    5e90:	e78c           	lsll #3,%d4
    5e92:	2044           	moveal %d4,%a0
    5e94:	d1fc 0001 4e70 	addal #85616,%a0
    5e9a:	49e8 fff8      	lea %a0@(-8),%a4
    5e9e:	2050           	moveal %a0@,%a0
    5ea0:	b1cc           	cmpal %a4,%a0
    5ea2:	6600 fc6a      	bnew 5b0e <_malloc_r+0x3a6>
    5ea6:	6000 fe42      	braw 5cea <_malloc_r+0x582>
    5eaa:	0c83 0000 0554 	cmpil #1364,%d3
    5eb0:	6200 0086      	bhiw 5f38 <_malloc_r+0x7d0>
    5eb4:	2602           	movel %d2,%d3
    5eb6:	4243           	clrw %d3
    5eb8:	4843           	swap %d3
    5eba:	e44b           	lsrw #2,%d3
    5ebc:	387c 007c      	moveaw #124,%a4
    5ec0:	d9c3           	addal %d3,%a4
    5ec2:	7c7d           	moveq #125,%d6
    5ec4:	d686           	addl %d6,%d3
    5ec6:	2003           	movel %d3,%d0
    5ec8:	e788           	lsll #3,%d0
    5eca:	2040           	moveal %d0,%a0
    5ecc:	d1fc 0001 4e70 	addal #85616,%a0
    5ed2:	43e8 fff8      	lea %a0@(-8),%a1
    5ed6:	2468 0004      	moveal %a0@(4),%a2
    5eda:	b5c9           	cmpal %a1,%a2
    5edc:	6600 f95e      	bnew 583c <_malloc_r+0xd4>
    5ee0:	6000 f98c      	braw 586e <_malloc_r+0x106>
    5ee4:	486a 0008      	pea %a2@(8)
    5ee8:	2f0b           	movel %a3,%sp@-
    5eea:	4eb9 0000 a6ca 	jsr a6ca <_free_r>
    5ef0:	2055           	moveal %a5@,%a0
    5ef2:	2879 0001 4e78 	moveal 14e78 <__malloc_av_+0x8>,%a4
    5ef8:	262c 0004      	movel %a4@(4),%d3
    5efc:	508f           	addql #8,%sp
    5efe:	6000 fb54      	braw 5a54 <_malloc_r+0x2ec>
    5f02:	0c84 0000 0554 	cmpil #1364,%d4
    5f08:	626a           	bhis 5f74 <_malloc_r+0x80c>
    5f0a:	2800           	movel %d0,%d4
    5f0c:	4244           	clrw %d4
    5f0e:	4844           	swap %d4
    5f10:	e44c           	lsrw #2,%d4
    5f12:	2044           	moveal %d4,%a0
    5f14:	43e8 007c      	lea %a0@(124),%a1
    5f18:	41e8 007d      	lea %a0@(125),%a0
    5f1c:	2808           	movel %a0,%d4
    5f1e:	e78c           	lsll #3,%d4
    5f20:	2044           	moveal %d4,%a0
    5f22:	d1fc 0001 4e70 	addal #85616,%a0
    5f28:	49e8 fff8      	lea %a0@(-8),%a4
    5f2c:	2050           	moveal %a0@,%a0
    5f2e:	b1cc           	cmpal %a4,%a0
    5f30:	6600 fbdc      	bnew 5b0e <_malloc_r+0x3a6>
    5f34:	6000 fdb4      	braw 5cea <_malloc_r+0x582>
    5f38:	203c 0000 03f8 	movel #1016,%d0
    5f3e:	767f           	moveq #127,%d3
    5f40:	387c 007e      	moveaw #126,%a4
    5f44:	2040           	moveal %d0,%a0
    5f46:	d1fc 0001 4e70 	addal #85616,%a0
    5f4c:	43e8 fff8      	lea %a0@(-8),%a1
    5f50:	2468 0004      	moveal %a0@(4),%a2
    5f54:	b5c9           	cmpal %a1,%a2
    5f56:	6600 f8e4      	bnew 583c <_malloc_r+0xd4>
    5f5a:	6000 f912      	braw 586e <_malloc_r+0x106>
    5f5e:	2605           	movel %d5,%d3
    5f60:	2003           	movel %d3,%d0
    5f62:	e788           	lsll #3,%d0
    5f64:	2840           	moveal %d0,%a4
    5f66:	d9fc 0001 4e70 	addal #85616,%a4
    5f6c:	224c           	moveal %a4,%a1
    5f6e:	2a03           	movel %d3,%d5
    5f70:	6000 f9aa      	braw 591c <_malloc_r+0x1b4>
    5f74:	283c 0000 03f8 	movel #1016,%d4
    5f7a:	327c 007e      	moveaw #126,%a1
    5f7e:	2044           	moveal %d4,%a0
    5f80:	d1fc 0001 4e70 	addal #85616,%a0
    5f86:	49e8 fff8      	lea %a0@(-8),%a4
    5f8a:	2050           	moveal %a0@,%a0
    5f8c:	b1cc           	cmpal %a4,%a0
    5f8e:	6600 fb7e      	bnew 5b0e <_malloc_r+0x3a6>
    5f92:	6000 fd56      	braw 5cea <_malloc_r+0x582>
    5f96:	2004           	movel %d4,%d0
    5f98:	4680           	notl %d0
    5f9a:	c0b9 0001 4e74 	andl 14e74 <__malloc_av_+0x4>,%d0
    5fa0:	23c0 0001 4e74 	movel %d0,14e74 <__malloc_av_+0x4>
    5fa6:	6000 fbf2      	braw 5b9a <_malloc_r+0x432>
	...

00005fac <_vfprintf_r>:
    5fac:	4e56 ff20      	linkw %fp,#-224
    5fb0:	48e7 3f3c      	moveml %d2-%d7/%a2-%a5,%sp@-
    5fb4:	2d6e 0008 ff30 	movel %fp@(8),%fp@(-208)
    5fba:	2d6e 000c ff2c 	movel %fp@(12),%fp@(-212)
    5fc0:	2d6e 0010 ff28 	movel %fp@(16),%fp@(-216)
    5fc6:	2d6e 0014 ff38 	movel %fp@(20),%fp@(-200)
    5fcc:	2f2e ff30      	movel %fp@(-208),%sp@-
    5fd0:	4eb9 0000 88a4 	jsr 88a4 <_localeconv_r>
    5fd6:	2040           	moveal %d0,%a0
    5fd8:	2d50 ff50      	movel %a0@,%fp@(-176)
    5fdc:	2f2e ff50      	movel %fp@(-176),%sp@-
    5fe0:	4eb9 0000 8a60 	jsr 8a60 <strlen>
    5fe6:	2d40 ff4c      	movel %d0,%fp@(-180)
    5fea:	508f           	addql #8,%sp
    5fec:	4aae ff30      	tstl %fp@(-208)
    5ff0:	670c           	beqs 5ffe <_vfprintf_r+0x52>
    5ff2:	226e ff30      	moveal %fp@(-208),%a1
    5ff6:	4aa9 0032      	tstl %a1@(50)
    5ffa:	6700 1198      	beqw 7194 <_vfprintf_r+0x11e8>
    5ffe:	206e ff2c      	moveal %fp@(-212),%a0
    6002:	2028 0064      	movel %a0@(100),%d0
    6006:	3228 000c      	movew %a0@(12),%d1
    600a:	0801 000d      	btst #13,%d1
    600e:	6610           	bnes 6020 <_vfprintf_r+0x74>
    6010:	0041 2000      	oriw #8192,%d1
    6014:	3141 000c      	movew %d1,%a0@(12)
    6018:	0240 dfff      	andiw #-8193,%d0
    601c:	2140 0064      	movel %d0,%a0@(100)
    6020:	0800 000d      	btst #13,%d0
    6024:	6600 189c      	bnew 78c2 <_vfprintf_r+0x1916>
    6028:	206e ff2c      	moveal %fp@(-212),%a0
    602c:	3028 000c      	movew %a0@(12),%d0
    6030:	0800 0003      	btst #3,%d0
    6034:	6700 01de      	beqw 6214 <_vfprintf_r+0x268>
    6038:	4aa8 0010      	tstl %a0@(16)
    603c:	6700 01d6      	beqw 6214 <_vfprintf_r+0x268>
    6040:	0240 001a      	andiw #26,%d0
    6044:	0c40 000a      	cmpiw #10,%d0
    6048:	6700 0490      	beqw 64da <_vfprintf_r+0x52e>
    604c:	43ee ffc0      	lea %fp@(-64),%a1
    6050:	2d49 ff8c      	movel %a1,%fp@(-116)
    6054:	42ae ff94      	clrl %fp@(-108)
    6058:	42ae ff90      	clrl %fp@(-112)
    605c:	42ae ff40      	clrl %fp@(-192)
    6060:	42ae ff44      	clrl %fp@(-188)
    6064:	42ae ff48      	clrl %fp@(-184)
    6068:	2d49 ff24      	movel %a1,%fp@(-220)
    606c:	2849           	moveal %a1,%a4
    606e:	42ae ff58      	clrl %fp@(-168)
    6072:	42ae ff54      	clrl %fp@(-172)
    6076:	42ae ff34      	clrl %fp@(-204)
    607a:	2d6e ff28 ff20 	movel %fp@(-216),%fp@(-224)
    6080:	226e ff20      	moveal %fp@(-224),%a1
    6084:	1011           	moveb %a1@,%d0
    6086:	6700 0226      	beqw 62ae <_vfprintf_r+0x302>
    608a:	246e ff20      	moveal %fp@(-224),%a2
    608e:	0c00 0025      	cmpib #37,%d0
    6092:	6700 01c4      	beqw 6258 <_vfprintf_r+0x2ac>
    6096:	528a           	addql #1,%a2
    6098:	1012           	moveb %a2@,%d0
    609a:	66f2           	bnes 608e <_vfprintf_r+0xe2>
    609c:	264a           	moveal %a2,%a3
    609e:	97ee ff20      	subal %fp@(-224),%a3
    60a2:	b5ee ff20      	cmpal %fp@(-224),%a2
    60a6:	6700 0206      	beqw 62ae <_vfprintf_r+0x302>
    60aa:	28ae ff20      	movel %fp@(-224),%a4@
    60ae:	294b 0004      	movel %a3,%a4@(4)
    60b2:	200b           	movel %a3,%d0
    60b4:	d1ae ff94      	addl %d0,%fp@(-108)
    60b8:	202e ff90      	movel %fp@(-112),%d0
    60bc:	5280           	addql #1,%d0
    60be:	2d40 ff90      	movel %d0,%fp@(-112)
    60c2:	7207           	moveq #7,%d1
    60c4:	b280           	cmpl %d0,%d1
    60c6:	6d00 01be      	bltw 6286 <_vfprintf_r+0x2da>
    60ca:	508c           	addql #8,%a4
    60cc:	240b           	movel %a3,%d2
    60ce:	d5ae ff34      	addl %d2,%fp@(-204)
    60d2:	1012           	moveb %a2@,%d0
    60d4:	6700 01d8      	beqw 62ae <_vfprintf_r+0x302>
    60d8:	528a           	addql #1,%a2
    60da:	422e ff71      	clrb %fp@(-143)
    60de:	74ff           	moveq #-1,%d2
    60e0:	7600           	moveq #0,%d3
    60e2:	7c00           	moveq #0,%d6
    60e4:	2d4a ff28      	movel %a2,%fp@(-216)
    60e8:	206e ff28      	moveal %fp@(-216),%a0
    60ec:	52ae ff28      	addql #1,%fp@(-216)
    60f0:	1018           	moveb %a0@+,%d0
    60f2:	4880           	extw %d0
    60f4:	3640           	moveaw %d0,%a3
    60f6:	41eb ffe0      	lea %a3@(-32),%a0
    60fa:	7058           	moveq #88,%d0
    60fc:	b088           	cmpl %a0,%d0
    60fe:	6500 01d2      	bcsw 62d2 <_vfprintf_r+0x326>
    6102:	2008           	movel %a0,%d0
    6104:	d080           	addl %d0,%d0
    6106:	303b 0806      	movew %pc@(610e <_vfprintf_r+0x162>,%d0:l),%d0
    610a:	4efb 0002      	jmp %pc@(610e <_vfprintf_r+0x162>,%d0:w)
    610e:	0926           	btst %d4,%fp@-
    6110:	01c4           	bset %d0,%d4
    6112:	01c4           	bset %d0,%d4
    6114:	0910           	btst %d4,%a0@
    6116:	01c4           	bset %d0,%d4
    6118:	01c4           	bset %d0,%d4
    611a:	01c4           	bset %d0,%d4
    611c:	01c4           	bset %d0,%d4
    611e:	01c4           	bset %d0,%d4
    6120:	01c4           	bset %d0,%d4
    6122:	0864 08f8      	bchg #-8,%a4@-
    6126:	01c4           	bset %d0,%d4
    6128:	0874 088a 01c4 	bchg #-118,@(0)@(0)
    612e:	08e0 00b2      	bset #-78,%a0@-
    6132:	00b2 00b2 00b2 	oril #11665586,%a2@(ffffffffffffffb2,%d0:w)
    6138:	00b2 
    613a:	00b2 00b2 00b2 	oril #11665586,%a2@(ffffffffffffffb2,%d0:w)
    6140:	00b2 
    6142:	01c4           	bset %d0,%d4
    6144:	01c4           	bset %d0,%d4
    6146:	01c4           	bset %d0,%d4
    6148:	01c4           	bset %d0,%d4
    614a:	01c4           	bset %d0,%d4
    614c:	01c4           	bset %d0,%d4
    614e:	01c4           	bset %d0,%d4
    6150:	01c4           	bset %d0,%d4
    6152:	01c4           	bset %d0,%d4
    6154:	01c4           	bset %d0,%d4
    6156:	07c2           	bset %d3,%d2
    6158:	02d6           	.short 0x02d6
    615a:	01c4           	bset %d0,%d4
    615c:	02d6           	.short 0x02d6
    615e:	01c4           	bset %d0,%d4
    6160:	01c4           	bset %d0,%d4
    6162:	01c4           	bset %d0,%d4
    6164:	01c4           	bset %d0,%d4
    6166:	097c           	.short 0x097c
    6168:	01c4           	bset %d0,%d4
    616a:	01c4           	bset %d0,%d4
    616c:	09e6           	bset %d4,%fp@-
    616e:	01c4           	bset %d0,%d4
    6170:	01c4           	bset %d0,%d4
    6172:	01c4           	bset %d0,%d4
    6174:	01c4           	bset %d0,%d4
    6176:	01c4           	bset %d0,%d4
    6178:	0992           	bclr %d4,%a2@
    617a:	01c4           	bset %d0,%d4
    617c:	01c4           	bset %d0,%d4
    617e:	10dc           	moveb %a4@+,%a0@+
    6180:	01c4           	bset %d0,%d4
    6182:	01c4           	bset %d0,%d4
    6184:	01c4           	bset %d0,%d4
    6186:	01c4           	bset %d0,%d4
    6188:	01c4           	bset %d0,%d4
    618a:	01c4           	bset %d0,%d4
    618c:	01c4           	bset %d0,%d4
    618e:	01c4           	bset %d0,%d4
    6190:	01c4           	bset %d0,%d4
    6192:	01c4           	bset %d0,%d4
    6194:	0946           	bchg %d4,%d6
    6196:	0748 02d6      	movepl %a0@(726),%d3
    619a:	02d6           	.short 0x02d6
    619c:	02d6           	.short 0x02d6
    619e:	0a02 0748      	eorib #72,%d2
    61a2:	01c4           	bset %d0,%d4
    61a4:	01c4           	bset %d0,%d4
    61a6:	0134 01c4      	btst %d0,@(0)@(0)
    61aa:	0af8           	.short 0x0af8
    61ac:	0acc           	.short 0x0acc
    61ae:	0aa0 0134 01c4 	eoril #20185540,%a0@-
    61b4:	0a44 01c4      	eoriw #452,%d4
    61b8:	0a18 01c4      	eorib #-60,%a0@+
    61bc:	01c4           	bset %d0,%d4
    61be:	112c 7600      	moveb %a4@(30208),%a0@-
    61c2:	41eb ffd0      	lea %a3@(-48),%a0
    61c6:	2003           	movel %d3,%d0
    61c8:	d083           	addl %d3,%d0
    61ca:	d080           	addl %d0,%d0
    61cc:	d680           	addl %d0,%d3
    61ce:	d683           	addl %d3,%d3
    61d0:	d688           	addl %a0,%d3
    61d2:	206e ff28      	moveal %fp@(-216),%a0
    61d6:	52ae ff28      	addql #1,%fp@(-216)
    61da:	1018           	moveb %a0@+,%d0
    61dc:	4880           	extw %d0
    61de:	3640           	moveaw %d0,%a3
    61e0:	41eb ffd0      	lea %a3@(-48),%a0
    61e4:	7009           	moveq #9,%d0
    61e6:	b088           	cmpl %a0,%d0
    61e8:	6500 ff0c      	bcsw 60f6 <_vfprintf_r+0x14a>
    61ec:	2003           	movel %d3,%d0
    61ee:	d083           	addl %d3,%d0
    61f0:	d080           	addl %d0,%d0
    61f2:	d680           	addl %d0,%d3
    61f4:	d683           	addl %d3,%d3
    61f6:	d688           	addl %a0,%d3
    61f8:	206e ff28      	moveal %fp@(-216),%a0
    61fc:	52ae ff28      	addql #1,%fp@(-216)
    6200:	1018           	moveb %a0@+,%d0
    6202:	4880           	extw %d0
    6204:	3640           	moveaw %d0,%a3
    6206:	41eb ffd0      	lea %a3@(-48),%a0
    620a:	7009           	moveq #9,%d0
    620c:	b088           	cmpl %a0,%d0
    620e:	64b6           	bccs 61c6 <_vfprintf_r+0x21a>
    6210:	6000 fee4      	braw 60f6 <_vfprintf_r+0x14a>
    6214:	2f2e ff2c      	movel %fp@(-212),%sp@-
    6218:	2f2e ff30      	movel %fp@(-208),%sp@-
    621c:	4eb9 0000 85dc 	jsr 85dc <__swsetup_r>
    6222:	508f           	addql #8,%sp
    6224:	4a80           	tstl %d0
    6226:	6600 169a      	bnew 78c2 <_vfprintf_r+0x1916>
    622a:	226e ff2c      	moveal %fp@(-212),%a1
    622e:	3029 000c      	movew %a1@(12),%d0
    6232:	0240 001a      	andiw #26,%d0
    6236:	0c40 000a      	cmpiw #10,%d0
    623a:	6600 fe10      	bnew 604c <_vfprintf_r+0xa0>
    623e:	6000 029a      	braw 64da <_vfprintf_r+0x52e>
    6242:	7a10           	moveq #16,%d5
    6244:	8c85           	orl %d5,%d6
    6246:	206e ff28      	moveal %fp@(-216),%a0
    624a:	52ae ff28      	addql #1,%fp@(-216)
    624e:	1018           	moveb %a0@+,%d0
    6250:	4880           	extw %d0
    6252:	3640           	moveaw %d0,%a3
    6254:	6000 fea0      	braw 60f6 <_vfprintf_r+0x14a>
    6258:	264a           	moveal %a2,%a3
    625a:	97ee ff20      	subal %fp@(-224),%a3
    625e:	b5ee ff20      	cmpal %fp@(-224),%a2
    6262:	6700 fe6e      	beqw 60d2 <_vfprintf_r+0x126>
    6266:	28ae ff20      	movel %fp@(-224),%a4@
    626a:	294b 0004      	movel %a3,%a4@(4)
    626e:	200b           	movel %a3,%d0
    6270:	d1ae ff94      	addl %d0,%fp@(-108)
    6274:	202e ff90      	movel %fp@(-112),%d0
    6278:	5280           	addql #1,%d0
    627a:	2d40 ff90      	movel %d0,%fp@(-112)
    627e:	7207           	moveq #7,%d1
    6280:	b280           	cmpl %d0,%d1
    6282:	6c00 fe46      	bgew 60ca <_vfprintf_r+0x11e>
    6286:	486e ff8c      	pea %fp@(-116)
    628a:	2f2e ff2c      	movel %fp@(-212),%sp@-
    628e:	2f2e ff30      	movel %fp@(-208),%sp@-
    6292:	4eb9 0000 7d78 	jsr 7d78 <__sprint_r>
    6298:	4fef 000c      	lea %sp@(12),%sp
    629c:	4a80           	tstl %d0
    629e:	6616           	bnes 62b6 <_vfprintf_r+0x30a>
    62a0:	49ee ffc0      	lea %fp@(-64),%a4
    62a4:	240b           	movel %a3,%d2
    62a6:	d5ae ff34      	addl %d2,%fp@(-204)
    62aa:	6000 fe26      	braw 60d2 <_vfprintf_r+0x126>
    62ae:	4aae ff94      	tstl %fp@(-108)
    62b2:	6600 15b2      	bnew 7866 <_vfprintf_r+0x18ba>
    62b6:	206e ff2c      	moveal %fp@(-212),%a0
    62ba:	0828 0006 000d 	btst #6,%a0@(13)
    62c0:	6600 1600      	bnew 78c2 <_vfprintf_r+0x1916>
    62c4:	202e ff34      	movel %fp@(-204),%d0
    62c8:	4cee 3cfc fef8 	moveml %fp@(-264),%d2-%d7/%a2-%a5
    62ce:	4e5e           	unlk %fp
    62d0:	4e75           	rts
    62d2:	2d6e ff28 ff20 	movel %fp@(-216),%fp@(-224)
    62d8:	b6fc 0000      	cmpaw #0,%a3
    62dc:	67d0           	beqs 62ae <_vfprintf_r+0x302>
    62de:	340b           	movew %a3,%d2
    62e0:	1d42 ff98      	moveb %d2,%fp@(-104)
    62e4:	422e ff71      	clrb %fp@(-143)
    62e8:	7801           	moveq #1,%d4
    62ea:	2d44 ff28      	movel %d4,%fp@(-216)
    62ee:	7a01           	moveq #1,%d5
    62f0:	7e98           	moveq #-104,%d7
    62f2:	de8e           	addl %fp,%d7
    62f4:	2806           	movel %d6,%d4
    62f6:	7400           	moveq #0,%d2
    62f8:	42ae ff3c      	clrl %fp@(-196)
    62fc:	9bcd           	subal %a5,%a5
    62fe:	7c7b           	moveq #123,%d6
    6300:	4606           	notb %d6
    6302:	cc84           	andl %d4,%d6
    6304:	246e ff94      	moveal %fp@(-108),%a2
    6308:	660e           	bnes 6318 <_vfprintf_r+0x36c>
    630a:	2243           	moveal %d3,%a1
    630c:	93ee ff28      	subal %fp@(-216),%a1
    6310:	b2fc 0000      	cmpaw #0,%a1
    6314:	6e00 0430      	bgtw 6746 <_vfprintf_r+0x79a>
    6318:	4a2e ff71      	tstb %fp@(-143)
    631c:	6726           	beqs 6344 <_vfprintf_r+0x398>
    631e:	41ee ff71      	lea %fp@(-143),%a0
    6322:	2888           	movel %a0,%a4@
    6324:	7001           	moveq #1,%d0
    6326:	2940 0004      	movel %d0,%a4@(4)
    632a:	528a           	addql #1,%a2
    632c:	2d4a ff94      	movel %a2,%fp@(-108)
    6330:	202e ff90      	movel %fp@(-112),%d0
    6334:	5280           	addql #1,%d0
    6336:	2d40 ff90      	movel %d0,%fp@(-112)
    633a:	7207           	moveq #7,%d1
    633c:	b280           	cmpl %d0,%d1
    633e:	6d00 0af6      	bltw 6e36 <_vfprintf_r+0xe8a>
    6342:	508c           	addql #8,%a4
    6344:	bafc 0000      	cmpaw #0,%a5
    6348:	6726           	beqs 6370 <_vfprintf_r+0x3c4>
    634a:	41ee ff72      	lea %fp@(-142),%a0
    634e:	2888           	movel %a0,%a4@
    6350:	7002           	moveq #2,%d0
    6352:	2940 0004      	movel %d0,%a4@(4)
    6356:	548a           	addql #2,%a2
    6358:	2d4a ff94      	movel %a2,%fp@(-108)
    635c:	202e ff90      	movel %fp@(-112),%d0
    6360:	5280           	addql #1,%d0
    6362:	2d40 ff90      	movel %d0,%fp@(-112)
    6366:	7207           	moveq #7,%d1
    6368:	b280           	cmpl %d0,%d1
    636a:	6d00 0a98      	bltw 6e04 <_vfprintf_r+0xe58>
    636e:	508c           	addql #8,%a4
    6370:	0c86 0000 0080 	cmpil #128,%d6
    6376:	6700 0192      	beqw 650a <_vfprintf_r+0x55e>
    637a:	2a42           	moveal %d2,%a5
    637c:	9bc5           	subal %d5,%a5
    637e:	bafc 0000      	cmpaw #0,%a5
    6382:	6e00 0218      	bgtw 659c <_vfprintf_r+0x5f0>
    6386:	0804 0008      	btst #8,%d4
    638a:	6600 0278      	bnew 6604 <_vfprintf_r+0x658>
    638e:	2887           	movel %d7,%a4@
    6390:	2945 0004      	movel %d5,%a4@(4)
    6394:	d5c5           	addal %d5,%a2
    6396:	2d4a ff94      	movel %a2,%fp@(-108)
    639a:	202e ff90      	movel %fp@(-112),%d0
    639e:	5280           	addql #1,%d0
    63a0:	2d40 ff90      	movel %d0,%fp@(-112)
    63a4:	7a07           	moveq #7,%d5
    63a6:	ba80           	cmpl %d0,%d5
    63a8:	6d00 034c      	bltw 66f6 <_vfprintf_r+0x74a>
    63ac:	508c           	addql #8,%a4
    63ae:	0804 0002      	btst #2,%d4
    63b2:	670e           	beqs 63c2 <_vfprintf_r+0x416>
    63b4:	2a43           	moveal %d3,%a5
    63b6:	9bee ff28      	subal %fp@(-216),%a5
    63ba:	bafc 0000      	cmpaw #0,%a5
    63be:	6e00 040a      	bgtw 67ca <_vfprintf_r+0x81e>
    63c2:	b6ae ff28      	cmpl %fp@(-216),%d3
    63c6:	6c04           	bges 63cc <_vfprintf_r+0x420>
    63c8:	262e ff28      	movel %fp@(-216),%d3
    63cc:	d7ae ff34      	addl %d3,%fp@(-204)
    63d0:	b4fc 0000      	cmpaw #0,%a2
    63d4:	6600 0348      	bnew 671e <_vfprintf_r+0x772>
    63d8:	42ae ff90      	clrl %fp@(-112)
    63dc:	49ee ffc0      	lea %fp@(-64),%a4
    63e0:	6000 fc9e      	braw 6080 <_vfprintf_r+0xd4>
    63e4:	2d6e ff28 ff20 	movel %fp@(-216),%fp@(-224)
    63ea:	0806 0003      	btst #3,%d6
    63ee:	6700 0d90      	beqw 7180 <_vfprintf_r+0x11d4>
    63f2:	246e ff38      	moveal %fp@(-200),%a2
    63f6:	9ffc 0000 000c 	subal #12,%sp
    63fc:	2e9a           	movel %a2@+,%sp@
    63fe:	2f5a 0004      	movel %a2@+,%sp@(4)
    6402:	2f5a 0008      	movel %a2@+,%sp@(8)
    6406:	4eb9 0001 1fdc 	jsr 11fdc <__truncxfdf2>
    640c:	4fef 000c      	lea %sp@(12),%sp
    6410:	2040           	moveal %d0,%a0
    6412:	2241           	moveal %d1,%a1
    6414:	2d48 ff44      	movel %a0,%fp@(-188)
    6418:	2d49 ff48      	movel %a1,%fp@(-184)
    641c:	2d4a ff38      	movel %a2,%fp@(-200)
    6420:	202e ff44      	movel %fp@(-188),%d0
    6424:	0880 001f      	bclr #31,%d0
    6428:	2d40 ff60      	movel %d0,%fp@(-160)
    642c:	2d6e ff48 ff64 	movel %fp@(-184),%fp@(-156)
    6432:	283c 7fef ffff 	movel #2146435071,%d4
    6438:	7aff           	moveq #-1,%d5
    643a:	45f9 0000 4cbe 	lea 4cbe <__unorddf2>,%a2
    6440:	2f05           	movel %d5,%sp@-
    6442:	2f04           	movel %d4,%sp@-
    6444:	2f2e ff64      	movel %fp@(-156),%sp@-
    6448:	2f2e ff60      	movel %fp@(-160),%sp@-
    644c:	4e92           	jsr %a2@
    644e:	4fef 0010      	lea %sp@(16),%sp
    6452:	4a80           	tstl %d0
    6454:	6600 0ff8      	bnew 744e <_vfprintf_r+0x14a2>
    6458:	2f05           	movel %d5,%sp@-
    645a:	2f04           	movel %d4,%sp@-
    645c:	2f2e ff64      	movel %fp@(-156),%sp@-
    6460:	2f2e ff60      	movel %fp@(-160),%sp@-
    6464:	4eb9 0001 1e80 	jsr 11e80 <__ledf2>
    646a:	4fef 0010      	lea %sp@(16),%sp
    646e:	4a80           	tstl %d0
    6470:	6f00 0fdc      	blew 744e <_vfprintf_r+0x14a2>
    6474:	42a7           	clrl %sp@-
    6476:	42a7           	clrl %sp@-
    6478:	2f2e ff48      	movel %fp@(-184),%sp@-
    647c:	2f2e ff44      	movel %fp@(-188),%sp@-
    6480:	4eb9 0001 1e5c 	jsr 11e5c <__ltdf2>
    6486:	4fef 0010      	lea %sp@(16),%sp
    648a:	4a80           	tstl %d0
    648c:	6d00 11fc      	bltw 768a <_vfprintf_r+0x16de>
    6490:	122e ff71      	moveb %fp@(-143),%d1
    6494:	3a41           	moveaw %d1,%a5
    6496:	7447           	moveq #71,%d2
    6498:	b48b           	cmpl %a3,%d2
    649a:	6d00 11d2      	bltw 766e <_vfprintf_r+0x16c2>
    649e:	2e3c 0001 298c 	movel #76172,%d7
    64a4:	7880           	moveq #-128,%d4
    64a6:	4604           	notb %d4
    64a8:	c886           	andl %d6,%d4
    64aa:	7a03           	moveq #3,%d5
    64ac:	2d45 ff28      	movel %d5,%fp@(-216)
    64b0:	7400           	moveq #0,%d2
    64b2:	42ae ff3c      	clrl %fp@(-196)
    64b6:	320d           	movew %a5,%d1
    64b8:	4a01           	tstb %d1
    64ba:	6704           	beqs 64c0 <_vfprintf_r+0x514>
    64bc:	52ae ff28      	addql #1,%fp@(-216)
    64c0:	7002           	moveq #2,%d0
    64c2:	c084           	andl %d4,%d0
