
trig.elf:     file format elf32-m68k


Disassembly of section .text.reloc:

00002000 <_reloc>:
    2000:	41fa fffe      	lea %pc@(2000 <_reloc>),%a0
    2004:	43f9 0000 2000 	lea 2000 <_reloc>,%a1
    200a:	203c 0000 20a0 	movel #8352,%d0
    2010:	9089           	subl %a1,%d0
    2012:	e488           	lsrl #2,%d0
    2014:	5380           	subql #1,%d0
    2016:	22d8           	movel %a0@+,%a1@+
    2018:	51c8 fffc      	dbf %d0,2016 <_reloc+0x16>
    201c:	4ef9 0000 2024 	jmp 2024 <_postreloc>

Disassembly of section .text.postreloc:

00002024 <_postreloc>:
	...

00002030 <POSTRELOC>:
    2030:	203c 0001 3424 	movel #78884,%d0
    2036:	9089           	subl %a1,%d0
    2038:	e488           	lsrl #2,%d0
    203a:	2200           	movel %d0,%d1
    203c:	4841           	swap %d1
    203e:	6002           	bras 2042 <POSTRELOC+0x12>
    2040:	22d8           	movel %a0@+,%a1@+
    2042:	51c8 fffc      	dbf %d0,2040 <POSTRELOC+0x10>
    2046:	51c9 fff8      	dbf %d1,2040 <POSTRELOC+0x10>

0000204a <_enter>:
    204a:	2e78 0414      	moveal 414 <SDB_MEMSIZE>,%sp
    204e:	612e           	bsrs 207e <_bss_init>
    2050:	4eb9 0001 0d3c 	jsr 10d3c <_init>
    2056:	2f3c 0001 0d50 	movel #68944,%sp@-
    205c:	4eb9 0000 3230 	jsr 3230 <atexit>
    2062:	2ebc 0000 0000 	movel #0,%sp@
    2068:	2f3c 0001 3424 	movel #78884,%sp@-
    206e:	41f9 0000 2194 	lea 2194 <main>,%a0
    2074:	4e90           	jsr %a0@
    2076:	2f00           	movel %d0,%sp@-
    2078:	4eb9 0000 3248 	jsr 3248 <exit>

0000207e <_bss_init>:
    207e:	203c 0002 9320 	movel #168736,%d0
    2084:	90bc 0001 3424 	subl #78884,%d0
    208a:	e488           	lsrl #2,%d0
    208c:	41f9 0001 3424 	lea 13424 <__TMC_END__>,%a0
    2092:	6002           	bras 2096 <_bss_init+0x18>
    2094:	4298           	clrl %a0@+
    2096:	51c8 fffc      	dbf %d0,2094 <_bss_init+0x16>
    209a:	4e75           	rts
    209c:	0000 0000      	orib #0,%d0

Disassembly of section .text:

000020a4 <deregister_tm_clones>:
    20a4:	203c 0001 3424 	movel #78884,%d0
    20aa:	0c80 0001 3424 	cmpil #78884,%d0
    20b0:	6716           	beqs 20c8 <deregister_tm_clones+0x24>
    20b2:	41f9 0000 0000 	lea 0 <DUART_MR1A>,%a0
    20b8:	b0fc 0000      	cmpaw #0,%a0
    20bc:	670a           	beqs 20c8 <deregister_tm_clones+0x24>
    20be:	4879 0001 3424 	pea 13424 <__TMC_END__>
    20c4:	4e90           	jsr %a0@
    20c6:	588f           	addql #4,%sp
    20c8:	4e75           	rts

000020ca <register_tm_clones>:
    20ca:	203c 0001 3424 	movel #78884,%d0
    20d0:	0480 0001 3424 	subil #78884,%d0
    20d6:	2200           	movel %d0,%d1
    20d8:	e481           	asrl #2,%d1
    20da:	d080           	addl %d0,%d0
    20dc:	9180           	subxl %d0,%d0
    20de:	4480           	negl %d0
    20e0:	d081           	addl %d1,%d0
    20e2:	e280           	asrl #1,%d0
    20e4:	6718           	beqs 20fe <register_tm_clones+0x34>
    20e6:	41f9 0000 0000 	lea 0 <DUART_MR1A>,%a0
    20ec:	b0fc 0000      	cmpaw #0,%a0
    20f0:	670c           	beqs 20fe <register_tm_clones+0x34>
    20f2:	2f00           	movel %d0,%sp@-
    20f4:	4879 0001 3424 	pea 13424 <__TMC_END__>
    20fa:	4e90           	jsr %a0@
    20fc:	508f           	addql #8,%sp
    20fe:	4e75           	rts

00002100 <__do_global_dtors_aux>:
    2100:	2f0a           	movel %a2,%sp@-
    2102:	2f02           	movel %d2,%sp@-
    2104:	4a39 0001 3428 	tstb 13428 <completed.2>
    210a:	665e           	bnes 216a <__do_global_dtors_aux+0x6a>
    210c:	45f9 0001 08bc 	lea 108bc <__DTOR_LIST__>,%a2
    2112:	2039 0001 342a 	movel 1342a <dtor_idx.1>,%d0
    2118:	243c 0001 08c0 	movel #67776,%d2
    211e:	0482 0001 08bc 	subil #67772,%d2
    2124:	e482           	asrl #2,%d2
    2126:	5382           	subql #1,%d2
    2128:	b480           	cmpl %d0,%d2
    212a:	631c           	blss 2148 <__do_global_dtors_aux+0x48>
    212c:	5280           	addql #1,%d0
    212e:	23c0 0001 342a 	movel %d0,1342a <dtor_idx.1>
    2134:	d080           	addl %d0,%d0
    2136:	d080           	addl %d0,%d0
    2138:	2072 0800      	moveal %a2@(0,%d0:l),%a0
    213c:	4e90           	jsr %a0@
    213e:	2039 0001 342a 	movel 1342a <dtor_idx.1>,%d0
    2144:	b480           	cmpl %d0,%d2
    2146:	62e4           	bhis 212c <__do_global_dtors_aux+0x2c>
    2148:	4eba ff5a      	jsr %pc@(20a4 <deregister_tm_clones>)
    214c:	41f9 0000 0000 	lea 0 <DUART_MR1A>,%a0
    2152:	b0fc 0000      	cmpaw #0,%a0
    2156:	670a           	beqs 2162 <__do_global_dtors_aux+0x62>
    2158:	4879 0000 20a0 	pea 20a0 <__EH_FRAME_BEGIN__>
    215e:	4e90           	jsr %a0@
    2160:	588f           	addql #4,%sp
    2162:	13fc 0001 0001 	moveb #1,13428 <completed.2>
    2168:	3428 
    216a:	241f           	movel %sp@+,%d2
    216c:	245f           	moveal %sp@+,%a2
    216e:	4e75           	rts

00002170 <call___do_global_dtors_aux>:
    2170:	4e75           	rts

00002172 <frame_dummy>:
    2172:	41f9 0000 0000 	lea 0 <DUART_MR1A>,%a0
    2178:	b0fc 0000      	cmpaw #0,%a0
    217c:	6710           	beqs 218e <frame_dummy+0x1c>
    217e:	4879 0001 342e 	pea 1342e <object.0>
    2184:	4879 0000 20a0 	pea 20a0 <__EH_FRAME_BEGIN__>
    218a:	4e90           	jsr %a0@
    218c:	508f           	addql #8,%sp
    218e:	6000 ff3a      	braw 20ca <register_tm_clones>

00002192 <call_frame_dummy>:
    2192:	4e75           	rts

00002194 <main>:
    2194:	4e56 ffd8      	linkw %fp,#-40
    2198:	2d7c bedb 3ac2 	movel #-1092928830,%fp@(-4)
    219e:	fffc 
    21a0:	2d7c 4000 0000 	movel #1073741824,%fp@(-12)
    21a6:	fff4 
    21a8:	42ae fff8      	clrl %fp@(-8)
    21ac:	2d7c 3f06 7b80 	movel #1057389440,%fp@(-16)
    21b2:	fff0 
    21b4:	2d7c 403f ba14 	movel #1077918228,%fp@(-20)
    21ba:	ffec 
    21bc:	2d7c 4de7 5844 	movel #1307007044,%fp@(-24)
    21c2:	ffe8 
    21c4:	2d7c 4017 3333 	movel #1075262259,%fp@(-32)
    21ca:	ffe0 
    21cc:	2d7c 3333 3333 	movel #858993459,%fp@(-28)
    21d2:	ffe4 
    21d4:	2d7c 4006 6666 	movel #1074161254,%fp@(-40)
    21da:	ffd8 
    21dc:	2d7c 6666 6666 	movel #1717986918,%fp@(-36)
    21e2:	ffdc 
    21e4:	2f2e ffdc      	movel %fp@(-36),%sp@-
    21e8:	2f2e ffd8      	movel %fp@(-40),%sp@-
    21ec:	2f2e ffe4      	movel %fp@(-28),%sp@-
    21f0:	2f2e ffe0      	movel %fp@(-32),%sp@-
    21f4:	4eb9 0000 26be 	jsr 26be <__muldf3>
    21fa:	4fef 0010      	lea %sp@(16),%sp
    21fe:	2f01           	movel %d1,%sp@-
    2200:	2f00           	movel %d0,%sp@-
    2202:	4879 0001 08c4 	pea 108c4 <_dtors_end>
    2208:	4eb9 0000 3294 	jsr 3294 <printf>
    220e:	4fef 000c      	lea %sp@(12),%sp
    2212:	42a7           	clrl %sp@-
    2214:	2f3c 3ff0 0000 	movel #1072693248,%sp@-
    221a:	4879 0001 08eb 	pea 108eb <_dtors_end+0x27>
    2220:	4eb9 0000 3294 	jsr 3294 <printf>
    2226:	4fef 000c      	lea %sp@(12),%sp
    222a:	2f2e fffc      	movel %fp@(-4),%sp@-
    222e:	4eb9 0000 2f82 	jsr 2f82 <__extendsfdf2>
    2234:	588f           	addql #4,%sp
    2236:	2f01           	movel %d1,%sp@-
    2238:	2f00           	movel %d0,%sp@-
    223a:	4879 0001 090f 	pea 1090f <_dtors_end+0x4b>
    2240:	4eb9 0000 3294 	jsr 3294 <printf>
    2246:	4fef 000c      	lea %sp@(12),%sp
    224a:	2f2e fff8      	movel %fp@(-8),%sp@-
    224e:	2f2e fff4      	movel %fp@(-12),%sp@-
    2252:	4879 0001 0934 	pea 10934 <_dtors_end+0x70>
    2258:	4eb9 0000 3294 	jsr 3294 <printf>
    225e:	4fef 000c      	lea %sp@(12),%sp
    2262:	2f2e fff0      	movel %fp@(-16),%sp@-
    2266:	4eb9 0000 2f82 	jsr 2f82 <__extendsfdf2>
    226c:	588f           	addql #4,%sp
    226e:	2f01           	movel %d1,%sp@-
    2270:	2f00           	movel %d0,%sp@-
    2272:	4879 0001 0958 	pea 10958 <_dtors_end+0x94>
    2278:	4eb9 0000 3294 	jsr 3294 <printf>
    227e:	4fef 000c      	lea %sp@(12),%sp
    2282:	2f2e ffec      	movel %fp@(-20),%sp@-
    2286:	4eb9 0000 2f82 	jsr 2f82 <__extendsfdf2>
    228c:	588f           	addql #4,%sp
    228e:	2f01           	movel %d1,%sp@-
    2290:	2f00           	movel %d0,%sp@-
    2292:	4879 0001 097d 	pea 1097d <_dtors_end+0xb9>
    2298:	4eb9 0000 3294 	jsr 3294 <printf>
    229e:	4fef 000c      	lea %sp@(12),%sp
    22a2:	2f2e ffe8      	movel %fp@(-24),%sp@-
    22a6:	4eb9 0000 2f82 	jsr 2f82 <__extendsfdf2>
    22ac:	588f           	addql #4,%sp
    22ae:	2f01           	movel %d1,%sp@-
    22b0:	2f00           	movel %d0,%sp@-
    22b2:	4879 0001 09a1 	pea 109a1 <_dtors_end+0xdd>
    22b8:	4eb9 0000 3294 	jsr 3294 <printf>
    22be:	4fef 000c      	lea %sp@(12),%sp
    22c2:	7000           	moveq #0,%d0
    22c4:	4e5e           	unlk %fp
    22c6:	4e75           	rts

000022c8 <Ld$den>:
    22c8:	8087           	orl %d7,%d0
    22ca:	3e3c 0003      	movew #3,%d7
    22ce:	7c02           	moveq #2,%d6
    22d0:	4ef9 0000 2ca6 	jmp 2ca6 <$_exception_handler>

000022d6 <Ld$infty>:
    22d6:	203c 7ff0 0000 	movel #2146435072,%d0
    22dc:	7200           	moveq #0,%d1
    22de:	8087           	orl %d7,%d0
    22e0:	3e3c 0005      	movew #5,%d7
    22e4:	7c02           	moveq #2,%d6
    22e6:	4ef9 0000 2ca6 	jmp 2ca6 <$_exception_handler>

000022ec <Ld$underflow>:
    22ec:	7000           	moveq #0,%d0
    22ee:	2200           	movel %d0,%d1
    22f0:	3e3c 0003      	movew #3,%d7
    22f4:	7c02           	moveq #2,%d6
    22f6:	4ef9 0000 2ca6 	jmp 2ca6 <$_exception_handler>

000022fc <Ld$inop>:
    22fc:	70ff           	moveq #-1,%d0
    22fe:	2200           	movel %d0,%d1
    2300:	3e3c 0011      	movew #17,%d7
    2304:	7c02           	moveq #2,%d6
    2306:	4ef9 0000 2ca6 	jmp 2ca6 <$_exception_handler>

0000230c <Ld$div$0>:
    230c:	203c 7ff0 0000 	movel #2146435072,%d0
    2312:	7200           	moveq #0,%d1
    2314:	8087           	orl %d7,%d0
    2316:	3e3c 0009      	movew #9,%d7
    231a:	7c02           	moveq #2,%d6
    231c:	4ef9 0000 2ca6 	jmp 2ca6 <$_exception_handler>

00002322 <__subdf3>:
    2322:	086f 001f 000c 	bchg #31,%sp@(12)

00002328 <__adddf3>:
    2328:	4e56 0000      	linkw %fp,#0
    232c:	48e7 3f00      	moveml %d2-%d7,%sp@-
    2330:	202e 0008      	movel %fp@(8),%d0
    2334:	222e 000c      	movel %fp@(12),%d1
    2338:	242e 0010      	movel %fp@(16),%d2
    233c:	262e 0014      	movel %fp@(20),%d3
    2340:	2e00           	movel %d0,%d7
    2342:	d281           	addl %d1,%d1
    2344:	d180           	addxl %d0,%d0
    2346:	6700 0286      	beqw 25ce <Ladddf$b>
    234a:	2c02           	movel %d2,%d6
    234c:	d683           	addl %d3,%d3
    234e:	d582           	addxl %d2,%d2
    2350:	6700 029a      	beqw 25ec <Ladddf$a>
    2354:	0287 8000 0000 	andil #-2147483648,%d7
    235a:	4846           	swap %d6
    235c:	0246 8000      	andiw #-32768,%d6
    2360:	8e46           	orw %d6,%d7
    2362:	2047           	moveal %d7,%a0
    2364:	2c3c 001f ffff 	movel #2097151,%d6
    236a:	2e3c 0020 0000 	movel #2097152,%d7
    2370:	2800           	movel %d0,%d4
    2372:	c086           	andl %d6,%d0
    2374:	4686           	notl %d6
    2376:	c886           	andl %d6,%d4
    2378:	6700 0246      	beqw 25c0 <Ladddf$a$den>
    237c:	b886           	cmpl %d6,%d4
    237e:	6700 02ca      	beqw 264a <Ladddf$nf>
    2382:	8087           	orl %d7,%d0

00002384 <Ladddf$1>:
    2384:	4844           	swap %d4
    2386:	ea4c           	lsrw #5,%d4
    2388:	2a02           	movel %d2,%d5
    238a:	ca86           	andl %d6,%d5
    238c:	6700 0238      	beqw 25c6 <Ladddf$b$den>
    2390:	ba86           	cmpl %d6,%d5
    2392:	6700 02b6      	beqw 264a <Ladddf$nf>
    2396:	4686           	notl %d6
    2398:	c486           	andl %d6,%d2
    239a:	8487           	orl %d7,%d2

0000239c <Ladddf$2>:
    239c:	4845           	swap %d5
    239e:	ea4d           	lsrw #5,%d5
    23a0:	48e7 0030      	moveml %a2-%a3,%sp@-
    23a4:	2444           	moveal %d4,%a2
    23a6:	2645           	moveal %d5,%a3
    23a8:	7e00           	moveq #0,%d7
    23aa:	2c07           	movel %d7,%d6
    23ac:	2a03           	movel %d3,%d5
    23ae:	2802           	movel %d2,%d4
    23b0:	2607           	movel %d7,%d3
    23b2:	2407           	movel %d7,%d2
    23b4:	c98a           	exg %d4,%a2
    23b6:	cb8b           	exg %d5,%a3
    23b8:	ba44           	cmpw %d4,%d5
    23ba:	6700 00cc      	beqw 2488 <Ladddf$3>
    23be:	6200 0064      	bhiw 2424 <Ladddf$2+0x88>
    23c2:	3404           	movew %d4,%d2
    23c4:	9445           	subw %d5,%d2
    23c6:	c98a           	exg %d4,%a2
    23c8:	cb8b           	exg %d5,%a3
    23ca:	0c42 0037      	cmpiw #55,%d2
    23ce:	6c00 01d2      	bgew 25a2 <Ladddf$b$small>
    23d2:	0c42 0020      	cmpiw #32,%d2
    23d6:	6c00 0022      	bgew 23fa <Ladddf$2+0x5e>
    23da:	0c42 0010      	cmpiw #16,%d2
    23de:	6c00 002a      	bgew 240a <Ladddf$2+0x6e>
    23e2:	6000 000a      	braw 23ee <Ladddf$2+0x52>
    23e6:	e28c           	lsrl #1,%d4
    23e8:	e295           	roxrl #1,%d5
    23ea:	e296           	roxrl #1,%d6
    23ec:	e297           	roxrl #1,%d7
    23ee:	51ca fff6      	dbf %d2,23e6 <Ladddf$2+0x4a>
    23f2:	7400           	moveq #0,%d2
    23f4:	2602           	movel %d2,%d3
    23f6:	6000 0094      	braw 248c <Ladddf$4>
    23fa:	2e06           	movel %d6,%d7
    23fc:	2c05           	movel %d5,%d6
    23fe:	2a04           	movel %d4,%d5
    2400:	7800           	moveq #0,%d4
    2402:	0442 0020      	subiw #32,%d2
    2406:	6000 ffd2      	braw 23da <Ladddf$2+0x3e>
    240a:	3e06           	movew %d6,%d7
    240c:	4847           	swap %d7
    240e:	3c05           	movew %d5,%d6
    2410:	4846           	swap %d6
    2412:	3a04           	movew %d4,%d5
    2414:	4845           	swap %d5
    2416:	383c 0000      	movew #0,%d4
    241a:	4844           	swap %d4
    241c:	0442 0010      	subiw #16,%d2
    2420:	6000 ffcc      	braw 23ee <Ladddf$2+0x52>
    2424:	c945           	exg %d4,%d5
    2426:	3c04           	movew %d4,%d6
    2428:	9c45           	subw %d5,%d6
    242a:	c98a           	exg %d4,%a2
    242c:	cb8b           	exg %d5,%a3
    242e:	0c46 0037      	cmpiw #55,%d6
    2432:	6c00 0150      	bgew 2584 <Ladddf$a$small>
    2436:	0c46 0020      	cmpiw #32,%d6
    243a:	6c00 0022      	bgew 245e <Ladddf$2+0xc2>
    243e:	0c46 0010      	cmpiw #16,%d6
    2442:	6c00 002a      	bgew 246e <Ladddf$2+0xd2>
    2446:	6000 000a      	braw 2452 <Ladddf$2+0xb6>
    244a:	e288           	lsrl #1,%d0
    244c:	e291           	roxrl #1,%d1
    244e:	e292           	roxrl #1,%d2
    2450:	e293           	roxrl #1,%d3
    2452:	51ce fff6      	dbf %d6,244a <Ladddf$2+0xae>
    2456:	7e00           	moveq #0,%d7
    2458:	2c07           	movel %d7,%d6
    245a:	6000 0030      	braw 248c <Ladddf$4>
    245e:	2602           	movel %d2,%d3
    2460:	2401           	movel %d1,%d2
    2462:	2200           	movel %d0,%d1
    2464:	7000           	moveq #0,%d0
    2466:	0446 0020      	subiw #32,%d6
    246a:	6000 ffd2      	braw 243e <Ladddf$2+0xa2>
    246e:	3602           	movew %d2,%d3
    2470:	4843           	swap %d3
    2472:	3401           	movew %d1,%d2
    2474:	4842           	swap %d2
    2476:	3200           	movew %d0,%d1
    2478:	4841           	swap %d1
    247a:	303c 0000      	movew #0,%d0
    247e:	4840           	swap %d0
    2480:	0446 0010      	subiw #16,%d6
    2484:	6000 ffcc      	braw 2452 <Ladddf$2+0xb6>

00002488 <Ladddf$3>:
    2488:	c98a           	exg %d4,%a2
    248a:	cb8b           	exg %d5,%a3

0000248c <Ladddf$4>:
    248c:	cf88           	exg %d7,%a0
    248e:	cd8b           	exg %d6,%a3
    2490:	2c07           	movel %d7,%d6
    2492:	3e3c 0000      	movew #0,%d7
    2496:	4846           	swap %d6
    2498:	3c3c 0000      	movew #0,%d6
    249c:	bf86           	eorl %d7,%d6
    249e:	6b00 006e      	bmiw 250e <Lsubdf$0>
    24a2:	cf88           	exg %d7,%a0
    24a4:	cd8b           	exg %d6,%a3
    24a6:	d687           	addl %d7,%d3
    24a8:	d586           	addxl %d6,%d2
    24aa:	d385           	addxl %d5,%d1
    24ac:	d184           	addxl %d4,%d0
    24ae:	280a           	movel %a2,%d4
    24b0:	2e08           	movel %a0,%d7
    24b2:	0287 8000 0000 	andil #-2147483648,%d7
    24b8:	4cdf 0c00      	moveml %sp@+,%a2-%a3
    24bc:	0800 0036      	btst #54,%d0
    24c0:	6700 000c      	beqw 24ce <Ladddf$4+0x42>
    24c4:	e288           	lsrl #1,%d0
    24c6:	e291           	roxrl #1,%d1
    24c8:	e292           	roxrl #1,%d2
    24ca:	e293           	roxrl #1,%d3
    24cc:	5244           	addqw #1,%d4
    24ce:	41fa 0020      	lea %pc@(24f0 <Ladddf$5>),%a0
    24d2:	43f9 0001 2d64 	lea 12d64 <_fpCCR>,%a1
    24d8:	3c29 0006      	movew %a1@(6),%d6
    24dc:	6700 0752      	beqw 2c30 <Lround$to$nearest>
    24e0:	0c46 0002      	cmpiw #2,%d6
    24e4:	6200 07ae      	bhiw 2c94 <Lround$to$minus>
    24e8:	6d00 07aa      	bltw 2c94 <Lround$to$minus>
    24ec:	6000 07a6      	braw 2c94 <Lround$to$minus>

000024f0 <Ladddf$5>:
    24f0:	0c44 07ff      	cmpiw #2047,%d4
    24f4:	6c00 0012      	bgew 2508 <Ladddf$5+0x18>
    24f8:	0880 0034      	bclr #52,%d0
    24fc:	e94c           	lslw #4,%d4
    24fe:	4840           	swap %d0
    2500:	8044           	orw %d4,%d0
    2502:	4840           	swap %d0
    2504:	6000 0128      	braw 262e <Ladddf$ret>
    2508:	7a01           	moveq #1,%d5
    250a:	6000 fdca      	braw 22d6 <Ld$infty>

0000250e <Lsubdf$0>:
    250e:	cf88           	exg %d7,%a0
    2510:	cd8b           	exg %d6,%a3
    2512:	9687           	subl %d7,%d3
    2514:	9586           	subxl %d6,%d2
    2516:	9385           	subxl %d5,%d1
    2518:	9184           	subxl %d4,%d0
    251a:	6700 010e      	beqw 262a <Ladddf$ret$1>
    251e:	6a00 0012      	bplw 2532 <Lsubdf$0+0x24>
    2522:	2e08           	movel %a0,%d7
    2524:	0847 001f      	bchg #31,%d7
    2528:	2047           	moveal %d7,%a0
    252a:	4483           	negl %d3
    252c:	4082           	negxl %d2
    252e:	4081           	negxl %d1
    2530:	4080           	negxl %d0
    2532:	280a           	movel %a2,%d4
    2534:	2e08           	movel %a0,%d7
    2536:	0287 8000 0000 	andil #-2147483648,%d7
    253c:	4cdf 0c00      	moveml %sp@+,%a2-%a3
    2540:	0800 0036      	btst #54,%d0
    2544:	6700 000c      	beqw 2552 <Lsubdf$0+0x44>
    2548:	e288           	lsrl #1,%d0
    254a:	e291           	roxrl #1,%d1
    254c:	e292           	roxrl #1,%d2
    254e:	e293           	roxrl #1,%d3
    2550:	5244           	addqw #1,%d4
    2552:	41fa 0020      	lea %pc@(2574 <Lsubdf$1>),%a0
    2556:	43f9 0001 2d64 	lea 12d64 <_fpCCR>,%a1
    255c:	3c29 0006      	movew %a1@(6),%d6
    2560:	6700 06ce      	beqw 2c30 <Lround$to$nearest>
    2564:	0c46 0002      	cmpiw #2,%d6
    2568:	6200 072a      	bhiw 2c94 <Lround$to$minus>
    256c:	6d00 0726      	bltw 2c94 <Lround$to$minus>
    2570:	6000 0722      	braw 2c94 <Lround$to$minus>

00002574 <Lsubdf$1>:
    2574:	0880 0034      	bclr #52,%d0
    2578:	e94c           	lslw #4,%d4
    257a:	4840           	swap %d0
    257c:	8044           	orw %d4,%d0
    257e:	4840           	swap %d0
    2580:	6000 00ac      	braw 262e <Ladddf$ret>

00002584 <Ladddf$a$small>:
    2584:	4cdf 0c00      	moveml %sp@+,%a2-%a3
    2588:	202e 0010      	movel %fp@(16),%d0
    258c:	222e 0014      	movel %fp@(20),%d1
    2590:	41f9 0001 2d64 	lea 12d64 <_fpCCR>,%a0
    2596:	30bc 0000      	movew #0,%a0@
    259a:	4cdf 00fc      	moveml %sp@+,%d2-%d7
    259e:	4e5e           	unlk %fp
    25a0:	4e75           	rts

000025a2 <Ladddf$b$small>:
    25a2:	4cdf 0c00      	moveml %sp@+,%a2-%a3
    25a6:	202e 0008      	movel %fp@(8),%d0
    25aa:	222e 000c      	movel %fp@(12),%d1
    25ae:	41f9 0001 2d64 	lea 12d64 <_fpCCR>,%a0
    25b4:	30bc 0000      	movew #0,%a0@
    25b8:	4cdf 00fc      	moveml %sp@+,%d2-%d7
    25bc:	4e5e           	unlk %fp
    25be:	4e75           	rts

000025c0 <Ladddf$a$den>:
    25c0:	2807           	movel %d7,%d4
    25c2:	6000 fdc0      	braw 2384 <Ladddf$1>

000025c6 <Ladddf$b$den>:
    25c6:	2a07           	movel %d7,%d5
    25c8:	4686           	notl %d6
    25ca:	6000 fdd0      	braw 239c <Ladddf$2>

000025ce <Ladddf$b>:
    25ce:	2002           	movel %d2,%d0
    25d0:	2203           	movel %d3,%d1
    25d2:	6600 0020      	bnew 25f4 <Ladddf$a+0x8>
    25d6:	0c80 8000 0000 	cmpil #-2147483648,%d0
    25dc:	6600 0016      	bnew 25f4 <Ladddf$a+0x8>
    25e0:	0287 8000 0000 	andil #-2147483648,%d7
    25e6:	4280           	clrl %d0
    25e8:	6000 0044      	braw 262e <Ladddf$ret>

000025ec <Ladddf$a>:
    25ec:	202e 0008      	movel %fp@(8),%d0
    25f0:	222e 000c      	movel %fp@(12),%d1
    25f4:	7a01           	moveq #1,%d5
    25f6:	2e00           	movel %d0,%d7
    25f8:	0287 8000 0000 	andil #-2147483648,%d7
    25fe:	0880 001f      	bclr #31,%d0
    2602:	0c80 7ff0 0000 	cmpil #2146435072,%d0
    2608:	6c00 0010      	bgew 261a <Ladddf$a+0x2e>
    260c:	2000           	movel %d0,%d0
    260e:	6600 001e      	bnew 262e <Ladddf$ret>
    2612:	0887 001f      	bclr #31,%d7
    2616:	6000 0016      	braw 262e <Ladddf$ret>
    261a:	0280 000f ffff 	andil #1048575,%d0
    2620:	8081           	orl %d1,%d0
    2622:	6600 fcd8      	bnew 22fc <Ld$inop>
    2626:	6000 fcae      	braw 22d6 <Ld$infty>

0000262a <Ladddf$ret$1>:
    262a:	4cdf 0c00      	moveml %sp@+,%a2-%a3

0000262e <Ladddf$ret>:
    262e:	41f9 0001 2d64 	lea 12d64 <_fpCCR>,%a0
    2634:	30bc 0000      	movew #0,%a0@
    2638:	8087           	orl %d7,%d0
    263a:	4cdf 00fc      	moveml %sp@+,%d2-%d7
    263e:	4e5e           	unlk %fp
    2640:	4e75           	rts

00002642 <Ladddf$ret$den>:
    2642:	e288           	lsrl #1,%d0
    2644:	e291           	roxrl #1,%d1
    2646:	6000 ffe6      	braw 262e <Ladddf$ret>

0000264a <Ladddf$nf>:
    264a:	7a01           	moveq #1,%d5
    264c:	202e 0008      	movel %fp@(8),%d0
    2650:	222e 000c      	movel %fp@(12),%d1
    2654:	242e 0010      	movel %fp@(16),%d2
    2658:	262e 0014      	movel %fp@(20),%d3
    265c:	283c 7ff0 0000 	movel #2146435072,%d4
    2662:	2e00           	movel %d0,%d7
    2664:	2c02           	movel %d2,%d6
    2666:	0880 001f      	bclr #31,%d0
    266a:	0882 001f      	bclr #31,%d2
    266e:	b084           	cmpl %d4,%d0
    2670:	6200 fc8a      	bhiw 22fc <Ld$inop>
    2674:	6600 0008      	bnew 267e <Ladddf$nf+0x34>
    2678:	4a81           	tstl %d1
    267a:	6600 fc80      	bnew 22fc <Ld$inop>
    267e:	b484           	cmpl %d4,%d2
    2680:	6200 fc7a      	bhiw 22fc <Ld$inop>
    2684:	6600 0008      	bnew 268e <Ladddf$nf+0x44>
    2688:	4a83           	tstl %d3
    268a:	6600 fc70      	bnew 22fc <Ld$inop>
    268e:	bf86           	eorl %d7,%d6
    2690:	6b00 000c      	bmiw 269e <Ladddf$nf+0x54>
    2694:	0287 8000 0000 	andil #-2147483648,%d7
    269a:	6000 fc3a      	braw 22d6 <Ld$infty>
    269e:	b082           	cmpl %d2,%d0
    26a0:	6600 0008      	bnew 26aa <Ladddf$nf+0x60>
    26a4:	b283           	cmpl %d3,%d1
    26a6:	6700 fc54      	beqw 22fc <Ld$inop>
    26aa:	0287 8000 0000 	andil #-2147483648,%d7
    26b0:	b084           	cmpl %d4,%d0
    26b2:	6700 fc22      	beqw 22d6 <Ld$infty>
    26b6:	0847 001f      	bchg #31,%d7
    26ba:	6000 fc1a      	braw 22d6 <Ld$infty>

000026be <__muldf3>:
    26be:	4e56 0000      	linkw %fp,#0
    26c2:	48e7 3f00      	moveml %d2-%d7,%sp@-
    26c6:	202e 0008      	movel %fp@(8),%d0
    26ca:	222e 000c      	movel %fp@(12),%d1
    26ce:	242e 0010      	movel %fp@(16),%d2
    26d2:	262e 0014      	movel %fp@(20),%d3
    26d6:	2e00           	movel %d0,%d7
    26d8:	b587           	eorl %d2,%d7
    26da:	0287 8000 0000 	andil #-2147483648,%d7
    26e0:	2047           	moveal %d7,%a0
    26e2:	2e3c 7ff0 0000 	movel #2146435072,%d7
    26e8:	2c07           	movel %d7,%d6
    26ea:	4686           	notl %d6
    26ec:	0880 001f      	bclr #31,%d0
    26f0:	2800           	movel %d0,%d4
    26f2:	8881           	orl %d1,%d4
    26f4:	6700 0120      	beqw 2816 <Lmuldf$a$0>
    26f8:	2800           	movel %d0,%d4
    26fa:	0882 001f      	bclr #31,%d2
    26fe:	2a02           	movel %d2,%d5
    2700:	8a83           	orl %d3,%d5
    2702:	6700 0106      	beqw 280a <Lmuldf$b$0>
    2706:	2a02           	movel %d2,%d5
    2708:	b087           	cmpl %d7,%d0
    270a:	6200 00dc      	bhiw 27e8 <Lmuldf$inop>
    270e:	6700 00ec      	beqw 27fc <Lmuldf$a$nf>
    2712:	b487           	cmpl %d7,%d2
    2714:	6200 00d2      	bhiw 27e8 <Lmuldf$inop>
    2718:	6700 00d4      	beqw 27ee <Lmuldf$b$nf>
    271c:	c887           	andl %d7,%d4
    271e:	6700 0120      	beqw 2840 <Lmuldf$a$den>
    2722:	c086           	andl %d6,%d0
    2724:	0080 0010 0000 	oril #1048576,%d0
    272a:	4844           	swap %d4
    272c:	e84c           	lsrw #4,%d4

0000272e <Lmuldf$1>:
    272e:	ca87           	andl %d7,%d5
    2730:	6700 0124      	beqw 2856 <Lmuldf$b$den>
    2734:	c486           	andl %d6,%d2
    2736:	0082 0010 0000 	oril #1048576,%d2
    273c:	4845           	swap %d5
    273e:	e84d           	lsrw #4,%d5

00002740 <Lmuldf$2>:
    2740:	d845           	addw %d5,%d4
    2742:	0444 03ff      	subiw #1023,%d4
    2746:	48e7 0030      	moveml %a2-%a3,%sp@-
    274a:	247c 0000 0000 	moveal #0,%a2
    2750:	2644           	moveal %d4,%a3
    2752:	ea9a           	rorl #5,%d2
    2754:	4842           	swap %d2
    2756:	ea9b           	rorl #5,%d3
    2758:	4843           	swap %d3
    275a:	3c03           	movew %d3,%d6
    275c:	0246 07ff      	andiw #2047,%d6
    2760:	8446           	orw %d6,%d2
    2762:	0243 f800      	andiw #-2048,%d3
    2766:	2c02           	movel %d2,%d6
    2768:	2e03           	movel %d3,%d7
    276a:	2800           	movel %d0,%d4
    276c:	2a01           	movel %d1,%d5
    276e:	7600           	moveq #0,%d3
    2770:	2403           	movel %d3,%d2
    2772:	2203           	movel %d3,%d1
    2774:	2003           	movel %d3,%d0
    2776:	227c 0000 0034 	moveal #52,%a1
    277c:	cf89           	exg %d7,%a1
    277e:	cf89           	exg %d7,%a1
    2780:	d683           	addl %d3,%d3
    2782:	d582           	addxl %d2,%d2
    2784:	d381           	addxl %d1,%d1
    2786:	d180           	addxl %d0,%d0
    2788:	de87           	addl %d7,%d7
    278a:	dd86           	addxl %d6,%d6
    278c:	6400 000e      	bccw 279c <Lmuldf$2+0x5c>
    2790:	cf8a           	exg %d7,%a2
    2792:	d685           	addl %d5,%d3
    2794:	d584           	addxl %d4,%d2
    2796:	d387           	addxl %d7,%d1
    2798:	d187           	addxl %d7,%d0
    279a:	cf8a           	exg %d7,%a2
    279c:	cf89           	exg %d7,%a1
    279e:	51cf ffde      	dbf %d7,277e <Lmuldf$2+0x3e>
    27a2:	280b           	movel %a3,%d4
    27a4:	4cdf 0c00      	moveml %sp@+,%a2-%a3
    27a8:	4840           	swap %d0
    27aa:	4841           	swap %d1
    27ac:	3001           	movew %d1,%d0
    27ae:	4842           	swap %d2
    27b0:	3202           	movew %d2,%d1
    27b2:	4843           	swap %d3
    27b4:	3403           	movew %d3,%d2
    27b6:	363c 0000      	movew #0,%d3
    27ba:	e288           	lsrl #1,%d0
    27bc:	e291           	roxrl #1,%d1
    27be:	e292           	roxrl #1,%d2
    27c0:	e293           	roxrl #1,%d3
    27c2:	e288           	lsrl #1,%d0
    27c4:	e291           	roxrl #1,%d1
    27c6:	e292           	roxrl #1,%d2
    27c8:	e293           	roxrl #1,%d3
    27ca:	e288           	lsrl #1,%d0
    27cc:	e291           	roxrl #1,%d1
    27ce:	e292           	roxrl #1,%d2
    27d0:	e293           	roxrl #1,%d3
    27d2:	2e08           	movel %a0,%d7
    27d4:	7a02           	moveq #2,%d5
    27d6:	0800 0016      	btst #22,%d0
    27da:	6700 027a      	beqw 2a56 <Lround$exit>
    27de:	e288           	lsrl #1,%d0
    27e0:	e291           	roxrl #1,%d1
    27e2:	5244           	addqw #1,%d4
    27e4:	6000 0270      	braw 2a56 <Lround$exit>

000027e8 <Lmuldf$inop>:
    27e8:	7a02           	moveq #2,%d5
    27ea:	6000 fb10      	braw 22fc <Ld$inop>

000027ee <Lmuldf$b$nf>:
    27ee:	7a02           	moveq #2,%d5
    27f0:	2e08           	movel %a0,%d7
    27f2:	4a83           	tstl %d3
    27f4:	6600 fb06      	bnew 22fc <Ld$inop>
    27f8:	6000 fadc      	braw 22d6 <Ld$infty>

000027fc <Lmuldf$a$nf>:
    27fc:	7a02           	moveq #2,%d5
    27fe:	2e08           	movel %a0,%d7
    2800:	4a81           	tstl %d1
    2802:	6600 faf8      	bnew 22fc <Ld$inop>
    2806:	6000 face      	braw 22d6 <Ld$infty>

0000280a <Lmuldf$b$0>:
    280a:	7a02           	moveq #2,%d5
    280c:	c540           	exg %d2,%d0
    280e:	c741           	exg %d3,%d1
    2810:	2008           	movel %a0,%d0
    2812:	6000 0010      	braw 2824 <Lmuldf$a$0+0xe>

00002816 <Lmuldf$a$0>:
    2816:	2008           	movel %a0,%d0
    2818:	242e 0010      	movel %fp@(16),%d2
    281c:	262e 0014      	movel %fp@(20),%d3
    2820:	0882 001f      	bclr #31,%d2
    2824:	0c82 7ff0 0000 	cmpil #2146435072,%d2
    282a:	6c00 fad0      	bgew 22fc <Ld$inop>
    282e:	41f9 0001 2d64 	lea 12d64 <_fpCCR>,%a0
    2834:	30bc 0000      	movew #0,%a0@
    2838:	4cdf 00fc      	moveml %sp@+,%d2-%d7
    283c:	4e5e           	unlk %fp
    283e:	4e75           	rts

00002840 <Lmuldf$a$den>:
    2840:	7801           	moveq #1,%d4
    2842:	c086           	andl %d6,%d0
    2844:	d281           	addl %d1,%d1
    2846:	d180           	addxl %d0,%d0
    2848:	5344           	subqw #1,%d4
    284a:	0800 0014      	btst #20,%d0
    284e:	6600 fede      	bnew 272e <Lmuldf$1>
    2852:	6000 fff0      	braw 2844 <Lmuldf$a$den+0x4>

00002856 <Lmuldf$b$den>:
    2856:	7a01           	moveq #1,%d5
    2858:	c486           	andl %d6,%d2
    285a:	d683           	addl %d3,%d3
    285c:	d582           	addxl %d2,%d2
    285e:	5345           	subqw #1,%d5
    2860:	0802 0014      	btst #20,%d2
    2864:	6600 feda      	bnew 2740 <Lmuldf$2>
    2868:	6000 fff0      	braw 285a <Lmuldf$b$den+0x4>

0000286c <__divdf3>:
    286c:	4e56 0000      	linkw %fp,#0
    2870:	48e7 3f00      	moveml %d2-%d7,%sp@-
    2874:	202e 0008      	movel %fp@(8),%d0
    2878:	222e 000c      	movel %fp@(12),%d1
    287c:	242e 0010      	movel %fp@(16),%d2
    2880:	262e 0014      	movel %fp@(20),%d3
    2884:	2e00           	movel %d0,%d7
    2886:	b587           	eorl %d2,%d7
    2888:	0287 8000 0000 	andil #-2147483648,%d7
    288e:	2047           	moveal %d7,%a0
    2890:	2e3c 7ff0 0000 	movel #2146435072,%d7
    2896:	2c07           	movel %d7,%d6
    2898:	4686           	notl %d6
    289a:	0880 001f      	bclr #31,%d0
    289e:	2800           	movel %d0,%d4
    28a0:	8881           	orl %d1,%d4
    28a2:	6700 0112      	beqw 29b6 <Ldivdf$a$0>
    28a6:	2800           	movel %d0,%d4
    28a8:	0882 001f      	bclr #31,%d2
    28ac:	2a02           	movel %d2,%d5
    28ae:	8a83           	orl %d3,%d5
    28b0:	6700 013c      	beqw 29ee <Ldivdf$b$0>
    28b4:	2a02           	movel %d2,%d5
    28b6:	b087           	cmpl %d7,%d0
    28b8:	6200 00f6      	bhiw 29b0 <Ldivdf$inop>
    28bc:	6700 0154      	beqw 2a12 <Ldivdf$a$nf>
    28c0:	b487           	cmpl %d7,%d2
    28c2:	6200 00ec      	bhiw 29b0 <Ldivdf$inop>
    28c6:	6700 013e      	beqw 2a06 <Ldivdf$b$nf>
    28ca:	c887           	andl %d7,%d4
    28cc:	6700 015c      	beqw 2a2a <Ldivdf$a$den>
    28d0:	c086           	andl %d6,%d0
    28d2:	0080 0010 0000 	oril #1048576,%d0
    28d8:	4844           	swap %d4
    28da:	e84c           	lsrw #4,%d4

000028dc <Ldivdf$1>:
    28dc:	ca87           	andl %d7,%d5
    28de:	6700 0160      	beqw 2a40 <Ldivdf$b$den>
    28e2:	c486           	andl %d6,%d2
    28e4:	0082 0010 0000 	oril #1048576,%d2
    28ea:	4845           	swap %d5
    28ec:	e84d           	lsrw #4,%d5

000028ee <Ldivdf$2>:
    28ee:	9845           	subw %d5,%d4
    28f0:	0644 03fe      	addiw #1022,%d4
    28f4:	7c00           	moveq #0,%d6
    28f6:	2e06           	movel %d6,%d7
    28f8:	227c 0000 0000 	moveal #0,%a1
    28fe:	7a16           	moveq #22,%d5
    2900:	b480           	cmpl %d0,%d2
    2902:	6200 000c      	bhiw 2910 <Ldivdf$2+0x22>
    2906:	6700 0014      	beqw 291c <Ldivdf$2+0x2e>
    290a:	9283           	subl %d3,%d1
    290c:	9182           	subxl %d2,%d0
    290e:	0bc6           	bset %d5,%d6
    2910:	d281           	addl %d1,%d1
    2912:	d180           	addxl %d0,%d0
    2914:	51cd ffea      	dbf %d5,2900 <Ldivdf$2+0x12>
    2918:	6000 000c      	braw 2926 <Ldivdf$2+0x38>
    291c:	b681           	cmpl %d1,%d3
    291e:	6200 fff0      	bhiw 2910 <Ldivdf$2+0x22>
    2922:	6000 ffe6      	braw 290a <Ldivdf$2+0x1c>
    2926:	7a1f           	moveq #31,%d5
    2928:	b480           	cmpl %d0,%d2
    292a:	6200 000c      	bhiw 2938 <Ldivdf$2+0x4a>
    292e:	6700 0014      	beqw 2944 <Ldivdf$2+0x56>
    2932:	9283           	subl %d3,%d1
    2934:	9182           	subxl %d2,%d0
    2936:	0bc7           	bset %d5,%d7
    2938:	d281           	addl %d1,%d1
    293a:	d180           	addxl %d0,%d0
    293c:	51cd ffea      	dbf %d5,2928 <Ldivdf$2+0x3a>
    2940:	6000 000c      	braw 294e <Ldivdf$2+0x60>
    2944:	b681           	cmpl %d1,%d3
    2946:	6200 fff0      	bhiw 2938 <Ldivdf$2+0x4a>
    294a:	6000 ffe6      	braw 2932 <Ldivdf$2+0x44>
    294e:	7a35           	moveq #53,%d5
    2950:	b082           	cmpl %d2,%d0
    2952:	6200 001c      	bhiw 2970 <Ldivdf$2+0x82>
    2956:	6700 0012      	beqw 296a <Ldivdf$2+0x7c>
    295a:	d281           	addl %d1,%d1
    295c:	d180           	addxl %d0,%d0
    295e:	51cd fff0      	dbf %d5,2950 <Ldivdf$2+0x62>
    2962:	7400           	moveq #0,%d2
    2964:	2602           	movel %d2,%d3
    2966:	6000 0028      	braw 2990 <Ldivdf$2+0xa2>
    296a:	b681           	cmpl %d1,%d3
    296c:	6200 ffec      	bhiw 295a <Ldivdf$2+0x6c>
    2970:	7400           	moveq #0,%d2
    2972:	2602           	movel %d2,%d3
    2974:	0445 0035      	subiw #53,%d5
    2978:	0645 003f      	addiw #63,%d5
    297c:	0c45 001f      	cmpiw #31,%d5
    2980:	6200 000c      	bhiw 298e <Ldivdf$2+0xa0>
    2984:	0bc3           	bset %d5,%d3
    2986:	6000 0008      	braw 2990 <Ldivdf$2+0xa2>
    298a:	0445 0020      	subiw #32,%d5
    298e:	0bc2           	bset %d5,%d2
    2990:	2006           	movel %d6,%d0
    2992:	2207           	movel %d7,%d1
    2994:	7600           	moveq #0,%d3
    2996:	0800 0016      	btst #22,%d0
    299a:	6700 000c      	beqw 29a8 <Ldivdf$2+0xba>
    299e:	e288           	lsrl #1,%d0
    29a0:	e291           	roxrl #1,%d1
    29a2:	e292           	roxrl #1,%d2
    29a4:	e293           	roxrl #1,%d3
    29a6:	5244           	addqw #1,%d4
    29a8:	2e08           	movel %a0,%d7
    29aa:	7a03           	moveq #3,%d5
    29ac:	6000 00a8      	braw 2a56 <Lround$exit>

000029b0 <Ldivdf$inop>:
    29b0:	7a03           	moveq #3,%d5
    29b2:	6000 f948      	braw 22fc <Ld$inop>

000029b6 <Ldivdf$a$0>:
    29b6:	7a03           	moveq #3,%d5
    29b8:	0882 001f      	bclr #31,%d2
    29bc:	2802           	movel %d2,%d4
    29be:	8883           	orl %d3,%d4
    29c0:	6700 f93a      	beqw 22fc <Ld$inop>
    29c4:	0c82 7ff0 0000 	cmpil #2146435072,%d2
    29ca:	6200 f930      	bhiw 22fc <Ld$inop>
    29ce:	6d00 0008      	bltw 29d8 <Ldivdf$a$0+0x22>
    29d2:	4a83           	tstl %d3
    29d4:	6600 f926      	bnew 22fc <Ld$inop>
    29d8:	2008           	movel %a0,%d0
    29da:	7200           	moveq #0,%d1
    29dc:	41f9 0001 2d64 	lea 12d64 <_fpCCR>,%a0
    29e2:	30bc 0000      	movew #0,%a0@
    29e6:	4cdf 00fc      	moveml %sp@+,%d2-%d7
    29ea:	4e5e           	unlk %fp
    29ec:	4e75           	rts

000029ee <Ldivdf$b$0>:
    29ee:	7a03           	moveq #3,%d5
    29f0:	2e08           	movel %a0,%d7
    29f2:	0c80 7ff0 0000 	cmpil #2146435072,%d0
    29f8:	6200 f902      	bhiw 22fc <Ld$inop>
    29fc:	4a81           	tstl %d1
    29fe:	6600 f8fc      	bnew 22fc <Ld$inop>
    2a02:	6000 f908      	braw 230c <Ld$div$0>

00002a06 <Ldivdf$b$nf>:
    2a06:	7a03           	moveq #3,%d5
    2a08:	4a83           	tstl %d3
    2a0a:	6600 f8f0      	bnew 22fc <Ld$inop>
    2a0e:	6000 f8dc      	braw 22ec <Ld$underflow>

00002a12 <Ldivdf$a$nf>:
    2a12:	7a03           	moveq #3,%d5
    2a14:	4a81           	tstl %d1
    2a16:	6600 f8e4      	bnew 22fc <Ld$inop>
    2a1a:	b487           	cmpl %d7,%d2
    2a1c:	6c00 f8de      	bgew 22fc <Ld$inop>
    2a20:	4a83           	tstl %d3
    2a22:	6600 f8d8      	bnew 22fc <Ld$inop>
    2a26:	6000 f8ae      	braw 22d6 <Ld$infty>

00002a2a <Ldivdf$a$den>:
    2a2a:	7801           	moveq #1,%d4
    2a2c:	c086           	andl %d6,%d0
    2a2e:	d281           	addl %d1,%d1
    2a30:	d180           	addxl %d0,%d0
    2a32:	5344           	subqw #1,%d4
    2a34:	0800 0014      	btst #20,%d0
    2a38:	6600 fea2      	bnew 28dc <Ldivdf$1>
    2a3c:	6000 fff0      	braw 2a2e <Ldivdf$a$den+0x4>

00002a40 <Ldivdf$b$den>:
    2a40:	7a01           	moveq #1,%d5
    2a42:	c486           	andl %d6,%d2
    2a44:	d683           	addl %d3,%d3
    2a46:	d582           	addxl %d2,%d2
    2a48:	5345           	subqw #1,%d5
    2a4a:	0802 0014      	btst #20,%d2
    2a4e:	6600 fe9e      	bnew 28ee <Ldivdf$2>
    2a52:	6000 fff0      	braw 2a44 <Ldivdf$b$den+0x4>

00002a56 <Lround$exit>:
    2a56:	0c44 ffca      	cmpiw #-54,%d4
    2a5a:	6d00 f890      	bltw 22ec <Ld$underflow>
    2a5e:	2047           	moveal %d7,%a0
    2a60:	7c00           	moveq #0,%d6
    2a62:	2e06           	movel %d6,%d7
    2a64:	0c44 0001      	cmpiw #1,%d4
    2a68:	6c00 0020      	bgew 2a8a <Lround$exit+0x34>
    2a6c:	5244           	addqw #1,%d4
    2a6e:	e288           	lsrl #1,%d0
    2a70:	e291           	roxrl #1,%d1
    2a72:	e292           	roxrl #1,%d2
    2a74:	e293           	roxrl #1,%d3
    2a76:	e296           	roxrl #1,%d6
    2a78:	e297           	roxrl #1,%d7
    2a7a:	0c44 0001      	cmpiw #1,%d4
    2a7e:	6700 000a      	beqw 2a8a <Lround$exit+0x34>
    2a82:	6000 ffe8      	braw 2a6c <Lround$exit+0x16>
    2a86:	6000 f864      	braw 22ec <Ld$underflow>
    2a8a:	8486           	orl %d6,%d2
    2a8c:	8687           	orl %d7,%d3
    2a8e:	2e08           	movel %a0,%d7
    2a90:	41fa 0020      	lea %pc@(2ab2 <Lround$0>),%a0
    2a94:	43f9 0001 2d64 	lea 12d64 <_fpCCR>,%a1
    2a9a:	3c29 0006      	movew %a1@(6),%d6
    2a9e:	6700 0190      	beqw 2c30 <Lround$to$nearest>
    2aa2:	0c46 0002      	cmpiw #2,%d6
    2aa6:	6200 01ec      	bhiw 2c94 <Lround$to$minus>
    2aaa:	6d00 01e8      	bltw 2c94 <Lround$to$minus>
    2aae:	6000 01e4      	braw 2c94 <Lround$to$minus>

00002ab2 <Lround$0>:
    2ab2:	0c44 07ff      	cmpiw #2047,%d4
    2ab6:	6c00 f81e      	bgew 22d6 <Ld$infty>
    2aba:	3804           	movew %d4,%d4
    2abc:	6700 f80a      	beqw 22c8 <Ld$den>
    2ac0:	e94c           	lslw #4,%d4
    2ac2:	0880 0014      	bclr #20,%d0
    2ac6:	4840           	swap %d0
    2ac8:	8044           	orw %d4,%d0
    2aca:	4840           	swap %d0
    2acc:	8087           	orl %d7,%d0
    2ace:	41f9 0001 2d64 	lea 12d64 <_fpCCR>,%a0
    2ad4:	30bc 0000      	movew #0,%a0@
    2ad8:	4cdf 00fc      	moveml %sp@+,%d2-%d7
    2adc:	4e5e           	unlk %fp
    2ade:	4e75           	rts

00002ae0 <__negdf2>:
    2ae0:	4e56 0000      	linkw %fp,#0
    2ae4:	48e7 3f00      	moveml %d2-%d7,%sp@-
    2ae8:	7a04           	moveq #4,%d5
    2aea:	202e 0008      	movel %fp@(8),%d0
    2aee:	222e 000c      	movel %fp@(12),%d1
    2af2:	0840 001f      	bchg #31,%d0
    2af6:	2400           	movel %d0,%d2
    2af8:	0882 001f      	bclr #31,%d2
    2afc:	2802           	movel %d2,%d4
    2afe:	8881           	orl %d1,%d4
    2b00:	6700 0034      	beqw 2b36 <__negdf2+0x56>
    2b04:	0c82 7ff0 0000 	cmpil #2146435072,%d2
    2b0a:	6d00 0018      	bltw 2b24 <__negdf2+0x44>
    2b0e:	6200 f7ec      	bhiw 22fc <Ld$inop>
    2b12:	4a81           	tstl %d1
    2b14:	6600 f7e6      	bnew 22fc <Ld$inop>
    2b18:	2e00           	movel %d0,%d7
    2b1a:	0287 8000 0000 	andil #-2147483648,%d7
    2b20:	6000 f7b4      	braw 22d6 <Ld$infty>
    2b24:	41f9 0001 2d64 	lea 12d64 <_fpCCR>,%a0
    2b2a:	30bc 0000      	movew #0,%a0@
    2b2e:	4cdf 00fc      	moveml %sp@+,%d2-%d7
    2b32:	4e5e           	unlk %fp
    2b34:	4e75           	rts
    2b36:	0880 001f      	bclr #31,%d0
    2b3a:	6000 ffe8      	braw 2b24 <__negdf2+0x44>

00002b3e <__cmpdf2_internal>:
    2b3e:	4e56 0000      	linkw %fp,#0
    2b42:	48e7 3f00      	moveml %d2-%d7,%sp@-
    2b46:	7a05           	moveq #5,%d5
    2b48:	202e 0008      	movel %fp@(8),%d0
    2b4c:	222e 000c      	movel %fp@(12),%d1
    2b50:	242e 0010      	movel %fp@(16),%d2
    2b54:	262e 0014      	movel %fp@(20),%d3
    2b58:	2c00           	movel %d0,%d6
    2b5a:	0880 001f      	bclr #31,%d0
    2b5e:	2e02           	movel %d2,%d7
    2b60:	0882 001f      	bclr #31,%d2
    2b64:	0c80 7ff0 0000 	cmpil #2146435072,%d0
    2b6a:	6200 0094      	bhiw 2c00 <Lcmpd$inop>
    2b6e:	6700 007c      	beqw 2bec <Lcmpdf$a$nf>
    2b72:	2800           	movel %d0,%d4
    2b74:	8881           	orl %d1,%d4
    2b76:	6700 0064      	beqw 2bdc <Lcmpdf$a$0>

00002b7a <Lcmpdf$0>:
    2b7a:	0c82 7ff0 0000 	cmpil #2146435072,%d2
    2b80:	6200 007e      	bhiw 2c00 <Lcmpd$inop>
    2b84:	6700 0070      	beqw 2bf6 <Lcmpdf$b$nf>
    2b88:	2802           	movel %d2,%d4
    2b8a:	8883           	orl %d3,%d4
    2b8c:	6700 0056      	beqw 2be4 <Lcmpdf$b$0>

00002b90 <Lcmpdf$1>:
    2b90:	bd87           	eorl %d6,%d7
    2b92:	6a00 000c      	bplw 2ba0 <Lcmpdf$1+0x10>
    2b96:	4a86           	tstl %d6
    2b98:	6a00 002e      	bplw 2bc8 <Lcmpdf$a$gt$b>
    2b9c:	6b00 0034      	bmiw 2bd2 <Lcmpdf$b$gt$a>
    2ba0:	4a86           	tstl %d6
    2ba2:	6a00 0006      	bplw 2baa <Lcmpdf$1+0x1a>
    2ba6:	c142           	exg %d0,%d2
    2ba8:	c343           	exg %d1,%d3
    2baa:	b480           	cmpl %d0,%d2
    2bac:	6200 0024      	bhiw 2bd2 <Lcmpdf$b$gt$a>
    2bb0:	6600 0016      	bnew 2bc8 <Lcmpdf$a$gt$b>
    2bb4:	b681           	cmpl %d1,%d3
    2bb6:	6200 001a      	bhiw 2bd2 <Lcmpdf$b$gt$a>
    2bba:	6600 000c      	bnew 2bc8 <Lcmpdf$a$gt$b>
    2bbe:	7000           	moveq #0,%d0
    2bc0:	4cdf 00fc      	moveml %sp@+,%d2-%d7
    2bc4:	4e5e           	unlk %fp
    2bc6:	4e75           	rts

00002bc8 <Lcmpdf$a$gt$b>:
    2bc8:	7001           	moveq #1,%d0
    2bca:	4cdf 00fc      	moveml %sp@+,%d2-%d7
    2bce:	4e5e           	unlk %fp
    2bd0:	4e75           	rts

00002bd2 <Lcmpdf$b$gt$a>:
    2bd2:	70ff           	moveq #-1,%d0
    2bd4:	4cdf 00fc      	moveml %sp@+,%d2-%d7
    2bd8:	4e5e           	unlk %fp
    2bda:	4e75           	rts

00002bdc <Lcmpdf$a$0>:
    2bdc:	0886 001f      	bclr #31,%d6
    2be0:	6000 ff98      	braw 2b7a <Lcmpdf$0>

00002be4 <Lcmpdf$b$0>:
    2be4:	0887 001f      	bclr #31,%d7
    2be8:	6000 ffa6      	braw 2b90 <Lcmpdf$1>

00002bec <Lcmpdf$a$nf>:
    2bec:	4a81           	tstl %d1
    2bee:	6600 f70c      	bnew 22fc <Ld$inop>
    2bf2:	6000 ff86      	braw 2b7a <Lcmpdf$0>

00002bf6 <Lcmpdf$b$nf>:
    2bf6:	4a83           	tstl %d3
    2bf8:	6600 f702      	bnew 22fc <Ld$inop>
    2bfc:	6000 ff92      	braw 2b90 <Lcmpdf$1>

00002c00 <Lcmpd$inop>:
    2c00:	202e 0018      	movel %fp@(24),%d0
    2c04:	7e11           	moveq #17,%d7
    2c06:	7c02           	moveq #2,%d6
    2c08:	4ef9 0000 2ca6 	jmp 2ca6 <$_exception_handler>

00002c0e <__cmpdf2>:
    2c0e:	4e56 0000      	linkw %fp,#0
    2c12:	4878 0001      	pea 1 <ADD>
    2c16:	2f2e 0014      	movel %fp@(20),%sp@-
    2c1a:	2f2e 0010      	movel %fp@(16),%sp@-
    2c1e:	2f2e 000c      	movel %fp@(12),%sp@-
    2c22:	2f2e 0008      	movel %fp@(8),%sp@-
    2c26:	4eb9 0000 2b3e 	jsr 2b3e <__cmpdf2_internal>
    2c2c:	4e5e           	unlk %fp
    2c2e:	4e75           	rts

00002c30 <Lround$to$nearest>:
    2c30:	0800 0015      	btst #21,%d0
    2c34:	6600 0016      	bnew 2c4c <Lround$to$nearest+0x1c>
    2c38:	0c44 0001      	cmpiw #1,%d4
    2c3c:	6700 000e      	beqw 2c4c <Lround$to$nearest+0x1c>
    2c40:	d683           	addl %d3,%d3
    2c42:	d582           	addxl %d2,%d2
    2c44:	d381           	addxl %d1,%d1
    2c46:	d180           	addxl %d0,%d0
    2c48:	51cc ffe6      	dbf %d4,2c30 <Lround$to$nearest>
    2c4c:	0801 0000      	btst #0,%d1
    2c50:	6700 0022      	beqw 2c74 <Lround$to$nearest+0x44>
    2c54:	8682           	orl %d2,%d3
    2c56:	6600 0014      	bnew 2c6c <Lround$to$nearest+0x3c>
    2c5a:	2601           	movel %d1,%d3
    2c5c:	0283 0000 0002 	andil #2,%d3
    2c62:	7400           	moveq #0,%d2
    2c64:	d283           	addl %d3,%d1
    2c66:	d182           	addxl %d2,%d0
    2c68:	6000 000a      	braw 2c74 <Lround$to$nearest+0x44>
    2c6c:	7601           	moveq #1,%d3
    2c6e:	7400           	moveq #0,%d2
    2c70:	d283           	addl %d3,%d1
    2c72:	d182           	addxl %d2,%d0
    2c74:	e288           	lsrl #1,%d0
    2c76:	e291           	roxrl #1,%d1
    2c78:	0800 0015      	btst #21,%d0
    2c7c:	6700 0008      	beqw 2c86 <Lround$to$nearest+0x56>
    2c80:	e288           	lsrl #1,%d0
    2c82:	e291           	roxrl #1,%d1
    2c84:	5244           	addqw #1,%d4
    2c86:	0800 0014      	btst #20,%d0
    2c8a:	6700 0004      	beqw 2c90 <Lround$to$nearest+0x60>
    2c8e:	4ed0           	jmp %a0@
    2c90:	7800           	moveq #0,%d4
    2c92:	4ed0           	jmp %a0@

00002c94 <Lround$to$minus>:
    2c94:	4ed0           	jmp %a0@
	...

00002c98 <__clear_sticky_bit>:
    2c98:	41f9 0001 2d64 	lea 12d64 <_fpCCR>,%a0
    2c9e:	317c 0000 0004 	movew #0,%a0@(4)
    2ca4:	4e75           	rts

00002ca6 <$_exception_handler>:
    2ca6:	41f9 0001 2d64 	lea 12d64 <_fpCCR>,%a0
    2cac:	3087           	movew %d7,%a0@
    2cae:	8f68 0004      	orw %d7,%a0@(4)
    2cb2:	3146 0008      	movew %d6,%a0@(8)
    2cb6:	3145 000a      	movew %d5,%a0@(10)
    2cba:	0c46 0001      	cmpiw #1,%d6
    2cbe:	6700 001e      	beqw 2cde <$_exception_handler+0x38>
    2cc2:	216e 0008 000c 	movel %fp@(8),%a0@(12)
    2cc8:	216e 000c 0010 	movel %fp@(12),%a0@(16)
    2cce:	216e 0010 0014 	movel %fp@(16),%a0@(20)
    2cd4:	216e 0014 0018 	movel %fp@(20),%a0@(24)
    2cda:	6000 000e      	braw 2cea <$_exception_handler+0x44>
    2cde:	216e 0008 000c 	movel %fp@(8),%a0@(12)
    2ce4:	216e 000c 0014 	movel %fp@(12),%a0@(20)
    2cea:	ce68 0002      	andw %a0@(2),%d7
    2cee:	6700 000a      	beqw 2cfa <$_exception_handler+0x54>
    2cf2:	4879 0001 2d64 	pea 12d64 <_fpCCR>
    2cf8:	4e4f           	trap #15
    2cfa:	4cdf 00fc      	moveml %sp@+,%d2-%d7
    2cfe:	4e5e           	unlk %fp
    2d00:	4e75           	rts
	...

00002d04 <__floatsidf.part.0>:
    2d04:	48e7 3800      	moveml %d2-%d4,%sp@-
    2d08:	202f 0010      	movel %sp@(16),%d0
    2d0c:	6b58           	bmis 2d66 <__floatsidf.part.0+0x62>
    2d0e:	7400           	moveq #0,%d2
    2d10:	223c 0000 041d 	movel #1053,%d1
    2d16:	0c80 00ff ffff 	cmpil #16777215,%d0
    2d1c:	6e0c           	bgts 2d2a <__floatsidf.part.0+0x26>
    2d1e:	e988           	lsll #4,%d0
    2d20:	5981           	subql #4,%d1
    2d22:	0c80 00ff ffff 	cmpil #16777215,%d0
    2d28:	6ff4           	bles 2d1e <__floatsidf.part.0+0x1a>
    2d2a:	0c80 3fff ffff 	cmpil #1073741823,%d0
    2d30:	6e0c           	bgts 2d3e <__floatsidf.part.0+0x3a>
    2d32:	d080           	addl %d0,%d0
    2d34:	5381           	subql #1,%d1
    2d36:	0c80 3fff ffff 	cmpil #1073741823,%d0
    2d3c:	6ff4           	bles 2d32 <__floatsidf.part.0+0x2e>
    2d3e:	e949           	lslw #4,%d1
    2d40:	4841           	swap %d1
    2d42:	4241           	clrw %d1
    2d44:	8282           	orl %d2,%d1
    2d46:	2400           	movel %d0,%d2
    2d48:	760a           	moveq #10,%d3
    2d4a:	e6a2           	asrl %d3,%d2
    2d4c:	0882 0014      	bclr #20,%d2
    2d50:	2801           	movel %d1,%d4
    2d52:	8882           	orl %d2,%d4
    2d54:	2600           	movel %d0,%d3
    2d56:	ed4b           	lslw #6,%d3
    2d58:	4843           	swap %d3
    2d5a:	4243           	clrw %d3
    2d5c:	2004           	movel %d4,%d0
    2d5e:	2203           	movel %d3,%d1
    2d60:	4cdf 001c      	moveml %sp@+,%d2-%d4
    2d64:	4e75           	rts
    2d66:	4480           	negl %d0
    2d68:	6b16           	bmis 2d80 <__floatsidf.part.0+0x7c>
    2d6a:	243c 8000 0000 	movel #-2147483648,%d2
    2d70:	223c 0000 041d 	movel #1053,%d1
    2d76:	0c80 00ff ffff 	cmpil #16777215,%d0
    2d7c:	6fa0           	bles 2d1e <__floatsidf.part.0+0x1a>
    2d7e:	60aa           	bras 2d2a <__floatsidf.part.0+0x26>
    2d80:	203c c1e0 0000 	movel #-1042284544,%d0
    2d86:	4281           	clrl %d1
    2d88:	4cdf 001c      	moveml %sp@+,%d2-%d4
    2d8c:	4e75           	rts

00002d8e <__unordsf2>:
    2d8e:	202f 0004      	movel %sp@(4),%d0
    2d92:	0280 7f80 0000 	andil #2139095040,%d0
    2d98:	0c80 7f80 0000 	cmpil #2139095040,%d0
    2d9e:	6716           	beqs 2db6 <__unordsf2+0x28>
    2da0:	202f 0008      	movel %sp@(8),%d0
    2da4:	0280 7f80 0000 	andil #2139095040,%d0
    2daa:	0c80 7f80 0000 	cmpil #2139095040,%d0
    2db0:	6714           	beqs 2dc6 <__unordsf2+0x38>
    2db2:	7000           	moveq #0,%d0
    2db4:	4e75           	rts
    2db6:	202f 0004      	movel %sp@(4),%d0
    2dba:	0280 007f ffff 	andil #8388607,%d0
    2dc0:	67de           	beqs 2da0 <__unordsf2+0x12>
    2dc2:	7001           	moveq #1,%d0
    2dc4:	4e75           	rts
    2dc6:	202f 0008      	movel %sp@(8),%d0
    2dca:	0280 007f ffff 	andil #8388607,%d0
    2dd0:	56c0           	sne %d0
    2dd2:	4880           	extw %d0
    2dd4:	48c0           	extl %d0
    2dd6:	4480           	negl %d0
    2dd8:	4e75           	rts

00002dda <__unorddf2>:
    2dda:	48e7 3800      	moveml %d2-%d4,%sp@-
    2dde:	222f 0010      	movel %sp@(16),%d1
    2de2:	262f 0014      	movel %sp@(20),%d3
    2de6:	202f 0018      	movel %sp@(24),%d0
    2dea:	282f 001c      	movel %sp@(28),%d4
    2dee:	2401           	movel %d1,%d2
    2df0:	0282 7ff0 0000 	andil #2146435072,%d2
    2df6:	0c82 7ff0 0000 	cmpil #2146435072,%d2
    2dfc:	6718           	beqs 2e16 <__unorddf2+0x3c>
    2dfe:	2200           	movel %d0,%d1
    2e00:	0281 7ff0 0000 	andil #2146435072,%d1
    2e06:	0c81 7ff0 0000 	cmpil #2146435072,%d1
    2e0c:	671a           	beqs 2e28 <__unorddf2+0x4e>
    2e0e:	7000           	moveq #0,%d0
    2e10:	4cdf 001c      	moveml %sp@+,%d2-%d4
    2e14:	4e75           	rts
    2e16:	0281 000f ffff 	andil #1048575,%d1
    2e1c:	8283           	orl %d3,%d1
    2e1e:	67de           	beqs 2dfe <__unorddf2+0x24>
    2e20:	7001           	moveq #1,%d0
    2e22:	4cdf 001c      	moveml %sp@+,%d2-%d4
    2e26:	4e75           	rts
    2e28:	0280 000f ffff 	andil #1048575,%d0
    2e2e:	8084           	orl %d4,%d0
    2e30:	56c0           	sne %d0
    2e32:	4880           	extw %d0
    2e34:	48c0           	extl %d0
    2e36:	4480           	negl %d0
    2e38:	4cdf 001c      	moveml %sp@+,%d2-%d4
    2e3c:	4e75           	rts

00002e3e <__floatunsidf>:
    2e3e:	48e7 3800      	moveml %d2-%d4,%sp@-
    2e42:	202f 0010      	movel %sp@(16),%d0
    2e46:	6748           	beqs 2e90 <__floatunsidf+0x52>
    2e48:	223c 0000 041e 	movel #1054,%d1
    2e4e:	0c80 01ff ffff 	cmpil #33554431,%d0
    2e54:	6244           	bhis 2e9a <__floatunsidf+0x5c>
    2e56:	e988           	lsll #4,%d0
    2e58:	5981           	subql #4,%d1
    2e5a:	0c80 01ff ffff 	cmpil #33554431,%d0
    2e60:	63f4           	blss 2e56 <__floatunsidf+0x18>
    2e62:	d080           	addl %d0,%d0
    2e64:	5381           	subql #1,%d1
    2e66:	4a80           	tstl %d0
    2e68:	6cf8           	bges 2e62 <__floatunsidf+0x24>
    2e6a:	2400           	movel %d0,%d2
    2e6c:	760b           	moveq #11,%d3
    2e6e:	e6aa           	lsrl %d3,%d2
    2e70:	0882 0014      	bclr #20,%d2
    2e74:	e949           	lslw #4,%d1
    2e76:	4841           	swap %d1
    2e78:	4241           	clrw %d1
    2e7a:	2802           	movel %d2,%d4
    2e7c:	8881           	orl %d1,%d4
    2e7e:	2600           	movel %d0,%d3
    2e80:	eb4b           	lslw #5,%d3
    2e82:	4843           	swap %d3
    2e84:	4243           	clrw %d3
    2e86:	2004           	movel %d4,%d0
    2e88:	2203           	movel %d3,%d1
    2e8a:	4cdf 001c      	moveml %sp@+,%d2-%d4
    2e8e:	4e75           	rts
    2e90:	4280           	clrl %d0
    2e92:	4281           	clrl %d1
    2e94:	4cdf 001c      	moveml %sp@+,%d2-%d4
    2e98:	4e75           	rts
    2e9a:	4a80           	tstl %d0
    2e9c:	6cc4           	bges 2e62 <__floatunsidf+0x24>
    2e9e:	2400           	movel %d0,%d2
    2ea0:	760b           	moveq #11,%d3
    2ea2:	e6aa           	lsrl %d3,%d2
    2ea4:	0882 0014      	bclr #20,%d2
    2ea8:	e949           	lslw #4,%d1
    2eaa:	4841           	swap %d1
    2eac:	4241           	clrw %d1
    2eae:	2802           	movel %d2,%d4
    2eb0:	8881           	orl %d1,%d4
    2eb2:	2600           	movel %d0,%d3
    2eb4:	eb4b           	lslw #5,%d3
    2eb6:	4843           	swap %d3
    2eb8:	4243           	clrw %d3
    2eba:	2004           	movel %d4,%d0
    2ebc:	2203           	movel %d3,%d1
    2ebe:	60ca           	bras 2e8a <__floatunsidf+0x4c>

00002ec0 <__floatsidf>:
    2ec0:	202f 0004      	movel %sp@(4),%d0
    2ec4:	6708           	beqs 2ece <__floatsidf+0xe>
    2ec6:	2f40 0004      	movel %d0,%sp@(4)
    2eca:	6000 fe38      	braw 2d04 <__floatsidf.part.0>
    2ece:	4280           	clrl %d0
    2ed0:	4281           	clrl %d1
    2ed2:	4e75           	rts

00002ed4 <__floatunsisf>:
    2ed4:	48e7 3800      	moveml %d2-%d4,%sp@-
    2ed8:	202f 0010      	movel %sp@(16),%d0
    2edc:	6750           	beqs 2f2e <__floatunsisf+0x5a>
    2ede:	223c 0000 041e 	movel #1054,%d1
    2ee4:	0c80 01ff ffff 	cmpil #33554431,%d0
    2eea:	624a           	bhis 2f36 <__floatunsisf+0x62>
    2eec:	e988           	lsll #4,%d0
    2eee:	5981           	subql #4,%d1
    2ef0:	0c80 01ff ffff 	cmpil #33554431,%d0
    2ef6:	63f4           	blss 2eec <__floatunsisf+0x18>
    2ef8:	d080           	addl %d0,%d0
    2efa:	5381           	subql #1,%d1
    2efc:	4a80           	tstl %d0
    2efe:	6cf8           	bges 2ef8 <__floatunsisf+0x24>
    2f00:	2800           	movel %d0,%d4
    2f02:	740b           	moveq #11,%d2
    2f04:	e4ac           	lsrl %d2,%d4
    2f06:	0884 0014      	bclr #20,%d4
    2f0a:	e949           	lslw #4,%d1
    2f0c:	4841           	swap %d1
    2f0e:	4241           	clrw %d1
    2f10:	2404           	movel %d4,%d2
    2f12:	8481           	orl %d1,%d2
    2f14:	2600           	movel %d0,%d3
    2f16:	eb4b           	lslw #5,%d3
    2f18:	4843           	swap %d3
    2f1a:	4243           	clrw %d3
    2f1c:	2f03           	movel %d3,%sp@-
    2f1e:	2f02           	movel %d2,%sp@-
    2f20:	4eb9 0000 2ff6 	jsr 2ff6 <__truncdfsf2>
    2f26:	508f           	addql #8,%sp
    2f28:	4cdf 001c      	moveml %sp@+,%d2-%d4
    2f2c:	4e75           	rts
    2f2e:	7000           	moveq #0,%d0
    2f30:	4cdf 001c      	moveml %sp@+,%d2-%d4
    2f34:	4e75           	rts
    2f36:	4a80           	tstl %d0
    2f38:	6cbe           	bges 2ef8 <__floatunsisf+0x24>
    2f3a:	2800           	movel %d0,%d4
    2f3c:	740b           	moveq #11,%d2
    2f3e:	e4ac           	lsrl %d2,%d4
    2f40:	0884 0014      	bclr #20,%d4
    2f44:	e949           	lslw #4,%d1
    2f46:	4841           	swap %d1
    2f48:	4241           	clrw %d1
    2f4a:	2404           	movel %d4,%d2
    2f4c:	8481           	orl %d1,%d2
    2f4e:	2600           	movel %d0,%d3
    2f50:	eb4b           	lslw #5,%d3
    2f52:	4843           	swap %d3
    2f54:	4243           	clrw %d3
    2f56:	2f03           	movel %d3,%sp@-
    2f58:	2f02           	movel %d2,%sp@-
    2f5a:	4eb9 0000 2ff6 	jsr 2ff6 <__truncdfsf2>
    2f60:	508f           	addql #8,%sp
    2f62:	60c4           	bras 2f28 <__floatunsisf+0x54>

00002f64 <__floatsisf>:
    2f64:	202f 0004      	movel %sp@(4),%d0
    2f68:	6714           	beqs 2f7e <__floatsisf+0x1a>
    2f6a:	2f00           	movel %d0,%sp@-
    2f6c:	4eba fd96      	jsr %pc@(2d04 <__floatsidf.part.0>)
    2f70:	2e81           	movel %d1,%sp@
    2f72:	2f00           	movel %d0,%sp@-
    2f74:	4eb9 0000 2ff6 	jsr 2ff6 <__truncdfsf2>
    2f7a:	508f           	addql #8,%sp
    2f7c:	4e75           	rts
    2f7e:	7000           	moveq #0,%d0
    2f80:	4e75           	rts

00002f82 <__extendsfdf2>:
    2f82:	48e7 3800      	moveml %d2-%d4,%sp@-
    2f86:	202f 0010      	movel %sp@(16),%d0
    2f8a:	2600           	movel %d0,%d3
    2f8c:	0283 8000 0000 	andil #-2147483648,%d3
    2f92:	2200           	movel %d0,%d1
    2f94:	0881 001f      	bclr #31,%d1
    2f98:	4a81           	tstl %d1
    2f9a:	674e           	beqs 2fea <__extendsfdf2+0x68>
    2f9c:	2400           	movel %d0,%d2
    2f9e:	4842           	swap %d2
    2fa0:	ee42           	asrw #7,%d2
    2fa2:	48c2           	extl %d2
    2fa4:	7200           	moveq #0,%d1
    2fa6:	4601           	notb %d1
    2fa8:	c282           	andl %d2,%d1
    2faa:	0280 007f ffff 	andil #8388607,%d0
    2fb0:	4a02           	tstb %d2
    2fb2:	6610           	bnes 2fc4 <__extendsfdf2+0x42>
    2fb4:	7201           	moveq #1,%d1
    2fb6:	d080           	addl %d0,%d0
    2fb8:	5381           	subql #1,%d1
    2fba:	0800 0017      	btst #23,%d0
    2fbe:	67f6           	beqs 2fb6 <__extendsfdf2+0x34>
    2fc0:	0880 0017      	bclr #23,%d0
    2fc4:	0681 0000 0380 	addil #896,%d1
    2fca:	e949           	lslw #4,%d1
    2fcc:	4841           	swap %d1
    2fce:	4241           	clrw %d1
    2fd0:	2400           	movel %d0,%d2
    2fd2:	e682           	asrl #3,%d2
    2fd4:	8483           	orl %d3,%d2
    2fd6:	2801           	movel %d1,%d4
    2fd8:	8882           	orl %d2,%d4
    2fda:	2600           	movel %d0,%d3
    2fdc:	721d           	moveq #29,%d1
    2fde:	e3ab           	lsll %d1,%d3
    2fe0:	2004           	movel %d4,%d0
    2fe2:	2203           	movel %d3,%d1
    2fe4:	4cdf 001c      	moveml %sp@+,%d2-%d4
    2fe8:	4e75           	rts
    2fea:	91c8           	subal %a0,%a0
    2fec:	2003           	movel %d3,%d0
    2fee:	2208           	movel %a0,%d1
    2ff0:	4cdf 001c      	moveml %sp@+,%d2-%d4
    2ff4:	4e75           	rts

00002ff6 <__truncdfsf2>:
    2ff6:	48e7 3e00      	moveml %d2-%d6,%sp@-
    2ffa:	222f 0018      	movel %sp@(24),%d1
    2ffe:	202f 001c      	movel %sp@(28),%d0
    3002:	2601           	movel %d1,%d3
    3004:	0283 8000 0000 	andil #-2147483648,%d3
    300a:	2401           	movel %d1,%d2
    300c:	0882 001f      	bclr #31,%d2
    3010:	8480           	orl %d0,%d2
    3012:	6700 00d8      	beqw 30ec <__truncdfsf2+0xf6>
    3016:	2801           	movel %d1,%d4
    3018:	4844           	swap %d4
    301a:	e844           	asrw #4,%d4
    301c:	48c4           	extl %d4
    301e:	0284 0000 07ff 	andil #2047,%d4
    3024:	0684 ffff fc80 	addil #-896,%d4
    302a:	740a           	moveq #10,%d2
    302c:	e5a9           	lsll %d2,%d1
    302e:	0281 3fff fc00 	andil #1073740800,%d1
    3034:	2400           	movel %d0,%d2
    3036:	4242           	clrw %d2
    3038:	4842           	swap %d2
    303a:	ec4a           	lsrw #6,%d2
    303c:	8282           	orl %d2,%d1
    303e:	0280 003f ffff 	andil #4194303,%d0
    3044:	7a3f           	moveq #63,%d5
    3046:	c485           	andl %d5,%d2
    3048:	8082           	orl %d2,%d0
    304a:	ec81           	asrl #6,%d1
    304c:	2401           	movel %d1,%d2
    304e:	08c2 0018      	bset #24,%d2
    3052:	4a84           	tstl %d4
    3054:	6f44           	bles 309a <__truncdfsf2+0xa4>
    3056:	0801 0000      	btst #0,%d1
    305a:	6770           	beqs 30cc <__truncdfsf2+0xd6>
    305c:	7a02           	moveq #2,%d5
    305e:	c285           	andl %d5,%d1
    3060:	8280           	orl %d0,%d1
    3062:	6768           	beqs 30cc <__truncdfsf2+0xd6>
    3064:	4205           	clrb %d5
    3066:	7202           	moveq #2,%d1
    3068:	5282           	addql #1,%d2
    306a:	203c 0200 0000 	movel #33554432,%d0
    3070:	4a05           	tstb %d5
    3072:	6706           	beqs 307a <__truncdfsf2+0x84>
    3074:	203c 0100 0000 	movel #16777216,%d0
    307a:	b480           	cmpl %d0,%d2
    307c:	6d4e           	blts 30cc <__truncdfsf2+0xd6>
    307e:	2002           	movel %d2,%d0
    3080:	e2a0           	asrl %d1,%d0
    3082:	0880 0017      	bclr #23,%d0
    3086:	5284           	addql #1,%d4
    3088:	2204           	movel %d4,%d1
    308a:	ef49           	lslw #7,%d1
    308c:	4841           	swap %d1
    308e:	4241           	clrw %d1
    3090:	8081           	orl %d1,%d0
    3092:	8083           	orl %d3,%d0
    3094:	4cdf 007c      	moveml %sp@+,%d2-%d6
    3098:	4e75           	rts
    309a:	72e8           	moveq #-24,%d1
    309c:	b284           	cmpl %d4,%d1
    309e:	6e42           	bgts 30e2 <__truncdfsf2+0xec>
    30a0:	7c01           	moveq #1,%d6
    30a2:	9c84           	subl %d4,%d6
    30a4:	2a02           	movel %d2,%d5
    30a6:	eca5           	asrl %d6,%d5
    30a8:	7201           	moveq #1,%d1
    30aa:	c285           	andl %d5,%d1
    30ac:	0805 0000      	btst #0,%d5
    30b0:	6742           	beqs 30f4 <__truncdfsf2+0xfe>
    30b2:	7801           	moveq #1,%d4
    30b4:	edac           	lsll %d6,%d4
    30b6:	5384           	subql #1,%d4
    30b8:	c484           	andl %d4,%d2
    30ba:	8082           	orl %d2,%d0
    30bc:	7402           	moveq #2,%d2
    30be:	c485           	andl %d5,%d2
    30c0:	8082           	orl %d2,%d0
    30c2:	673a           	beqs 30fe <__truncdfsf2+0x108>
    30c4:	2405           	movel %d5,%d2
    30c6:	7a01           	moveq #1,%d5
    30c8:	7800           	moveq #0,%d4
    30ca:	609c           	bras 3068 <__truncdfsf2+0x72>
    30cc:	2002           	movel %d2,%d0
    30ce:	e280           	asrl #1,%d0
    30d0:	0880 0017      	bclr #23,%d0
    30d4:	2204           	movel %d4,%d1
    30d6:	ef49           	lslw #7,%d1
    30d8:	4841           	swap %d1
    30da:	4241           	clrw %d1
    30dc:	8081           	orl %d1,%d0
    30de:	8083           	orl %d3,%d0
    30e0:	60b2           	bras 3094 <__truncdfsf2+0x9e>
    30e2:	7200           	moveq #0,%d1
    30e4:	7000           	moveq #0,%d0
    30e6:	8081           	orl %d1,%d0
    30e8:	8083           	orl %d3,%d0
    30ea:	60a8           	bras 3094 <__truncdfsf2+0x9e>
    30ec:	2003           	movel %d3,%d0
    30ee:	4cdf 007c      	moveml %sp@+,%d2-%d6
    30f2:	4e75           	rts
    30f4:	2005           	movel %d5,%d0
    30f6:	e280           	asrl #1,%d0
    30f8:	8081           	orl %d1,%d0
    30fa:	8083           	orl %d3,%d0
    30fc:	6096           	bras 3094 <__truncdfsf2+0x9e>
    30fe:	2005           	movel %d5,%d0
    3100:	e280           	asrl #1,%d0
    3102:	7200           	moveq #0,%d1
    3104:	8081           	orl %d1,%d0
    3106:	8083           	orl %d3,%d0
    3108:	608a           	bras 3094 <__truncdfsf2+0x9e>

0000310a <__fixdfsi>:
    310a:	48e7 3800      	moveml %d2-%d4,%sp@-
    310e:	222f 0010      	movel %sp@(16),%d1
    3112:	262f 0014      	movel %sp@(20),%d3
    3116:	2001           	movel %d1,%d0
    3118:	6724           	beqs 313e <__fixdfsi+0x34>
    311a:	2401           	movel %d1,%d2
    311c:	4842           	swap %d2
    311e:	e842           	asrw #4,%d2
    3120:	48c2           	extl %d2
    3122:	0282 0000 07ff 	andil #2047,%d2
    3128:	2042           	moveal %d2,%a0
    312a:	41e8 fbe3      	lea %a0@(-1053),%a0
    312e:	b0fc 0000      	cmpaw #0,%a0
    3132:	6f10           	bles 3144 <__fixdfsi+0x3a>
    3134:	4a81           	tstl %d1
    3136:	6d4e           	blts 3186 <__fixdfsi+0x7c>
    3138:	203c 7fff ffff 	movel #2147483647,%d0
    313e:	4cdf 001c      	moveml %sp@+,%d2-%d4
    3142:	4e75           	rts
    3144:	78e1           	moveq #-31,%d4
    3146:	b888           	cmpl %a0,%d4
    3148:	6e48           	bgts 3192 <__fixdfsi+0x88>
    314a:	780a           	moveq #10,%d4
    314c:	e9a9           	lsll %d4,%d1
    314e:	0281 3fff fc00 	andil #1073740800,%d1
    3154:	4243           	clrw %d3
    3156:	4843           	swap %d3
    3158:	ec4b           	lsrw #6,%d3
    315a:	8283           	orl %d3,%d1
    315c:	08c1 001e      	bset #30,%d1
    3160:	b0fc 0000      	cmpaw #0,%a0
    3164:	670a           	beqs 3170 <__fixdfsi+0x66>
    3166:	263c 0000 041d 	movel #1053,%d3
    316c:	9682           	subl %d2,%d3
    316e:	e6a1           	asrl %d3,%d1
    3170:	4a80           	tstl %d0
    3172:	6d08           	blts 317c <__fixdfsi+0x72>
    3174:	2001           	movel %d1,%d0
    3176:	4cdf 001c      	moveml %sp@+,%d2-%d4
    317a:	4e75           	rts
    317c:	2001           	movel %d1,%d0
    317e:	4480           	negl %d0
    3180:	4cdf 001c      	moveml %sp@+,%d2-%d4
    3184:	4e75           	rts
    3186:	203c 8000 0000 	movel #-2147483648,%d0
    318c:	4cdf 001c      	moveml %sp@+,%d2-%d4
    3190:	4e75           	rts
    3192:	7000           	moveq #0,%d0
    3194:	4cdf 001c      	moveml %sp@+,%d2-%d4
    3198:	4e75           	rts

0000319a <__fixsfsi>:
    319a:	48e7 3800      	moveml %d2-%d4,%sp@-
    319e:	2f2f 0010      	movel %sp@(16),%sp@-
    31a2:	4eb9 0000 2f82 	jsr 2f82 <__extendsfdf2>
    31a8:	588f           	addql #4,%sp
    31aa:	2400           	movel %d0,%d2
    31ac:	2002           	movel %d2,%d0
    31ae:	6724           	beqs 31d4 <__fixsfsi+0x3a>
    31b0:	2602           	movel %d2,%d3
    31b2:	4843           	swap %d3
    31b4:	e843           	asrw #4,%d3
    31b6:	48c3           	extl %d3
    31b8:	0283 0000 07ff 	andil #2047,%d3
    31be:	2043           	moveal %d3,%a0
    31c0:	41e8 fbe3      	lea %a0@(-1053),%a0
    31c4:	b0fc 0000      	cmpaw #0,%a0
    31c8:	6f10           	bles 31da <__fixsfsi+0x40>
    31ca:	4a82           	tstl %d2
    31cc:	6d4e           	blts 321c <__fixsfsi+0x82>
    31ce:	203c 7fff ffff 	movel #2147483647,%d0
    31d4:	4cdf 001c      	moveml %sp@+,%d2-%d4
    31d8:	4e75           	rts
    31da:	78e1           	moveq #-31,%d4
    31dc:	b888           	cmpl %a0,%d4
    31de:	6e48           	bgts 3228 <__fixsfsi+0x8e>
    31e0:	780a           	moveq #10,%d4
    31e2:	e9aa           	lsll %d4,%d2
    31e4:	0282 3fff fc00 	andil #1073740800,%d2
    31ea:	4241           	clrw %d1
    31ec:	4841           	swap %d1
    31ee:	ec49           	lsrw #6,%d1
    31f0:	8481           	orl %d1,%d2
    31f2:	08c2 001e      	bset #30,%d2
    31f6:	b0fc 0000      	cmpaw #0,%a0
    31fa:	670a           	beqs 3206 <__fixsfsi+0x6c>
    31fc:	223c 0000 041d 	movel #1053,%d1
    3202:	9283           	subl %d3,%d1
    3204:	e2a2           	asrl %d1,%d2
    3206:	4a80           	tstl %d0
    3208:	6d08           	blts 3212 <__fixsfsi+0x78>
    320a:	2002           	movel %d2,%d0
    320c:	4cdf 001c      	moveml %sp@+,%d2-%d4
    3210:	4e75           	rts
    3212:	2002           	movel %d2,%d0
    3214:	4480           	negl %d0
    3216:	4cdf 001c      	moveml %sp@+,%d2-%d4
    321a:	4e75           	rts
    321c:	203c 8000 0000 	movel #-2147483648,%d0
    3222:	4cdf 001c      	moveml %sp@+,%d2-%d4
    3226:	4e75           	rts
    3228:	7000           	moveq #0,%d0
    322a:	4cdf 001c      	moveml %sp@+,%d2-%d4
    322e:	4e75           	rts

00003230 <atexit>:
    3230:	42a7           	clrl %sp@-
    3232:	42a7           	clrl %sp@-
    3234:	2f2f 000c      	movel %sp@(12),%sp@-
    3238:	42a7           	clrl %sp@-
    323a:	4eb9 0000 36d4 	jsr 36d4 <__register_exitproc>
    3240:	4fef 0010      	lea %sp@(16),%sp
    3244:	4e75           	rts
	...

00003248 <exit>:
    3248:	2f02           	movel %d2,%sp@-
    324a:	242f 0008      	movel %sp@(8),%d2
    324e:	42a7           	clrl %sp@-
    3250:	2f02           	movel %d2,%sp@-
    3252:	4eb9 0000 376c 	jsr 376c <__call_exitprocs>
    3258:	2079 0001 3580 	moveal 13580 <__stdio_exit_handler>,%a0
    325e:	508f           	addql #8,%sp
    3260:	b0fc 0000      	cmpaw #0,%a0
    3264:	6702           	beqs 3268 <exit+0x20>
    3266:	4e90           	jsr %a0@
    3268:	2f02           	movel %d2,%sp@-
    326a:	4eb9 0000 b718 	jsr b718 <_exit>

00003270 <_printf_r>:
    3270:	4e56 0000      	linkw %fp,#0
    3274:	206e 0008      	moveal %fp@(8),%a0
    3278:	486e 0010      	pea %fp@(16)
    327c:	2f2e 000c      	movel %fp@(12),%sp@-
    3280:	2f28 0008      	movel %a0@(8),%sp@-
    3284:	2f08           	movel %a0,%sp@-
    3286:	4eb9 0000 406c 	jsr 406c <_vfprintf_r>
    328c:	4fef 0010      	lea %sp@(16),%sp
    3290:	4e5e           	unlk %fp
    3292:	4e75           	rts

00003294 <printf>:
    3294:	4e56 0000      	linkw %fp,#0
    3298:	2079 0001 2d8c 	moveal 12d8c <_impure_ptr>,%a0
    329e:	486e 000c      	pea %fp@(12)
    32a2:	2f2e 0008      	movel %fp@(8),%sp@-
    32a6:	2f28 0008      	movel %a0@(8),%sp@-
    32aa:	2f08           	movel %a0,%sp@-
    32ac:	4eb9 0000 406c 	jsr 406c <_vfprintf_r>
    32b2:	4fef 0010      	lea %sp@(16),%sp
    32b6:	4e5e           	unlk %fp
    32b8:	4e75           	rts
	...

000032bc <__fp_lock>:
    32bc:	7000           	moveq #0,%d0
    32be:	4e75           	rts

000032c0 <stdio_exit_handler>:
    32c0:	4879 0001 2d80 	pea 12d80 <__sglue>
    32c6:	4879 0000 5e70 	pea 5e70 <_fclose_r>
    32cc:	4879 0001 2d90 	pea 12d90 <_impure_data>
    32d2:	4eb9 0000 3608 	jsr 3608 <_fwalk_sglue>
    32d8:	4fef 000c      	lea %sp@(12),%sp
    32dc:	4e75           	rts

000032de <cleanup_stdio>:
    32de:	2f0a           	movel %a2,%sp@-
    32e0:	246f 0008      	moveal %sp@(8),%a2
    32e4:	202a 0004      	movel %a2@(4),%d0
    32e8:	0c80 0001 3448 	cmpil #78920,%d0
    32ee:	670c           	beqs 32fc <cleanup_stdio+0x1e>
    32f0:	2f00           	movel %d0,%sp@-
    32f2:	2f0a           	movel %a2,%sp@-
    32f4:	4eb9 0000 5e70 	jsr 5e70 <_fclose_r>
    32fa:	508f           	addql #8,%sp
    32fc:	202a 0008      	movel %a2@(8),%d0
    3300:	0c80 0001 34b0 	cmpil #79024,%d0
    3306:	670c           	beqs 3314 <cleanup_stdio+0x36>
    3308:	2f00           	movel %d0,%sp@-
    330a:	2f0a           	movel %a2,%sp@-
    330c:	4eb9 0000 5e70 	jsr 5e70 <_fclose_r>
    3312:	508f           	addql #8,%sp
    3314:	202a 000c      	movel %a2@(12),%d0
    3318:	0c80 0001 3518 	cmpil #79128,%d0
    331e:	670c           	beqs 332c <cleanup_stdio+0x4e>
    3320:	2f00           	movel %d0,%sp@-
    3322:	2f0a           	movel %a2,%sp@-
    3324:	4eb9 0000 5e70 	jsr 5e70 <_fclose_r>
    332a:	508f           	addql #8,%sp
    332c:	245f           	moveal %sp@+,%a2
    332e:	4e75           	rts

00003330 <__fp_unlock>:
    3330:	7000           	moveq #0,%d0
    3332:	4e75           	rts

00003334 <global_stdio_init.part.0>:
    3334:	2f0b           	movel %a3,%sp@-
    3336:	2f0a           	movel %a2,%sp@-
    3338:	23fc 0000 32c0 	movel #12992,13580 <__stdio_exit_handler>
    333e:	0001 3580 
    3342:	47f9 0001 3448 	lea 13448 <__sf>,%a3
    3348:	4293           	clrl %a3@
    334a:	42b9 0001 344c 	clrl 1344c <__sf+0x4>
    3350:	42b9 0001 3450 	clrl 13450 <__sf+0x8>
    3356:	42b9 0001 34ac 	clrl 134ac <__sf+0x64>
    335c:	23fc 0004 0000 	movel #262144,13454 <__sf+0xc>
    3362:	0001 3454 
    3366:	42b9 0001 3458 	clrl 13458 <__sf+0x10>
    336c:	42b9 0001 345c 	clrl 1345c <__sf+0x14>
    3372:	42b9 0001 3460 	clrl 13460 <__sf+0x18>
    3378:	4878 0008      	pea 8 <DIVIDE_BY_ZERO>
    337c:	42a7           	clrl %sp@-
    337e:	4879 0001 34a4 	pea 134a4 <__sf+0x5c>
    3384:	45f9 0000 3660 	lea 3660 <memset>,%a2
    338a:	4e92           	jsr %a2@
    338c:	23cb 0001 3464 	movel %a3,13464 <__sf+0x1c>
    3392:	23fc 0000 61d0 	movel #25040,13468 <__sf+0x20>
    3398:	0001 3468 
    339c:	23fc 0000 620c 	movel #25100,1346c <__sf+0x24>
    33a2:	0001 346c 
    33a6:	23fc 0000 6292 	movel #25234,13470 <__sf+0x28>
    33ac:	0001 3470 
    33b0:	23fc 0000 62d2 	movel #25298,13474 <__sf+0x2c>
    33b6:	0001 3474 
    33ba:	42b9 0001 34b0 	clrl 134b0 <__sf+0x68>
    33c0:	42b9 0001 34b4 	clrl 134b4 <__sf+0x6c>
    33c6:	42b9 0001 34b8 	clrl 134b8 <__sf+0x70>
    33cc:	42b9 0001 3514 	clrl 13514 <__sf+0xcc>
    33d2:	23fc 0009 0001 	movel #589825,134bc <__sf+0x74>
    33d8:	0001 34bc 
    33dc:	42b9 0001 34c0 	clrl 134c0 <__sf+0x78>
    33e2:	42b9 0001 34c4 	clrl 134c4 <__sf+0x7c>
    33e8:	42b9 0001 34c8 	clrl 134c8 <__sf+0x80>
    33ee:	4878 0008      	pea 8 <DIVIDE_BY_ZERO>
    33f2:	42a7           	clrl %sp@-
    33f4:	4879 0001 350c 	pea 1350c <__sf+0xc4>
    33fa:	4e92           	jsr %a2@
    33fc:	23fc 0001 34b0 	movel #79024,134cc <__sf+0x84>
    3402:	0001 34cc 
    3406:	23fc 0000 61d0 	movel #25040,134d0 <__sf+0x88>
    340c:	0001 34d0 
    3410:	23fc 0000 620c 	movel #25100,134d4 <__sf+0x8c>
    3416:	0001 34d4 
    341a:	23fc 0000 6292 	movel #25234,134d8 <__sf+0x90>
    3420:	0001 34d8 
    3424:	23fc 0000 62d2 	movel #25298,134dc <__sf+0x94>
    342a:	0001 34dc 
    342e:	42b9 0001 3518 	clrl 13518 <__sf+0xd0>
    3434:	42b9 0001 351c 	clrl 1351c <__sf+0xd4>
    343a:	42b9 0001 3520 	clrl 13520 <__sf+0xd8>
    3440:	42b9 0001 357c 	clrl 1357c <__sf+0x134>
    3446:	23fc 0012 0002 	movel #1179650,13524 <__sf+0xdc>
    344c:	0001 3524 
    3450:	42b9 0001 3528 	clrl 13528 <__sf+0xe0>
    3456:	42b9 0001 352c 	clrl 1352c <__sf+0xe4>
    345c:	42b9 0001 3530 	clrl 13530 <__sf+0xe8>
    3462:	4878 0008      	pea 8 <DIVIDE_BY_ZERO>
    3466:	42a7           	clrl %sp@-
    3468:	4879 0001 3574 	pea 13574 <__sf+0x12c>
    346e:	4e92           	jsr %a2@
    3470:	23fc 0001 3518 	movel #79128,13534 <__sf+0xec>
    3476:	0001 3534 
    347a:	23fc 0000 61d0 	movel #25040,13538 <__sf+0xf0>
    3480:	0001 3538 
    3484:	23fc 0000 620c 	movel #25100,1353c <__sf+0xf4>
    348a:	0001 353c 
    348e:	23fc 0000 6292 	movel #25234,13540 <__sf+0xf8>
    3494:	0001 3540 
    3498:	23fc 0000 62d2 	movel #25298,13544 <__sf+0xfc>
    349e:	0001 3544 
    34a2:	4fef 0024      	lea %sp@(36),%sp
    34a6:	245f           	moveal %sp@+,%a2
    34a8:	265f           	moveal %sp@+,%a3
    34aa:	4e75           	rts

000034ac <__sfp>:
    34ac:	2f0b           	movel %a3,%sp@-
    34ae:	2f0a           	movel %a2,%sp@-
    34b0:	4ab9 0001 3580 	tstl 13580 <__stdio_exit_handler>
    34b6:	6700 00d2      	beqw 358a <__sfp+0xde>
    34ba:	47f9 0001 2d80 	lea 12d80 <__sglue>,%a3
    34c0:	246b 0008      	moveal %a3@(8),%a2
    34c4:	202b 0004      	movel %a3@(4),%d0
    34c8:	5380           	subql #1,%d0
    34ca:	6b14           	bmis 34e0 <__sfp+0x34>
    34cc:	4a6a 000c      	tstw %a2@(12)
    34d0:	6726           	beqs 34f8 <__sfp+0x4c>
    34d2:	45ea 0068      	lea %a2@(104),%a2
    34d6:	51c8 fff4      	dbf %d0,34cc <__sfp+0x20>
    34da:	4240           	clrw %d0
    34dc:	5380           	subql #1,%d0
    34de:	64ec           	bccs 34cc <__sfp+0x20>
    34e0:	2453           	moveal %a3@,%a2
    34e2:	b4fc 0000      	cmpaw #0,%a2
    34e6:	6762           	beqs 354a <__sfp+0x9e>
    34e8:	264a           	moveal %a2,%a3
    34ea:	246b 0008      	moveal %a3@(8),%a2
    34ee:	202b 0004      	movel %a3@(4),%d0
    34f2:	5380           	subql #1,%d0
    34f4:	6ad6           	bpls 34cc <__sfp+0x20>
    34f6:	60e8           	bras 34e0 <__sfp+0x34>
    34f8:	357c ffff 000e 	movew #-1,%a2@(14)
    34fe:	357c 0001 000c 	movew #1,%a2@(12)
    3504:	42aa 0064      	clrl %a2@(100)
    3508:	4292           	clrl %a2@
    350a:	42aa 0008      	clrl %a2@(8)
    350e:	42aa 0004      	clrl %a2@(4)
    3512:	42aa 0010      	clrl %a2@(16)
    3516:	42aa 0014      	clrl %a2@(20)
    351a:	42aa 0018      	clrl %a2@(24)
    351e:	4878 0008      	pea 8 <DIVIDE_BY_ZERO>
    3522:	42a7           	clrl %sp@-
    3524:	486a 005c      	pea %a2@(92)
    3528:	4eb9 0000 3660 	jsr 3660 <memset>
    352e:	42aa 0030      	clrl %a2@(48)
    3532:	42aa 0034      	clrl %a2@(52)
    3536:	42aa 0044      	clrl %a2@(68)
    353a:	42aa 0048      	clrl %a2@(72)
    353e:	4fef 000c      	lea %sp@(12),%sp
    3542:	200a           	movel %a2,%d0
    3544:	245f           	moveal %sp@+,%a2
    3546:	265f           	moveal %sp@+,%a3
    3548:	4e75           	rts
    354a:	4878 01ac      	pea 1ac <DBL_MANT_DIG+0x177>
    354e:	2f2f 0010      	movel %sp@(16),%sp@-
    3552:	4eb9 0000 3828 	jsr 3828 <_malloc_r>
    3558:	2440           	moveal %d0,%a2
    355a:	508f           	addql #8,%sp
    355c:	4a80           	tstl %d0
    355e:	673a           	beqs 359a <__sfp+0xee>
    3560:	4292           	clrl %a2@
    3562:	7004           	moveq #4,%d0
    3564:	2540 0004      	movel %d0,%a2@(4)
    3568:	41ea 000c      	lea %a2@(12),%a0
    356c:	2548 0008      	movel %a0,%a2@(8)
    3570:	4878 01a0      	pea 1a0 <DBL_MANT_DIG+0x16b>
    3574:	42a7           	clrl %sp@-
    3576:	2f08           	movel %a0,%sp@-
    3578:	4eb9 0000 3660 	jsr 3660 <memset>
    357e:	268a           	movel %a2,%a3@
    3580:	4fef 000c      	lea %sp@(12),%sp
    3584:	264a           	moveal %a2,%a3
    3586:	6000 ff62      	braw 34ea <__sfp+0x3e>
    358a:	4eb9 0000 3334 	jsr 3334 <global_stdio_init.part.0>
    3590:	47f9 0001 2d80 	lea 12d80 <__sglue>,%a3
    3596:	6000 ff28      	braw 34c0 <__sfp+0x14>
    359a:	4293           	clrl %a3@
    359c:	700c           	moveq #12,%d0
    359e:	206f 000c      	moveal %sp@(12),%a0
    35a2:	2080           	movel %d0,%a0@
    35a4:	200a           	movel %a2,%d0
    35a6:	245f           	moveal %sp@+,%a2
    35a8:	265f           	moveal %sp@+,%a3
    35aa:	4e75           	rts

000035ac <__sinit>:
    35ac:	206f 0004      	moveal %sp@(4),%a0
    35b0:	4aa8 0032      	tstl %a0@(50)
    35b4:	6702           	beqs 35b8 <__sinit+0xc>
    35b6:	4e75           	rts
    35b8:	217c 0000 32de 	movel #13022,%a0@(50)
    35be:	0032 
    35c0:	4ab9 0001 3580 	tstl 13580 <__stdio_exit_handler>
    35c6:	66ee           	bnes 35b6 <__sinit+0xa>
    35c8:	4ef9 0000 3334 	jmp 3334 <global_stdio_init.part.0>

000035ce <__sfp_lock_acquire>:
    35ce:	4e75           	rts

000035d0 <__sfp_lock_release>:
    35d0:	4e75           	rts

000035d2 <__fp_lock_all>:
    35d2:	4879 0001 2d80 	pea 12d80 <__sglue>
    35d8:	4879 0000 32bc 	pea 32bc <__fp_lock>
    35de:	42a7           	clrl %sp@-
    35e0:	4eb9 0000 3608 	jsr 3608 <_fwalk_sglue>
    35e6:	4fef 000c      	lea %sp@(12),%sp
    35ea:	4e75           	rts

000035ec <__fp_unlock_all>:
    35ec:	4879 0001 2d80 	pea 12d80 <__sglue>
    35f2:	4879 0000 3330 	pea 3330 <__fp_unlock>
    35f8:	42a7           	clrl %sp@-
    35fa:	4eb9 0000 3608 	jsr 3608 <_fwalk_sglue>
    3600:	4fef 000c      	lea %sp@(12),%sp
    3604:	4e75           	rts
	...

00003608 <_fwalk_sglue>:
    3608:	48e7 3838      	moveml %d2-%d4/%a2-%a4,%sp@-
    360c:	282f 001c      	movel %sp@(28),%d4
    3610:	286f 0020      	moveal %sp@(32),%a4
    3614:	266f 0024      	moveal %sp@(36),%a3
    3618:	7600           	moveq #0,%d3
    361a:	246b 0008      	moveal %a3@(8),%a2
    361e:	242b 0004      	movel %a3@(4),%d2
    3622:	5382           	subql #1,%d2
    3624:	6b28           	bmis 364e <_fwalk_sglue+0x46>
    3626:	0c6a 0001 000c 	cmpiw #1,%a2@(12)
    362c:	6312           	blss 3640 <_fwalk_sglue+0x38>
    362e:	0c6a ffff 000e 	cmpiw #-1,%a2@(14)
    3634:	670a           	beqs 3640 <_fwalk_sglue+0x38>
    3636:	2f0a           	movel %a2,%sp@-
    3638:	2f04           	movel %d4,%sp@-
    363a:	4e94           	jsr %a4@
    363c:	8680           	orl %d0,%d3
    363e:	508f           	addql #8,%sp
    3640:	45ea 0068      	lea %a2@(104),%a2
    3644:	51ca ffe0      	dbf %d2,3626 <_fwalk_sglue+0x1e>
    3648:	4242           	clrw %d2
    364a:	5382           	subql #1,%d2
    364c:	64d8           	bccs 3626 <_fwalk_sglue+0x1e>
    364e:	2653           	moveal %a3@,%a3
    3650:	b6fc 0000      	cmpaw #0,%a3
    3654:	66c4           	bnes 361a <_fwalk_sglue+0x12>
    3656:	2003           	movel %d3,%d0
    3658:	4cdf 1c1c      	moveml %sp@+,%d2-%d4/%a2-%a4
    365c:	4e75           	rts
	...

00003660 <memset>:
    3660:	206f 0004      	moveal %sp@(4),%a0
    3664:	202f 0008      	movel %sp@(8),%d0
    3668:	222f 000c      	movel %sp@(12),%d1
    366c:	0c81 0000 0010 	cmpil #16,%d1
    3672:	6500 0054      	bcsw 36c8 <memset+0x68>
    3676:	2f02           	movel %d2,%sp@-
    3678:	1400           	moveb %d0,%d2
    367a:	e188           	lsll #8,%d0
    367c:	1002           	moveb %d2,%d0
    367e:	3400           	movew %d0,%d2
    3680:	4840           	swap %d0
    3682:	3002           	movew %d2,%d0
    3684:	2408           	movel %a0,%d2
    3686:	4482           	negl %d2
    3688:	0282 0000 0003 	andil #3,%d2
    368e:	6700 0014      	beqw 36a4 <memset+0x44>
    3692:	9282           	subl %d2,%d1
    3694:	e28a           	lsrl #1,%d2
    3696:	6400 0004      	bccw 369c <memset+0x3c>
    369a:	10c0           	moveb %d0,%a0@+
    369c:	e28a           	lsrl #1,%d2
    369e:	6400 0004      	bccw 36a4 <memset+0x44>
    36a2:	30c0           	movew %d0,%a0@+
    36a4:	2401           	movel %d1,%d2
    36a6:	e48a           	lsrl #2,%d2
    36a8:	5382           	subql #1,%d2
    36aa:	20c0           	movel %d0,%a0@+
    36ac:	51ca fffc      	dbf %d2,36aa <memset+0x4a>
    36b0:	0482 0001 0000 	subil #65536,%d2
    36b6:	6a00 fff2      	bplw 36aa <memset+0x4a>
    36ba:	0281 0000 0003 	andil #3,%d1
    36c0:	241f           	movel %sp@+,%d2
    36c2:	6000 0004      	braw 36c8 <memset+0x68>
    36c6:	10c0           	moveb %d0,%a0@+
    36c8:	51c9 fffc      	dbf %d1,36c6 <memset+0x66>
    36cc:	202f 0004      	movel %sp@(4),%d0
    36d0:	4e75           	rts
	...

000036d4 <__register_exitproc>:
    36d4:	2f03           	movel %d3,%sp@-
    36d6:	2f02           	movel %d2,%sp@-
    36d8:	222f 000c      	movel %sp@(12),%d1
    36dc:	2079 0001 3714 	moveal 13714 <__atexit>,%a0
    36e2:	b0fc 0000      	cmpaw #0,%a0
    36e6:	674c           	beqs 3734 <__register_exitproc+0x60>
    36e8:	2028 0004      	movel %a0@(4),%d0
    36ec:	741f           	moveq #31,%d2
    36ee:	b480           	cmpl %d0,%d2
    36f0:	6d70           	blts 3762 <__register_exitproc+0x8e>
    36f2:	4a81           	tstl %d1
    36f4:	6722           	beqs 3718 <__register_exitproc+0x44>
    36f6:	2240           	moveal %d0,%a1
    36f8:	d3c0           	addal %d0,%a1
    36fa:	d3c9           	addal %a1,%a1
    36fc:	43f0 9800      	lea %a0@(0,%a1:l),%a1
    3700:	236f 0014 0088 	movel %sp@(20),%a1@(136)
    3706:	7401           	moveq #1,%d2
    3708:	e1aa           	lsll %d0,%d2
    370a:	85a8 0188      	orl %d2,%a0@(392)
    370e:	236f 0018 0108 	movel %sp@(24),%a1@(264)
    3714:	5581           	subql #2,%d1
    3716:	672e           	beqs 3746 <__register_exitproc+0x72>
    3718:	2200           	movel %d0,%d1
    371a:	5281           	addql #1,%d1
    371c:	2141 0004      	movel %d1,%a0@(4)
    3720:	5480           	addql #2,%d0
    3722:	d080           	addl %d0,%d0
    3724:	d080           	addl %d0,%d0
    3726:	21af 0010 0800 	movel %sp@(16),%a0@(0,%d0:l)
    372c:	7000           	moveq #0,%d0
    372e:	241f           	movel %sp@+,%d2
    3730:	261f           	movel %sp@+,%d3
    3732:	4e75           	rts
    3734:	23fc 0001 3584 	movel #79236,13714 <__atexit>
    373a:	0001 3714 
    373e:	41f9 0001 3584 	lea 13584 <__atexit0>,%a0
    3744:	60a2           	bras 36e8 <__register_exitproc+0x14>
    3746:	85a8 018c      	orl %d2,%a0@(396)
    374a:	2200           	movel %d0,%d1
    374c:	5281           	addql #1,%d1
    374e:	2141 0004      	movel %d1,%a0@(4)
    3752:	5480           	addql #2,%d0
    3754:	d080           	addl %d0,%d0
    3756:	d080           	addl %d0,%d0
    3758:	21af 0010 0800 	movel %sp@(16),%a0@(0,%d0:l)
    375e:	7000           	moveq #0,%d0
    3760:	60cc           	bras 372e <__register_exitproc+0x5a>
    3762:	70ff           	moveq #-1,%d0
    3764:	241f           	movel %sp@+,%d2
    3766:	261f           	movel %sp@+,%d3
    3768:	4e75           	rts
	...

0000376c <__call_exitprocs>:
    376c:	48e7 3e30      	moveml %d2-%d6/%a2-%a3,%sp@-
    3770:	2a2f 0020      	movel %sp@(32),%d5
    3774:	262f 0024      	movel %sp@(36),%d3
    3778:	2679 0001 3714 	moveal 13714 <__atexit>,%a3
    377e:	7801           	moveq #1,%d4
    3780:	b6fc 0000      	cmpaw #0,%a3
    3784:	675a           	beqs 37e0 <__call_exitprocs+0x74>
    3786:	202b 0004      	movel %a3@(4),%d0
    378a:	2400           	movel %d0,%d2
    378c:	5382           	subql #1,%d2
    378e:	6b50           	bmis 37e0 <__call_exitprocs+0x74>
    3790:	5280           	addql #1,%d0
    3792:	d080           	addl %d0,%d0
    3794:	d080           	addl %d0,%d0
    3796:	45f3 0800      	lea %a3@(0,%d0:l),%a2
    379a:	4a83           	tstl %d3
    379c:	6648           	bnes 37e6 <__call_exitprocs+0x7a>
    379e:	2052           	moveal %a2@,%a0
    37a0:	202b 0004      	movel %a3@(4),%d0
    37a4:	5380           	subql #1,%d0
    37a6:	b480           	cmpl %d0,%d2
    37a8:	6770           	beqs 381a <__call_exitprocs+0xae>
    37aa:	4292           	clrl %a2@
    37ac:	b0fc 0000      	cmpaw #0,%a0
    37b0:	6722           	beqs 37d4 <__call_exitprocs+0x68>
    37b2:	2c2b 0004      	movel %a3@(4),%d6
    37b6:	2004           	movel %d4,%d0
    37b8:	e5a8           	lsll %d2,%d0
    37ba:	2200           	movel %d0,%d1
    37bc:	c2ab 0188      	andl %a3@(392),%d1
    37c0:	6644           	bnes 3806 <__call_exitprocs+0x9a>
    37c2:	4e90           	jsr %a0@
    37c4:	2039 0001 3714 	movel 13714 <__atexit>,%d0
    37ca:	bcab 0004      	cmpl %a3@(4),%d6
    37ce:	662e           	bnes 37fe <__call_exitprocs+0x92>
    37d0:	b7c0           	cmpal %d0,%a3
    37d2:	662a           	bnes 37fe <__call_exitprocs+0x92>
    37d4:	598a           	subql #4,%a2
    37d6:	51ca ffc2      	dbf %d2,379a <__call_exitprocs+0x2e>
    37da:	4242           	clrw %d2
    37dc:	5382           	subql #1,%d2
    37de:	64ba           	bccs 379a <__call_exitprocs+0x2e>
    37e0:	4cdf 0c7c      	moveml %sp@+,%d2-%d6/%a2-%a3
    37e4:	4e75           	rts
    37e6:	b6aa 0100      	cmpl %a2@(256),%d3
    37ea:	67b2           	beqs 379e <__call_exitprocs+0x32>
    37ec:	598a           	subql #4,%a2
    37ee:	51ca fff6      	dbf %d2,37e6 <__call_exitprocs+0x7a>
    37f2:	4242           	clrw %d2
    37f4:	5382           	subql #1,%d2
    37f6:	64ee           	bccs 37e6 <__call_exitprocs+0x7a>
    37f8:	4cdf 0c7c      	moveml %sp@+,%d2-%d6/%a2-%a3
    37fc:	4e75           	rts
    37fe:	4a80           	tstl %d0
    3800:	67de           	beqs 37e0 <__call_exitprocs+0x74>
    3802:	2640           	moveal %d0,%a3
    3804:	6080           	bras 3786 <__call_exitprocs+0x1a>
    3806:	222a 0080      	movel %a2@(128),%d1
    380a:	c0ab 018c      	andl %a3@(396),%d0
    380e:	6610           	bnes 3820 <__call_exitprocs+0xb4>
    3810:	2f01           	movel %d1,%sp@-
    3812:	2f05           	movel %d5,%sp@-
    3814:	4e90           	jsr %a0@
    3816:	508f           	addql #8,%sp
    3818:	60aa           	bras 37c4 <__call_exitprocs+0x58>
    381a:	2742 0004      	movel %d2,%a3@(4)
    381e:	608c           	bras 37ac <__call_exitprocs+0x40>
    3820:	2f01           	movel %d1,%sp@-
    3822:	4e90           	jsr %a0@
    3824:	588f           	addql #4,%sp
    3826:	609c           	bras 37c4 <__call_exitprocs+0x58>

00003828 <_malloc_r>:
    3828:	48e7 3e3e      	moveml %d2-%d6/%a2-%fp,%sp@-
    382c:	266f 002c      	moveal %sp@(44),%a3
    3830:	226f 0030      	moveal %sp@(48),%a1
    3834:	41e9 000b      	lea %a1@(11),%a0
    3838:	7016           	moveq #22,%d0
    383a:	b088           	cmpl %a0,%d0
    383c:	655e           	bcss 389c <_malloc_r+0x74>
    383e:	7210           	moveq #16,%d1
    3840:	b289           	cmpl %a1,%d1
    3842:	6500 01e2      	bcsw 3a26 <_malloc_r+0x1fe>
    3846:	2f0b           	movel %a3,%sp@-
    3848:	4eb9 0000 5e34 	jsr 5e34 <__malloc_lock>
    384e:	588f           	addql #4,%sp
    3850:	307c 0018      	moveaw #24,%a0
    3854:	7602           	moveq #2,%d3
    3856:	7410           	moveq #16,%d2
    3858:	d1fc 0001 2eb0 	addal #77488,%a0
    385e:	2468 0004      	moveal %a0@(4),%a2
    3862:	2008           	movel %a0,%d0
    3864:	5180           	subql #8,%d0
    3866:	b08a           	cmpl %a2,%d0
    3868:	6700 01ee      	beqw 3a58 <_malloc_r+0x230>
    386c:	70fc           	moveq #-4,%d0
    386e:	c0aa 0004      	andl %a2@(4),%d0
    3872:	206a 000c      	moveal %a2@(12),%a0
    3876:	226a 0008      	moveal %a2@(8),%a1
    387a:	2348 000c      	movel %a0,%a1@(12)
    387e:	2149 0008      	movel %a1,%a0@(8)
    3882:	7a01           	moveq #1,%d5
    3884:	8bb2 0804      	orl %d5,%a2@(4,%d0:l)
    3888:	2f0b           	movel %a3,%sp@-
    388a:	4eb9 0000 5e36 	jsr 5e36 <__malloc_unlock>
    3890:	200a           	movel %a2,%d0
    3892:	5080           	addql #8,%d0
    3894:	588f           	addql #4,%sp
    3896:	4cdf 7c7c      	moveml %sp@+,%d2-%d6/%a2-%fp
    389a:	4e75           	rts
    389c:	2408           	movel %a0,%d2
    389e:	76f8           	moveq #-8,%d3
    38a0:	c483           	andl %d3,%d2
    38a2:	b0fc 0000      	cmpaw #0,%a0
    38a6:	6d00 017e      	bltw 3a26 <_malloc_r+0x1fe>
    38aa:	b489           	cmpl %a1,%d2
    38ac:	6500 0178      	bcsw 3a26 <_malloc_r+0x1fe>
    38b0:	2f0b           	movel %a3,%sp@-
    38b2:	4eb9 0000 5e34 	jsr 5e34 <__malloc_lock>
    38b8:	588f           	addql #4,%sp
    38ba:	2602           	movel %d2,%d3
    38bc:	0c82 0000 01f7 	cmpil #503,%d2
    38c2:	6300 041c      	blsw 3ce0 <_malloc_r+0x4b8>
    38c6:	7c09           	moveq #9,%d6
    38c8:	ecab           	lsrl %d6,%d3
    38ca:	6700 0166      	beqw 3a32 <_malloc_r+0x20a>
    38ce:	7004           	moveq #4,%d0
    38d0:	b083           	cmpl %d3,%d0
    38d2:	6500 0324      	bcsw 3bf8 <_malloc_r+0x3d0>
    38d6:	2602           	movel %d2,%d3
    38d8:	ec8b           	lsrl #6,%d3
    38da:	387c 0038      	moveaw #56,%a4
    38de:	d9c3           	addal %d3,%a4
    38e0:	7239           	moveq #57,%d1
    38e2:	d681           	addl %d1,%d3
    38e4:	2003           	movel %d3,%d0
    38e6:	e788           	lsll #3,%d0
    38e8:	2040           	moveal %d0,%a0
    38ea:	d1fc 0001 2eb0 	addal #77488,%a0
    38f0:	43e8 fff8      	lea %a0@(-8),%a1
    38f4:	2468 0004      	moveal %a0@(4),%a2
    38f8:	b5c9           	cmpal %a1,%a2
    38fa:	6732           	beqs 392e <_malloc_r+0x106>
    38fc:	72fc           	moveq #-4,%d1
    38fe:	c2aa 0004      	andl %a2@(4),%d1
    3902:	2001           	movel %d1,%d0
    3904:	9082           	subl %d2,%d0
    3906:	780f           	moveq #15,%d4
    3908:	b880           	cmpl %d0,%d4
    390a:	6d20           	blts 392c <_malloc_r+0x104>
    390c:	206a 000c      	moveal %a2@(12),%a0
    3910:	4a80           	tstl %d0
    3912:	6c00 0260      	bgew 3b74 <_malloc_r+0x34c>
    3916:	b1c9           	cmpal %a1,%a0
    3918:	6714           	beqs 392e <_malloc_r+0x106>
    391a:	2448           	moveal %a0,%a2
    391c:	72fc           	moveq #-4,%d1
    391e:	c2aa 0004      	andl %a2@(4),%d1
    3922:	2001           	movel %d1,%d0
    3924:	9082           	subl %d2,%d0
    3926:	780f           	moveq #15,%d4
    3928:	b880           	cmpl %d0,%d4
    392a:	6ce0           	bges 390c <_malloc_r+0xe4>
    392c:	260c           	movel %a4,%d3
    392e:	2479 0001 2ec0 	moveal 12ec0 <__malloc_av_+0x10>,%a2
    3934:	b5fc 0001 2eb8 	cmpal #77496,%a2
    393a:	6700 0138      	beqw 3a74 <_malloc_r+0x24c>
    393e:	70fc           	moveq #-4,%d0
    3940:	c0aa 0004      	andl %a2@(4),%d0
    3944:	2200           	movel %d0,%d1
    3946:	9282           	subl %d2,%d1
    3948:	7c0f           	moveq #15,%d6
    394a:	bc81           	cmpl %d1,%d6
    394c:	6d00 03b0      	bltw 3cfe <_malloc_r+0x4d6>
    3950:	23fc 0001 2eb8 	movel #77496,12ec4 <__malloc_av_+0x14>
    3956:	0001 2ec4 
    395a:	23fc 0001 2eb8 	movel #77496,12ec0 <__malloc_av_+0x10>
    3960:	0001 2ec0 
    3964:	4a81           	tstl %d1
    3966:	6c00 0360      	bgew 3cc8 <_malloc_r+0x4a0>
    396a:	2239 0001 2eb4 	movel 12eb4 <__malloc_av_+0x4>,%d1
    3970:	0c80 0000 01ff 	cmpil #511,%d0
    3976:	6200 0220      	bhiw 3b98 <_malloc_r+0x370>
    397a:	e688           	lsrl #3,%d0
    397c:	2a00           	movel %d0,%d5
    397e:	e485           	asrl #2,%d5
    3980:	7801           	moveq #1,%d4
    3982:	ebac           	lsll %d5,%d4
    3984:	8284           	orl %d4,%d1
    3986:	23c1 0001 2eb4 	movel %d1,12eb4 <__malloc_av_+0x4>
    398c:	e788           	lsll #3,%d0
    398e:	2040           	moveal %d0,%a0
    3990:	d1fc 0001 2eb8 	addal #77496,%a0
    3996:	2250           	moveal %a0@,%a1
    3998:	49e8 fff8      	lea %a0@(-8),%a4
    399c:	254c 000c      	movel %a4,%a2@(12)
    39a0:	2549 0008      	movel %a1,%a2@(8)
    39a4:	208a           	movel %a2,%a0@
    39a6:	234a 000c      	movel %a2,%a1@(12)
    39aa:	2003           	movel %d3,%d0
    39ac:	e480           	asrl #2,%d0
    39ae:	7801           	moveq #1,%d4
    39b0:	e1ac           	lsll %d0,%d4
    39b2:	b284           	cmpl %d4,%d1
    39b4:	6500 00d2      	bcsw 3a88 <_malloc_r+0x260>
    39b8:	2004           	movel %d4,%d0
    39ba:	c081           	andl %d1,%d0
    39bc:	660e           	bnes 39cc <_malloc_r+0x1a4>
    39be:	7afc           	moveq #-4,%d5
    39c0:	c685           	andl %d5,%d3
    39c2:	5883           	addql #4,%d3
    39c4:	d884           	addl %d4,%d4
    39c6:	2004           	movel %d4,%d0
    39c8:	c081           	andl %d1,%d0
    39ca:	67f6           	beqs 39c2 <_malloc_r+0x19a>
    39cc:	2003           	movel %d3,%d0
    39ce:	e788           	lsll #3,%d0
    39d0:	2840           	moveal %d0,%a4
    39d2:	d9fc 0001 2eb0 	addal #77488,%a4
    39d8:	224c           	moveal %a4,%a1
    39da:	2a03           	movel %d3,%d5
    39dc:	2069 000c      	moveal %a1@(12),%a0
    39e0:	b1c9           	cmpal %a1,%a0
    39e2:	6700 0252      	beqw 3c36 <_malloc_r+0x40e>
    39e6:	72fc           	moveq #-4,%d1
    39e8:	c2a8 0004      	andl %a0@(4),%d1
    39ec:	2001           	movel %d1,%d0
    39ee:	9082           	subl %d2,%d0
    39f0:	2448           	moveal %a0,%a2
    39f2:	2068 000c      	moveal %a0@(12),%a0
    39f6:	7c0f           	moveq #15,%d6
    39f8:	bc80           	cmpl %d0,%d6
    39fa:	6d00 027a      	bltw 3c76 <_malloc_r+0x44e>
    39fe:	4a80           	tstl %d0
    3a00:	6dde           	blts 39e0 <_malloc_r+0x1b8>
    3a02:	7a01           	moveq #1,%d5
    3a04:	8bb2 1804      	orl %d5,%a2@(4,%d1:l)
    3a08:	226a 0008      	moveal %a2@(8),%a1
    3a0c:	2348 000c      	movel %a0,%a1@(12)
    3a10:	2149 0008      	movel %a1,%a0@(8)
    3a14:	2f0b           	movel %a3,%sp@-
    3a16:	4eb9 0000 5e36 	jsr 5e36 <__malloc_unlock>
    3a1c:	200a           	movel %a2,%d0
    3a1e:	5080           	addql #8,%d0
    3a20:	588f           	addql #4,%sp
    3a22:	6000 fe72      	braw 3896 <_malloc_r+0x6e>
    3a26:	780c           	moveq #12,%d4
    3a28:	2684           	movel %d4,%a3@
    3a2a:	7000           	moveq #0,%d0
    3a2c:	4cdf 7c7c      	moveml %sp@+,%d2-%d6/%a2-%fp
    3a30:	4e75           	rts
    3a32:	203c 0000 0200 	movel #512,%d0
    3a38:	7640           	moveq #64,%d3
    3a3a:	387c 003f      	moveaw #63,%a4
    3a3e:	2040           	moveal %d0,%a0
    3a40:	d1fc 0001 2eb0 	addal #77488,%a0
    3a46:	43e8 fff8      	lea %a0@(-8),%a1
    3a4a:	2468 0004      	moveal %a0@(4),%a2
    3a4e:	b5c9           	cmpal %a1,%a2
    3a50:	6600 feaa      	bnew 38fc <_malloc_r+0xd4>
    3a54:	6000 fed8      	braw 392e <_malloc_r+0x106>
    3a58:	2468 000c      	moveal %a0@(12),%a2
    3a5c:	b5c8           	cmpal %a0,%a2
    3a5e:	6600 fe0c      	bnew 386c <_malloc_r+0x44>
    3a62:	5483           	addql #2,%d3
    3a64:	2479 0001 2ec0 	moveal 12ec0 <__malloc_av_+0x10>,%a2
    3a6a:	b5fc 0001 2eb8 	cmpal #77496,%a2
    3a70:	6600 fecc      	bnew 393e <_malloc_r+0x116>
    3a74:	2239 0001 2eb4 	movel 12eb4 <__malloc_av_+0x4>,%d1
    3a7a:	2003           	movel %d3,%d0
    3a7c:	e480           	asrl #2,%d0
    3a7e:	7801           	moveq #1,%d4
    3a80:	e1ac           	lsll %d0,%d4
    3a82:	b284           	cmpl %d4,%d1
    3a84:	6400 ff32      	bccw 39b8 <_malloc_r+0x190>
    3a88:	2479 0001 2eb8 	moveal 12eb8 <__malloc_av_+0x8>,%a2
    3a8e:	7afc           	moveq #-4,%d5
    3a90:	caaa 0004      	andl %a2@(4),%d5
    3a94:	b485           	cmpl %d5,%d2
    3a96:	620c           	bhis 3aa4 <_malloc_r+0x27c>
    3a98:	2005           	movel %d5,%d0
    3a9a:	9082           	subl %d2,%d0
    3a9c:	7c0f           	moveq #15,%d6
    3a9e:	bc80           	cmpl %d0,%d6
    3aa0:	6d00 00a6      	bltw 3b48 <_malloc_r+0x320>
    3aa4:	280a           	movel %a2,%d4
    3aa6:	d885           	addl %d5,%d4
    3aa8:	2602           	movel %d2,%d3
    3aaa:	d6b9 0001 3748 	addl 13748 <__malloc_top_pad>,%d3
    3ab0:	70ff           	moveq #-1,%d0
    3ab2:	b0b9 0001 2ea8 	cmpl 12ea8 <__malloc_sbrk_base>,%d0
    3ab8:	6700 03de      	beqw 3e98 <_malloc_r+0x670>
    3abc:	0683 0000 100f 	addil #4111,%d3
    3ac2:	0243 f000      	andiw #-4096,%d3
    3ac6:	2f03           	movel %d3,%sp@-
    3ac8:	2f0b           	movel %a3,%sp@-
    3aca:	4df9 0000 6ac0 	lea 6ac0 <_sbrk_r>,%fp
    3ad0:	4e96           	jsr %fp@
    3ad2:	2840           	moveal %d0,%a4
    3ad4:	508f           	addql #8,%sp
    3ad6:	7cff           	moveq #-1,%d6
    3ad8:	bc80           	cmpl %d0,%d6
    3ada:	6700 0298      	beqw 3d74 <_malloc_r+0x54c>
    3ade:	b084           	cmpl %d4,%d0
    3ae0:	6500 028a      	bcsw 3d6c <_malloc_r+0x544>
    3ae4:	4bf9 0001 3718 	lea 13718 <__malloc_current_mallinfo>,%a5
    3aea:	2043           	moveal %d3,%a0
    3aec:	d1d5           	addal %a5@,%a0
    3aee:	2008           	movel %a0,%d0
    3af0:	2a88           	movel %a0,%a5@
    3af2:	b9c4           	cmpal %d4,%a4
    3af4:	6600 02e4      	bnew 3dda <_malloc_r+0x5b2>
    3af8:	220c           	movel %a4,%d1
    3afa:	0281 0000 0fff 	andil #4095,%d1
    3b00:	6600 02d8      	bnew 3dda <_malloc_r+0x5b2>
    3b04:	2879 0001 2eb8 	moveal 12eb8 <__malloc_av_+0x8>,%a4
    3b0a:	d685           	addl %d5,%d3
    3b0c:	7001           	moveq #1,%d0
    3b0e:	8680           	orl %d0,%d3
    3b10:	2943 0004      	movel %d3,%a4@(4)
    3b14:	b1f9 0001 3744 	cmpal 13744 <__malloc_max_sbrked_mem>,%a0
    3b1a:	6306           	blss 3b22 <_malloc_r+0x2fa>
    3b1c:	23c8 0001 3744 	movel %a0,13744 <__malloc_max_sbrked_mem>
    3b22:	b1f9 0001 3740 	cmpal 13740 <__malloc_max_total_mem>,%a0
    3b28:	6306           	blss 3b30 <_malloc_r+0x308>
    3b2a:	23c8 0001 3740 	movel %a0,13740 <__malloc_max_total_mem>
    3b30:	244c           	moveal %a4,%a2
    3b32:	7cfc           	moveq #-4,%d6
    3b34:	c686           	andl %d6,%d3
    3b36:	2003           	movel %d3,%d0
    3b38:	9082           	subl %d2,%d0
    3b3a:	b483           	cmpl %d3,%d2
    3b3c:	6200 033c      	bhiw 3e7a <_malloc_r+0x652>
    3b40:	720f           	moveq #15,%d1
    3b42:	b280           	cmpl %d0,%d1
    3b44:	6c00 0334      	bgew 3e7a <_malloc_r+0x652>
    3b48:	7601           	moveq #1,%d3
    3b4a:	8682           	orl %d2,%d3
    3b4c:	2543 0004      	movel %d3,%a2@(4)
    3b50:	41f2 2800      	lea %a2@(0,%d2:l),%a0
    3b54:	23c8 0001 2eb8 	movel %a0,12eb8 <__malloc_av_+0x8>
    3b5a:	7801           	moveq #1,%d4
    3b5c:	8880           	orl %d0,%d4
    3b5e:	2144 0004      	movel %d4,%a0@(4)
    3b62:	2f0b           	movel %a3,%sp@-
    3b64:	4eb9 0000 5e36 	jsr 5e36 <__malloc_unlock>
    3b6a:	200a           	movel %a2,%d0
    3b6c:	5080           	addql #8,%d0
    3b6e:	588f           	addql #4,%sp
    3b70:	6000 fd24      	braw 3896 <_malloc_r+0x6e>
    3b74:	226a 0008      	moveal %a2@(8),%a1
    3b78:	2348 000c      	movel %a0,%a1@(12)
    3b7c:	2149 0008      	movel %a1,%a0@(8)
    3b80:	7a01           	moveq #1,%d5
    3b82:	8bb2 1804      	orl %d5,%a2@(4,%d1:l)
    3b86:	2f0b           	movel %a3,%sp@-
    3b88:	4eb9 0000 5e36 	jsr 5e36 <__malloc_unlock>
    3b8e:	200a           	movel %a2,%d0
    3b90:	5080           	addql #8,%d0
    3b92:	588f           	addql #4,%sp
    3b94:	6000 fd00      	braw 3896 <_malloc_r+0x6e>
    3b98:	2800           	movel %d0,%d4
    3b9a:	7a09           	moveq #9,%d5
    3b9c:	eaac           	lsrl %d5,%d4
    3b9e:	7c04           	moveq #4,%d6
    3ba0:	bc84           	cmpl %d4,%d6
    3ba2:	6400 01a0      	bccw 3d44 <_malloc_r+0x51c>
    3ba6:	7a14           	moveq #20,%d5
    3ba8:	ba84           	cmpl %d4,%d5
    3baa:	6500 0316      	bcsw 3ec2 <_malloc_r+0x69a>
    3bae:	327c 005b      	moveaw #91,%a1
    3bb2:	d3c4           	addal %d4,%a1
    3bb4:	7c5c           	moveq #92,%d6
    3bb6:	d886           	addl %d6,%d4
    3bb8:	e78c           	lsll #3,%d4
    3bba:	2044           	moveal %d4,%a0
    3bbc:	d1fc 0001 2eb0 	addal #77488,%a0
    3bc2:	49e8 fff8      	lea %a0@(-8),%a4
    3bc6:	2050           	moveal %a0@,%a0
    3bc8:	b1cc           	cmpal %a4,%a0
    3bca:	6700 01de      	beqw 3daa <_malloc_r+0x582>
    3bce:	78fc           	moveq #-4,%d4
    3bd0:	c8a8 0004      	andl %a0@(4),%d4
    3bd4:	b084           	cmpl %d4,%d0
    3bd6:	6408           	bccs 3be0 <_malloc_r+0x3b8>
    3bd8:	2068 0008      	moveal %a0@(8),%a0
    3bdc:	b1cc           	cmpal %a4,%a0
    3bde:	66ee           	bnes 3bce <_malloc_r+0x3a6>
    3be0:	2868 000c      	moveal %a0@(12),%a4
    3be4:	254c 000c      	movel %a4,%a2@(12)
    3be8:	2548 0008      	movel %a0,%a2@(8)
    3bec:	294a 0008      	movel %a2,%a4@(8)
    3bf0:	214a 000c      	movel %a2,%a0@(12)
    3bf4:	6000 fdb4      	braw 39aa <_malloc_r+0x182>
    3bf8:	7814           	moveq #20,%d4
    3bfa:	b883           	cmpl %d3,%d4
    3bfc:	6400 0184      	bccw 3d82 <_malloc_r+0x55a>
    3c00:	7c54           	moveq #84,%d6
    3c02:	bc83           	cmpl %d3,%d6
    3c04:	6500 02ee      	bcsw 3ef4 <_malloc_r+0x6cc>
    3c08:	2602           	movel %d2,%d3
    3c0a:	700c           	moveq #12,%d0
    3c0c:	e0ab           	lsrl %d0,%d3
    3c0e:	387c 006e      	moveaw #110,%a4
    3c12:	d9c3           	addal %d3,%a4
    3c14:	726f           	moveq #111,%d1
    3c16:	d681           	addl %d1,%d3
    3c18:	2003           	movel %d3,%d0
    3c1a:	e788           	lsll #3,%d0
    3c1c:	2040           	moveal %d0,%a0
    3c1e:	d1fc 0001 2eb0 	addal #77488,%a0
    3c24:	43e8 fff8      	lea %a0@(-8),%a1
    3c28:	2468 0004      	moveal %a0@(4),%a2
    3c2c:	b5c9           	cmpal %a1,%a2
    3c2e:	6600 fccc      	bnew 38fc <_malloc_r+0xd4>
    3c32:	6000 fcfa      	braw 392e <_malloc_r+0x106>
    3c36:	5089           	addql #8,%a1
    3c38:	5285           	addql #1,%d5
    3c3a:	7003           	moveq #3,%d0
    3c3c:	c085           	andl %d5,%d0
    3c3e:	6600 fd9c      	bnew 39dc <_malloc_r+0x1b4>
    3c42:	7003           	moveq #3,%d0
    3c44:	c083           	andl %d3,%d0
    3c46:	6700 040e      	beqw 4056 <_malloc_r+0x82e>
    3c4a:	5383           	subql #1,%d3
    3c4c:	518c           	subql #8,%a4
    3c4e:	b9ec 0008      	cmpal %a4@(8),%a4
    3c52:	67ee           	beqs 3c42 <_malloc_r+0x41a>
    3c54:	2039 0001 2eb4 	movel 12eb4 <__malloc_av_+0x4>,%d0
    3c5a:	d884           	addl %d4,%d4
    3c5c:	b084           	cmpl %d4,%d0
    3c5e:	6500 fe28      	bcsw 3a88 <_malloc_r+0x260>
    3c62:	4a84           	tstl %d4
    3c64:	6700 fe22      	beqw 3a88 <_malloc_r+0x260>
    3c68:	2204           	movel %d4,%d1
    3c6a:	c280           	andl %d0,%d1
    3c6c:	6600 03b0      	bnew 401e <_malloc_r+0x7f6>
    3c70:	5885           	addql #4,%d5
    3c72:	d884           	addl %d4,%d4
    3c74:	60f2           	bras 3c68 <_malloc_r+0x440>
    3c76:	43f2 2800      	lea %a2@(0,%d2:l),%a1
    3c7a:	7601           	moveq #1,%d3
    3c7c:	8682           	orl %d2,%d3
    3c7e:	2543 0004      	movel %d3,%a2@(4)
    3c82:	286a 0008      	moveal %a2@(8),%a4
    3c86:	2948 000c      	movel %a0,%a4@(12)
    3c8a:	214c 0008      	movel %a4,%a0@(8)
    3c8e:	23c9 0001 2ec4 	movel %a1,12ec4 <__malloc_av_+0x14>
    3c94:	23c9 0001 2ec0 	movel %a1,12ec0 <__malloc_av_+0x10>
    3c9a:	237c 0001 2eb8 	movel #77496,%a1@(12)
    3ca0:	000c 
    3ca2:	237c 0001 2eb8 	movel #77496,%a1@(8)
    3ca8:	0008 
    3caa:	7801           	moveq #1,%d4
    3cac:	8880           	orl %d0,%d4
    3cae:	2344 0004      	movel %d4,%a1@(4)
    3cb2:	2580 1800      	movel %d0,%a2@(0,%d1:l)
    3cb6:	2f0b           	movel %a3,%sp@-
    3cb8:	4eb9 0000 5e36 	jsr 5e36 <__malloc_unlock>
    3cbe:	200a           	movel %a2,%d0
    3cc0:	5080           	addql #8,%d0
    3cc2:	588f           	addql #4,%sp
    3cc4:	6000 fbd0      	braw 3896 <_malloc_r+0x6e>
    3cc8:	7a01           	moveq #1,%d5
    3cca:	8bb2 0804      	orl %d5,%a2@(4,%d0:l)
    3cce:	2f0b           	movel %a3,%sp@-
    3cd0:	4eb9 0000 5e36 	jsr 5e36 <__malloc_unlock>
    3cd6:	200a           	movel %a2,%d0
    3cd8:	5080           	addql #8,%d0
    3cda:	588f           	addql #4,%sp
    3cdc:	6000 fbb8      	braw 3896 <_malloc_r+0x6e>
    3ce0:	e68b           	lsrl #3,%d3
    3ce2:	2042           	moveal %d2,%a0
    3ce4:	5088           	addql #8,%a0
    3ce6:	d1fc 0001 2eb0 	addal #77488,%a0
    3cec:	2468 0004      	moveal %a0@(4),%a2
    3cf0:	2008           	movel %a0,%d0
    3cf2:	5180           	subql #8,%d0
    3cf4:	b08a           	cmpl %a2,%d0
    3cf6:	6600 fb74      	bnew 386c <_malloc_r+0x44>
    3cfa:	6000 fd5c      	braw 3a58 <_malloc_r+0x230>
    3cfe:	41f2 2800      	lea %a2@(0,%d2:l),%a0
    3d02:	7601           	moveq #1,%d3
    3d04:	8682           	orl %d2,%d3
    3d06:	2543 0004      	movel %d3,%a2@(4)
    3d0a:	23c8 0001 2ec4 	movel %a0,12ec4 <__malloc_av_+0x14>
    3d10:	23c8 0001 2ec0 	movel %a0,12ec0 <__malloc_av_+0x10>
    3d16:	217c 0001 2eb8 	movel #77496,%a0@(12)
    3d1c:	000c 
    3d1e:	217c 0001 2eb8 	movel #77496,%a0@(8)
    3d24:	0008 
    3d26:	7801           	moveq #1,%d4
    3d28:	8881           	orl %d1,%d4
    3d2a:	2144 0004      	movel %d4,%a0@(4)
    3d2e:	2581 0800      	movel %d1,%a2@(0,%d0:l)
    3d32:	2f0b           	movel %a3,%sp@-
    3d34:	4eb9 0000 5e36 	jsr 5e36 <__malloc_unlock>
    3d3a:	200a           	movel %a2,%d0
    3d3c:	5080           	addql #8,%d0
    3d3e:	588f           	addql #4,%sp
    3d40:	6000 fb54      	braw 3896 <_malloc_r+0x6e>
    3d44:	2800           	movel %d0,%d4
    3d46:	ec8c           	lsrl #6,%d4
    3d48:	2044           	moveal %d4,%a0
    3d4a:	43e8 0038      	lea %a0@(56),%a1
    3d4e:	41e8 0039      	lea %a0@(57),%a0
    3d52:	2808           	movel %a0,%d4
    3d54:	e78c           	lsll #3,%d4
    3d56:	2044           	moveal %d4,%a0
    3d58:	d1fc 0001 2eb0 	addal #77488,%a0
    3d5e:	49e8 fff8      	lea %a0@(-8),%a4
    3d62:	2050           	moveal %a0@,%a0
    3d64:	b1cc           	cmpal %a4,%a0
    3d66:	6600 fe66      	bnew 3bce <_malloc_r+0x3a6>
    3d6a:	603e           	bras 3daa <_malloc_r+0x582>
    3d6c:	b5fc 0001 2eb0 	cmpal #77488,%a2
    3d72:	675a           	beqs 3dce <_malloc_r+0x5a6>
    3d74:	2479 0001 2eb8 	moveal 12eb8 <__malloc_av_+0x8>,%a2
    3d7a:	262a 0004      	movel %a2@(4),%d3
    3d7e:	6000 fdb2      	braw 3b32 <_malloc_r+0x30a>
    3d82:	387c 005b      	moveaw #91,%a4
    3d86:	d9c3           	addal %d3,%a4
    3d88:	7a5c           	moveq #92,%d5
    3d8a:	d685           	addl %d5,%d3
    3d8c:	2003           	movel %d3,%d0
    3d8e:	e788           	lsll #3,%d0
    3d90:	2040           	moveal %d0,%a0
    3d92:	d1fc 0001 2eb0 	addal #77488,%a0
    3d98:	43e8 fff8      	lea %a0@(-8),%a1
    3d9c:	2468 0004      	moveal %a0@(4),%a2
    3da0:	b5c9           	cmpal %a1,%a2
    3da2:	6600 fb58      	bnew 38fc <_malloc_r+0xd4>
    3da6:	6000 fb86      	braw 392e <_malloc_r+0x106>
    3daa:	2009           	movel %a1,%d0
    3dac:	e480           	asrl #2,%d0
    3dae:	7801           	moveq #1,%d4
    3db0:	e1ac           	lsll %d0,%d4
    3db2:	8284           	orl %d4,%d1
    3db4:	23c1 0001 2eb4 	movel %d1,12eb4 <__malloc_av_+0x4>
    3dba:	254c 000c      	movel %a4,%a2@(12)
    3dbe:	2548 0008      	movel %a0,%a2@(8)
    3dc2:	294a 0008      	movel %a2,%a4@(8)
    3dc6:	214a 000c      	movel %a2,%a0@(12)
    3dca:	6000 fbde      	braw 39aa <_malloc_r+0x182>
    3dce:	4bf9 0001 3718 	lea 13718 <__malloc_current_mallinfo>,%a5
    3dd4:	2003           	movel %d3,%d0
    3dd6:	d095           	addl %a5@,%d0
    3dd8:	2a80           	movel %d0,%a5@
    3dda:	72ff           	moveq #-1,%d1
    3ddc:	b2b9 0001 2ea8 	cmpl 12ea8 <__malloc_sbrk_base>,%d1
    3de2:	6700 0146      	beqw 3f2a <_malloc_r+0x702>
    3de6:	220c           	movel %a4,%d1
    3de8:	9284           	subl %d4,%d1
    3dea:	d280           	addl %d0,%d1
    3dec:	2a81           	movel %d1,%a5@
    3dee:	2c0c           	movel %a4,%d6
    3df0:	7807           	moveq #7,%d4
    3df2:	cc84           	andl %d4,%d6
    3df4:	6700 00aa      	beqw 3ea0 <_malloc_r+0x678>
    3df8:	7008           	moveq #8,%d0
    3dfa:	9086           	subl %d6,%d0
    3dfc:	d9c0           	addal %d0,%a4
    3dfe:	d68c           	addl %a4,%d3
    3e00:	283c 0000 1008 	movel #4104,%d4
    3e06:	9886           	subl %d6,%d4
    3e08:	9883           	subl %d3,%d4
    3e0a:	0284 0000 0fff 	andil #4095,%d4
    3e10:	2f04           	movel %d4,%sp@-
    3e12:	2f0b           	movel %a3,%sp@-
    3e14:	4e96           	jsr %fp@
    3e16:	508f           	addql #8,%sp
    3e18:	72ff           	moveq #-1,%d1
    3e1a:	b280           	cmpl %d0,%d1
    3e1c:	676c           	beqs 3e8a <_malloc_r+0x662>
    3e1e:	908c           	subl %a4,%d0
    3e20:	2600           	movel %d0,%d3
    3e22:	d684           	addl %d4,%d3
    3e24:	2044           	moveal %d4,%a0
    3e26:	d1d5           	addal %a5@,%a0
    3e28:	2a88           	movel %a0,%a5@
    3e2a:	23cc 0001 2eb8 	movel %a4,12eb8 <__malloc_av_+0x8>
    3e30:	7001           	moveq #1,%d0
    3e32:	8680           	orl %d0,%d3
    3e34:	2943 0004      	movel %d3,%a4@(4)
    3e38:	b5fc 0001 2eb0 	cmpal #77488,%a2
    3e3e:	6700 fcd4      	beqw 3b14 <_malloc_r+0x2ec>
    3e42:	720f           	moveq #15,%d1
    3e44:	b285           	cmpl %d5,%d1
    3e46:	642e           	bccs 3e76 <_malloc_r+0x64e>
    3e48:	72f4           	moveq #-12,%d1
    3e4a:	d285           	addl %d5,%d1
    3e4c:	76f8           	moveq #-8,%d3
    3e4e:	c283           	andl %d3,%d1
    3e50:	7001           	moveq #1,%d0
    3e52:	c0aa 0004      	andl %a2@(4),%d0
    3e56:	8081           	orl %d1,%d0
    3e58:	2540 0004      	movel %d0,%a2@(4)
    3e5c:	7805           	moveq #5,%d4
    3e5e:	2584 1804      	movel %d4,%a2@(4,%d1:l)
    3e62:	2584 1808      	movel %d4,%a2@(8,%d1:l)
    3e66:	7a0f           	moveq #15,%d5
    3e68:	ba81           	cmpl %d1,%d5
    3e6a:	6500 0138      	bcsw 3fa4 <_malloc_r+0x77c>
    3e6e:	262c 0004      	movel %a4@(4),%d3
    3e72:	6000 fca0      	braw 3b14 <_malloc_r+0x2ec>
    3e76:	2940 0004      	movel %d0,%a4@(4)
    3e7a:	2f0b           	movel %a3,%sp@-
    3e7c:	4eb9 0000 5e36 	jsr 5e36 <__malloc_unlock>
    3e82:	588f           	addql #4,%sp
    3e84:	7000           	moveq #0,%d0
    3e86:	6000 fba4      	braw 3a2c <_malloc_r+0x204>
    3e8a:	2243           	moveal %d3,%a1
    3e8c:	41f1 68f8      	lea %a1@(fffffffffffffff8,%d6:l),%a0
    3e90:	2608           	movel %a0,%d3
    3e92:	968c           	subl %a4,%d3
    3e94:	7800           	moveq #0,%d4
    3e96:	608c           	bras 3e24 <_malloc_r+0x5fc>
    3e98:	7210           	moveq #16,%d1
    3e9a:	d681           	addl %d1,%d3
    3e9c:	6000 fc28      	braw 3ac6 <_malloc_r+0x29e>
    3ea0:	280c           	movel %a4,%d4
    3ea2:	d883           	addl %d3,%d4
    3ea4:	4484           	negl %d4
    3ea6:	0284 0000 0fff 	andil #4095,%d4
    3eac:	2f04           	movel %d4,%sp@-
    3eae:	2f0b           	movel %a3,%sp@-
    3eb0:	4e96           	jsr %fp@
    3eb2:	508f           	addql #8,%sp
    3eb4:	7cff           	moveq #-1,%d6
    3eb6:	bc80           	cmpl %d0,%d6
    3eb8:	6600 ff64      	bnew 3e1e <_malloc_r+0x5f6>
    3ebc:	7800           	moveq #0,%d4
    3ebe:	6000 ff64      	braw 3e24 <_malloc_r+0x5fc>
    3ec2:	7a54           	moveq #84,%d5
    3ec4:	ba84           	cmpl %d4,%d5
    3ec6:	656c           	bcss 3f34 <_malloc_r+0x70c>
    3ec8:	2c00           	movel %d0,%d6
    3eca:	780c           	moveq #12,%d4
    3ecc:	e8ae           	lsrl %d4,%d6
    3ece:	2046           	moveal %d6,%a0
    3ed0:	43e8 006e      	lea %a0@(110),%a1
    3ed4:	41e8 006f      	lea %a0@(111),%a0
    3ed8:	2808           	movel %a0,%d4
    3eda:	e78c           	lsll #3,%d4
    3edc:	2044           	moveal %d4,%a0
    3ede:	d1fc 0001 2eb0 	addal #77488,%a0
    3ee4:	49e8 fff8      	lea %a0@(-8),%a4
    3ee8:	2050           	moveal %a0@,%a0
    3eea:	b1cc           	cmpal %a4,%a0
    3eec:	6600 fce0      	bnew 3bce <_malloc_r+0x3a6>
    3ef0:	6000 feb8      	braw 3daa <_malloc_r+0x582>
    3ef4:	0c83 0000 0154 	cmpil #340,%d3
    3efa:	626e           	bhis 3f6a <_malloc_r+0x742>
    3efc:	2602           	movel %d2,%d3
    3efe:	780f           	moveq #15,%d4
    3f00:	e8ab           	lsrl %d4,%d3
    3f02:	387c 0077      	moveaw #119,%a4
    3f06:	d9c3           	addal %d3,%a4
    3f08:	7a78           	moveq #120,%d5
    3f0a:	d685           	addl %d5,%d3
    3f0c:	2003           	movel %d3,%d0
    3f0e:	e788           	lsll #3,%d0
    3f10:	2040           	moveal %d0,%a0
    3f12:	d1fc 0001 2eb0 	addal #77488,%a0
    3f18:	43e8 fff8      	lea %a0@(-8),%a1
    3f1c:	2468 0004      	moveal %a0@(4),%a2
    3f20:	b5c9           	cmpal %a1,%a2
    3f22:	6600 f9d8      	bnew 38fc <_malloc_r+0xd4>
    3f26:	6000 fa06      	braw 392e <_malloc_r+0x106>
    3f2a:	23cc 0001 2ea8 	movel %a4,12ea8 <__malloc_sbrk_base>
    3f30:	6000 febc      	braw 3dee <_malloc_r+0x5c6>
    3f34:	0c84 0000 0154 	cmpil #340,%d4
    3f3a:	6200 0086      	bhiw 3fc2 <_malloc_r+0x79a>
    3f3e:	2a00           	movel %d0,%d5
    3f40:	7c0f           	moveq #15,%d6
    3f42:	ecad           	lsrl %d6,%d5
    3f44:	2045           	moveal %d5,%a0
    3f46:	43e8 0077      	lea %a0@(119),%a1
    3f4a:	41e8 0078      	lea %a0@(120),%a0
    3f4e:	2808           	movel %a0,%d4
    3f50:	e78c           	lsll #3,%d4
    3f52:	2044           	moveal %d4,%a0
    3f54:	d1fc 0001 2eb0 	addal #77488,%a0
    3f5a:	49e8 fff8      	lea %a0@(-8),%a4
    3f5e:	2050           	moveal %a0@,%a0
    3f60:	b1cc           	cmpal %a4,%a0
    3f62:	6600 fc6a      	bnew 3bce <_malloc_r+0x3a6>
    3f66:	6000 fe42      	braw 3daa <_malloc_r+0x582>
    3f6a:	0c83 0000 0554 	cmpil #1364,%d3
    3f70:	6200 0086      	bhiw 3ff8 <_malloc_r+0x7d0>
    3f74:	2602           	movel %d2,%d3
    3f76:	4243           	clrw %d3
    3f78:	4843           	swap %d3
    3f7a:	e44b           	lsrw #2,%d3
    3f7c:	387c 007c      	moveaw #124,%a4
    3f80:	d9c3           	addal %d3,%a4
    3f82:	7c7d           	moveq #125,%d6
    3f84:	d686           	addl %d6,%d3
    3f86:	2003           	movel %d3,%d0
    3f88:	e788           	lsll #3,%d0
    3f8a:	2040           	moveal %d0,%a0
    3f8c:	d1fc 0001 2eb0 	addal #77488,%a0
    3f92:	43e8 fff8      	lea %a0@(-8),%a1
    3f96:	2468 0004      	moveal %a0@(4),%a2
    3f9a:	b5c9           	cmpal %a1,%a2
    3f9c:	6600 f95e      	bnew 38fc <_malloc_r+0xd4>
    3fa0:	6000 f98c      	braw 392e <_malloc_r+0x106>
    3fa4:	486a 0008      	pea %a2@(8)
    3fa8:	2f0b           	movel %a3,%sp@-
    3faa:	4eb9 0000 878a 	jsr 878a <_free_r>
    3fb0:	2055           	moveal %a5@,%a0
    3fb2:	2879 0001 2eb8 	moveal 12eb8 <__malloc_av_+0x8>,%a4
    3fb8:	262c 0004      	movel %a4@(4),%d3
    3fbc:	508f           	addql #8,%sp
    3fbe:	6000 fb54      	braw 3b14 <_malloc_r+0x2ec>
    3fc2:	0c84 0000 0554 	cmpil #1364,%d4
    3fc8:	626a           	bhis 4034 <_malloc_r+0x80c>
    3fca:	2800           	movel %d0,%d4
    3fcc:	4244           	clrw %d4
    3fce:	4844           	swap %d4
    3fd0:	e44c           	lsrw #2,%d4
    3fd2:	2044           	moveal %d4,%a0
    3fd4:	43e8 007c      	lea %a0@(124),%a1
    3fd8:	41e8 007d      	lea %a0@(125),%a0
    3fdc:	2808           	movel %a0,%d4
    3fde:	e78c           	lsll #3,%d4
    3fe0:	2044           	moveal %d4,%a0
    3fe2:	d1fc 0001 2eb0 	addal #77488,%a0
    3fe8:	49e8 fff8      	lea %a0@(-8),%a4
    3fec:	2050           	moveal %a0@,%a0
    3fee:	b1cc           	cmpal %a4,%a0
    3ff0:	6600 fbdc      	bnew 3bce <_malloc_r+0x3a6>
    3ff4:	6000 fdb4      	braw 3daa <_malloc_r+0x582>
    3ff8:	203c 0000 03f8 	movel #1016,%d0
    3ffe:	767f           	moveq #127,%d3
    4000:	387c 007e      	moveaw #126,%a4
    4004:	2040           	moveal %d0,%a0
    4006:	d1fc 0001 2eb0 	addal #77488,%a0
    400c:	43e8 fff8      	lea %a0@(-8),%a1
    4010:	2468 0004      	moveal %a0@(4),%a2
    4014:	b5c9           	cmpal %a1,%a2
    4016:	6600 f8e4      	bnew 38fc <_malloc_r+0xd4>
    401a:	6000 f912      	braw 392e <_malloc_r+0x106>
    401e:	2605           	movel %d5,%d3
    4020:	2003           	movel %d3,%d0
    4022:	e788           	lsll #3,%d0
    4024:	2840           	moveal %d0,%a4
    4026:	d9fc 0001 2eb0 	addal #77488,%a4
    402c:	224c           	moveal %a4,%a1
    402e:	2a03           	movel %d3,%d5
    4030:	6000 f9aa      	braw 39dc <_malloc_r+0x1b4>
    4034:	283c 0000 03f8 	movel #1016,%d4
    403a:	327c 007e      	moveaw #126,%a1
    403e:	2044           	moveal %d4,%a0
    4040:	d1fc 0001 2eb0 	addal #77488,%a0
    4046:	49e8 fff8      	lea %a0@(-8),%a4
    404a:	2050           	moveal %a0@,%a0
    404c:	b1cc           	cmpal %a4,%a0
    404e:	6600 fb7e      	bnew 3bce <_malloc_r+0x3a6>
    4052:	6000 fd56      	braw 3daa <_malloc_r+0x582>
    4056:	2004           	movel %d4,%d0
    4058:	4680           	notl %d0
    405a:	c0b9 0001 2eb4 	andl 12eb4 <__malloc_av_+0x4>,%d0
    4060:	23c0 0001 2eb4 	movel %d0,12eb4 <__malloc_av_+0x4>
    4066:	6000 fbf2      	braw 3c5a <_malloc_r+0x432>
	...

0000406c <_vfprintf_r>:
    406c:	4e56 ff20      	linkw %fp,#-224
    4070:	48e7 3f3c      	moveml %d2-%d7/%a2-%a5,%sp@-
    4074:	2d6e 0008 ff30 	movel %fp@(8),%fp@(-208)
    407a:	2d6e 000c ff2c 	movel %fp@(12),%fp@(-212)
    4080:	2d6e 0010 ff28 	movel %fp@(16),%fp@(-216)
    4086:	2d6e 0014 ff38 	movel %fp@(20),%fp@(-200)
    408c:	2f2e ff30      	movel %fp@(-208),%sp@-
    4090:	4eb9 0000 6964 	jsr 6964 <_localeconv_r>
    4096:	2040           	moveal %d0,%a0
    4098:	2d50 ff50      	movel %a0@,%fp@(-176)
    409c:	2f2e ff50      	movel %fp@(-176),%sp@-
    40a0:	4eb9 0000 6b20 	jsr 6b20 <strlen>
    40a6:	2d40 ff4c      	movel %d0,%fp@(-180)
    40aa:	508f           	addql #8,%sp
    40ac:	4aae ff30      	tstl %fp@(-208)
    40b0:	670c           	beqs 40be <_vfprintf_r+0x52>
    40b2:	226e ff30      	moveal %fp@(-208),%a1
    40b6:	4aa9 0032      	tstl %a1@(50)
    40ba:	6700 1198      	beqw 5254 <_vfprintf_r+0x11e8>
    40be:	206e ff2c      	moveal %fp@(-212),%a0
    40c2:	2028 0064      	movel %a0@(100),%d0
    40c6:	3228 000c      	movew %a0@(12),%d1
    40ca:	0801 000d      	btst #13,%d1
    40ce:	6610           	bnes 40e0 <_vfprintf_r+0x74>
    40d0:	0041 2000      	oriw #8192,%d1
    40d4:	3141 000c      	movew %d1,%a0@(12)
    40d8:	0240 dfff      	andiw #-8193,%d0
    40dc:	2140 0064      	movel %d0,%a0@(100)
    40e0:	0800 000d      	btst #13,%d0
    40e4:	6600 189c      	bnew 5982 <_vfprintf_r+0x1916>
    40e8:	206e ff2c      	moveal %fp@(-212),%a0
    40ec:	3028 000c      	movew %a0@(12),%d0
    40f0:	0800 0003      	btst #3,%d0
    40f4:	6700 01de      	beqw 42d4 <_vfprintf_r+0x268>
    40f8:	4aa8 0010      	tstl %a0@(16)
    40fc:	6700 01d6      	beqw 42d4 <_vfprintf_r+0x268>
    4100:	0240 001a      	andiw #26,%d0
    4104:	0c40 000a      	cmpiw #10,%d0
    4108:	6700 0490      	beqw 459a <_vfprintf_r+0x52e>
    410c:	43ee ffc0      	lea %fp@(-64),%a1
    4110:	2d49 ff8c      	movel %a1,%fp@(-116)
    4114:	42ae ff94      	clrl %fp@(-108)
    4118:	42ae ff90      	clrl %fp@(-112)
    411c:	42ae ff40      	clrl %fp@(-192)
    4120:	42ae ff44      	clrl %fp@(-188)
    4124:	42ae ff48      	clrl %fp@(-184)
    4128:	2d49 ff24      	movel %a1,%fp@(-220)
    412c:	2849           	moveal %a1,%a4
    412e:	42ae ff58      	clrl %fp@(-168)
    4132:	42ae ff54      	clrl %fp@(-172)
    4136:	42ae ff34      	clrl %fp@(-204)
    413a:	2d6e ff28 ff20 	movel %fp@(-216),%fp@(-224)
    4140:	226e ff20      	moveal %fp@(-224),%a1
    4144:	1011           	moveb %a1@,%d0
    4146:	6700 0226      	beqw 436e <_vfprintf_r+0x302>
    414a:	246e ff20      	moveal %fp@(-224),%a2
    414e:	0c00 0025      	cmpib #37,%d0
    4152:	6700 01c4      	beqw 4318 <_vfprintf_r+0x2ac>
    4156:	528a           	addql #1,%a2
    4158:	1012           	moveb %a2@,%d0
    415a:	66f2           	bnes 414e <_vfprintf_r+0xe2>
    415c:	264a           	moveal %a2,%a3
    415e:	97ee ff20      	subal %fp@(-224),%a3
    4162:	b5ee ff20      	cmpal %fp@(-224),%a2
    4166:	6700 0206      	beqw 436e <_vfprintf_r+0x302>
    416a:	28ae ff20      	movel %fp@(-224),%a4@
    416e:	294b 0004      	movel %a3,%a4@(4)
    4172:	200b           	movel %a3,%d0
    4174:	d1ae ff94      	addl %d0,%fp@(-108)
    4178:	202e ff90      	movel %fp@(-112),%d0
    417c:	5280           	addql #1,%d0
    417e:	2d40 ff90      	movel %d0,%fp@(-112)
    4182:	7207           	moveq #7,%d1
    4184:	b280           	cmpl %d0,%d1
    4186:	6d00 01be      	bltw 4346 <_vfprintf_r+0x2da>
    418a:	508c           	addql #8,%a4
    418c:	240b           	movel %a3,%d2
    418e:	d5ae ff34      	addl %d2,%fp@(-204)
    4192:	1012           	moveb %a2@,%d0
    4194:	6700 01d8      	beqw 436e <_vfprintf_r+0x302>
    4198:	528a           	addql #1,%a2
    419a:	422e ff71      	clrb %fp@(-143)
    419e:	74ff           	moveq #-1,%d2
    41a0:	7600           	moveq #0,%d3
    41a2:	7c00           	moveq #0,%d6
    41a4:	2d4a ff28      	movel %a2,%fp@(-216)
    41a8:	206e ff28      	moveal %fp@(-216),%a0
    41ac:	52ae ff28      	addql #1,%fp@(-216)
    41b0:	1018           	moveb %a0@+,%d0
    41b2:	4880           	extw %d0
    41b4:	3640           	moveaw %d0,%a3
    41b6:	41eb ffe0      	lea %a3@(-32),%a0
    41ba:	7058           	moveq #88,%d0
    41bc:	b088           	cmpl %a0,%d0
    41be:	6500 01d2      	bcsw 4392 <_vfprintf_r+0x326>
    41c2:	2008           	movel %a0,%d0
    41c4:	d080           	addl %d0,%d0
    41c6:	303b 0806      	movew %pc@(41ce <_vfprintf_r+0x162>,%d0:l),%d0
    41ca:	4efb 0002      	jmp %pc@(41ce <_vfprintf_r+0x162>,%d0:w)
    41ce:	0926           	btst %d4,%fp@-
    41d0:	01c4           	bset %d0,%d4
    41d2:	01c4           	bset %d0,%d4
    41d4:	0910           	btst %d4,%a0@
    41d6:	01c4           	bset %d0,%d4
    41d8:	01c4           	bset %d0,%d4
    41da:	01c4           	bset %d0,%d4
    41dc:	01c4           	bset %d0,%d4
    41de:	01c4           	bset %d0,%d4
    41e0:	01c4           	bset %d0,%d4
    41e2:	0864 08f8      	bchg #-8,%a4@-
    41e6:	01c4           	bset %d0,%d4
    41e8:	0874 088a 01c4 	bchg #-118,@(0)@(0)
    41ee:	08e0 00b2      	bset #-78,%a0@-
    41f2:	00b2 00b2 00b2 	oril #11665586,%a2@(ffffffffffffffb2,%d0:w)
    41f8:	00b2 
    41fa:	00b2 00b2 00b2 	oril #11665586,%a2@(ffffffffffffffb2,%d0:w)
    4200:	00b2 
    4202:	01c4           	bset %d0,%d4
    4204:	01c4           	bset %d0,%d4
    4206:	01c4           	bset %d0,%d4
    4208:	01c4           	bset %d0,%d4
    420a:	01c4           	bset %d0,%d4
    420c:	01c4           	bset %d0,%d4
    420e:	01c4           	bset %d0,%d4
    4210:	01c4           	bset %d0,%d4
    4212:	01c4           	bset %d0,%d4
    4214:	01c4           	bset %d0,%d4
    4216:	07c2           	bset %d3,%d2
    4218:	02d6           	.short 0x02d6
    421a:	01c4           	bset %d0,%d4
    421c:	02d6           	.short 0x02d6
    421e:	01c4           	bset %d0,%d4
    4220:	01c4           	bset %d0,%d4
    4222:	01c4           	bset %d0,%d4
    4224:	01c4           	bset %d0,%d4
    4226:	097c           	.short 0x097c
    4228:	01c4           	bset %d0,%d4
    422a:	01c4           	bset %d0,%d4
    422c:	09e6           	bset %d4,%fp@-
    422e:	01c4           	bset %d0,%d4
    4230:	01c4           	bset %d0,%d4
    4232:	01c4           	bset %d0,%d4
    4234:	01c4           	bset %d0,%d4
    4236:	01c4           	bset %d0,%d4
    4238:	0992           	bclr %d4,%a2@
    423a:	01c4           	bset %d0,%d4
    423c:	01c4           	bset %d0,%d4
    423e:	10dc           	moveb %a4@+,%a0@+
    4240:	01c4           	bset %d0,%d4
    4242:	01c4           	bset %d0,%d4
    4244:	01c4           	bset %d0,%d4
    4246:	01c4           	bset %d0,%d4
    4248:	01c4           	bset %d0,%d4
    424a:	01c4           	bset %d0,%d4
    424c:	01c4           	bset %d0,%d4
    424e:	01c4           	bset %d0,%d4
    4250:	01c4           	bset %d0,%d4
    4252:	01c4           	bset %d0,%d4
    4254:	0946           	bchg %d4,%d6
    4256:	0748 02d6      	movepl %a0@(726),%d3
    425a:	02d6           	.short 0x02d6
    425c:	02d6           	.short 0x02d6
    425e:	0a02 0748      	eorib #72,%d2
    4262:	01c4           	bset %d0,%d4
    4264:	01c4           	bset %d0,%d4
    4266:	0134 01c4      	btst %d0,@(0)@(0)
    426a:	0af8           	.short 0x0af8
    426c:	0acc           	.short 0x0acc
    426e:	0aa0 0134 01c4 	eoril #20185540,%a0@-
    4274:	0a44 01c4      	eoriw #452,%d4
    4278:	0a18 01c4      	eorib #-60,%a0@+
    427c:	01c4           	bset %d0,%d4
    427e:	112c 7600      	moveb %a4@(30208),%a0@-
    4282:	41eb ffd0      	lea %a3@(-48),%a0
    4286:	2003           	movel %d3,%d0
    4288:	d083           	addl %d3,%d0
    428a:	d080           	addl %d0,%d0
    428c:	d680           	addl %d0,%d3
    428e:	d683           	addl %d3,%d3
    4290:	d688           	addl %a0,%d3
    4292:	206e ff28      	moveal %fp@(-216),%a0
    4296:	52ae ff28      	addql #1,%fp@(-216)
    429a:	1018           	moveb %a0@+,%d0
    429c:	4880           	extw %d0
    429e:	3640           	moveaw %d0,%a3
    42a0:	41eb ffd0      	lea %a3@(-48),%a0
    42a4:	7009           	moveq #9,%d0
    42a6:	b088           	cmpl %a0,%d0
    42a8:	6500 ff0c      	bcsw 41b6 <_vfprintf_r+0x14a>
    42ac:	2003           	movel %d3,%d0
    42ae:	d083           	addl %d3,%d0
    42b0:	d080           	addl %d0,%d0
    42b2:	d680           	addl %d0,%d3
    42b4:	d683           	addl %d3,%d3
    42b6:	d688           	addl %a0,%d3
    42b8:	206e ff28      	moveal %fp@(-216),%a0
    42bc:	52ae ff28      	addql #1,%fp@(-216)
    42c0:	1018           	moveb %a0@+,%d0
    42c2:	4880           	extw %d0
    42c4:	3640           	moveaw %d0,%a3
    42c6:	41eb ffd0      	lea %a3@(-48),%a0
    42ca:	7009           	moveq #9,%d0
    42cc:	b088           	cmpl %a0,%d0
    42ce:	64b6           	bccs 4286 <_vfprintf_r+0x21a>
    42d0:	6000 fee4      	braw 41b6 <_vfprintf_r+0x14a>
    42d4:	2f2e ff2c      	movel %fp@(-212),%sp@-
    42d8:	2f2e ff30      	movel %fp@(-208),%sp@-
    42dc:	4eb9 0000 669c 	jsr 669c <__swsetup_r>
    42e2:	508f           	addql #8,%sp
    42e4:	4a80           	tstl %d0
    42e6:	6600 169a      	bnew 5982 <_vfprintf_r+0x1916>
    42ea:	226e ff2c      	moveal %fp@(-212),%a1
    42ee:	3029 000c      	movew %a1@(12),%d0
    42f2:	0240 001a      	andiw #26,%d0
    42f6:	0c40 000a      	cmpiw #10,%d0
    42fa:	6600 fe10      	bnew 410c <_vfprintf_r+0xa0>
    42fe:	6000 029a      	braw 459a <_vfprintf_r+0x52e>
    4302:	7a10           	moveq #16,%d5
    4304:	8c85           	orl %d5,%d6
    4306:	206e ff28      	moveal %fp@(-216),%a0
    430a:	52ae ff28      	addql #1,%fp@(-216)
    430e:	1018           	moveb %a0@+,%d0
    4310:	4880           	extw %d0
    4312:	3640           	moveaw %d0,%a3
    4314:	6000 fea0      	braw 41b6 <_vfprintf_r+0x14a>
    4318:	264a           	moveal %a2,%a3
    431a:	97ee ff20      	subal %fp@(-224),%a3
    431e:	b5ee ff20      	cmpal %fp@(-224),%a2
    4322:	6700 fe6e      	beqw 4192 <_vfprintf_r+0x126>
    4326:	28ae ff20      	movel %fp@(-224),%a4@
    432a:	294b 0004      	movel %a3,%a4@(4)
    432e:	200b           	movel %a3,%d0
    4330:	d1ae ff94      	addl %d0,%fp@(-108)
    4334:	202e ff90      	movel %fp@(-112),%d0
    4338:	5280           	addql #1,%d0
    433a:	2d40 ff90      	movel %d0,%fp@(-112)
    433e:	7207           	moveq #7,%d1
    4340:	b280           	cmpl %d0,%d1
    4342:	6c00 fe46      	bgew 418a <_vfprintf_r+0x11e>
    4346:	486e ff8c      	pea %fp@(-116)
    434a:	2f2e ff2c      	movel %fp@(-212),%sp@-
    434e:	2f2e ff30      	movel %fp@(-208),%sp@-
    4352:	4eb9 0000 5e38 	jsr 5e38 <__sprint_r>
    4358:	4fef 000c      	lea %sp@(12),%sp
    435c:	4a80           	tstl %d0
    435e:	6616           	bnes 4376 <_vfprintf_r+0x30a>
    4360:	49ee ffc0      	lea %fp@(-64),%a4
    4364:	240b           	movel %a3,%d2
    4366:	d5ae ff34      	addl %d2,%fp@(-204)
    436a:	6000 fe26      	braw 4192 <_vfprintf_r+0x126>
    436e:	4aae ff94      	tstl %fp@(-108)
    4372:	6600 15b2      	bnew 5926 <_vfprintf_r+0x18ba>
    4376:	206e ff2c      	moveal %fp@(-212),%a0
    437a:	0828 0006 000d 	btst #6,%a0@(13)
    4380:	6600 1600      	bnew 5982 <_vfprintf_r+0x1916>
    4384:	202e ff34      	movel %fp@(-204),%d0
    4388:	4cee 3cfc fef8 	moveml %fp@(-264),%d2-%d7/%a2-%a5
    438e:	4e5e           	unlk %fp
    4390:	4e75           	rts
    4392:	2d6e ff28 ff20 	movel %fp@(-216),%fp@(-224)
    4398:	b6fc 0000      	cmpaw #0,%a3
    439c:	67d0           	beqs 436e <_vfprintf_r+0x302>
    439e:	340b           	movew %a3,%d2
    43a0:	1d42 ff98      	moveb %d2,%fp@(-104)
    43a4:	422e ff71      	clrb %fp@(-143)
    43a8:	7801           	moveq #1,%d4
    43aa:	2d44 ff28      	movel %d4,%fp@(-216)
    43ae:	7a01           	moveq #1,%d5
    43b0:	7e98           	moveq #-104,%d7
    43b2:	de8e           	addl %fp,%d7
    43b4:	2806           	movel %d6,%d4
    43b6:	7400           	moveq #0,%d2
    43b8:	42ae ff3c      	clrl %fp@(-196)
    43bc:	9bcd           	subal %a5,%a5
    43be:	7c7b           	moveq #123,%d6
    43c0:	4606           	notb %d6
    43c2:	cc84           	andl %d4,%d6
    43c4:	246e ff94      	moveal %fp@(-108),%a2
    43c8:	660e           	bnes 43d8 <_vfprintf_r+0x36c>
    43ca:	2243           	moveal %d3,%a1
    43cc:	93ee ff28      	subal %fp@(-216),%a1
    43d0:	b2fc 0000      	cmpaw #0,%a1
    43d4:	6e00 0430      	bgtw 4806 <_vfprintf_r+0x79a>
    43d8:	4a2e ff71      	tstb %fp@(-143)
    43dc:	6726           	beqs 4404 <_vfprintf_r+0x398>
    43de:	41ee ff71      	lea %fp@(-143),%a0
    43e2:	2888           	movel %a0,%a4@
    43e4:	7001           	moveq #1,%d0
    43e6:	2940 0004      	movel %d0,%a4@(4)
    43ea:	528a           	addql #1,%a2
    43ec:	2d4a ff94      	movel %a2,%fp@(-108)
    43f0:	202e ff90      	movel %fp@(-112),%d0
    43f4:	5280           	addql #1,%d0
    43f6:	2d40 ff90      	movel %d0,%fp@(-112)
    43fa:	7207           	moveq #7,%d1
    43fc:	b280           	cmpl %d0,%d1
    43fe:	6d00 0af6      	bltw 4ef6 <_vfprintf_r+0xe8a>
    4402:	508c           	addql #8,%a4
    4404:	bafc 0000      	cmpaw #0,%a5
    4408:	6726           	beqs 4430 <_vfprintf_r+0x3c4>
    440a:	41ee ff72      	lea %fp@(-142),%a0
    440e:	2888           	movel %a0,%a4@
    4410:	7002           	moveq #2,%d0
    4412:	2940 0004      	movel %d0,%a4@(4)
    4416:	548a           	addql #2,%a2
    4418:	2d4a ff94      	movel %a2,%fp@(-108)
    441c:	202e ff90      	movel %fp@(-112),%d0
    4420:	5280           	addql #1,%d0
    4422:	2d40 ff90      	movel %d0,%fp@(-112)
    4426:	7207           	moveq #7,%d1
    4428:	b280           	cmpl %d0,%d1
    442a:	6d00 0a98      	bltw 4ec4 <_vfprintf_r+0xe58>
    442e:	508c           	addql #8,%a4
    4430:	0c86 0000 0080 	cmpil #128,%d6
    4436:	6700 0192      	beqw 45ca <_vfprintf_r+0x55e>
    443a:	2a42           	moveal %d2,%a5
    443c:	9bc5           	subal %d5,%a5
    443e:	bafc 0000      	cmpaw #0,%a5
    4442:	6e00 0218      	bgtw 465c <_vfprintf_r+0x5f0>
    4446:	0804 0008      	btst #8,%d4
    444a:	6600 0278      	bnew 46c4 <_vfprintf_r+0x658>
    444e:	2887           	movel %d7,%a4@
    4450:	2945 0004      	movel %d5,%a4@(4)
    4454:	d5c5           	addal %d5,%a2
    4456:	2d4a ff94      	movel %a2,%fp@(-108)
    445a:	202e ff90      	movel %fp@(-112),%d0
    445e:	5280           	addql #1,%d0
    4460:	2d40 ff90      	movel %d0,%fp@(-112)
    4464:	7a07           	moveq #7,%d5
    4466:	ba80           	cmpl %d0,%d5
    4468:	6d00 034c      	bltw 47b6 <_vfprintf_r+0x74a>
    446c:	508c           	addql #8,%a4
    446e:	0804 0002      	btst #2,%d4
    4472:	670e           	beqs 4482 <_vfprintf_r+0x416>
    4474:	2a43           	moveal %d3,%a5
    4476:	9bee ff28      	subal %fp@(-216),%a5
    447a:	bafc 0000      	cmpaw #0,%a5
    447e:	6e00 040a      	bgtw 488a <_vfprintf_r+0x81e>
    4482:	b6ae ff28      	cmpl %fp@(-216),%d3
    4486:	6c04           	bges 448c <_vfprintf_r+0x420>
    4488:	262e ff28      	movel %fp@(-216),%d3
    448c:	d7ae ff34      	addl %d3,%fp@(-204)
    4490:	b4fc 0000      	cmpaw #0,%a2
    4494:	6600 0348      	bnew 47de <_vfprintf_r+0x772>
    4498:	42ae ff90      	clrl %fp@(-112)
    449c:	49ee ffc0      	lea %fp@(-64),%a4
    44a0:	6000 fc9e      	braw 4140 <_vfprintf_r+0xd4>
    44a4:	2d6e ff28 ff20 	movel %fp@(-216),%fp@(-224)
    44aa:	0806 0003      	btst #3,%d6
    44ae:	6700 0d90      	beqw 5240 <_vfprintf_r+0x11d4>
    44b2:	246e ff38      	moveal %fp@(-200),%a2
    44b6:	9ffc 0000 000c 	subal #12,%sp
    44bc:	2e9a           	movel %a2@+,%sp@
    44be:	2f5a 0004      	movel %a2@+,%sp@(4)
    44c2:	2f5a 0008      	movel %a2@+,%sp@(8)
    44c6:	4eb9 0001 00fc 	jsr 100fc <__truncxfdf2>
    44cc:	4fef 000c      	lea %sp@(12),%sp
    44d0:	2040           	moveal %d0,%a0
    44d2:	2241           	moveal %d1,%a1
    44d4:	2d48 ff44      	movel %a0,%fp@(-188)
    44d8:	2d49 ff48      	movel %a1,%fp@(-184)
    44dc:	2d4a ff38      	movel %a2,%fp@(-200)
    44e0:	202e ff44      	movel %fp@(-188),%d0
    44e4:	0880 001f      	bclr #31,%d0
    44e8:	2d40 ff60      	movel %d0,%fp@(-160)
    44ec:	2d6e ff48 ff64 	movel %fp@(-184),%fp@(-156)
    44f2:	283c 7fef ffff 	movel #2146435071,%d4
    44f8:	7aff           	moveq #-1,%d5
    44fa:	45f9 0000 2dda 	lea 2dda <__unorddf2>,%a2
    4500:	2f05           	movel %d5,%sp@-
    4502:	2f04           	movel %d4,%sp@-
    4504:	2f2e ff64      	movel %fp@(-156),%sp@-
    4508:	2f2e ff60      	movel %fp@(-160),%sp@-
    450c:	4e92           	jsr %a2@
    450e:	4fef 0010      	lea %sp@(16),%sp
    4512:	4a80           	tstl %d0
    4514:	6600 0ff8      	bnew 550e <_vfprintf_r+0x14a2>
    4518:	2f05           	movel %d5,%sp@-
    451a:	2f04           	movel %d4,%sp@-
    451c:	2f2e ff64      	movel %fp@(-156),%sp@-
    4520:	2f2e ff60      	movel %fp@(-160),%sp@-
    4524:	4eb9 0000 ffa0 	jsr ffa0 <__ledf2>
    452a:	4fef 0010      	lea %sp@(16),%sp
    452e:	4a80           	tstl %d0
    4530:	6f00 0fdc      	blew 550e <_vfprintf_r+0x14a2>
    4534:	42a7           	clrl %sp@-
    4536:	42a7           	clrl %sp@-
    4538:	2f2e ff48      	movel %fp@(-184),%sp@-
    453c:	2f2e ff44      	movel %fp@(-188),%sp@-
    4540:	4eb9 0000 ff7c 	jsr ff7c <__ltdf2>
    4546:	4fef 0010      	lea %sp@(16),%sp
    454a:	4a80           	tstl %d0
    454c:	6d00 11fc      	bltw 574a <_vfprintf_r+0x16de>
    4550:	122e ff71      	moveb %fp@(-143),%d1
    4554:	3a41           	moveaw %d1,%a5
    4556:	7447           	moveq #71,%d2
    4558:	b48b           	cmpl %a3,%d2
    455a:	6d00 11d2      	bltw 572e <_vfprintf_r+0x16c2>
    455e:	2e3c 0001 09cc 	movel #68044,%d7
    4564:	7880           	moveq #-128,%d4
    4566:	4604           	notb %d4
    4568:	c886           	andl %d6,%d4
    456a:	7a03           	moveq #3,%d5
    456c:	2d45 ff28      	movel %d5,%fp@(-216)
    4570:	7400           	moveq #0,%d2
    4572:	42ae ff3c      	clrl %fp@(-196)
    4576:	320d           	movew %a5,%d1
    4578:	4a01           	tstb %d1
    457a:	6704           	beqs 4580 <_vfprintf_r+0x514>
    457c:	52ae ff28      	addql #1,%fp@(-216)
    4580:	7002           	moveq #2,%d0
    4582:	c084           	andl %d4,%d0
    4584:	2a40           	moveal %d0,%a5
    4586:	0804 0001      	btst #1,%d4
    458a:	6700 fe32      	beqw 43be <_vfprintf_r+0x352>
    458e:	54ae ff28      	addql #2,%fp@(-216)
    4592:	3a7c 0002      	moveaw #2,%a5
    4596:	6000 fe26      	braw 43be <_vfprintf_r+0x352>
    459a:	206e ff2c      	moveal %fp@(-212),%a0
    459e:	4a68 000e      	tstw %a0@(14)
    45a2:	6d00 fb68      	bltw 410c <_vfprintf_r+0xa0>
    45a6:	2d6e ff38 0014 	movel %fp@(-200),%fp@(20)
    45ac:	2d6e ff28 0010 	movel %fp@(-216),%fp@(16)
    45b2:	2d48 000c      	movel %a0,%fp@(12)
    45b6:	2d6e ff30 0008 	movel %fp@(-208),%fp@(8)
    45bc:	4cee 3cfc fef8 	moveml %fp@(-264),%d2-%d7/%a2-%a5
    45c2:	4e5e           	unlk %fp
    45c4:	4ef9 0000 5d8e 	jmp 5d8e <__sbprintf>
    45ca:	2a43           	moveal %d3,%a5
    45cc:	9bee ff28      	subal %fp@(-216),%a5
    45d0:	bafc 0000      	cmpaw #0,%a5
    45d4:	6f00 fe64      	blew 443a <_vfprintf_r+0x3ce>
    45d8:	202e ff90      	movel %fp@(-112),%d0
    45dc:	7210           	moveq #16,%d1
    45de:	b28d           	cmpl %a5,%d1
    45e0:	6c4e           	bges 4630 <_vfprintf_r+0x5c4>
    45e2:	7c8c           	moveq #-116,%d6
    45e4:	dc8e           	addl %fp,%d6
    45e6:	204c           	moveal %a4,%a0
    45e8:	2845           	moveal %d5,%a4
    45ea:	2a03           	movel %d3,%d5
    45ec:	224a           	moveal %a2,%a1
    45ee:	2442           	moveal %d2,%a2
    45f0:	242e ff30      	movel %fp@(-208),%d2
    45f4:	262e ff2c      	movel %fp@(-212),%d3
    45f8:	20bc 0001 0ad5 	movel #68309,%a0@
    45fe:	7210           	moveq #16,%d1
    4600:	2141 0004      	movel %d1,%a0@(4)
    4604:	43e9 0010      	lea %a1@(16),%a1
    4608:	2d49 ff94      	movel %a1,%fp@(-108)
    460c:	5280           	addql #1,%d0
    460e:	2d40 ff90      	movel %d0,%fp@(-112)
    4612:	7207           	moveq #7,%d1
    4614:	b280           	cmpl %d0,%d1
    4616:	6d00 077a      	bltw 4d92 <_vfprintf_r+0xd26>
    461a:	5088           	addql #8,%a0
    461c:	4bed fff0      	lea %a5@(-16),%a5
    4620:	7210           	moveq #16,%d1
    4622:	b28d           	cmpl %a5,%d1
    4624:	6dd2           	blts 45f8 <_vfprintf_r+0x58c>
    4626:	2605           	movel %d5,%d3
    4628:	240a           	movel %a2,%d2
    462a:	2a0c           	movel %a4,%d5
    462c:	2848           	moveal %a0,%a4
    462e:	2449           	moveal %a1,%a2
    4630:	28bc 0001 0ad5 	movel #68309,%a4@
    4636:	294d 0004      	movel %a5,%a4@(4)
    463a:	d5cd           	addal %a5,%a2
    463c:	2d4a ff94      	movel %a2,%fp@(-108)
    4640:	5280           	addql #1,%d0
    4642:	2d40 ff90      	movel %d0,%fp@(-112)
    4646:	7207           	moveq #7,%d1
    4648:	b280           	cmpl %d0,%d1
    464a:	6d00 0fce      	bltw 561a <_vfprintf_r+0x15ae>
    464e:	508c           	addql #8,%a4
    4650:	2a42           	moveal %d2,%a5
    4652:	9bc5           	subal %d5,%a5
    4654:	bafc 0000      	cmpaw #0,%a5
    4658:	6f00 fdec      	blew 4446 <_vfprintf_r+0x3da>
    465c:	202e ff90      	movel %fp@(-112),%d0
    4660:	7410           	moveq #16,%d2
    4662:	b48d           	cmpl %a5,%d2
    4664:	6c36           	bges 469c <_vfprintf_r+0x630>
    4666:	242e ff30      	movel %fp@(-208),%d2
    466a:	2c2e ff2c      	movel %fp@(-212),%d6
    466e:	28bc 0001 0ad5 	movel #68309,%a4@
    4674:	7210           	moveq #16,%d1
    4676:	2941 0004      	movel %d1,%a4@(4)
    467a:	45ea 0010      	lea %a2@(16),%a2
    467e:	2d4a ff94      	movel %a2,%fp@(-108)
    4682:	5280           	addql #1,%d0
    4684:	2d40 ff90      	movel %d0,%fp@(-112)
    4688:	7207           	moveq #7,%d1
    468a:	b280           	cmpl %d0,%d1
    468c:	6d00 066e      	bltw 4cfc <_vfprintf_r+0xc90>
    4690:	508c           	addql #8,%a4
    4692:	4bed fff0      	lea %a5@(-16),%a5
    4696:	7210           	moveq #16,%d1
    4698:	b28d           	cmpl %a5,%d1
    469a:	6dd2           	blts 466e <_vfprintf_r+0x602>
    469c:	28bc 0001 0ad5 	movel #68309,%a4@
    46a2:	294d 0004      	movel %a5,%a4@(4)
    46a6:	d5cd           	addal %a5,%a2
    46a8:	2d4a ff94      	movel %a2,%fp@(-108)
    46ac:	5280           	addql #1,%d0
    46ae:	2d40 ff90      	movel %d0,%fp@(-112)
    46b2:	7407           	moveq #7,%d2
    46b4:	b480           	cmpl %d0,%d2
    46b6:	6d00 0a4e      	bltw 5106 <_vfprintf_r+0x109a>
    46ba:	508c           	addql #8,%a4
    46bc:	0804 0008      	btst #8,%d4
    46c0:	6700 fd8c      	beqw 444e <_vfprintf_r+0x3e2>
    46c4:	7065           	moveq #101,%d0
    46c6:	b08b           	cmpl %a3,%d0
    46c8:	6c00 06fa      	bgew 4dc4 <_vfprintf_r+0xd58>
    46cc:	42a7           	clrl %sp@-
    46ce:	42a7           	clrl %sp@-
    46d0:	2f2e ff48      	movel %fp@(-184),%sp@-
    46d4:	2f2e ff44      	movel %fp@(-188),%sp@-
    46d8:	4eb9 0000 ff10 	jsr ff10 <__eqdf2>
    46de:	4fef 0010      	lea %sp@(16),%sp
    46e2:	4a80           	tstl %d0
    46e4:	6600 0838      	bnew 4f1e <_vfprintf_r+0xeb2>
    46e8:	28bc 0001 0a05 	movel #68101,%a4@
    46ee:	7201           	moveq #1,%d1
    46f0:	2941 0004      	movel %d1,%a4@(4)
    46f4:	528a           	addql #1,%a2
    46f6:	2d4a ff94      	movel %a2,%fp@(-108)
    46fa:	202e ff90      	movel %fp@(-112),%d0
    46fe:	5280           	addql #1,%d0
    4700:	2d40 ff90      	movel %d0,%fp@(-112)
    4704:	7407           	moveq #7,%d2
    4706:	b480           	cmpl %d0,%d2
    4708:	6d00 0edc      	bltw 55e6 <_vfprintf_r+0x157a>
    470c:	508c           	addql #8,%a4
    470e:	2a2e ff40      	movel %fp@(-192),%d5
    4712:	baae ff74      	cmpl %fp@(-140),%d5
    4716:	6f00 0a8a      	blew 51a2 <_vfprintf_r+0x1136>
    471a:	28ae ff50      	movel %fp@(-176),%a4@
    471e:	296e ff4c 0004 	movel %fp@(-180),%a4@(4)
    4724:	d5ee ff4c      	addal %fp@(-180),%a2
    4728:	2d4a ff94      	movel %a2,%fp@(-108)
    472c:	202e ff90      	movel %fp@(-112),%d0
    4730:	5280           	addql #1,%d0
    4732:	2d40 ff90      	movel %d0,%fp@(-112)
    4736:	7e07           	moveq #7,%d7
    4738:	be80           	cmpl %d0,%d7
    473a:	6d00 0b46      	bltw 5282 <_vfprintf_r+0x1216>
    473e:	508c           	addql #8,%a4
    4740:	2a6e ff40      	moveal %fp@(-192),%a5
    4744:	538d           	subql #1,%a5
    4746:	bafc 0000      	cmpaw #0,%a5
    474a:	6f00 fd22      	blew 446e <_vfprintf_r+0x402>
    474e:	202e ff90      	movel %fp@(-112),%d0
    4752:	7210           	moveq #16,%d1
    4754:	b28d           	cmpl %a5,%d1
    4756:	6c40           	bges 4798 <_vfprintf_r+0x72c>
    4758:	748c           	moveq #-116,%d2
    475a:	d48e           	addl %fp,%d2
    475c:	47f9 0000 5e38 	lea 5e38 <__sprint_r>,%a3
    4762:	2a2e ff30      	movel %fp@(-208),%d5
    4766:	2c2e ff2c      	movel %fp@(-212),%d6
    476a:	28bc 0001 0ad5 	movel #68309,%a4@
    4770:	7e10           	moveq #16,%d7
    4772:	2947 0004      	movel %d7,%a4@(4)
    4776:	45ea 0010      	lea %a2@(16),%a2
    477a:	2d4a ff94      	movel %a2,%fp@(-108)
    477e:	5280           	addql #1,%d0
    4780:	2d40 ff90      	movel %d0,%fp@(-112)
    4784:	7207           	moveq #7,%d1
    4786:	b280           	cmpl %d0,%d1
    4788:	6d00 0c76      	bltw 5400 <_vfprintf_r+0x1394>
    478c:	508c           	addql #8,%a4
    478e:	4bed fff0      	lea %a5@(-16),%a5
    4792:	7e10           	moveq #16,%d7
    4794:	be8d           	cmpl %a5,%d7
    4796:	6dd2           	blts 476a <_vfprintf_r+0x6fe>
    4798:	28bc 0001 0ad5 	movel #68309,%a4@
    479e:	294d 0004      	movel %a5,%a4@(4)
    47a2:	d5cd           	addal %a5,%a2
    47a4:	2d4a ff94      	movel %a2,%fp@(-108)
    47a8:	5280           	addql #1,%d0
    47aa:	2d40 ff90      	movel %d0,%fp@(-112)
    47ae:	7207           	moveq #7,%d1
    47b0:	b280           	cmpl %d0,%d1
    47b2:	6c00 fcb8      	bgew 446c <_vfprintf_r+0x400>
    47b6:	486e ff8c      	pea %fp@(-116)
    47ba:	2f2e ff2c      	movel %fp@(-212),%sp@-
    47be:	2f2e ff30      	movel %fp@(-208),%sp@-
    47c2:	4eb9 0000 5e38 	jsr 5e38 <__sprint_r>
    47c8:	4fef 000c      	lea %sp@(12),%sp
    47cc:	4a80           	tstl %d0
    47ce:	6600 fba6      	bnew 4376 <_vfprintf_r+0x30a>
    47d2:	246e ff94      	moveal %fp@(-108),%a2
    47d6:	49ee ffc0      	lea %fp@(-64),%a4
    47da:	6000 fc92      	braw 446e <_vfprintf_r+0x402>
    47de:	486e ff8c      	pea %fp@(-116)
    47e2:	2f2e ff2c      	movel %fp@(-212),%sp@-
    47e6:	2f2e ff30      	movel %fp@(-208),%sp@-
    47ea:	4eb9 0000 5e38 	jsr 5e38 <__sprint_r>
    47f0:	4fef 000c      	lea %sp@(12),%sp
    47f4:	4a80           	tstl %d0
    47f6:	6600 fb7e      	bnew 4376 <_vfprintf_r+0x30a>
    47fa:	42ae ff90      	clrl %fp@(-112)
    47fe:	49ee ffc0      	lea %fp@(-64),%a4
    4802:	6000 f93c      	braw 4140 <_vfprintf_r+0xd4>
    4806:	202e ff90      	movel %fp@(-112),%d0
    480a:	7210           	moveq #16,%d1
    480c:	b289           	cmpl %a1,%d1
    480e:	6c56           	bges 4866 <_vfprintf_r+0x7fa>
    4810:	2d42 ff5c      	movel %d2,%fp@(-164)
    4814:	204c           	moveal %a4,%a0
    4816:	2845           	moveal %d5,%a4
    4818:	2a03           	movel %d3,%d5
    481a:	220a           	movel %a2,%d1
    481c:	2449           	moveal %a1,%a2
    481e:	242e ff30      	movel %fp@(-208),%d2
    4822:	262e ff2c      	movel %fp@(-212),%d3
    4826:	2241           	moveal %d1,%a1
    4828:	20bc 0001 0ae5 	movel #68325,%a0@
    482e:	7210           	moveq #16,%d1
    4830:	2141 0004      	movel %d1,%a0@(4)
    4834:	43e9 0010      	lea %a1@(16),%a1
    4838:	2d49 ff94      	movel %a1,%fp@(-108)
    483c:	5280           	addql #1,%d0
    483e:	2d40 ff90      	movel %d0,%fp@(-112)
    4842:	7207           	moveq #7,%d1
    4844:	b280           	cmpl %d0,%d1
    4846:	6d00 04e8      	bltw 4d30 <_vfprintf_r+0xcc4>
    484a:	5088           	addql #8,%a0
    484c:	45ea fff0      	lea %a2@(-16),%a2
    4850:	7210           	moveq #16,%d1
    4852:	b28a           	cmpl %a2,%d1
    4854:	6dd2           	blts 4828 <_vfprintf_r+0x7bc>
    4856:	2605           	movel %d5,%d3
    4858:	242e ff5c      	movel %fp@(-164),%d2
    485c:	2a0c           	movel %a4,%d5
    485e:	2848           	moveal %a0,%a4
    4860:	2209           	movel %a1,%d1
    4862:	224a           	moveal %a2,%a1
    4864:	2441           	moveal %d1,%a2
    4866:	28bc 0001 0ae5 	movel #68325,%a4@
    486c:	2949 0004      	movel %a1,%a4@(4)
    4870:	d5c9           	addal %a1,%a2
    4872:	2d4a ff94      	movel %a2,%fp@(-108)
    4876:	5280           	addql #1,%d0
    4878:	2d40 ff90      	movel %d0,%fp@(-112)
    487c:	7207           	moveq #7,%d1
    487e:	b280           	cmpl %d0,%d1
    4880:	6d00 0c64      	bltw 54e6 <_vfprintf_r+0x147a>
    4884:	508c           	addql #8,%a4
    4886:	6000 fb50      	braw 43d8 <_vfprintf_r+0x36c>
    488a:	202e ff90      	movel %fp@(-112),%d0
    488e:	7210           	moveq #16,%d1
    4890:	b28d           	cmpl %a5,%d1
    4892:	6c40           	bges 48d4 <_vfprintf_r+0x868>
    4894:	748c           	moveq #-116,%d2
    4896:	d48e           	addl %fp,%d2
    4898:	47f9 0000 5e38 	lea 5e38 <__sprint_r>,%a3
    489e:	282e ff30      	movel %fp@(-208),%d4
    48a2:	2a2e ff2c      	movel %fp@(-212),%d5
    48a6:	28bc 0001 0ae5 	movel #68325,%a4@
    48ac:	7e10           	moveq #16,%d7
    48ae:	2947 0004      	movel %d7,%a4@(4)
    48b2:	45ea 0010      	lea %a2@(16),%a2
    48b6:	2d4a ff94      	movel %a2,%fp@(-108)
    48ba:	5280           	addql #1,%d0
    48bc:	2d40 ff90      	movel %d0,%fp@(-112)
    48c0:	7207           	moveq #7,%d1
    48c2:	b280           	cmpl %d0,%d1
    48c4:	6d00 049e      	bltw 4d64 <_vfprintf_r+0xcf8>
    48c8:	508c           	addql #8,%a4
    48ca:	4bed fff0      	lea %a5@(-16),%a5
    48ce:	7e10           	moveq #16,%d7
    48d0:	be8d           	cmpl %a5,%d7
    48d2:	6dd2           	blts 48a6 <_vfprintf_r+0x83a>
    48d4:	28bc 0001 0ae5 	movel #68325,%a4@
    48da:	294d 0004      	movel %a5,%a4@(4)
    48de:	d5cd           	addal %a5,%a2
    48e0:	2d4a ff94      	movel %a2,%fp@(-108)
    48e4:	5280           	addql #1,%d0
    48e6:	2d40 ff90      	movel %d0,%fp@(-112)
    48ea:	7207           	moveq #7,%d1
    48ec:	b280           	cmpl %d0,%d1
    48ee:	6c00 fb92      	bgew 4482 <_vfprintf_r+0x416>
    48f2:	486e ff8c      	pea %fp@(-116)
    48f6:	2f2e ff2c      	movel %fp@(-212),%sp@-
    48fa:	2f2e ff30      	movel %fp@(-208),%sp@-
    48fe:	4eb9 0000 5e38 	jsr 5e38 <__sprint_r>
    4904:	4fef 000c      	lea %sp@(12),%sp
    4908:	4a80           	tstl %d0
    490a:	6600 fa6a      	bnew 4376 <_vfprintf_r+0x30a>
    490e:	246e ff94      	moveal %fp@(-108),%a2
    4912:	6000 fb6e      	braw 4482 <_vfprintf_r+0x416>
    4916:	2d6e ff28 ff20 	movel %fp@(-216),%fp@(-224)
    491c:	206e ff38      	moveal %fp@(-200),%a0
    4920:	58ae ff38      	addql #4,%fp@(-200)
    4924:	2018           	movel %a0@+,%d0
    4926:	0806 0004      	btst #4,%d6
    492a:	6678           	bnes 49a4 <_vfprintf_r+0x938>
    492c:	0806 0006      	btst #6,%d6
    4930:	6772           	beqs 49a4 <_vfprintf_r+0x938>
    4932:	48c0           	extl %d0
    4934:	2a00           	movel %d0,%d5
    4936:	6b70           	bmis 49a8 <_vfprintf_r+0x93c>
    4938:	122e ff71      	moveb %fp@(-143),%d1
    493c:	3a41           	moveaw %d1,%a5
    493e:	4a82           	tstl %d2
    4940:	6d00 00d4      	bltw 4a16 <_vfprintf_r+0x9aa>
    4944:	7880           	moveq #-128,%d4
    4946:	4604           	notb %d4
    4948:	c886           	andl %d6,%d4
    494a:	4a80           	tstl %d0
    494c:	6600 00c6      	bnew 4a14 <_vfprintf_r+0x9a8>
    4950:	7001           	moveq #1,%d0
    4952:	4a82           	tstl %d2
    4954:	6600 0226      	bnew 4b7c <_vfprintf_r+0xb10>
    4958:	4a80           	tstl %d0
    495a:	6600 072a      	bnew 5086 <_vfprintf_r+0x101a>
    495e:	7a01           	moveq #1,%d5
    4960:	ca86           	andl %d6,%d5
    4962:	0806 0000      	btst #0,%d6
    4966:	6700 08d0      	beqw 5238 <_vfprintf_r+0x11cc>
    496a:	1d7c 0030 ffbf 	moveb #48,%fp@(-65)
    4970:	7ebf           	moveq #-65,%d7
    4972:	de8e           	addl %fp,%d7
    4974:	2d42 ff28      	movel %d2,%fp@(-216)
    4978:	ba82           	cmpl %d2,%d5
    497a:	6f04           	bles 4980 <_vfprintf_r+0x914>
    497c:	2d45 ff28      	movel %d5,%fp@(-216)
    4980:	42ae ff3c      	clrl %fp@(-196)
    4984:	320d           	movew %a5,%d1
    4986:	4a01           	tstb %d1
    4988:	6600 fbf2      	bnew 457c <_vfprintf_r+0x510>
    498c:	6000 fbf2      	braw 4580 <_vfprintf_r+0x514>
    4990:	2d6e ff28 ff20 	movel %fp@(-216),%fp@(-224)
    4996:	7810           	moveq #16,%d4
    4998:	8c84           	orl %d4,%d6
    499a:	206e ff38      	moveal %fp@(-200),%a0
    499e:	58ae ff38      	addql #4,%fp@(-200)
    49a2:	2018           	movel %a0@+,%d0
    49a4:	2a00           	movel %d0,%d5
    49a6:	6a90           	bpls 4938 <_vfprintf_r+0x8cc>
    49a8:	2a00           	movel %d0,%d5
    49aa:	4485           	negl %d5
    49ac:	3a7c 002d      	moveaw #45,%a5
    49b0:	7001           	moveq #1,%d0
    49b2:	380d           	movew %a5,%d4
    49b4:	1d44 ff71      	moveb %d4,%fp@(-143)
    49b8:	4a82           	tstl %d2
    49ba:	6d0c           	blts 49c8 <_vfprintf_r+0x95c>
    49bc:	7880           	moveq #-128,%d4
    49be:	4604           	notb %d4
    49c0:	c886           	andl %d6,%d4
    49c2:	4a85           	tstl %d5
    49c4:	678c           	beqs 4952 <_vfprintf_r+0x8e6>
    49c6:	2c04           	movel %d4,%d6
    49c8:	7e01           	moveq #1,%d7
    49ca:	be80           	cmpl %d0,%d7
    49cc:	6748           	beqs 4a16 <_vfprintf_r+0x9aa>
    49ce:	5580           	subql #2,%d0
    49d0:	6700 01be      	beqw 4b90 <_vfprintf_r+0xb24>
    49d4:	7ec0           	moveq #-64,%d7
    49d6:	41f6 7800      	lea %fp@(0,%d7:l),%a0
    49da:	2208           	movel %a0,%d1
    49dc:	1005           	moveb %d5,%d0
    49de:	0200 0007      	andib #7,%d0
    49e2:	0600 0030      	addib #48,%d0
    49e6:	1100           	moveb %d0,%a0@-
    49e8:	e68d           	lsrl #3,%d5
    49ea:	66ee           	bnes 49da <_vfprintf_r+0x96e>
    49ec:	2e08           	movel %a0,%d7
    49ee:	0806 0000      	btst #0,%d6
    49f2:	6700 01b4      	beqw 4ba8 <_vfprintf_r+0xb3c>
    49f6:	0c00 0030      	cmpib #48,%d0
    49fa:	6700 01ac      	beqw 4ba8 <_vfprintf_r+0xb3c>
    49fe:	5581           	subql #2,%d1
    4a00:	117c 0030 ffff 	moveb #48,%a0@(-1)
    4a06:	2a2e ff24      	movel %fp@(-220),%d5
    4a0a:	9a81           	subl %d1,%d5
    4a0c:	2806           	movel %d6,%d4
    4a0e:	2e01           	movel %d1,%d7
    4a10:	6000 ff62      	braw 4974 <_vfprintf_r+0x908>
    4a14:	2c04           	movel %d4,%d6
    4a16:	7009           	moveq #9,%d0
    4a18:	b085           	cmpl %d5,%d0
    4a1a:	6500 07b6      	bcsw 51d2 <_vfprintf_r+0x1166>
    4a1e:	0605 0030      	addib #48,%d5
    4a22:	1d45 ffbf      	moveb %d5,%fp@(-65)
    4a26:	2806           	movel %d6,%d4
    4a28:	7a01           	moveq #1,%d5
    4a2a:	7ebf           	moveq #-65,%d7
    4a2c:	de8e           	addl %fp,%d7
    4a2e:	6000 ff44      	braw 4974 <_vfprintf_r+0x908>
    4a32:	206e ff38      	moveal %fp@(-200),%a0
    4a36:	2618           	movel %a0@+,%d3
    4a38:	6a00 07e8      	bplw 5222 <_vfprintf_r+0x11b6>
    4a3c:	4483           	negl %d3
    4a3e:	2d48 ff38      	movel %a0,%fp@(-200)
    4a42:	7204           	moveq #4,%d1
    4a44:	8c81           	orl %d1,%d6
    4a46:	206e ff28      	moveal %fp@(-216),%a0
    4a4a:	52ae ff28      	addql #1,%fp@(-216)
    4a4e:	1018           	moveb %a0@+,%d0
    4a50:	4880           	extw %d0
    4a52:	3640           	moveaw %d0,%a3
    4a54:	6000 f760      	braw 41b6 <_vfprintf_r+0x14a>
    4a58:	206e ff28      	moveal %fp@(-216),%a0
    4a5c:	52ae ff28      	addql #1,%fp@(-216)
    4a60:	1018           	moveb %a0@+,%d0
    4a62:	4880           	extw %d0
    4a64:	3640           	moveaw %d0,%a3
    4a66:	0c40 002a      	cmpiw #42,%d0
    4a6a:	6700 07ac      	beqw 5218 <_vfprintf_r+0x11ac>
    4a6e:	41eb ffd0      	lea %a3@(-48),%a0
    4a72:	7400           	moveq #0,%d2
    4a74:	7009           	moveq #9,%d0
    4a76:	b088           	cmpl %a0,%d0
    4a78:	6500 f73c      	bcsw 41b6 <_vfprintf_r+0x14a>
    4a7c:	2002           	movel %d2,%d0
    4a7e:	d082           	addl %d2,%d0
    4a80:	d080           	addl %d0,%d0
    4a82:	d082           	addl %d2,%d0
    4a84:	d080           	addl %d0,%d0
    4a86:	2400           	movel %d0,%d2
    4a88:	d488           	addl %a0,%d2
    4a8a:	206e ff28      	moveal %fp@(-216),%a0
    4a8e:	52ae ff28      	addql #1,%fp@(-216)
    4a92:	1018           	moveb %a0@+,%d0
    4a94:	4880           	extw %d0
    4a96:	3640           	moveaw %d0,%a3
    4a98:	41eb ffd0      	lea %a3@(-48),%a0
    4a9c:	7009           	moveq #9,%d0
    4a9e:	b088           	cmpl %a0,%d0
    4aa0:	64da           	bccs 4a7c <_vfprintf_r+0xa10>
    4aa2:	4a82           	tstl %d2
    4aa4:	6c00 f710      	bgew 41b6 <_vfprintf_r+0x14a>
    4aa8:	74ff           	moveq #-1,%d2
    4aaa:	6000 f70a      	braw 41b6 <_vfprintf_r+0x14a>
    4aae:	727f           	moveq #127,%d1
    4ab0:	4601           	notb %d1
    4ab2:	8c81           	orl %d1,%d6
    4ab4:	206e ff28      	moveal %fp@(-216),%a0
    4ab8:	52ae ff28      	addql #1,%fp@(-216)
    4abc:	1018           	moveb %a0@+,%d0
    4abe:	4880           	extw %d0
    4ac0:	3640           	moveaw %d0,%a3
    4ac2:	6000 f6f2      	braw 41b6 <_vfprintf_r+0x14a>
    4ac6:	1d7c 002b ff71 	moveb #43,%fp@(-143)
    4acc:	206e ff28      	moveal %fp@(-216),%a0
    4ad0:	52ae ff28      	addql #1,%fp@(-216)
    4ad4:	1018           	moveb %a0@+,%d0
    4ad6:	4880           	extw %d0
    4ad8:	3640           	moveaw %d0,%a3
    4ada:	6000 f6da      	braw 41b6 <_vfprintf_r+0x14a>
    4ade:	7001           	moveq #1,%d0
    4ae0:	8c80           	orl %d0,%d6
    4ae2:	206e ff28      	moveal %fp@(-216),%a0
    4ae6:	52ae ff28      	addql #1,%fp@(-216)
    4aea:	1018           	moveb %a0@+,%d0
    4aec:	4880           	extw %d0
    4aee:	3640           	moveaw %d0,%a3
    4af0:	6000 f6c4      	braw 41b6 <_vfprintf_r+0x14a>
    4af4:	4a2e ff71      	tstb %fp@(-143)
    4af8:	6600 f6ae      	bnew 41a8 <_vfprintf_r+0x13c>
    4afc:	1d7c 0020 ff71 	moveb #32,%fp@(-143)
    4b02:	206e ff28      	moveal %fp@(-216),%a0
    4b06:	52ae ff28      	addql #1,%fp@(-216)
    4b0a:	1018           	moveb %a0@+,%d0
    4b0c:	4880           	extw %d0
    4b0e:	3640           	moveaw %d0,%a3
    4b10:	6000 f6a4      	braw 41b6 <_vfprintf_r+0x14a>
    4b14:	2d6e ff28 ff20 	movel %fp@(-216),%fp@(-224)
    4b1a:	206e ff38      	moveal %fp@(-200),%a0
    4b1e:	2248           	moveal %a0,%a1
    4b20:	5888           	addql #4,%a0
    4b22:	1d69 0003 ff98 	moveb %a1@(3),%fp@(-104)
    4b28:	422e ff71      	clrb %fp@(-143)
    4b2c:	2d48 ff38      	movel %a0,%fp@(-200)
    4b30:	7201           	moveq #1,%d1
    4b32:	2d41 ff28      	movel %d1,%fp@(-216)
    4b36:	7a01           	moveq #1,%d5
    4b38:	7e98           	moveq #-104,%d7
    4b3a:	de8e           	addl %fp,%d7
    4b3c:	2806           	movel %d6,%d4
    4b3e:	7400           	moveq #0,%d2
    4b40:	42ae ff3c      	clrl %fp@(-196)
    4b44:	9bcd           	subal %a5,%a5
    4b46:	6000 f876      	braw 43be <_vfprintf_r+0x352>
    4b4a:	7208           	moveq #8,%d1
    4b4c:	8c81           	orl %d1,%d6
    4b4e:	206e ff28      	moveal %fp@(-216),%a0
    4b52:	52ae ff28      	addql #1,%fp@(-216)
    4b56:	1018           	moveb %a0@+,%d0
    4b58:	4880           	extw %d0
    4b5a:	3640           	moveaw %d0,%a3
    4b5c:	6000 f658      	braw 41b6 <_vfprintf_r+0x14a>
    4b60:	2d6e ff28 ff20 	movel %fp@(-216),%fp@(-224)
    4b66:	7810           	moveq #16,%d4
    4b68:	8c84           	orl %d4,%d6
    4b6a:	206e ff38      	moveal %fp@(-200),%a0
    4b6e:	58ae ff38      	addql #4,%fp@(-200)
    4b72:	2a18           	movel %a0@+,%d5
    4b74:	7001           	moveq #1,%d0
    4b76:	9bcd           	subal %a5,%a5
    4b78:	6000 fe38      	braw 49b2 <_vfprintf_r+0x946>
    4b7c:	7a01           	moveq #1,%d5
    4b7e:	ba80           	cmpl %d0,%d5
    4b80:	6700 0efe      	beqw 5a80 <_vfprintf_r+0x1a14>
    4b84:	7e02           	moveq #2,%d7
    4b86:	2c04           	movel %d4,%d6
    4b88:	7a00           	moveq #0,%d5
    4b8a:	be80           	cmpl %d0,%d7
    4b8c:	6600 fe46      	bnew 49d4 <_vfprintf_r+0x968>
    4b90:	7ec0           	moveq #-64,%d7
    4b92:	226e ff58      	moveal %fp@(-168),%a1
    4b96:	41f6 7800      	lea %fp@(0,%d7:l),%a0
    4b9a:	700f           	moveq #15,%d0
    4b9c:	c085           	andl %d5,%d0
    4b9e:	1131 0800      	moveb %a1@(0,%d0:l),%a0@-
    4ba2:	e88d           	lsrl #4,%d5
    4ba4:	66f4           	bnes 4b9a <_vfprintf_r+0xb2e>
    4ba6:	2e08           	movel %a0,%d7
    4ba8:	2a2e ff24      	movel %fp@(-220),%d5
    4bac:	9a87           	subl %d7,%d5
    4bae:	2806           	movel %d6,%d4
    4bb0:	6000 fdc2      	braw 4974 <_vfprintf_r+0x908>
    4bb4:	2d6e ff28 ff20 	movel %fp@(-216),%fp@(-224)
    4bba:	7010           	moveq #16,%d0
    4bbc:	8c80           	orl %d0,%d6
    4bbe:	206e ff38      	moveal %fp@(-200),%a0
    4bc2:	58ae ff38      	addql #4,%fp@(-200)
    4bc6:	2a18           	movel %a0@+,%d5
    4bc8:	7000           	moveq #0,%d0
    4bca:	9bcd           	subal %a5,%a5
    4bcc:	6000 fde4      	braw 49b2 <_vfprintf_r+0x946>
    4bd0:	7840           	moveq #64,%d4
    4bd2:	8c84           	orl %d4,%d6
    4bd4:	206e ff28      	moveal %fp@(-216),%a0
    4bd8:	52ae ff28      	addql #1,%fp@(-216)
    4bdc:	1018           	moveb %a0@+,%d0
    4bde:	4880           	extw %d0
    4be0:	3640           	moveaw %d0,%a3
    4be2:	6000 f5d2      	braw 41b6 <_vfprintf_r+0x14a>
    4be6:	2d6e ff28 ff20 	movel %fp@(-216),%fp@(-224)
    4bec:	206e ff38      	moveal %fp@(-200),%a0
    4bf0:	58ae ff38      	addql #4,%fp@(-200)
    4bf4:	2a18           	movel %a0@+,%d5
    4bf6:	0806 0004      	btst #4,%d6
    4bfa:	6600 ff78      	bnew 4b74 <_vfprintf_r+0xb08>
    4bfe:	0806 0006      	btst #6,%d6
    4c02:	6700 ff70      	beqw 4b74 <_vfprintf_r+0xb08>
    4c06:	0285 0000 ffff 	andil #65535,%d5
    4c0c:	7001           	moveq #1,%d0
    4c0e:	6000 ff66      	braw 4b76 <_vfprintf_r+0xb0a>
    4c12:	2d6e ff28 ff20 	movel %fp@(-216),%fp@(-224)
    4c18:	246e ff38      	moveal %fp@(-200),%a2
    4c1c:	2e1a           	movel %a2@+,%d7
    4c1e:	422e ff71      	clrb %fp@(-143)
    4c22:	4a87           	tstl %d7
    4c24:	6700 06e4      	beqw 530a <_vfprintf_r+0x129e>
    4c28:	4a82           	tstl %d2
    4c2a:	6d00 0778      	bltw 53a4 <_vfprintf_r+0x1338>
    4c2e:	2f02           	movel %d2,%sp@-
    4c30:	42a7           	clrl %sp@-
    4c32:	2f07           	movel %d7,%sp@-
    4c34:	4eb9 0000 67c4 	jsr 67c4 <memchr>
    4c3a:	4fef 000c      	lea %sp@(12),%sp
    4c3e:	4a80           	tstl %d0
    4c40:	6700 0ec6      	beqw 5b08 <_vfprintf_r+0x1a9c>
    4c44:	2a00           	movel %d0,%d5
    4c46:	9a87           	subl %d7,%d5
    4c48:	102e ff71      	moveb %fp@(-143),%d0
    4c4c:	3a40           	moveaw %d0,%a5
    4c4e:	2d45 ff28      	movel %d5,%fp@(-216)
    4c52:	6b00 076a      	bmiw 53be <_vfprintf_r+0x1352>
    4c56:	2d4a ff38      	movel %a2,%fp@(-200)
    4c5a:	2806           	movel %d6,%d4
    4c5c:	7400           	moveq #0,%d2
    4c5e:	42ae ff3c      	clrl %fp@(-196)
    4c62:	320d           	movew %a5,%d1
    4c64:	4a01           	tstb %d1
    4c66:	6600 f914      	bnew 457c <_vfprintf_r+0x510>
    4c6a:	6000 f914      	braw 4580 <_vfprintf_r+0x514>
    4c6e:	2d6e ff28 ff20 	movel %fp@(-216),%fp@(-224)
    4c74:	206e ff38      	moveal %fp@(-200),%a0
    4c78:	2a18           	movel %a0@+,%d5
    4c7a:	7002           	moveq #2,%d0
    4c7c:	8c80           	orl %d0,%d6
    4c7e:	3d7c 3078 ff72 	movew #12408,%fp@(-142)
    4c84:	2d48 ff38      	movel %a0,%fp@(-200)
    4c88:	2d7c 0001 09ed 	movel #68077,%fp@(-168)
    4c8e:	ff58 
    4c90:	367c 0078      	moveaw #120,%a3
    4c94:	9bcd           	subal %a5,%a5
    4c96:	6000 fd1a      	braw 49b2 <_vfprintf_r+0x946>
    4c9a:	2d6e ff28 ff20 	movel %fp@(-216),%fp@(-224)
    4ca0:	226e ff38      	moveal %fp@(-200),%a1
    4ca4:	58ae ff38      	addql #4,%fp@(-200)
    4ca8:	2a19           	movel %a1@+,%d5
    4caa:	0806 0004      	btst #4,%d6
    4cae:	6600 ff18      	bnew 4bc8 <_vfprintf_r+0xb5c>
    4cb2:	0806 0006      	btst #6,%d6
    4cb6:	6700 ff10      	beqw 4bc8 <_vfprintf_r+0xb5c>
    4cba:	0285 0000 ffff 	andil #65535,%d5
    4cc0:	7000           	moveq #0,%d0
    4cc2:	6000 ff06      	braw 4bca <_vfprintf_r+0xb5e>
    4cc6:	2d6e ff28 ff20 	movel %fp@(-216),%fp@(-224)
    4ccc:	0806 0004      	btst #4,%d6
    4cd0:	6618           	bnes 4cea <_vfprintf_r+0xc7e>
    4cd2:	0806 0006      	btst #6,%d6
    4cd6:	6712           	beqs 4cea <_vfprintf_r+0xc7e>
    4cd8:	226e ff38      	moveal %fp@(-200),%a1
    4cdc:	2051           	moveal %a1@,%a0
    4cde:	30ae ff36      	movew %fp@(-202),%a0@
    4ce2:	58ae ff38      	addql #4,%fp@(-200)
    4ce6:	6000 f458      	braw 4140 <_vfprintf_r+0xd4>
    4cea:	226e ff38      	moveal %fp@(-200),%a1
    4cee:	2051           	moveal %a1@,%a0
    4cf0:	20ae ff34      	movel %fp@(-204),%a0@
    4cf4:	58ae ff38      	addql #4,%fp@(-200)
    4cf8:	6000 f446      	braw 4140 <_vfprintf_r+0xd4>
    4cfc:	486e ff8c      	pea %fp@(-116)
    4d00:	2f06           	movel %d6,%sp@-
    4d02:	2f02           	movel %d2,%sp@-
    4d04:	4eb9 0000 5e38 	jsr 5e38 <__sprint_r>
    4d0a:	4fef 000c      	lea %sp@(12),%sp
    4d0e:	4a80           	tstl %d0
    4d10:	6600 f664      	bnew 4376 <_vfprintf_r+0x30a>
    4d14:	246e ff94      	moveal %fp@(-108),%a2
    4d18:	202e ff90      	movel %fp@(-112),%d0
    4d1c:	49ee ffc0      	lea %fp@(-64),%a4
    4d20:	4bed fff0      	lea %a5@(-16),%a5
    4d24:	7210           	moveq #16,%d1
    4d26:	b28d           	cmpl %a5,%d1
    4d28:	6d00 f944      	bltw 466e <_vfprintf_r+0x602>
    4d2c:	6000 f96e      	braw 469c <_vfprintf_r+0x630>
    4d30:	486e ff8c      	pea %fp@(-116)
    4d34:	2f03           	movel %d3,%sp@-
    4d36:	2f02           	movel %d2,%sp@-
    4d38:	4eb9 0000 5e38 	jsr 5e38 <__sprint_r>
    4d3e:	4fef 000c      	lea %sp@(12),%sp
    4d42:	4a80           	tstl %d0
    4d44:	6600 f630      	bnew 4376 <_vfprintf_r+0x30a>
    4d48:	226e ff94      	moveal %fp@(-108),%a1
    4d4c:	202e ff90      	movel %fp@(-112),%d0
    4d50:	41ee ffc0      	lea %fp@(-64),%a0
    4d54:	45ea fff0      	lea %a2@(-16),%a2
    4d58:	7210           	moveq #16,%d1
    4d5a:	b28a           	cmpl %a2,%d1
    4d5c:	6d00 faca      	bltw 4828 <_vfprintf_r+0x7bc>
    4d60:	6000 faf4      	braw 4856 <_vfprintf_r+0x7ea>
    4d64:	2f02           	movel %d2,%sp@-
    4d66:	2f05           	movel %d5,%sp@-
    4d68:	2f04           	movel %d4,%sp@-
    4d6a:	4e93           	jsr %a3@
    4d6c:	4fef 000c      	lea %sp@(12),%sp
    4d70:	4a80           	tstl %d0
    4d72:	6600 f602      	bnew 4376 <_vfprintf_r+0x30a>
    4d76:	246e ff94      	moveal %fp@(-108),%a2
    4d7a:	202e ff90      	movel %fp@(-112),%d0
    4d7e:	49ee ffc0      	lea %fp@(-64),%a4
    4d82:	4bed fff0      	lea %a5@(-16),%a5
    4d86:	7e10           	moveq #16,%d7
    4d88:	be8d           	cmpl %a5,%d7
    4d8a:	6d00 fb1a      	bltw 48a6 <_vfprintf_r+0x83a>
    4d8e:	6000 fb44      	braw 48d4 <_vfprintf_r+0x868>
    4d92:	2f06           	movel %d6,%sp@-
    4d94:	2f03           	movel %d3,%sp@-
    4d96:	2f02           	movel %d2,%sp@-
    4d98:	4eb9 0000 5e38 	jsr 5e38 <__sprint_r>
    4d9e:	4fef 000c      	lea %sp@(12),%sp
    4da2:	4a80           	tstl %d0
    4da4:	6600 f5d0      	bnew 4376 <_vfprintf_r+0x30a>
    4da8:	226e ff94      	moveal %fp@(-108),%a1
    4dac:	202e ff90      	movel %fp@(-112),%d0
    4db0:	41ee ffc0      	lea %fp@(-64),%a0
    4db4:	4bed fff0      	lea %a5@(-16),%a5
    4db8:	7210           	moveq #16,%d1
    4dba:	b28d           	cmpl %a5,%d1
    4dbc:	6d00 f83a      	bltw 45f8 <_vfprintf_r+0x58c>
    4dc0:	6000 f864      	braw 4626 <_vfprintf_r+0x5ba>
    4dc4:	528a           	addql #1,%a2
    4dc6:	242e ff90      	movel %fp@(-112),%d2
    4dca:	5282           	addql #1,%d2
    4dcc:	47ec 0008      	lea %a4@(8),%a3
    4dd0:	7a01           	moveq #1,%d5
    4dd2:	baae ff40      	cmpl %fp@(-192),%d5
    4dd6:	6c00 00a4      	bgew 4e7c <_vfprintf_r+0xe10>
    4dda:	2887           	movel %d7,%a4@
    4ddc:	7001           	moveq #1,%d0
    4dde:	2940 0004      	movel %d0,%a4@(4)
    4de2:	2d4a ff94      	movel %a2,%fp@(-108)
    4de6:	2d42 ff90      	movel %d2,%fp@(-112)
    4dea:	7207           	moveq #7,%d1
    4dec:	b282           	cmpl %d2,%d1
    4dee:	6d00 033e      	bltw 512e <_vfprintf_r+0x10c2>
    4df2:	26ae ff50      	movel %fp@(-176),%a3@
    4df6:	276e ff4c 0004 	movel %fp@(-180),%a3@(4)
    4dfc:	d5ee ff4c      	addal %fp@(-180),%a2
    4e00:	2d4a ff94      	movel %a2,%fp@(-108)
    4e04:	5282           	addql #1,%d2
    4e06:	2d42 ff90      	movel %d2,%fp@(-112)
    4e0a:	7a07           	moveq #7,%d5
    4e0c:	ba82           	cmpl %d2,%d5
    4e0e:	6d00 0366      	bltw 5176 <_vfprintf_r+0x110a>
    4e12:	508b           	addql #8,%a3
    4e14:	2a6e ff40      	moveal %fp@(-192),%a5
    4e18:	538d           	subql #1,%a5
    4e1a:	42a7           	clrl %sp@-
    4e1c:	42a7           	clrl %sp@-
    4e1e:	2f2e ff48      	movel %fp@(-184),%sp@-
    4e22:	2f2e ff44      	movel %fp@(-188),%sp@-
    4e26:	4eb9 0000 ff34 	jsr ff34 <__nedf2>
    4e2c:	4fef 0010      	lea %sp@(16),%sp
    4e30:	4a80           	tstl %d0
    4e32:	6700 025c      	beqw 5090 <_vfprintf_r+0x1024>
    4e36:	5282           	addql #1,%d2
    4e38:	5287           	addql #1,%d7
    4e3a:	2687           	movel %d7,%a3@
    4e3c:	274d 0004      	movel %a5,%a3@(4)
    4e40:	d5cd           	addal %a5,%a2
    4e42:	2d4a ff94      	movel %a2,%fp@(-108)
    4e46:	2d42 ff90      	movel %d2,%fp@(-112)
    4e4a:	7e07           	moveq #7,%d7
    4e4c:	be82           	cmpl %d2,%d7
    4e4e:	6d4a           	blts 4e9a <_vfprintf_r+0xe2e>
    4e50:	508b           	addql #8,%a3
    4e52:	41ee ff7c      	lea %fp@(-132),%a0
    4e56:	2688           	movel %a0,%a3@
    4e58:	276e ff54 0004 	movel %fp@(-172),%a3@(4)
    4e5e:	d5ee ff54      	addal %fp@(-172),%a2
    4e62:	2d4a ff94      	movel %a2,%fp@(-108)
    4e66:	5282           	addql #1,%d2
    4e68:	2d42 ff90      	movel %d2,%fp@(-112)
    4e6c:	7007           	moveq #7,%d0
    4e6e:	b082           	cmpl %d2,%d0
    4e70:	6d00 f944      	bltw 47b6 <_vfprintf_r+0x74a>
    4e74:	49eb 0008      	lea %a3@(8),%a4
    4e78:	6000 f5f4      	braw 446e <_vfprintf_r+0x402>
    4e7c:	0804 0000      	btst #0,%d4
    4e80:	6600 ff58      	bnew 4dda <_vfprintf_r+0xd6e>
    4e84:	2887           	movel %d7,%a4@
    4e86:	7a01           	moveq #1,%d5
    4e88:	2945 0004      	movel %d5,%a4@(4)
    4e8c:	2d4a ff94      	movel %a2,%fp@(-108)
    4e90:	2d42 ff90      	movel %d2,%fp@(-112)
    4e94:	7e07           	moveq #7,%d7
    4e96:	be82           	cmpl %d2,%d7
    4e98:	6cb8           	bges 4e52 <_vfprintf_r+0xde6>
    4e9a:	486e ff8c      	pea %fp@(-116)
    4e9e:	2f2e ff2c      	movel %fp@(-212),%sp@-
    4ea2:	2f2e ff30      	movel %fp@(-208),%sp@-
    4ea6:	4eb9 0000 5e38 	jsr 5e38 <__sprint_r>
    4eac:	4fef 000c      	lea %sp@(12),%sp
    4eb0:	4a80           	tstl %d0
    4eb2:	6600 f4c2      	bnew 4376 <_vfprintf_r+0x30a>
    4eb6:	246e ff94      	moveal %fp@(-108),%a2
    4eba:	242e ff90      	movel %fp@(-112),%d2
    4ebe:	47ee ffc0      	lea %fp@(-64),%a3
    4ec2:	608e           	bras 4e52 <_vfprintf_r+0xde6>
    4ec4:	486e ff8c      	pea %fp@(-116)
    4ec8:	2f2e ff2c      	movel %fp@(-212),%sp@-
    4ecc:	2f2e ff30      	movel %fp@(-208),%sp@-
    4ed0:	4eb9 0000 5e38 	jsr 5e38 <__sprint_r>
    4ed6:	4fef 000c      	lea %sp@(12),%sp
    4eda:	4a80           	tstl %d0
    4edc:	6600 f498      	bnew 4376 <_vfprintf_r+0x30a>
    4ee0:	246e ff94      	moveal %fp@(-108),%a2
    4ee4:	49ee ffc0      	lea %fp@(-64),%a4
    4ee8:	0c86 0000 0080 	cmpil #128,%d6
    4eee:	6600 f54a      	bnew 443a <_vfprintf_r+0x3ce>
    4ef2:	6000 f6d6      	braw 45ca <_vfprintf_r+0x55e>
    4ef6:	486e ff8c      	pea %fp@(-116)
    4efa:	2f2e ff2c      	movel %fp@(-212),%sp@-
    4efe:	2f2e ff30      	movel %fp@(-208),%sp@-
    4f02:	4eb9 0000 5e38 	jsr 5e38 <__sprint_r>
    4f08:	4fef 000c      	lea %sp@(12),%sp
    4f0c:	4a80           	tstl %d0
    4f0e:	6600 f466      	bnew 4376 <_vfprintf_r+0x30a>
    4f12:	246e ff94      	moveal %fp@(-108),%a2
    4f16:	49ee ffc0      	lea %fp@(-64),%a4
    4f1a:	6000 f4e8      	braw 4404 <_vfprintf_r+0x398>
    4f1e:	222e ff74      	movel %fp@(-140),%d1
    4f22:	6f00 0540      	blew 5464 <_vfprintf_r+0x13f8>
    4f26:	242e ff40      	movel %fp@(-192),%d2
    4f2a:	b4ae ff3c      	cmpl %fp@(-196),%d2
    4f2e:	6e00 0332      	bgtw 5262 <_vfprintf_r+0x11f6>
    4f32:	4a82           	tstl %d2
    4f34:	6f20           	bles 4f56 <_vfprintf_r+0xeea>
    4f36:	2887           	movel %d7,%a4@
    4f38:	2942 0004      	movel %d2,%a4@(4)
    4f3c:	d5c2           	addal %d2,%a2
    4f3e:	2d4a ff94      	movel %a2,%fp@(-108)
    4f42:	202e ff90      	movel %fp@(-112),%d0
    4f46:	5280           	addql #1,%d0
    4f48:	2d40 ff90      	movel %d0,%fp@(-112)
    4f4c:	7207           	moveq #7,%d1
    4f4e:	b280           	cmpl %d0,%d1
    4f50:	6d00 0b46      	bltw 5a98 <_vfprintf_r+0x1a2c>
    4f54:	508c           	addql #8,%a4
    4f56:	4a82           	tstl %d2
    4f58:	6d00 0314      	bltw 526e <_vfprintf_r+0x1202>
    4f5c:	2a6e ff3c      	moveal %fp@(-196),%a5
    4f60:	9bc2           	subal %d2,%a5
    4f62:	bafc 0000      	cmpaw #0,%a5
    4f66:	6e00 03c8      	bgtw 5330 <_vfprintf_r+0x12c4>
    4f6a:	222e ff74      	movel %fp@(-140),%d1
    4f6e:	b2ae ff40      	cmpl %fp@(-192),%d1
    4f72:	6d06           	blts 4f7a <_vfprintf_r+0xf0e>
    4f74:	0804 0000      	btst #0,%d4
    4f78:	6726           	beqs 4fa0 <_vfprintf_r+0xf34>
    4f7a:	28ae ff50      	movel %fp@(-176),%a4@
    4f7e:	296e ff4c 0004 	movel %fp@(-180),%a4@(4)
    4f84:	d5ee ff4c      	addal %fp@(-180),%a2
    4f88:	2d4a ff94      	movel %a2,%fp@(-108)
    4f8c:	202e ff90      	movel %fp@(-112),%d0
    4f90:	5280           	addql #1,%d0
    4f92:	2d40 ff90      	movel %d0,%fp@(-112)
    4f96:	7a07           	moveq #7,%d5
    4f98:	ba80           	cmpl %d0,%d5
    4f9a:	6d00 0ab8      	bltw 5a54 <_vfprintf_r+0x19e8>
    4f9e:	508c           	addql #8,%a4
    4fa0:	202e ff40      	movel %fp@(-192),%d0
    4fa4:	9081           	subl %d1,%d0
    4fa6:	242e ff40      	movel %fp@(-192),%d2
    4faa:	94ae ff3c      	subl %fp@(-196),%d2
    4fae:	b082           	cmpl %d2,%d0
    4fb0:	6c02           	bges 4fb4 <_vfprintf_r+0xf48>
    4fb2:	2400           	movel %d0,%d2
    4fb4:	4a82           	tstl %d2
    4fb6:	6f24           	bles 4fdc <_vfprintf_r+0xf70>
    4fb8:	deae ff3c      	addl %fp@(-196),%d7
    4fbc:	2887           	movel %d7,%a4@
    4fbe:	2942 0004      	movel %d2,%a4@(4)
    4fc2:	d5c2           	addal %d2,%a2
    4fc4:	2d4a ff94      	movel %a2,%fp@(-108)
    4fc8:	222e ff90      	movel %fp@(-112),%d1
    4fcc:	5281           	addql #1,%d1
    4fce:	2d41 ff90      	movel %d1,%fp@(-112)
    4fd2:	7e07           	moveq #7,%d7
    4fd4:	be81           	cmpl %d1,%d7
    4fd6:	6d00 0aee      	bltw 5ac6 <_vfprintf_r+0x1a5a>
    4fda:	508c           	addql #8,%a4
    4fdc:	4a82           	tstl %d2
    4fde:	6d00 03be      	bltw 539e <_vfprintf_r+0x1332>
    4fe2:	2a40           	moveal %d0,%a5
    4fe4:	9bc2           	subal %d2,%a5
    4fe6:	bafc 0000      	cmpaw #0,%a5
    4fea:	6f00 f482      	blew 446e <_vfprintf_r+0x402>
    4fee:	202e ff90      	movel %fp@(-112),%d0
    4ff2:	7210           	moveq #16,%d1
    4ff4:	b28d           	cmpl %a5,%d1
    4ff6:	6c00 f7a0      	bgew 4798 <_vfprintf_r+0x72c>
    4ffa:	748c           	moveq #-116,%d2
    4ffc:	d48e           	addl %fp,%d2
    4ffe:	47f9 0000 5e38 	lea 5e38 <__sprint_r>,%a3
    5004:	2a2e ff30      	movel %fp@(-208),%d5
    5008:	2c2e ff2c      	movel %fp@(-212),%d6
    500c:	28bc 0001 0ad5 	movel #68309,%a4@
    5012:	7e10           	moveq #16,%d7
    5014:	2947 0004      	movel %d7,%a4@(4)
    5018:	45ea 0010      	lea %a2@(16),%a2
    501c:	2d4a ff94      	movel %a2,%fp@(-108)
    5020:	5280           	addql #1,%d0
    5022:	2d40 ff90      	movel %d0,%fp@(-112)
    5026:	7207           	moveq #7,%d1
    5028:	b280           	cmpl %d0,%d1
    502a:	6d2e           	blts 505a <_vfprintf_r+0xfee>
    502c:	508c           	addql #8,%a4
    502e:	4bed fff0      	lea %a5@(-16),%a5
    5032:	7e10           	moveq #16,%d7
    5034:	be8d           	cmpl %a5,%d7
    5036:	6c00 f760      	bgew 4798 <_vfprintf_r+0x72c>
    503a:	28bc 0001 0ad5 	movel #68309,%a4@
    5040:	7e10           	moveq #16,%d7
    5042:	2947 0004      	movel %d7,%a4@(4)
    5046:	45ea 0010      	lea %a2@(16),%a2
    504a:	2d4a ff94      	movel %a2,%fp@(-108)
    504e:	5280           	addql #1,%d0
    5050:	2d40 ff90      	movel %d0,%fp@(-112)
    5054:	7207           	moveq #7,%d1
    5056:	b280           	cmpl %d0,%d1
    5058:	6cd2           	bges 502c <_vfprintf_r+0xfc0>
    505a:	2f02           	movel %d2,%sp@-
    505c:	2f06           	movel %d6,%sp@-
    505e:	2f05           	movel %d5,%sp@-
    5060:	4e93           	jsr %a3@
    5062:	4fef 000c      	lea %sp@(12),%sp
    5066:	4a80           	tstl %d0
    5068:	6600 f30c      	bnew 4376 <_vfprintf_r+0x30a>
    506c:	246e ff94      	moveal %fp@(-108),%a2
    5070:	202e ff90      	movel %fp@(-112),%d0
    5074:	49ee ffc0      	lea %fp@(-64),%a4
    5078:	4bed fff0      	lea %a5@(-16),%a5
    507c:	7e10           	moveq #16,%d7
    507e:	be8d           	cmpl %a5,%d7
    5080:	6db8           	blts 503a <_vfprintf_r+0xfce>
    5082:	6000 f714      	braw 4798 <_vfprintf_r+0x72c>
    5086:	7a00           	moveq #0,%d5
    5088:	7ec0           	moveq #-64,%d7
    508a:	de8e           	addl %fp,%d7
    508c:	6000 f8e6      	braw 4974 <_vfprintf_r+0x908>
    5090:	7001           	moveq #1,%d0
    5092:	b0ae ff40      	cmpl %fp@(-192),%d0
    5096:	6c00 fdba      	bgew 4e52 <_vfprintf_r+0xde6>
    509a:	7211           	moveq #17,%d1
    509c:	b2ae ff40      	cmpl %fp@(-192),%d1
    50a0:	6c40           	bges 50e2 <_vfprintf_r+0x1076>
    50a2:	7a8c           	moveq #-116,%d5
    50a4:	da8e           	addl %fp,%d5
    50a6:	49f9 0000 5e38 	lea 5e38 <__sprint_r>,%a4
    50ac:	2c2e ff30      	movel %fp@(-208),%d6
    50b0:	2e2e ff2c      	movel %fp@(-212),%d7
    50b4:	26bc 0001 0ad5 	movel #68309,%a3@
    50ba:	7010           	moveq #16,%d0
    50bc:	2740 0004      	movel %d0,%a3@(4)
    50c0:	45ea 0010      	lea %a2@(16),%a2
    50c4:	2d4a ff94      	movel %a2,%fp@(-108)
    50c8:	5282           	addql #1,%d2
    50ca:	2d42 ff90      	movel %d2,%fp@(-112)
    50ce:	7207           	moveq #7,%d1
    50d0:	b282           	cmpl %d2,%d1
    50d2:	6d00 02fe      	bltw 53d2 <_vfprintf_r+0x1366>
    50d6:	508b           	addql #8,%a3
    50d8:	4bed fff0      	lea %a5@(-16),%a5
    50dc:	7010           	moveq #16,%d0
    50de:	b08d           	cmpl %a5,%d0
    50e0:	6dd2           	blts 50b4 <_vfprintf_r+0x1048>
    50e2:	26bc 0001 0ad5 	movel #68309,%a3@
    50e8:	274d 0004      	movel %a5,%a3@(4)
    50ec:	d5cd           	addal %a5,%a2
    50ee:	2d4a ff94      	movel %a2,%fp@(-108)
    50f2:	5282           	addql #1,%d2
    50f4:	2d42 ff90      	movel %d2,%fp@(-112)
    50f8:	7207           	moveq #7,%d1
    50fa:	b282           	cmpl %d2,%d1
    50fc:	6d00 fd9c      	bltw 4e9a <_vfprintf_r+0xe2e>
    5100:	508b           	addql #8,%a3
    5102:	6000 fd4e      	braw 4e52 <_vfprintf_r+0xde6>
    5106:	486e ff8c      	pea %fp@(-116)
    510a:	2f2e ff2c      	movel %fp@(-212),%sp@-
    510e:	2f2e ff30      	movel %fp@(-208),%sp@-
    5112:	4eb9 0000 5e38 	jsr 5e38 <__sprint_r>
    5118:	4fef 000c      	lea %sp@(12),%sp
    511c:	4a80           	tstl %d0
    511e:	6600 f256      	bnew 4376 <_vfprintf_r+0x30a>
    5122:	246e ff94      	moveal %fp@(-108),%a2
    5126:	49ee ffc0      	lea %fp@(-64),%a4
    512a:	6000 f31a      	braw 4446 <_vfprintf_r+0x3da>
    512e:	486e ff8c      	pea %fp@(-116)
    5132:	2f2e ff2c      	movel %fp@(-212),%sp@-
    5136:	2f2e ff30      	movel %fp@(-208),%sp@-
    513a:	4eb9 0000 5e38 	jsr 5e38 <__sprint_r>
    5140:	4fef 000c      	lea %sp@(12),%sp
    5144:	4a80           	tstl %d0
    5146:	6600 f22e      	bnew 4376 <_vfprintf_r+0x30a>
    514a:	246e ff94      	moveal %fp@(-108),%a2
    514e:	242e ff90      	movel %fp@(-112),%d2
    5152:	47ee ffc0      	lea %fp@(-64),%a3
    5156:	26ae ff50      	movel %fp@(-176),%a3@
    515a:	276e ff4c 0004 	movel %fp@(-180),%a3@(4)
    5160:	d5ee ff4c      	addal %fp@(-180),%a2
    5164:	2d4a ff94      	movel %a2,%fp@(-108)
    5168:	5282           	addql #1,%d2
    516a:	2d42 ff90      	movel %d2,%fp@(-112)
    516e:	7a07           	moveq #7,%d5
    5170:	ba82           	cmpl %d2,%d5
    5172:	6c00 fc9e      	bgew 4e12 <_vfprintf_r+0xda6>
    5176:	486e ff8c      	pea %fp@(-116)
    517a:	2f2e ff2c      	movel %fp@(-212),%sp@-
    517e:	2f2e ff30      	movel %fp@(-208),%sp@-
    5182:	4eb9 0000 5e38 	jsr 5e38 <__sprint_r>
    5188:	4fef 000c      	lea %sp@(12),%sp
    518c:	4a80           	tstl %d0
    518e:	6600 f1e6      	bnew 4376 <_vfprintf_r+0x30a>
    5192:	246e ff94      	moveal %fp@(-108),%a2
    5196:	242e ff90      	movel %fp@(-112),%d2
    519a:	47ee ffc0      	lea %fp@(-64),%a3
    519e:	6000 fc74      	braw 4e14 <_vfprintf_r+0xda8>
    51a2:	0804 0000      	btst #0,%d4
    51a6:	6700 f2c6      	beqw 446e <_vfprintf_r+0x402>
    51aa:	28ae ff50      	movel %fp@(-176),%a4@
    51ae:	296e ff4c 0004 	movel %fp@(-180),%a4@(4)
    51b4:	d5ee ff4c      	addal %fp@(-180),%a2
    51b8:	2d4a ff94      	movel %a2,%fp@(-108)
    51bc:	202e ff90      	movel %fp@(-112),%d0
    51c0:	5280           	addql #1,%d0
    51c2:	2d40 ff90      	movel %d0,%fp@(-112)
    51c6:	7e07           	moveq #7,%d7
    51c8:	be80           	cmpl %d0,%d7
    51ca:	6c00 f572      	bgew 473e <_vfprintf_r+0x6d2>
    51ce:	6000 00b2      	braw 5282 <_vfprintf_r+0x1216>
    51d2:	7ec0           	moveq #-64,%d7
    51d4:	45f9 0000 fe24 	lea fe24 <__udivsi3>,%a2
    51da:	280b           	movel %a3,%d4
    51dc:	47f6 7800      	lea %fp@(0,%d7:l),%a3
    51e0:	4878 000a      	pea a <DUART_IMR>
    51e4:	2f05           	movel %d5,%sp@-
    51e6:	4eb9 0000 feb0 	jsr feb0 <__umodsi3>
    51ec:	508f           	addql #8,%sp
    51ee:	0600 0030      	addib #48,%d0
    51f2:	1700           	moveb %d0,%a3@-
    51f4:	2e05           	movel %d5,%d7
    51f6:	4878 000a      	pea a <DUART_IMR>
    51fa:	2f05           	movel %d5,%sp@-
    51fc:	4e92           	jsr %a2@
    51fe:	508f           	addql #8,%sp
    5200:	2a00           	movel %d0,%d5
    5202:	7209           	moveq #9,%d1
    5204:	b287           	cmpl %d7,%d1
    5206:	65d8           	bcss 51e0 <_vfprintf_r+0x1174>
    5208:	2e0b           	movel %a3,%d7
    520a:	2644           	moveal %d4,%a3
    520c:	2a2e ff24      	movel %fp@(-220),%d5
    5210:	9a87           	subl %d7,%d5
    5212:	2806           	movel %d6,%d4
    5214:	6000 f75e      	braw 4974 <_vfprintf_r+0x908>
    5218:	206e ff38      	moveal %fp@(-200),%a0
    521c:	2418           	movel %a0@+,%d2
    521e:	6a02           	bpls 5222 <_vfprintf_r+0x11b6>
    5220:	74ff           	moveq #-1,%d2
    5222:	2d48 ff38      	movel %a0,%fp@(-200)
    5226:	206e ff28      	moveal %fp@(-216),%a0
    522a:	52ae ff28      	addql #1,%fp@(-216)
    522e:	1018           	moveb %a0@+,%d0
    5230:	4880           	extw %d0
    5232:	3640           	moveaw %d0,%a3
    5234:	6000 ef80      	braw 41b6 <_vfprintf_r+0x14a>
    5238:	7ec0           	moveq #-64,%d7
    523a:	de8e           	addl %fp,%d7
    523c:	6000 f736      	braw 4974 <_vfprintf_r+0x908>
    5240:	206e ff38      	moveal %fp@(-200),%a0
    5244:	2d58 ff44      	movel %a0@+,%fp@(-188)
    5248:	2d58 ff48      	movel %a0@+,%fp@(-184)
    524c:	2d48 ff38      	movel %a0,%fp@(-200)
    5250:	6000 f28e      	braw 44e0 <_vfprintf_r+0x474>
    5254:	2f09           	movel %a1,%sp@-
    5256:	4eb9 0000 35ac 	jsr 35ac <__sinit>
    525c:	588f           	addql #4,%sp
    525e:	6000 ee5e      	braw 40be <_vfprintf_r+0x52>
    5262:	242e ff3c      	movel %fp@(-196),%d2
    5266:	6e00 fcce      	bgtw 4f36 <_vfprintf_r+0xeca>
    526a:	6000 fcea      	braw 4f56 <_vfprintf_r+0xeea>
    526e:	7400           	moveq #0,%d2
    5270:	2a6e ff3c      	moveal %fp@(-196),%a5
    5274:	9bc2           	subal %d2,%a5
    5276:	bafc 0000      	cmpaw #0,%a5
    527a:	6f00 fcee      	blew 4f6a <_vfprintf_r+0xefe>
    527e:	6000 00b0      	braw 5330 <_vfprintf_r+0x12c4>
    5282:	486e ff8c      	pea %fp@(-116)
    5286:	2f2e ff2c      	movel %fp@(-212),%sp@-
    528a:	2f2e ff30      	movel %fp@(-208),%sp@-
    528e:	4eb9 0000 5e38 	jsr 5e38 <__sprint_r>
    5294:	4fef 000c      	lea %sp@(12),%sp
    5298:	4a80           	tstl %d0
    529a:	6600 f0da      	bnew 4376 <_vfprintf_r+0x30a>
    529e:	246e ff94      	moveal %fp@(-108),%a2
    52a2:	49ee ffc0      	lea %fp@(-64),%a4
    52a6:	6000 f498      	braw 4740 <_vfprintf_r+0x6d4>
    52aa:	2d6e ff28 ff20 	movel %fp@(-216),%fp@(-224)
    52b0:	2d7c 0001 09dc 	movel #68060,%fp@(-168)
    52b6:	ff58 
    52b8:	226e ff38      	moveal %fp@(-200),%a1
    52bc:	58ae ff38      	addql #4,%fp@(-200)
    52c0:	2a19           	movel %a1@+,%d5
    52c2:	0806 0004      	btst #4,%d6
    52c6:	660c           	bnes 52d4 <_vfprintf_r+0x1268>
    52c8:	0806 0006      	btst #6,%d6
    52cc:	6706           	beqs 52d4 <_vfprintf_r+0x1268>
    52ce:	0285 0000 ffff 	andil #65535,%d5
    52d4:	0806 0000      	btst #0,%d6
    52d8:	6700 0154      	beqw 542e <_vfprintf_r+0x13c2>
    52dc:	4a85           	tstl %d5
    52de:	6700 014e      	beqw 542e <_vfprintf_r+0x13c2>
    52e2:	1d7c 0030 ff72 	moveb #48,%fp@(-142)
    52e8:	300b           	movew %a3,%d0
    52ea:	1d40 ff73      	moveb %d0,%fp@(-141)
    52ee:	7202           	moveq #2,%d1
    52f0:	8c81           	orl %d1,%d6
    52f2:	7002           	moveq #2,%d0
    52f4:	9bcd           	subal %a5,%a5
    52f6:	6000 f6ba      	braw 49b2 <_vfprintf_r+0x946>
    52fa:	2d6e ff28 ff20 	movel %fp@(-216),%fp@(-224)
    5300:	2d7c 0001 09ed 	movel #68077,%fp@(-168)
    5306:	ff58 
    5308:	60ae           	bras 52b8 <_vfprintf_r+0x124c>
    530a:	2a02           	movel %d2,%d5
    530c:	7206           	moveq #6,%d1
    530e:	b282           	cmpl %d2,%d1
    5310:	6500 0472      	bcsw 5784 <_vfprintf_r+0x1718>
    5314:	2d45 ff28      	movel %d5,%fp@(-216)
    5318:	2d4a ff38      	movel %a2,%fp@(-200)
    531c:	2e3c 0001 09fe 	movel #68094,%d7
    5322:	2806           	movel %d6,%d4
    5324:	7400           	moveq #0,%d2
    5326:	42ae ff3c      	clrl %fp@(-196)
    532a:	9bcd           	subal %a5,%a5
    532c:	6000 f090      	braw 43be <_vfprintf_r+0x352>
    5330:	202e ff90      	movel %fp@(-112),%d0
    5334:	7410           	moveq #16,%d2
    5336:	b48d           	cmpl %a5,%d2
    5338:	6c40           	bges 537a <_vfprintf_r+0x130e>
    533a:	748c           	moveq #-116,%d2
    533c:	d48e           	addl %fp,%d2
    533e:	47f9 0000 5e38 	lea 5e38 <__sprint_r>,%a3
    5344:	2a2e ff30      	movel %fp@(-208),%d5
    5348:	2c2e ff2c      	movel %fp@(-212),%d6
    534c:	28bc 0001 0ad5 	movel #68309,%a4@
    5352:	7210           	moveq #16,%d1
    5354:	2941 0004      	movel %d1,%a4@(4)
    5358:	45ea 0010      	lea %a2@(16),%a2
    535c:	2d4a ff94      	movel %a2,%fp@(-108)
    5360:	5280           	addql #1,%d0
    5362:	2d40 ff90      	movel %d0,%fp@(-112)
    5366:	7207           	moveq #7,%d1
    5368:	b280           	cmpl %d0,%d1
    536a:	6d00 00ca      	bltw 5436 <_vfprintf_r+0x13ca>
    536e:	508c           	addql #8,%a4
    5370:	4bed fff0      	lea %a5@(-16),%a5
    5374:	7210           	moveq #16,%d1
    5376:	b28d           	cmpl %a5,%d1
    5378:	6dd2           	blts 534c <_vfprintf_r+0x12e0>
    537a:	28bc 0001 0ad5 	movel #68309,%a4@
    5380:	294d 0004      	movel %a5,%a4@(4)
    5384:	d5cd           	addal %a5,%a2
    5386:	2d4a ff94      	movel %a2,%fp@(-108)
    538a:	5280           	addql #1,%d0
    538c:	2d40 ff90      	movel %d0,%fp@(-112)
    5390:	7407           	moveq #7,%d2
    5392:	b480           	cmpl %d0,%d2
    5394:	6d00 0600      	bltw 5996 <_vfprintf_r+0x192a>
    5398:	508c           	addql #8,%a4
    539a:	6000 fbce      	braw 4f6a <_vfprintf_r+0xefe>
    539e:	7400           	moveq #0,%d2
    53a0:	6000 fc40      	braw 4fe2 <_vfprintf_r+0xf76>
    53a4:	2f07           	movel %d7,%sp@-
    53a6:	4eb9 0000 6b20 	jsr 6b20 <strlen>
    53ac:	2a00           	movel %d0,%d5
    53ae:	122e ff71      	moveb %fp@(-143),%d1
    53b2:	3a41           	moveaw %d1,%a5
    53b4:	2d40 ff28      	movel %d0,%fp@(-216)
    53b8:	588f           	addql #4,%sp
    53ba:	6a00 f89a      	bplw 4c56 <_vfprintf_r+0xbea>
    53be:	42ae ff28      	clrl %fp@(-216)
    53c2:	2d4a ff38      	movel %a2,%fp@(-200)
    53c6:	2806           	movel %d6,%d4
    53c8:	7400           	moveq #0,%d2
    53ca:	42ae ff3c      	clrl %fp@(-196)
    53ce:	6000 f892      	braw 4c62 <_vfprintf_r+0xbf6>
    53d2:	2f05           	movel %d5,%sp@-
    53d4:	2f07           	movel %d7,%sp@-
    53d6:	2f06           	movel %d6,%sp@-
    53d8:	4e94           	jsr %a4@
    53da:	4fef 000c      	lea %sp@(12),%sp
    53de:	4a80           	tstl %d0
    53e0:	6600 ef94      	bnew 4376 <_vfprintf_r+0x30a>
    53e4:	246e ff94      	moveal %fp@(-108),%a2
    53e8:	242e ff90      	movel %fp@(-112),%d2
    53ec:	47ee ffc0      	lea %fp@(-64),%a3
    53f0:	4bed fff0      	lea %a5@(-16),%a5
    53f4:	7010           	moveq #16,%d0
    53f6:	b08d           	cmpl %a5,%d0
    53f8:	6d00 fcba      	bltw 50b4 <_vfprintf_r+0x1048>
    53fc:	6000 fce4      	braw 50e2 <_vfprintf_r+0x1076>
    5400:	2f02           	movel %d2,%sp@-
    5402:	2f06           	movel %d6,%sp@-
    5404:	2f05           	movel %d5,%sp@-
    5406:	4e93           	jsr %a3@
    5408:	4fef 000c      	lea %sp@(12),%sp
    540c:	4a80           	tstl %d0
    540e:	6600 ef66      	bnew 4376 <_vfprintf_r+0x30a>
    5412:	246e ff94      	moveal %fp@(-108),%a2
    5416:	202e ff90      	movel %fp@(-112),%d0
    541a:	49ee ffc0      	lea %fp@(-64),%a4
    541e:	4bed fff0      	lea %a5@(-16),%a5
    5422:	7e10           	moveq #16,%d7
    5424:	be8d           	cmpl %a5,%d7
    5426:	6d00 f342      	bltw 476a <_vfprintf_r+0x6fe>
    542a:	6000 f36c      	braw 4798 <_vfprintf_r+0x72c>
    542e:	7002           	moveq #2,%d0
    5430:	9bcd           	subal %a5,%a5
    5432:	6000 f57e      	braw 49b2 <_vfprintf_r+0x946>
    5436:	2f02           	movel %d2,%sp@-
    5438:	2f06           	movel %d6,%sp@-
    543a:	2f05           	movel %d5,%sp@-
    543c:	4e93           	jsr %a3@
    543e:	4fef 000c      	lea %sp@(12),%sp
    5442:	4a80           	tstl %d0
    5444:	6600 ef30      	bnew 4376 <_vfprintf_r+0x30a>
    5448:	246e ff94      	moveal %fp@(-108),%a2
    544c:	202e ff90      	movel %fp@(-112),%d0
    5450:	49ee ffc0      	lea %fp@(-64),%a4
    5454:	4bed fff0      	lea %a5@(-16),%a5
    5458:	7210           	moveq #16,%d1
    545a:	b28d           	cmpl %a5,%d1
    545c:	6d00 feee      	bltw 534c <_vfprintf_r+0x12e0>
    5460:	6000 ff18      	braw 537a <_vfprintf_r+0x130e>
    5464:	28bc 0001 0a05 	movel #68101,%a4@
    546a:	7401           	moveq #1,%d2
    546c:	2942 0004      	movel %d2,%a4@(4)
    5470:	528a           	addql #1,%a2
    5472:	2d4a ff94      	movel %a2,%fp@(-108)
    5476:	202e ff90      	movel %fp@(-112),%d0
    547a:	5280           	addql #1,%d0
    547c:	2d40 ff90      	movel %d0,%fp@(-112)
    5480:	7a07           	moveq #7,%d5
    5482:	ba80           	cmpl %d0,%d5
    5484:	6d00 02d2      	bltw 5758 <_vfprintf_r+0x16ec>
    5488:	508c           	addql #8,%a4
    548a:	4a81           	tstl %d1
    548c:	6600 01c0      	bnew 564e <_vfprintf_r+0x15e2>
    5490:	7001           	moveq #1,%d0
    5492:	c084           	andl %d4,%d0
    5494:	80ae ff40      	orl %fp@(-192),%d0
    5498:	6700 efd4      	beqw 446e <_vfprintf_r+0x402>
    549c:	28ae ff50      	movel %fp@(-176),%a4@
    54a0:	296e ff4c 0004 	movel %fp@(-180),%a4@(4)
    54a6:	d5ee ff4c      	addal %fp@(-180),%a2
    54aa:	2d4a ff94      	movel %a2,%fp@(-108)
    54ae:	202e ff90      	movel %fp@(-112),%d0
    54b2:	5280           	addql #1,%d0
    54b4:	2d40 ff90      	movel %d0,%fp@(-112)
    54b8:	7207           	moveq #7,%d1
    54ba:	b280           	cmpl %d0,%d1
    54bc:	6d00 048e      	bltw 594c <_vfprintf_r+0x18e0>
    54c0:	508c           	addql #8,%a4
    54c2:	2887           	movel %d7,%a4@
    54c4:	296e ff40 0004 	movel %fp@(-192),%a4@(4)
    54ca:	d5ee ff40      	addal %fp@(-192),%a2
    54ce:	2d4a ff94      	movel %a2,%fp@(-108)
    54d2:	5280           	addql #1,%d0
    54d4:	2d40 ff90      	movel %d0,%fp@(-112)
    54d8:	7a07           	moveq #7,%d5
    54da:	ba80           	cmpl %d0,%d5
    54dc:	6d00 f2d8      	bltw 47b6 <_vfprintf_r+0x74a>
    54e0:	508c           	addql #8,%a4
    54e2:	6000 ef8a      	braw 446e <_vfprintf_r+0x402>
    54e6:	486e ff8c      	pea %fp@(-116)
    54ea:	2f2e ff2c      	movel %fp@(-212),%sp@-
    54ee:	2f2e ff30      	movel %fp@(-208),%sp@-
    54f2:	4eb9 0000 5e38 	jsr 5e38 <__sprint_r>
    54f8:	4fef 000c      	lea %sp@(12),%sp
    54fc:	4a80           	tstl %d0
    54fe:	6600 ee76      	bnew 4376 <_vfprintf_r+0x30a>
    5502:	246e ff94      	moveal %fp@(-108),%a2
    5506:	49ee ffc0      	lea %fp@(-64),%a4
    550a:	6000 eecc      	braw 43d8 <_vfprintf_r+0x36c>
    550e:	2f2e ff48      	movel %fp@(-184),%sp@-
    5512:	2f2e ff44      	movel %fp@(-188),%sp@-
    5516:	2f2e ff48      	movel %fp@(-184),%sp@-
    551a:	2f2e ff44      	movel %fp@(-188),%sp@-
    551e:	4e92           	jsr %a2@
    5520:	4fef 0010      	lea %sp@(16),%sp
    5524:	4a80           	tstl %d0
    5526:	6600 0732      	bnew 5c5a <_vfprintf_r+0x1bee>
    552a:	222e ff44      	movel %fp@(-188),%d1
    552e:	2001           	movel %d1,%d0
    5530:	2a0b           	movel %a3,%d5
    5532:	78df           	moveq #-33,%d4
    5534:	ca84           	andl %d4,%d5
    5536:	2806           	movel %d6,%d4
    5538:	0044 0100      	oriw #256,%d4
    553c:	7eff           	moveq #-1,%d7
    553e:	be82           	cmpl %d2,%d7
    5540:	6700 05ba      	beqw 5afc <_vfprintf_r+0x1a90>
    5544:	7e47           	moveq #71,%d7
    5546:	be85           	cmpl %d5,%d7
    5548:	6700 02c4      	beqw 580e <_vfprintf_r+0x17a2>
    554c:	4a80           	tstl %d0
    554e:	6d00 02a0      	bltw 57f0 <_vfprintf_r+0x1784>
    5552:	2d6e ff44 ff68 	movel %fp@(-188),%fp@(-152)
    5558:	2d6e ff48 ff6c 	movel %fp@(-184),%fp@(-148)
    555e:	422e ff5c      	clrb %fp@(-164)
    5562:	7066           	moveq #102,%d0
    5564:	b08b           	cmpl %a3,%d0
    5566:	6600 0620      	bnew 5b88 <_vfprintf_r+0x1b1c>
    556a:	2442           	moveal %d2,%a2
    556c:	7003           	moveq #3,%d0
    556e:	486e ff84      	pea %fp@(-124)
    5572:	486e ff78      	pea %fp@(-136)
    5576:	486e ff74      	pea %fp@(-140)
    557a:	2f0a           	movel %a2,%sp@-
    557c:	2f00           	movel %d0,%sp@-
    557e:	2f2e ff6c      	movel %fp@(-148),%sp@-
    5582:	2f2e ff68      	movel %fp@(-152),%sp@-
    5586:	2f2e ff30      	movel %fp@(-208),%sp@-
    558a:	4eb9 0000 6d46 	jsr 6d46 <_dtoa_r>
    5590:	2e00           	movel %d0,%d7
    5592:	4bf2 0800      	lea %a2@(0,%d0:l),%a5
    5596:	4fef 0020      	lea %sp@(32),%sp
    559a:	7066           	moveq #102,%d0
    559c:	b08b           	cmpl %a3,%d0
    559e:	6610           	bnes 55b0 <_vfprintf_r+0x1544>
    55a0:	2047           	moveal %d7,%a0
    55a2:	0c10 0030      	cmpib #48,%a0@
    55a6:	6700 0680      	beqw 5c28 <_vfprintf_r+0x1bbc>
    55aa:	202e ff74      	movel %fp@(-140),%d0
    55ae:	dbc0           	addal %d0,%a5
    55b0:	42a7           	clrl %sp@-
    55b2:	42a7           	clrl %sp@-
    55b4:	2f2e ff6c      	movel %fp@(-148),%sp@-
    55b8:	2f2e ff68      	movel %fp@(-152),%sp@-
    55bc:	4eb9 0000 ff10 	jsr ff10 <__eqdf2>
    55c2:	4fef 0010      	lea %sp@(16),%sp
    55c6:	4a80           	tstl %d0
    55c8:	6700 01ce      	beqw 5798 <_vfprintf_r+0x172c>
    55cc:	202e ff84      	movel %fp@(-124),%d0
    55d0:	b08d           	cmpl %a5,%d0
    55d2:	6400 0462      	bccw 5a36 <_vfprintf_r+0x19ca>
    55d6:	2200           	movel %d0,%d1
    55d8:	5281           	addql #1,%d1
    55da:	2d41 ff84      	movel %d1,%fp@(-124)
    55de:	2040           	moveal %d0,%a0
    55e0:	10bc 0030      	moveb #48,%a0@
    55e4:	60e6           	bras 55cc <_vfprintf_r+0x1560>
    55e6:	486e ff8c      	pea %fp@(-116)
    55ea:	2f2e ff2c      	movel %fp@(-212),%sp@-
    55ee:	2f2e ff30      	movel %fp@(-208),%sp@-
    55f2:	4eb9 0000 5e38 	jsr 5e38 <__sprint_r>
    55f8:	4fef 000c      	lea %sp@(12),%sp
    55fc:	4a80           	tstl %d0
    55fe:	6600 ed76      	bnew 4376 <_vfprintf_r+0x30a>
    5602:	246e ff94      	moveal %fp@(-108),%a2
    5606:	49ee ffc0      	lea %fp@(-64),%a4
    560a:	2a2e ff40      	movel %fp@(-192),%d5
    560e:	baae ff74      	cmpl %fp@(-140),%d5
    5612:	6e00 f106      	bgtw 471a <_vfprintf_r+0x6ae>
    5616:	6000 fb8a      	braw 51a2 <_vfprintf_r+0x1136>
    561a:	486e ff8c      	pea %fp@(-116)
    561e:	2f2e ff2c      	movel %fp@(-212),%sp@-
    5622:	2f2e ff30      	movel %fp@(-208),%sp@-
    5626:	4eb9 0000 5e38 	jsr 5e38 <__sprint_r>
    562c:	4fef 000c      	lea %sp@(12),%sp
    5630:	4a80           	tstl %d0
    5632:	6600 ed42      	bnew 4376 <_vfprintf_r+0x30a>
    5636:	246e ff94      	moveal %fp@(-108),%a2
    563a:	49ee ffc0      	lea %fp@(-64),%a4
    563e:	2a42           	moveal %d2,%a5
    5640:	9bc5           	subal %d5,%a5
    5642:	bafc 0000      	cmpaw #0,%a5
    5646:	6f00 edfe      	blew 4446 <_vfprintf_r+0x3da>
    564a:	6000 f010      	braw 465c <_vfprintf_r+0x5f0>
    564e:	28ae ff50      	movel %fp@(-176),%a4@
    5652:	296e ff4c 0004 	movel %fp@(-180),%a4@(4)
    5658:	d5ee ff4c      	addal %fp@(-180),%a2
    565c:	2d4a ff94      	movel %a2,%fp@(-108)
    5660:	202e ff90      	movel %fp@(-112),%d0
    5664:	5280           	addql #1,%d0
    5666:	2d40 ff90      	movel %d0,%fp@(-112)
    566a:	7407           	moveq #7,%d2
    566c:	b480           	cmpl %d0,%d2
    566e:	6d00 02dc      	bltw 594c <_vfprintf_r+0x18e0>
    5672:	508c           	addql #8,%a4
    5674:	4a81           	tstl %d1
    5676:	6c00 fe4a      	bgew 54c2 <_vfprintf_r+0x1456>
    567a:	2a01           	movel %d1,%d5
    567c:	4485           	negl %d5
    567e:	2a45           	moveal %d5,%a5
    5680:	74f0           	moveq #-16,%d2
    5682:	b481           	cmpl %d1,%d2
    5684:	6f40           	bles 56c6 <_vfprintf_r+0x165a>
    5686:	748c           	moveq #-116,%d2
    5688:	d48e           	addl %fp,%d2
    568a:	47f9 0000 5e38 	lea 5e38 <__sprint_r>,%a3
    5690:	2a2e ff30      	movel %fp@(-208),%d5
    5694:	2c2e ff2c      	movel %fp@(-212),%d6
    5698:	28bc 0001 0ad5 	movel #68309,%a4@
    569e:	7210           	moveq #16,%d1
    56a0:	2941 0004      	movel %d1,%a4@(4)
    56a4:	45ea 0010      	lea %a2@(16),%a2
    56a8:	2d4a ff94      	movel %a2,%fp@(-108)
    56ac:	5280           	addql #1,%d0
    56ae:	2d40 ff90      	movel %d0,%fp@(-112)
    56b2:	7207           	moveq #7,%d1
    56b4:	b280           	cmpl %d0,%d1
    56b6:	6d00 0350      	bltw 5a08 <_vfprintf_r+0x199c>
    56ba:	508c           	addql #8,%a4
    56bc:	4bed fff0      	lea %a5@(-16),%a5
    56c0:	7210           	moveq #16,%d1
    56c2:	b28d           	cmpl %a5,%d1
    56c4:	6dd2           	blts 5698 <_vfprintf_r+0x162c>
    56c6:	28bc 0001 0ad5 	movel #68309,%a4@
    56cc:	294d 0004      	movel %a5,%a4@(4)
    56d0:	d5cd           	addal %a5,%a2
    56d2:	2d4a ff94      	movel %a2,%fp@(-108)
    56d6:	5280           	addql #1,%d0
    56d8:	2d40 ff90      	movel %d0,%fp@(-112)
    56dc:	7407           	moveq #7,%d2
    56de:	b480           	cmpl %d0,%d2
    56e0:	6c00 fdde      	bgew 54c0 <_vfprintf_r+0x1454>
    56e4:	486e ff8c      	pea %fp@(-116)
    56e8:	2f2e ff2c      	movel %fp@(-212),%sp@-
    56ec:	2f2e ff30      	movel %fp@(-208),%sp@-
    56f0:	4eb9 0000 5e38 	jsr 5e38 <__sprint_r>
    56f6:	4fef 000c      	lea %sp@(12),%sp
    56fa:	4a80           	tstl %d0
    56fc:	6600 ec78      	bnew 4376 <_vfprintf_r+0x30a>
    5700:	246e ff94      	moveal %fp@(-108),%a2
    5704:	202e ff90      	movel %fp@(-112),%d0
    5708:	49ee ffc0      	lea %fp@(-64),%a4
    570c:	2887           	movel %d7,%a4@
    570e:	296e ff40 0004 	movel %fp@(-192),%a4@(4)
    5714:	d5ee ff40      	addal %fp@(-192),%a2
    5718:	2d4a ff94      	movel %a2,%fp@(-108)
    571c:	5280           	addql #1,%d0
    571e:	2d40 ff90      	movel %d0,%fp@(-112)
    5722:	7a07           	moveq #7,%d5
    5724:	ba80           	cmpl %d0,%d5
    5726:	6c00 fdb8      	bgew 54e0 <_vfprintf_r+0x1474>
    572a:	6000 f08a      	braw 47b6 <_vfprintf_r+0x74a>
    572e:	2e3c 0001 09d0 	movel #68048,%d7
    5734:	7880           	moveq #-128,%d4
    5736:	4604           	notb %d4
    5738:	c886           	andl %d6,%d4
    573a:	7a03           	moveq #3,%d5
    573c:	2d45 ff28      	movel %d5,%fp@(-216)
    5740:	7400           	moveq #0,%d2
    5742:	42ae ff3c      	clrl %fp@(-196)
    5746:	6000 ee2e      	braw 4576 <_vfprintf_r+0x50a>
    574a:	1d7c 002d ff71 	moveb #45,%fp@(-143)
    5750:	3a7c 002d      	moveaw #45,%a5
    5754:	6000 ee00      	braw 4556 <_vfprintf_r+0x4ea>
    5758:	486e ff8c      	pea %fp@(-116)
    575c:	2f2e ff2c      	movel %fp@(-212),%sp@-
    5760:	2f2e ff30      	movel %fp@(-208),%sp@-
    5764:	4eb9 0000 5e38 	jsr 5e38 <__sprint_r>
    576a:	4fef 000c      	lea %sp@(12),%sp
    576e:	4a80           	tstl %d0
    5770:	6600 ec04      	bnew 4376 <_vfprintf_r+0x30a>
    5774:	222e ff74      	movel %fp@(-140),%d1
    5778:	246e ff94      	moveal %fp@(-108),%a2
    577c:	49ee ffc0      	lea %fp@(-64),%a4
    5780:	6000 fd08      	braw 548a <_vfprintf_r+0x141e>
    5784:	7a06           	moveq #6,%d5
    5786:	2d45 ff28      	movel %d5,%fp@(-216)
    578a:	2d4a ff38      	movel %a2,%fp@(-200)
    578e:	2e3c 0001 09fe 	movel #68094,%d7
    5794:	6000 fb8c      	braw 5322 <_vfprintf_r+0x12b6>
    5798:	2d6e ff74 ff3c 	movel %fp@(-140),%fp@(-196)
    579e:	200d           	movel %a5,%d0
    57a0:	9087           	subl %d7,%d0
    57a2:	2d40 ff40      	movel %d0,%fp@(-192)
    57a6:	7047           	moveq #71,%d0
    57a8:	b085           	cmpl %d5,%d0
    57aa:	6700 00c0      	beqw 586c <_vfprintf_r+0x1800>
    57ae:	7a66           	moveq #102,%d5
    57b0:	ba8b           	cmpl %a3,%d5
    57b2:	6600 0240      	bnew 59f4 <_vfprintf_r+0x1988>
    57b6:	7001           	moveq #1,%d0
    57b8:	c086           	andl %d6,%d0
    57ba:	8082           	orl %d2,%d0
    57bc:	4aae ff3c      	tstl %fp@(-196)
    57c0:	6f00 0580      	blew 5d42 <_vfprintf_r+0x1cd6>
    57c4:	4a80           	tstl %d0
    57c6:	6600 0506      	bnew 5cce <_vfprintf_r+0x1c62>
    57ca:	2d6e ff3c ff28 	movel %fp@(-196),%fp@(-216)
    57d0:	2a2e ff3c      	movel %fp@(-196),%d5
    57d4:	367c 0066      	moveaw #102,%a3
    57d8:	4a2e ff5c      	tstb %fp@(-164)
    57dc:	6700 0262      	beqw 5a40 <_vfprintf_r+0x19d4>
    57e0:	1d7c 002d ff71 	moveb #45,%fp@(-143)
    57e6:	7400           	moveq #0,%d2
    57e8:	52ae ff28      	addql #1,%fp@(-216)
    57ec:	6000 ed92      	braw 4580 <_vfprintf_r+0x514>
    57f0:	2e2e ff44      	movel %fp@(-188),%d7
    57f4:	0687 8000 0000 	addil #-2147483648,%d7
    57fa:	2d47 ff68      	movel %d7,%fp@(-152)
    57fe:	2d6e ff48 ff6c 	movel %fp@(-184),%fp@(-148)
    5804:	1d7c 002d ff5c 	moveb #45,%fp@(-164)
    580a:	6000 fd56      	braw 5562 <_vfprintf_r+0x14f6>
    580e:	4a82           	tstl %d2
    5810:	6700 03b4      	beqw 5bc6 <_vfprintf_r+0x1b5a>
    5814:	4a81           	tstl %d1
    5816:	6d00 047c      	bltw 5c94 <_vfprintf_r+0x1c28>
    581a:	2d6e ff44 ff68 	movel %fp@(-188),%fp@(-152)
    5820:	2d6e ff48 ff6c 	movel %fp@(-184),%fp@(-148)
    5826:	422e ff5c      	clrb %fp@(-164)
    582a:	486e ff84      	pea %fp@(-124)
    582e:	486e ff78      	pea %fp@(-136)
    5832:	486e ff74      	pea %fp@(-140)
    5836:	2f02           	movel %d2,%sp@-
    5838:	4878 0002      	pea 2 <DOUBLE_FLOAT>
    583c:	2f2e ff6c      	movel %fp@(-148),%sp@-
    5840:	2f2e ff68      	movel %fp@(-152),%sp@-
    5844:	2f2e ff30      	movel %fp@(-208),%sp@-
    5848:	4eb9 0000 6d46 	jsr 6d46 <_dtoa_r>
    584e:	2e00           	movel %d0,%d7
    5850:	4fef 0020      	lea %sp@(32),%sp
    5854:	0806 0000      	btst #0,%d6
    5858:	6600 030a      	bnew 5b64 <_vfprintf_r+0x1af8>
    585c:	2a2e ff84      	movel %fp@(-124),%d5
    5860:	9a80           	subl %d0,%d5
    5862:	2d45 ff40      	movel %d5,%fp@(-192)
    5866:	2d6e ff74 ff3c 	movel %fp@(-140),%fp@(-196)
    586c:	72fd           	moveq #-3,%d1
    586e:	b2ae ff3c      	cmpl %fp@(-196),%d1
    5872:	6f00 0176      	blew 59ea <_vfprintf_r+0x197e>
    5876:	558b           	subql #2,%a3
    5878:	222e ff3c      	movel %fp@(-196),%d1
    587c:	5381           	subql #1,%d1
    587e:	300b           	movew %a3,%d0
    5880:	7a01           	moveq #1,%d5
    5882:	9aae ff3c      	subl %fp@(-196),%d5
    5886:	742d           	moveq #45,%d2
    5888:	2d41 ff74      	movel %d1,%fp@(-140)
    588c:	e148           	lslw #8,%d0
    588e:	1002           	moveb %d2,%d0
    5890:	3d40 ff7c      	movew %d0,%fp@(-132)
    5894:	7009           	moveq #9,%d0
    5896:	b085           	cmpl %d5,%d0
    5898:	6c00 0300      	bgew 5b9a <_vfprintf_r+0x1b2e>
    589c:	41ee ff8b      	lea %fp@(-117),%a0
    58a0:	2d48 ff28      	movel %a0,%fp@(-216)
    58a4:	2448           	moveal %a0,%a2
    58a6:	240a           	movel %a2,%d2
    58a8:	4878 000a      	pea a <DUART_IMR>
    58ac:	2f05           	movel %d5,%sp@-
    58ae:	4eb9 0000 fee0 	jsr fee0 <__modsi3>
    58b4:	508f           	addql #8,%sp
    58b6:	0600 0030      	addib #48,%d0
    58ba:	1500           	moveb %d0,%a2@-
    58bc:	2a45           	moveal %d5,%a5
    58be:	4878 000a      	pea a <DUART_IMR>
    58c2:	2f05           	movel %d5,%sp@-
    58c4:	4eb9 0000 fe80 	jsr fe80 <__divsi3>
    58ca:	508f           	addql #8,%sp
    58cc:	2a00           	movel %d0,%d5
    58ce:	7063           	moveq #99,%d0
    58d0:	b08d           	cmpl %a5,%d0
    58d2:	6dd2           	blts 58a6 <_vfprintf_r+0x183a>
    58d4:	2242           	moveal %d2,%a1
    58d6:	5589           	subql #2,%a1
    58d8:	0605 0030      	addib #48,%d5
    58dc:	1545 ffff      	moveb %d5,%a2@(-1)
    58e0:	b3ee ff28      	cmpal %fp@(-216),%a1
    58e4:	6400 043e      	bccw 5d24 <_vfprintf_r+0x1cb8>
    58e8:	45ee ff7e      	lea %fp@(-130),%a2
    58ec:	14d9           	moveb %a1@+,%a2@+
    58ee:	b3ee ff28      	cmpal %fp@(-216),%a1
    58f2:	66f8           	bnes 58ec <_vfprintf_r+0x1880>
    58f4:	224e           	moveal %fp,%a1
    58f6:	93c2           	subal %d2,%a1
    58f8:	43e9 ff8f      	lea %a1@(-113),%a1
    58fc:	2d49 ff54      	movel %a1,%fp@(-172)
    5900:	2a2e ff40      	movel %fp@(-192),%d5
    5904:	daae ff54      	addl %fp@(-172),%d5
    5908:	7001           	moveq #1,%d0
    590a:	b0ae ff40      	cmpl %fp@(-192),%d0
    590e:	6c00 00ae      	bgew 59be <_vfprintf_r+0x1952>
    5912:	daae ff4c      	addl %fp@(-180),%d5
    5916:	2d45 ff28      	movel %d5,%fp@(-216)
    591a:	6b00 00c2      	bmiw 59de <_vfprintf_r+0x1972>
    591e:	42ae ff3c      	clrl %fp@(-196)
    5922:	6000 feb4      	braw 57d8 <_vfprintf_r+0x176c>
    5926:	486e ff8c      	pea %fp@(-116)
    592a:	2f2e ff2c      	movel %fp@(-212),%sp@-
    592e:	2f2e ff30      	movel %fp@(-208),%sp@-
    5932:	4eb9 0000 5e38 	jsr 5e38 <__sprint_r>
    5938:	4fef 000c      	lea %sp@(12),%sp
    593c:	206e ff2c      	moveal %fp@(-212),%a0
    5940:	0828 0006 000d 	btst #6,%a0@(13)
    5946:	6700 ea3c      	beqw 4384 <_vfprintf_r+0x318>
    594a:	6036           	bras 5982 <_vfprintf_r+0x1916>
    594c:	486e ff8c      	pea %fp@(-116)
    5950:	2f2e ff2c      	movel %fp@(-212),%sp@-
    5954:	2f2e ff30      	movel %fp@(-208),%sp@-
    5958:	4eb9 0000 5e38 	jsr 5e38 <__sprint_r>
    595e:	4fef 000c      	lea %sp@(12),%sp
    5962:	4a80           	tstl %d0
    5964:	6600 ea10      	bnew 4376 <_vfprintf_r+0x30a>
    5968:	222e ff74      	movel %fp@(-140),%d1
    596c:	246e ff94      	moveal %fp@(-108),%a2
    5970:	202e ff90      	movel %fp@(-112),%d0
    5974:	49ee ffc0      	lea %fp@(-64),%a4
    5978:	4a81           	tstl %d1
    597a:	6c00 fb46      	bgew 54c2 <_vfprintf_r+0x1456>
    597e:	6000 fcfa      	braw 567a <_vfprintf_r+0x160e>
    5982:	74ff           	moveq #-1,%d2
    5984:	2d42 ff34      	movel %d2,%fp@(-204)
    5988:	202e ff34      	movel %fp@(-204),%d0
    598c:	4cee 3cfc fef8 	moveml %fp@(-264),%d2-%d7/%a2-%a5
    5992:	4e5e           	unlk %fp
    5994:	4e75           	rts
    5996:	486e ff8c      	pea %fp@(-116)
    599a:	2f2e ff2c      	movel %fp@(-212),%sp@-
    599e:	2f2e ff30      	movel %fp@(-208),%sp@-
    59a2:	4eb9 0000 5e38 	jsr 5e38 <__sprint_r>
    59a8:	4fef 000c      	lea %sp@(12),%sp
    59ac:	4a80           	tstl %d0
    59ae:	6600 e9c6      	bnew 4376 <_vfprintf_r+0x30a>
    59b2:	246e ff94      	moveal %fp@(-108),%a2
    59b6:	49ee ffc0      	lea %fp@(-64),%a4
    59ba:	6000 f5ae      	braw 4f6a <_vfprintf_r+0xefe>
    59be:	7201           	moveq #1,%d1
    59c0:	c286           	andl %d6,%d1
    59c2:	2d41 ff3c      	movel %d1,%fp@(-196)
    59c6:	0806 0000      	btst #0,%d6
    59ca:	6600 ff46      	bnew 5912 <_vfprintf_r+0x18a6>
    59ce:	2d45 ff28      	movel %d5,%fp@(-216)
    59d2:	6a00 fe04      	bplw 57d8 <_vfprintf_r+0x176c>
    59d6:	42ae ff28      	clrl %fp@(-216)
    59da:	6000 fdfc      	braw 57d8 <_vfprintf_r+0x176c>
    59de:	42ae ff28      	clrl %fp@(-216)
    59e2:	42ae ff3c      	clrl %fp@(-196)
    59e6:	6000 fdf0      	braw 57d8 <_vfprintf_r+0x176c>
    59ea:	b4ae ff3c      	cmpl %fp@(-196),%d2
    59ee:	6c00 013c      	bgew 5b2c <_vfprintf_r+0x1ac0>
    59f2:	558b           	subql #2,%a3
    59f4:	2a2e ff3c      	movel %fp@(-196),%d5
    59f8:	5385           	subql #1,%d5
    59fa:	300b           	movew %a3,%d0
    59fc:	2205           	movel %d5,%d1
    59fe:	6b00 fe80      	bmiw 5880 <_vfprintf_r+0x1814>
    5a02:	742b           	moveq #43,%d2
    5a04:	6000 fe82      	braw 5888 <_vfprintf_r+0x181c>
    5a08:	2f02           	movel %d2,%sp@-
    5a0a:	2f06           	movel %d6,%sp@-
    5a0c:	2f05           	movel %d5,%sp@-
    5a0e:	4e93           	jsr %a3@
    5a10:	4fef 000c      	lea %sp@(12),%sp
    5a14:	4a80           	tstl %d0
    5a16:	6600 e95e      	bnew 4376 <_vfprintf_r+0x30a>
    5a1a:	246e ff94      	moveal %fp@(-108),%a2
    5a1e:	202e ff90      	movel %fp@(-112),%d0
    5a22:	49ee ffc0      	lea %fp@(-64),%a4
    5a26:	4bed fff0      	lea %a5@(-16),%a5
    5a2a:	7210           	moveq #16,%d1
    5a2c:	b28d           	cmpl %a5,%d1
    5a2e:	6d00 fc68      	bltw 5698 <_vfprintf_r+0x162c>
    5a32:	6000 fc92      	braw 56c6 <_vfprintf_r+0x165a>
    5a36:	2d6e ff74 ff3c 	movel %fp@(-140),%fp@(-196)
    5a3c:	6000 fd62      	braw 57a0 <_vfprintf_r+0x1734>
    5a40:	102e ff71      	moveb %fp@(-143),%d0
    5a44:	3a40           	moveaw %d0,%a5
    5a46:	7400           	moveq #0,%d2
    5a48:	320d           	movew %a5,%d1
    5a4a:	4a01           	tstb %d1
    5a4c:	6600 eb2e      	bnew 457c <_vfprintf_r+0x510>
    5a50:	6000 eb2e      	braw 4580 <_vfprintf_r+0x514>
    5a54:	486e ff8c      	pea %fp@(-116)
    5a58:	2f2e ff2c      	movel %fp@(-212),%sp@-
    5a5c:	2f2e ff30      	movel %fp@(-208),%sp@-
    5a60:	4eb9 0000 5e38 	jsr 5e38 <__sprint_r>
    5a66:	4fef 000c      	lea %sp@(12),%sp
    5a6a:	4a80           	tstl %d0
    5a6c:	6600 e908      	bnew 4376 <_vfprintf_r+0x30a>
    5a70:	222e ff74      	movel %fp@(-140),%d1
    5a74:	246e ff94      	moveal %fp@(-108),%a2
    5a78:	49ee ffc0      	lea %fp@(-64),%a4
    5a7c:	6000 f522      	braw 4fa0 <_vfprintf_r+0xf34>
    5a80:	2c04           	movel %d4,%d6
    5a82:	7a00           	moveq #0,%d5
    5a84:	0605 0030      	addib #48,%d5
    5a88:	1d45 ffbf      	moveb %d5,%fp@(-65)
    5a8c:	2806           	movel %d6,%d4
    5a8e:	7a01           	moveq #1,%d5
    5a90:	7ebf           	moveq #-65,%d7
    5a92:	de8e           	addl %fp,%d7
    5a94:	6000 eede      	braw 4974 <_vfprintf_r+0x908>
    5a98:	486e ff8c      	pea %fp@(-116)
    5a9c:	2f2e ff2c      	movel %fp@(-212),%sp@-
    5aa0:	2f2e ff30      	movel %fp@(-208),%sp@-
    5aa4:	4eb9 0000 5e38 	jsr 5e38 <__sprint_r>
    5aaa:	4fef 000c      	lea %sp@(12),%sp
    5aae:	4a80           	tstl %d0
    5ab0:	6600 e8c4      	bnew 4376 <_vfprintf_r+0x30a>
    5ab4:	246e ff94      	moveal %fp@(-108),%a2
    5ab8:	49ee ffc0      	lea %fp@(-64),%a4
    5abc:	4a82           	tstl %d2
    5abe:	6c00 f49c      	bgew 4f5c <_vfprintf_r+0xef0>
    5ac2:	6000 f7aa      	braw 526e <_vfprintf_r+0x1202>
    5ac6:	486e ff8c      	pea %fp@(-116)
    5aca:	2f2e ff2c      	movel %fp@(-212),%sp@-
    5ace:	2f2e ff30      	movel %fp@(-208),%sp@-
    5ad2:	4eb9 0000 5e38 	jsr 5e38 <__sprint_r>
    5ad8:	4fef 000c      	lea %sp@(12),%sp
    5adc:	4a80           	tstl %d0
    5ade:	6600 e896      	bnew 4376 <_vfprintf_r+0x30a>
    5ae2:	202e ff40      	movel %fp@(-192),%d0
    5ae6:	90ae ff74      	subl %fp@(-140),%d0
    5aea:	246e ff94      	moveal %fp@(-108),%a2
    5aee:	49ee ffc0      	lea %fp@(-64),%a4
    5af2:	4a82           	tstl %d2
    5af4:	6c00 f4ec      	bgew 4fe2 <_vfprintf_r+0xf76>
    5af8:	6000 f8a4      	braw 539e <_vfprintf_r+0x1332>
    5afc:	7406           	moveq #6,%d2
    5afe:	4a80           	tstl %d0
    5b00:	6c00 fa50      	bgew 5552 <_vfprintf_r+0x14e6>
    5b04:	6000 fcea      	braw 57f0 <_vfprintf_r+0x1784>
    5b08:	182e ff71      	moveb %fp@(-143),%d4
    5b0c:	3a44           	moveaw %d4,%a5
    5b0e:	2d42 ff28      	movel %d2,%fp@(-216)
    5b12:	2d4a ff38      	movel %a2,%fp@(-200)
    5b16:	2a02           	movel %d2,%d5
    5b18:	2806           	movel %d6,%d4
    5b1a:	7400           	moveq #0,%d2
    5b1c:	42ae ff3c      	clrl %fp@(-196)
    5b20:	320d           	movew %a5,%d1
    5b22:	4a01           	tstb %d1
    5b24:	6600 ea56      	bnew 457c <_vfprintf_r+0x510>
    5b28:	6000 ea56      	braw 4580 <_vfprintf_r+0x514>
    5b2c:	242e ff40      	movel %fp@(-192),%d2
    5b30:	b4ae ff3c      	cmpl %fp@(-196),%d2
    5b34:	6e00 00ac      	bgtw 5be2 <_vfprintf_r+0x1b76>
    5b38:	0806 0000      	btst #0,%d6
    5b3c:	6600 00c0      	bnew 5bfe <_vfprintf_r+0x1b92>
    5b40:	2d6e ff3c ff28 	movel %fp@(-196),%fp@(-216)
    5b46:	6b0c           	bmis 5b54 <_vfprintf_r+0x1ae8>
    5b48:	2a2e ff3c      	movel %fp@(-196),%d5
    5b4c:	367c 0067      	moveaw #103,%a3
    5b50:	6000 fc86      	braw 57d8 <_vfprintf_r+0x176c>
    5b54:	42ae ff28      	clrl %fp@(-216)
    5b58:	2a2e ff3c      	movel %fp@(-196),%d5
    5b5c:	367c 0067      	moveaw #103,%a3
    5b60:	6000 fc76      	braw 57d8 <_vfprintf_r+0x176c>
    5b64:	2a40           	moveal %d0,%a5
    5b66:	dbc2           	addal %d2,%a5
    5b68:	42a7           	clrl %sp@-
    5b6a:	42a7           	clrl %sp@-
    5b6c:	2f2e ff6c      	movel %fp@(-148),%sp@-
    5b70:	2f2e ff68      	movel %fp@(-152),%sp@-
    5b74:	4eb9 0000 ff10 	jsr ff10 <__eqdf2>
    5b7a:	4fef 0010      	lea %sp@(16),%sp
    5b7e:	4a80           	tstl %d0
    5b80:	6600 fa4a      	bnew 55cc <_vfprintf_r+0x1560>
    5b84:	6000 fc12      	braw 5798 <_vfprintf_r+0x172c>
    5b88:	7245           	moveq #69,%d1
    5b8a:	b285           	cmpl %d5,%d1
    5b8c:	6600 fc9c      	bnew 582a <_vfprintf_r+0x17be>
    5b90:	2442           	moveal %d2,%a2
    5b92:	528a           	addql #1,%a2
    5b94:	7002           	moveq #2,%d0
    5b96:	6000 f9d6      	braw 556e <_vfprintf_r+0x1502>
    5b9a:	1d7c 0030 ff7e 	moveb #48,%fp@(-130)
    5ba0:	0605 0030      	addib #48,%d5
    5ba4:	1d45 ff7f      	moveb %d5,%fp@(-129)
    5ba8:	307c 0004      	moveaw #4,%a0
    5bac:	2d48 ff54      	movel %a0,%fp@(-172)
    5bb0:	2a2e ff40      	movel %fp@(-192),%d5
    5bb4:	daae ff54      	addl %fp@(-172),%d5
    5bb8:	7001           	moveq #1,%d0
    5bba:	b0ae ff40      	cmpl %fp@(-192),%d0
    5bbe:	6d00 fd52      	bltw 5912 <_vfprintf_r+0x18a6>
    5bc2:	6000 fdfa      	braw 59be <_vfprintf_r+0x1952>
    5bc6:	4a81           	tstl %d1
    5bc8:	6d00 00e4      	bltw 5cae <_vfprintf_r+0x1c42>
    5bcc:	2d6e ff44 ff68 	movel %fp@(-188),%fp@(-152)
    5bd2:	2d6e ff48 ff6c 	movel %fp@(-184),%fp@(-148)
    5bd8:	422e ff5c      	clrb %fp@(-164)
    5bdc:	7401           	moveq #1,%d2
    5bde:	6000 fc4a      	braw 582a <_vfprintf_r+0x17be>
    5be2:	2a2e ff40      	movel %fp@(-192),%d5
    5be6:	daae ff4c      	addl %fp@(-180),%d5
    5bea:	4aae ff3c      	tstl %fp@(-196)
    5bee:	6f28           	bles 5c18 <_vfprintf_r+0x1bac>
    5bf0:	2d45 ff28      	movel %d5,%fp@(-216)
    5bf4:	6b16           	bmis 5c0c <_vfprintf_r+0x1ba0>
    5bf6:	367c 0067      	moveaw #103,%a3
    5bfa:	6000 fbdc      	braw 57d8 <_vfprintf_r+0x176c>
    5bfe:	2a2e ff3c      	movel %fp@(-196),%d5
    5c02:	daae ff4c      	addl %fp@(-180),%d5
    5c06:	2d45 ff28      	movel %d5,%fp@(-216)
    5c0a:	6aea           	bpls 5bf6 <_vfprintf_r+0x1b8a>
    5c0c:	42ae ff28      	clrl %fp@(-216)
    5c10:	367c 0067      	moveaw #103,%a3
    5c14:	6000 fbc2      	braw 57d8 <_vfprintf_r+0x176c>
    5c18:	7001           	moveq #1,%d0
    5c1a:	90ae ff3c      	subl %fp@(-196),%d0
    5c1e:	da80           	addl %d0,%d5
    5c20:	2d45 ff28      	movel %d5,%fp@(-216)
    5c24:	6ad0           	bpls 5bf6 <_vfprintf_r+0x1b8a>
    5c26:	60e4           	bras 5c0c <_vfprintf_r+0x1ba0>
    5c28:	42a7           	clrl %sp@-
    5c2a:	42a7           	clrl %sp@-
    5c2c:	2f2e ff6c      	movel %fp@(-148),%sp@-
    5c30:	2f2e ff68      	movel %fp@(-152),%sp@-
    5c34:	4eb9 0000 ff34 	jsr ff34 <__nedf2>
    5c3a:	4fef 0010      	lea %sp@(16),%sp
    5c3e:	4a80           	tstl %d0
    5c40:	6600 00d4      	bnew 5d16 <_vfprintf_r+0x1caa>
    5c44:	2d6e ff74 ff3c 	movel %fp@(-140),%fp@(-196)
    5c4a:	202e ff3c      	movel %fp@(-196),%d0
    5c4e:	d08d           	addl %a5,%d0
    5c50:	9087           	subl %d7,%d0
    5c52:	2d40 ff40      	movel %d0,%fp@(-192)
    5c56:	6000 fb5e      	braw 57b6 <_vfprintf_r+0x174a>
    5c5a:	4aae ff44      	tstl %fp@(-188)
    5c5e:	6d00 00a8      	bltw 5d08 <_vfprintf_r+0x1c9c>
    5c62:	1e2e ff71      	moveb %fp@(-143),%d7
    5c66:	3a47           	moveaw %d7,%a5
    5c68:	7047           	moveq #71,%d0
    5c6a:	b08b           	cmpl %a3,%d0
    5c6c:	6d7e           	blts 5cec <_vfprintf_r+0x1c80>
    5c6e:	2e3c 0001 09d4 	movel #68052,%d7
    5c74:	7880           	moveq #-128,%d4
    5c76:	4604           	notb %d4
    5c78:	c886           	andl %d6,%d4
    5c7a:	7203           	moveq #3,%d1
    5c7c:	2d41 ff28      	movel %d1,%fp@(-216)
    5c80:	7a03           	moveq #3,%d5
    5c82:	7400           	moveq #0,%d2
    5c84:	42ae ff3c      	clrl %fp@(-196)
    5c88:	320d           	movew %a5,%d1
    5c8a:	4a01           	tstb %d1
    5c8c:	6600 e8ee      	bnew 457c <_vfprintf_r+0x510>
    5c90:	6000 e8ee      	braw 4580 <_vfprintf_r+0x514>
    5c94:	0680 8000 0000 	addil #-2147483648,%d0
    5c9a:	2d40 ff68      	movel %d0,%fp@(-152)
    5c9e:	2d6e ff48 ff6c 	movel %fp@(-184),%fp@(-148)
    5ca4:	1d7c 002d ff5c 	moveb #45,%fp@(-164)
    5caa:	6000 fb7e      	braw 582a <_vfprintf_r+0x17be>
    5cae:	222e ff44      	movel %fp@(-188),%d1
    5cb2:	0681 8000 0000 	addil #-2147483648,%d1
    5cb8:	2d41 ff68      	movel %d1,%fp@(-152)
    5cbc:	2d6e ff48 ff6c 	movel %fp@(-184),%fp@(-148)
    5cc2:	1d7c 002d ff5c 	moveb #45,%fp@(-164)
    5cc8:	7401           	moveq #1,%d2
    5cca:	6000 fb5e      	braw 582a <_vfprintf_r+0x17be>
    5cce:	d4ae ff3c      	addl %fp@(-196),%d2
    5cd2:	2a02           	movel %d2,%d5
    5cd4:	daae ff4c      	addl %fp@(-180),%d5
    5cd8:	2d45 ff28      	movel %d5,%fp@(-216)
    5cdc:	6a00 faf6      	bplw 57d4 <_vfprintf_r+0x1768>
    5ce0:	42ae ff28      	clrl %fp@(-216)
    5ce4:	367c 0066      	moveaw #102,%a3
    5ce8:	6000 faee      	braw 57d8 <_vfprintf_r+0x176c>
    5cec:	2e3c 0001 09d8 	movel #68056,%d7
    5cf2:	7880           	moveq #-128,%d4
    5cf4:	4604           	notb %d4
    5cf6:	c886           	andl %d6,%d4
    5cf8:	7203           	moveq #3,%d1
    5cfa:	2d41 ff28      	movel %d1,%fp@(-216)
    5cfe:	7a03           	moveq #3,%d5
    5d00:	7400           	moveq #0,%d2
    5d02:	42ae ff3c      	clrl %fp@(-196)
    5d06:	6080           	bras 5c88 <_vfprintf_r+0x1c1c>
    5d08:	1d7c 002d ff71 	moveb #45,%fp@(-143)
    5d0e:	3a7c 002d      	moveaw #45,%a5
    5d12:	6000 ff54      	braw 5c68 <_vfprintf_r+0x1bfc>
    5d16:	7001           	moveq #1,%d0
    5d18:	908a           	subl %a2,%d0
    5d1a:	2d40 ff74      	movel %d0,%fp@(-140)
    5d1e:	dbc0           	addal %d0,%a5
    5d20:	6000 f88e      	braw 55b0 <_vfprintf_r+0x1544>
    5d24:	327c 0002      	moveaw #2,%a1
    5d28:	2d49 ff54      	movel %a1,%fp@(-172)
    5d2c:	2a2e ff40      	movel %fp@(-192),%d5
    5d30:	daae ff54      	addl %fp@(-172),%d5
    5d34:	7001           	moveq #1,%d0
    5d36:	b0ae ff40      	cmpl %fp@(-192),%d0
    5d3a:	6d00 fbd6      	bltw 5912 <_vfprintf_r+0x18a6>
    5d3e:	6000 fc7e      	braw 59be <_vfprintf_r+0x1952>
    5d42:	4a80           	tstl %d0
    5d44:	6610           	bnes 5d56 <_vfprintf_r+0x1cea>
    5d46:	7201           	moveq #1,%d1
    5d48:	2d41 ff28      	movel %d1,%fp@(-216)
    5d4c:	367c 0066      	moveaw #102,%a3
    5d50:	7a01           	moveq #1,%d5
    5d52:	6000 fa84      	braw 57d8 <_vfprintf_r+0x176c>
    5d56:	206e ff4c      	moveal %fp@(-180),%a0
    5d5a:	41f0 2801      	lea %a0@(1,%d2:l),%a0
    5d5e:	2a08           	movel %a0,%d5
    5d60:	2d48 ff28      	movel %a0,%fp@(-216)
    5d64:	6b00 ff7a      	bmiw 5ce0 <_vfprintf_r+0x1c74>
    5d68:	367c 0066      	moveaw #102,%a3
    5d6c:	6000 fa6a      	braw 57d8 <_vfprintf_r+0x176c>

00005d70 <vfprintf>:
    5d70:	2f2f 000c      	movel %sp@(12),%sp@-
    5d74:	2f2f 000c      	movel %sp@(12),%sp@-
    5d78:	2f2f 000c      	movel %sp@(12),%sp@-
    5d7c:	2f39 0001 2d8c 	movel 12d8c <_impure_ptr>,%sp@-
    5d82:	4eb9 0000 406c 	jsr 406c <_vfprintf_r>
    5d88:	4fef 0010      	lea %sp@(16),%sp
    5d8c:	4e75           	rts

00005d8e <__sbprintf>:
    5d8e:	4fef fb98      	lea %sp@(-1128),%sp
    5d92:	48e7 3820      	moveml %d2-%d4/%a2,%sp@-
    5d96:	262f 047c      	movel %sp@(1148),%d3
    5d9a:	246f 0480      	moveal %sp@(1152),%a2
    5d9e:	302a 000c      	movew %a2@(12),%d0
    5da2:	0240 fffd      	andiw #-3,%d0
    5da6:	3f40 001c      	movew %d0,%sp@(28)
    5daa:	2f6a 0064 0074 	movel %a2@(100),%sp@(116)
    5db0:	3f6a 000e 001e 	movew %a2@(14),%sp@(30)
    5db6:	2f6a 001c 002c 	movel %a2@(28),%sp@(44)
    5dbc:	2f6a 0024 0034 	movel %a2@(36),%sp@(52)
    5dc2:	7078           	moveq #120,%d0
    5dc4:	d08f           	addl %sp,%d0
    5dc6:	2f40 0010      	movel %d0,%sp@(16)
    5dca:	7078           	moveq #120,%d0
    5dcc:	d08f           	addl %sp,%d0
    5dce:	2f40 0020      	movel %d0,%sp@(32)
    5dd2:	2f7c 0000 0400 	movel #1024,%sp@(24)
    5dd8:	0018 
    5dda:	2f7c 0000 0400 	movel #1024,%sp@(36)
    5de0:	0024 
    5de2:	42af 0028      	clrl %sp@(40)
    5de6:	2f2f 0488      	movel %sp@(1160),%sp@-
    5dea:	2f2f 0488      	movel %sp@(1160),%sp@-
    5dee:	7818           	moveq #24,%d4
    5df0:	d88f           	addl %sp,%d4
    5df2:	2f04           	movel %d4,%sp@-
    5df4:	2f03           	movel %d3,%sp@-
    5df6:	4eb9 0000 406c 	jsr 406c <_vfprintf_r>
    5dfc:	2400           	movel %d0,%d2
    5dfe:	4fef 0010      	lea %sp@(16),%sp
    5e02:	6a1a           	bpls 5e1e <__sbprintf+0x90>
    5e04:	082f 0006 001d 	btst #6,%sp@(29)
    5e0a:	6706           	beqs 5e12 <__sbprintf+0x84>
    5e0c:	006a 0040 000c 	oriw #64,%a2@(12)
    5e12:	2002           	movel %d2,%d0
    5e14:	4cdf 041c      	moveml %sp@+,%d2-%d4/%a2
    5e18:	4fef 0468      	lea %sp@(1128),%sp
    5e1c:	4e75           	rts
    5e1e:	2f04           	movel %d4,%sp@-
    5e20:	2f03           	movel %d3,%sp@-
    5e22:	4eb9 0000 6116 	jsr 6116 <_fflush_r>
    5e28:	508f           	addql #8,%sp
    5e2a:	4a80           	tstl %d0
    5e2c:	67d6           	beqs 5e04 <__sbprintf+0x76>
    5e2e:	74ff           	moveq #-1,%d2
    5e30:	60d2           	bras 5e04 <__sbprintf+0x76>
	...

00005e34 <__malloc_lock>:
    5e34:	4e75           	rts

00005e36 <__malloc_unlock>:
    5e36:	4e75           	rts

00005e38 <__sprint_r>:
    5e38:	2f0a           	movel %a2,%sp@-
    5e3a:	246f 0010      	moveal %sp@(16),%a2
    5e3e:	4aaa 0008      	tstl %a2@(8)
    5e42:	660a           	bnes 5e4e <__sprint_r+0x16>
    5e44:	7000           	moveq #0,%d0
    5e46:	42aa 0004      	clrl %a2@(4)
    5e4a:	245f           	moveal %sp@+,%a2
    5e4c:	4e75           	rts
    5e4e:	2f0a           	movel %a2,%sp@-
    5e50:	2f2f 0010      	movel %sp@(16),%sp@-
    5e54:	2f2f 0010      	movel %sp@(16),%sp@-
    5e58:	4eb9 0000 62e4 	jsr 62e4 <__sfvwrite_r>
    5e5e:	42aa 0008      	clrl %a2@(8)
    5e62:	4fef 000c      	lea %sp@(12),%sp
    5e66:	42aa 0004      	clrl %a2@(4)
    5e6a:	245f           	moveal %sp@+,%a2
    5e6c:	4e75           	rts
	...

00005e70 <_fclose_r>:
    5e70:	48e7 2030      	moveml %d2/%a2-%a3,%sp@-
    5e74:	266f 0010      	moveal %sp@(16),%a3
    5e78:	246f 0014      	moveal %sp@(20),%a2
    5e7c:	b4fc 0000      	cmpaw #0,%a2
    5e80:	6714           	beqs 5e96 <_fclose_r+0x26>
    5e82:	b6fc 0000      	cmpaw #0,%a3
    5e86:	6708           	beqs 5e90 <_fclose_r+0x20>
    5e88:	4aab 0032      	tstl %a3@(50)
    5e8c:	6700 00a4      	beqw 5f32 <_fclose_r+0xc2>
    5e90:	4a6a 000c      	tstw %a2@(12)
    5e94:	660a           	bnes 5ea0 <_fclose_r+0x30>
    5e96:	7400           	moveq #0,%d2
    5e98:	2002           	movel %d2,%d0
    5e9a:	4cdf 0c04      	moveml %sp@+,%d2/%a2-%a3
    5e9e:	4e75           	rts
    5ea0:	2f0a           	movel %a2,%sp@-
    5ea2:	2f0b           	movel %a3,%sp@-
    5ea4:	4eb9 0000 5f5c 	jsr 5f5c <__sflush_r>
    5eaa:	2400           	movel %d0,%d2
    5eac:	206a 002c      	moveal %a2@(44),%a0
    5eb0:	508f           	addql #8,%sp
    5eb2:	b0fc 0000      	cmpaw #0,%a0
    5eb6:	670e           	beqs 5ec6 <_fclose_r+0x56>
    5eb8:	2f2a 001c      	movel %a2@(28),%sp@-
    5ebc:	2f0b           	movel %a3,%sp@-
    5ebe:	4e90           	jsr %a0@
    5ec0:	508f           	addql #8,%sp
    5ec2:	4a80           	tstl %d0
    5ec4:	6d62           	blts 5f28 <_fclose_r+0xb8>
    5ec6:	4a2a 000d      	tstb %a2@(13)
    5eca:	6b4c           	bmis 5f18 <_fclose_r+0xa8>
    5ecc:	202a 0030      	movel %a2@(48),%d0
    5ed0:	6718           	beqs 5eea <_fclose_r+0x7a>
    5ed2:	41ea 0040      	lea %a2@(64),%a0
    5ed6:	b1c0           	cmpal %d0,%a0
    5ed8:	670c           	beqs 5ee6 <_fclose_r+0x76>
    5eda:	2f00           	movel %d0,%sp@-
    5edc:	2f0b           	movel %a3,%sp@-
    5ede:	4eb9 0000 878a 	jsr 878a <_free_r>
    5ee4:	508f           	addql #8,%sp
    5ee6:	42aa 0030      	clrl %a2@(48)
    5eea:	202a 0044      	movel %a2@(68),%d0
    5eee:	6710           	beqs 5f00 <_fclose_r+0x90>
    5ef0:	2f00           	movel %d0,%sp@-
    5ef2:	2f0b           	movel %a3,%sp@-
    5ef4:	4eb9 0000 878a 	jsr 878a <_free_r>
    5efa:	42aa 0044      	clrl %a2@(68)
    5efe:	508f           	addql #8,%sp
    5f00:	4eb9 0000 35ce 	jsr 35ce <__sfp_lock_acquire>
    5f06:	426a 000c      	clrw %a2@(12)
    5f0a:	4eb9 0000 35d0 	jsr 35d0 <__sfp_lock_release>
    5f10:	2002           	movel %d2,%d0
    5f12:	4cdf 0c04      	moveml %sp@+,%d2/%a2-%a3
    5f16:	4e75           	rts
    5f18:	2f2a 0010      	movel %a2@(16),%sp@-
    5f1c:	2f0b           	movel %a3,%sp@-
    5f1e:	4eb9 0000 878a 	jsr 878a <_free_r>
    5f24:	508f           	addql #8,%sp
    5f26:	60a4           	bras 5ecc <_fclose_r+0x5c>
    5f28:	74ff           	moveq #-1,%d2
    5f2a:	4a2a 000d      	tstb %a2@(13)
    5f2e:	6a9c           	bpls 5ecc <_fclose_r+0x5c>
    5f30:	60e6           	bras 5f18 <_fclose_r+0xa8>
    5f32:	2f0b           	movel %a3,%sp@-
    5f34:	4eb9 0000 35ac 	jsr 35ac <__sinit>
    5f3a:	588f           	addql #4,%sp
    5f3c:	4a6a 000c      	tstw %a2@(12)
    5f40:	6700 ff54      	beqw 5e96 <_fclose_r+0x26>
    5f44:	6000 ff5a      	braw 5ea0 <_fclose_r+0x30>

00005f48 <fclose>:
    5f48:	2f2f 0004      	movel %sp@(4),%sp@-
    5f4c:	2f39 0001 2d8c 	movel 12d8c <_impure_ptr>,%sp@-
    5f52:	4eb9 0000 5e70 	jsr 5e70 <_fclose_r>
    5f58:	508f           	addql #8,%sp
    5f5a:	4e75           	rts

00005f5c <__sflush_r>:
    5f5c:	48e7 3830      	moveml %d2-%d4/%a2-%a3,%sp@-
    5f60:	266f 0018      	moveal %sp@(24),%a3
    5f64:	246f 001c      	moveal %sp@(28),%a2
    5f68:	322a 000c      	movew %a2@(12),%d1
    5f6c:	0801 0003      	btst #3,%d1
    5f70:	6600 00c0      	bnew 6032 <__sflush_r+0xd6>
    5f74:	3401           	movew %d1,%d2
    5f76:	0042 0800      	oriw #2048,%d2
    5f7a:	3542 000c      	movew %d2,%a2@(12)
    5f7e:	4aaa 0004      	tstl %a2@(4)
    5f82:	6f00 0118      	blew 609c <__sflush_r+0x140>
    5f86:	206a 0028      	moveal %a2@(40),%a0
    5f8a:	b0fc 0000      	cmpaw #0,%a0
    5f8e:	6700 009a      	beqw 602a <__sflush_r+0xce>
    5f92:	2613           	movel %a3@,%d3
    5f94:	4293           	clrl %a3@
    5f96:	202a 001c      	movel %a2@(28),%d0
    5f9a:	0801 000c      	btst #12,%d1
    5f9e:	6700 0116      	beqw 60b6 <__sflush_r+0x15a>
    5fa2:	202a 0050      	movel %a2@(80),%d0
    5fa6:	0802 0002      	btst #2,%d2
    5faa:	670e           	beqs 5fba <__sflush_r+0x5e>
    5fac:	90aa 0004      	subl %a2@(4),%d0
    5fb0:	4aaa 0030      	tstl %a2@(48)
    5fb4:	6704           	beqs 5fba <__sflush_r+0x5e>
    5fb6:	90aa 003c      	subl %a2@(60),%d0
    5fba:	42a7           	clrl %sp@-
    5fbc:	2f00           	movel %d0,%sp@-
    5fbe:	2f2a 001c      	movel %a2@(28),%sp@-
    5fc2:	2f0b           	movel %a3,%sp@-
    5fc4:	4e90           	jsr %a0@
    5fc6:	4fef 0010      	lea %sp@(16),%sp
    5fca:	72ff           	moveq #-1,%d1
    5fcc:	b280           	cmpl %d0,%d1
    5fce:	6600 0120      	bnew 60f0 <__sflush_r+0x194>
    5fd2:	2413           	movel %a3@,%d2
    5fd4:	322a 000c      	movew %a2@(12),%d1
    5fd8:	781d           	moveq #29,%d4
    5fda:	b882           	cmpl %d2,%d4
    5fdc:	6500 00ae      	bcsw 608c <__sflush_r+0x130>
    5fe0:	283c 2040 0001 	movel #541065217,%d4
    5fe6:	0504           	btst %d2,%d4
    5fe8:	6700 00a2      	beqw 608c <__sflush_r+0x130>
    5fec:	3801           	movew %d1,%d4
    5fee:	0244 f7ff      	andiw #-2049,%d4
    5ff2:	3544 000c      	movew %d4,%a2@(12)
    5ff6:	42aa 0004      	clrl %a2@(4)
    5ffa:	24aa 0010      	movel %a2@(16),%a2@
    5ffe:	0801 000c      	btst #12,%d1
    6002:	6706           	beqs 600a <__sflush_r+0xae>
    6004:	4a82           	tstl %d2
    6006:	6700 0106      	beqw 610e <__sflush_r+0x1b2>
    600a:	2683           	movel %d3,%a3@
    600c:	202a 0030      	movel %a2@(48),%d0
    6010:	6718           	beqs 602a <__sflush_r+0xce>
    6012:	41ea 0040      	lea %a2@(64),%a0
    6016:	b1c0           	cmpal %d0,%a0
    6018:	670c           	beqs 6026 <__sflush_r+0xca>
    601a:	2f00           	movel %d0,%sp@-
    601c:	2f0b           	movel %a3,%sp@-
    601e:	4eb9 0000 878a 	jsr 878a <_free_r>
    6024:	508f           	addql #8,%sp
    6026:	42aa 0030      	clrl %a2@(48)
    602a:	7000           	moveq #0,%d0
    602c:	4cdf 0c1c      	moveml %sp@+,%d2-%d4/%a2-%a3
    6030:	4e75           	rts
    6032:	262a 0010      	movel %a2@(16),%d3
    6036:	67f2           	beqs 602a <__sflush_r+0xce>
    6038:	2412           	movel %a2@,%d2
    603a:	9483           	subl %d3,%d2
    603c:	2483           	movel %d3,%a2@
    603e:	0241 0003      	andiw #3,%d1
    6042:	6664           	bnes 60a8 <__sflush_r+0x14c>
    6044:	202a 0014      	movel %a2@(20),%d0
    6048:	2540 0008      	movel %d0,%a2@(8)
    604c:	4a82           	tstl %d2
    604e:	6fda           	bles 602a <__sflush_r+0xce>
    6050:	2f02           	movel %d2,%sp@-
    6052:	2f03           	movel %d3,%sp@-
    6054:	2f2a 001c      	movel %a2@(28),%sp@-
    6058:	2f0b           	movel %a3,%sp@-
    605a:	206a 0024      	moveal %a2@(36),%a0
    605e:	4e90           	jsr %a0@
    6060:	4fef 0010      	lea %sp@(16),%sp
    6064:	4a80           	tstl %d0
    6066:	6f20           	bles 6088 <__sflush_r+0x12c>
    6068:	d680           	addl %d0,%d3
    606a:	9480           	subl %d0,%d2
    606c:	4a82           	tstl %d2
    606e:	6fba           	bles 602a <__sflush_r+0xce>
    6070:	2f02           	movel %d2,%sp@-
    6072:	2f03           	movel %d3,%sp@-
    6074:	2f2a 001c      	movel %a2@(28),%sp@-
    6078:	2f0b           	movel %a3,%sp@-
    607a:	206a 0024      	moveal %a2@(36),%a0
    607e:	4e90           	jsr %a0@
    6080:	4fef 0010      	lea %sp@(16),%sp
    6084:	4a80           	tstl %d0
    6086:	6ee0           	bgts 6068 <__sflush_r+0x10c>
    6088:	322a 000c      	movew %a2@(12),%d1
    608c:	0041 0040      	oriw #64,%d1
    6090:	3541 000c      	movew %d1,%a2@(12)
    6094:	70ff           	moveq #-1,%d0
    6096:	4cdf 0c1c      	moveml %sp@+,%d2-%d4/%a2-%a3
    609a:	4e75           	rts
    609c:	4aaa 003c      	tstl %a2@(60)
    60a0:	6e00 fee4      	bgtw 5f86 <__sflush_r+0x2a>
    60a4:	7000           	moveq #0,%d0
    60a6:	6084           	bras 602c <__sflush_r+0xd0>
    60a8:	7000           	moveq #0,%d0
    60aa:	2540 0008      	movel %d0,%a2@(8)
    60ae:	4a82           	tstl %d2
    60b0:	6e9e           	bgts 6050 <__sflush_r+0xf4>
    60b2:	6000 ff76      	braw 602a <__sflush_r+0xce>
    60b6:	4878 0001      	pea 1 <ADD>
    60ba:	42a7           	clrl %sp@-
    60bc:	2f00           	movel %d0,%sp@-
    60be:	2f0b           	movel %a3,%sp@-
    60c0:	4e90           	jsr %a0@
    60c2:	4fef 0010      	lea %sp@(16),%sp
    60c6:	72ff           	moveq #-1,%d1
    60c8:	b280           	cmpl %d0,%d1
    60ca:	670c           	beqs 60d8 <__sflush_r+0x17c>
    60cc:	342a 000c      	movew %a2@(12),%d2
    60d0:	206a 0028      	moveal %a2@(40),%a0
    60d4:	6000 fed0      	braw 5fa6 <__sflush_r+0x4a>
    60d8:	2213           	movel %a3@,%d1
    60da:	67f0           	beqs 60cc <__sflush_r+0x170>
    60dc:	741d           	moveq #29,%d2
    60de:	b481           	cmpl %d1,%d2
    60e0:	6706           	beqs 60e8 <__sflush_r+0x18c>
    60e2:	7816           	moveq #22,%d4
    60e4:	b881           	cmpl %d1,%d4
    60e6:	66a0           	bnes 6088 <__sflush_r+0x12c>
    60e8:	2683           	movel %d3,%a3@
    60ea:	7000           	moveq #0,%d0
    60ec:	6000 ff3e      	braw 602c <__sflush_r+0xd0>
    60f0:	322a 000c      	movew %a2@(12),%d1
    60f4:	3401           	movew %d1,%d2
    60f6:	0242 f7ff      	andiw #-2049,%d2
    60fa:	3542 000c      	movew %d2,%a2@(12)
    60fe:	42aa 0004      	clrl %a2@(4)
    6102:	24aa 0010      	movel %a2@(16),%a2@
    6106:	0801 000c      	btst #12,%d1
    610a:	6700 fefe      	beqw 600a <__sflush_r+0xae>
    610e:	2540 0050      	movel %d0,%a2@(80)
    6112:	6000 fef6      	braw 600a <__sflush_r+0xae>

00006116 <_fflush_r>:
    6116:	2f0b           	movel %a3,%sp@-
    6118:	2f0a           	movel %a2,%sp@-
    611a:	246f 000c      	moveal %sp@(12),%a2
    611e:	266f 0010      	moveal %sp@(16),%a3
    6122:	b4fc 0000      	cmpaw #0,%a2
    6126:	6706           	beqs 612e <_fflush_r+0x18>
    6128:	4aaa 0032      	tstl %a2@(50)
    612c:	6720           	beqs 614e <_fflush_r+0x38>
    612e:	4a6b 000c      	tstw %a3@(12)
    6132:	6608           	bnes 613c <_fflush_r+0x26>
    6134:	7000           	moveq #0,%d0
    6136:	245f           	moveal %sp@+,%a2
    6138:	265f           	moveal %sp@+,%a3
    613a:	4e75           	rts
    613c:	2f4b 0010      	movel %a3,%sp@(16)
    6140:	2f4a 000c      	movel %a2,%sp@(12)
    6144:	245f           	moveal %sp@+,%a2
    6146:	265f           	moveal %sp@+,%a3
    6148:	4ef9 0000 5f5c 	jmp 5f5c <__sflush_r>
    614e:	2f0a           	movel %a2,%sp@-
    6150:	4eb9 0000 35ac 	jsr 35ac <__sinit>
    6156:	588f           	addql #4,%sp
    6158:	60d4           	bras 612e <_fflush_r+0x18>

0000615a <fflush>:
    615a:	2f0b           	movel %a3,%sp@-
    615c:	2f0a           	movel %a2,%sp@-
    615e:	246f 000c      	moveal %sp@(12),%a2
    6162:	b4fc 0000      	cmpaw #0,%a2
    6166:	6744           	beqs 61ac <fflush+0x52>
    6168:	2679 0001 2d8c 	moveal 12d8c <_impure_ptr>,%a3
    616e:	b6fc 0000      	cmpaw #0,%a3
    6172:	6706           	beqs 617a <fflush+0x20>
    6174:	4aab 0032      	tstl %a3@(50)
    6178:	6720           	beqs 619a <fflush+0x40>
    617a:	4a6a 000c      	tstw %a2@(12)
    617e:	6608           	bnes 6188 <fflush+0x2e>
    6180:	7000           	moveq #0,%d0
    6182:	245f           	moveal %sp@+,%a2
    6184:	265f           	moveal %sp@+,%a3
    6186:	4e75           	rts
    6188:	2f0a           	movel %a2,%sp@-
    618a:	2f0b           	movel %a3,%sp@-
    618c:	4eb9 0000 5f5c 	jsr 5f5c <__sflush_r>
    6192:	508f           	addql #8,%sp
    6194:	245f           	moveal %sp@+,%a2
    6196:	265f           	moveal %sp@+,%a3
    6198:	4e75           	rts
    619a:	2f0b           	movel %a3,%sp@-
    619c:	4eb9 0000 35ac 	jsr 35ac <__sinit>
    61a2:	588f           	addql #4,%sp
    61a4:	4a6a 000c      	tstw %a2@(12)
    61a8:	67d6           	beqs 6180 <fflush+0x26>
    61aa:	60dc           	bras 6188 <fflush+0x2e>
    61ac:	4879 0001 2d80 	pea 12d80 <__sglue>
    61b2:	4879 0000 6116 	pea 6116 <_fflush_r>
    61b8:	4879 0001 2d90 	pea 12d90 <_impure_data>
    61be:	4eb9 0000 3608 	jsr 3608 <_fwalk_sglue>
    61c4:	4fef 000c      	lea %sp@(12),%sp
    61c8:	245f           	moveal %sp@+,%a2
    61ca:	265f           	moveal %sp@+,%a3
    61cc:	4e75           	rts
	...

000061d0 <__sread>:
    61d0:	2f0a           	movel %a2,%sp@-
    61d2:	246f 000c      	moveal %sp@(12),%a2
    61d6:	2f2f 0014      	movel %sp@(20),%sp@-
    61da:	2f2f 0014      	movel %sp@(20),%sp@-
    61de:	306a 000e      	moveaw %a2@(14),%a0
    61e2:	2f08           	movel %a0,%sp@-
    61e4:	2f2f 0014      	movel %sp@(20),%sp@-
    61e8:	4eb9 0000 6a8c 	jsr 6a8c <_read_r>
    61ee:	4fef 0010      	lea %sp@(16),%sp
    61f2:	4a80           	tstl %d0
    61f4:	6d08           	blts 61fe <__sread+0x2e>
    61f6:	d1aa 0050      	addl %d0,%a2@(80)
    61fa:	245f           	moveal %sp@+,%a2
    61fc:	4e75           	rts
    61fe:	026a efff 000c 	andiw #-4097,%a2@(12)
    6204:	245f           	moveal %sp@+,%a2
    6206:	4e75           	rts

00006208 <__seofread>:
    6208:	7000           	moveq #0,%d0
    620a:	4e75           	rts

0000620c <__swrite>:
    620c:	48e7 3820      	moveml %d2-%d4/%a2,%sp@-
    6210:	242f 0014      	movel %sp@(20),%d2
    6214:	246f 0018      	moveal %sp@(24),%a2
    6218:	262f 001c      	movel %sp@(28),%d3
    621c:	282f 0020      	movel %sp@(32),%d4
    6220:	302a 000c      	movew %a2@(12),%d0
    6224:	0800 0008      	btst #8,%d0
    6228:	6626           	bnes 6250 <__swrite+0x44>
    622a:	0240 efff      	andiw #-4097,%d0
    622e:	3540 000c      	movew %d0,%a2@(12)
    6232:	2f44 0020      	movel %d4,%sp@(32)
    6236:	2f43 001c      	movel %d3,%sp@(28)
    623a:	346a 000e      	moveaw %a2@(14),%a2
    623e:	2f4a 0018      	movel %a2,%sp@(24)
    6242:	2f42 0014      	movel %d2,%sp@(20)
    6246:	4cdf 041c      	moveml %sp@+,%d2-%d4/%a2
    624a:	4ef9 0000 6aec 	jmp 6aec <_write_r>
    6250:	4878 0002      	pea 2 <DOUBLE_FLOAT>
    6254:	42a7           	clrl %sp@-
    6256:	306a 000e      	moveaw %a2@(14),%a0
    625a:	2f08           	movel %a0,%sp@-
    625c:	2f02           	movel %d2,%sp@-
    625e:	4eb9 0000 6a58 	jsr 6a58 <_lseek_r>
    6264:	302a 000c      	movew %a2@(12),%d0
    6268:	4fef 0010      	lea %sp@(16),%sp
    626c:	0240 efff      	andiw #-4097,%d0
    6270:	3540 000c      	movew %d0,%a2@(12)
    6274:	2f44 0020      	movel %d4,%sp@(32)
    6278:	2f43 001c      	movel %d3,%sp@(28)
    627c:	346a 000e      	moveaw %a2@(14),%a2
    6280:	2f4a 0018      	movel %a2,%sp@(24)
    6284:	2f42 0014      	movel %d2,%sp@(20)
    6288:	4cdf 041c      	moveml %sp@+,%d2-%d4/%a2
    628c:	4ef9 0000 6aec 	jmp 6aec <_write_r>

00006292 <__sseek>:
    6292:	2f0a           	movel %a2,%sp@-
    6294:	246f 000c      	moveal %sp@(12),%a2
    6298:	2f2f 0014      	movel %sp@(20),%sp@-
    629c:	2f2f 0014      	movel %sp@(20),%sp@-
    62a0:	306a 000e      	moveaw %a2@(14),%a0
    62a4:	2f08           	movel %a0,%sp@-
    62a6:	2f2f 0014      	movel %sp@(20),%sp@-
    62aa:	4eb9 0000 6a58 	jsr 6a58 <_lseek_r>
    62b0:	4fef 0010      	lea %sp@(16),%sp
    62b4:	72ff           	moveq #-1,%d1
    62b6:	b280           	cmpl %d0,%d1
    62b8:	670e           	beqs 62c8 <__sseek+0x36>
    62ba:	006a 1000 000c 	oriw #4096,%a2@(12)
    62c0:	2540 0050      	movel %d0,%a2@(80)
    62c4:	245f           	moveal %sp@+,%a2
    62c6:	4e75           	rts
    62c8:	026a efff 000c 	andiw #-4097,%a2@(12)
    62ce:	245f           	moveal %sp@+,%a2
    62d0:	4e75           	rts

000062d2 <__sclose>:
    62d2:	206f 0008      	moveal %sp@(8),%a0
    62d6:	3068 000e      	moveaw %a0@(14),%a0
    62da:	2f48 0008      	movel %a0,%sp@(8)
    62de:	4ef9 0000 6974 	jmp 6974 <_close_r>

000062e4 <__sfvwrite_r>:
    62e4:	48e7 3f3e      	moveml %d2-%d7/%a2-%fp,%sp@-
    62e8:	2c6f 0030      	moveal %sp@(48),%fp
    62ec:	246f 0034      	moveal %sp@(52),%a2
    62f0:	2a6f 0038      	moveal %sp@(56),%a5
    62f4:	4aad 0008      	tstl %a5@(8)
    62f8:	6700 00fa      	beqw 63f4 <__sfvwrite_r+0x110>
    62fc:	302a 000c      	movew %a2@(12),%d0
    6300:	0800 0003      	btst #3,%d0
    6304:	6700 00f6      	beqw 63fc <__sfvwrite_r+0x118>
    6308:	4aaa 0010      	tstl %a2@(16)
    630c:	6700 00ee      	beqw 63fc <__sfvwrite_r+0x118>
    6310:	2655           	moveal %a5@,%a3
    6312:	0800 0001      	btst #1,%d0
    6316:	675e           	beqs 6376 <__sfvwrite_r+0x92>
    6318:	7600           	moveq #0,%d3
    631a:	7400           	moveq #0,%d2
    631c:	226a 0024      	moveal %a2@(36),%a1
    6320:	206a 001c      	moveal %a2@(28),%a0
    6324:	283c 7fff fc00 	movel #2147482624,%d4
    632a:	4a82           	tstl %d2
    632c:	673e           	beqs 636c <__sfvwrite_r+0x88>
    632e:	2202           	movel %d2,%d1
    6330:	0c82 7fff fc00 	cmpil #2147482624,%d2
    6336:	6302           	blss 633a <__sfvwrite_r+0x56>
    6338:	2204           	movel %d4,%d1
    633a:	2f01           	movel %d1,%sp@-
    633c:	2f03           	movel %d3,%sp@-
    633e:	2f08           	movel %a0,%sp@-
    6340:	2f0e           	movel %fp,%sp@-
    6342:	4e91           	jsr %a1@
    6344:	4fef 0010      	lea %sp@(16),%sp
    6348:	4a80           	tstl %d0
    634a:	6f00 00d4      	blew 6420 <__sfvwrite_r+0x13c>
    634e:	d680           	addl %d0,%d3
    6350:	9480           	subl %d0,%d2
    6352:	222d 0008      	movel %a5@(8),%d1
    6356:	9280           	subl %d0,%d1
    6358:	2b41 0008      	movel %d1,%a5@(8)
    635c:	6700 0096      	beqw 63f4 <__sfvwrite_r+0x110>
    6360:	226a 0024      	moveal %a2@(36),%a1
    6364:	206a 001c      	moveal %a2@(28),%a0
    6368:	4a82           	tstl %d2
    636a:	66c2           	bnes 632e <__sfvwrite_r+0x4a>
    636c:	2613           	movel %a3@,%d3
    636e:	242b 0004      	movel %a3@(4),%d2
    6372:	508b           	addql #8,%a3
    6374:	60b4           	bras 632a <__sfvwrite_r+0x46>
    6376:	7600           	moveq #0,%d3
    6378:	0800 0000      	btst #0,%d0
    637c:	6700 0108      	beqw 6486 <__sfvwrite_r+0x1a2>
    6380:	7000           	moveq #0,%d0
    6382:	7800           	moveq #0,%d4
    6384:	7e00           	moveq #0,%d7
    6386:	2a3c 0000 6860 	movel #26720,%d5
    638c:	49f9 0000 6116 	lea 6116 <_fflush_r>,%a4
    6392:	4a87           	tstl %d7
    6394:	6700 009e      	beqw 6434 <__sfvwrite_r+0x150>
    6398:	4a80           	tstl %d0
    639a:	6700 00a4      	beqw 6440 <__sfvwrite_r+0x15c>
    639e:	2003           	movel %d3,%d0
    63a0:	2c07           	movel %d7,%d6
    63a2:	b087           	cmpl %d7,%d0
    63a4:	6402           	bccs 63a8 <__sfvwrite_r+0xc4>
    63a6:	2c00           	movel %d0,%d6
    63a8:	242a 0008      	movel %a2@(8),%d2
    63ac:	202a 0014      	movel %a2@(20),%d0
    63b0:	2212           	movel %a2@,%d1
    63b2:	b2aa 0010      	cmpl %a2@(16),%d1
    63b6:	6308           	blss 63c0 <__sfvwrite_r+0xdc>
    63b8:	d480           	addl %d0,%d2
    63ba:	b486           	cmpl %d6,%d2
    63bc:	6d00 00a6      	bltw 6464 <__sfvwrite_r+0x180>
    63c0:	bc80           	cmpl %d0,%d6
    63c2:	6d00 0262      	bltw 6626 <__sfvwrite_r+0x342>
    63c6:	2f00           	movel %d0,%sp@-
    63c8:	2f04           	movel %d4,%sp@-
    63ca:	2f2a 001c      	movel %a2@(28),%sp@-
    63ce:	2f0e           	movel %fp,%sp@-
    63d0:	206a 0024      	moveal %a2@(36),%a0
    63d4:	4e90           	jsr %a0@
    63d6:	2400           	movel %d0,%d2
    63d8:	4fef 0010      	lea %sp@(16),%sp
    63dc:	6f42           	bles 6420 <__sfvwrite_r+0x13c>
    63de:	9682           	subl %d2,%d3
    63e0:	6732           	beqs 6414 <__sfvwrite_r+0x130>
    63e2:	7001           	moveq #1,%d0
    63e4:	d882           	addl %d2,%d4
    63e6:	9e82           	subl %d2,%d7
    63e8:	222d 0008      	movel %a5@(8),%d1
    63ec:	9282           	subl %d2,%d1
    63ee:	2b41 0008      	movel %d1,%a5@(8)
    63f2:	669e           	bnes 6392 <__sfvwrite_r+0xae>
    63f4:	7000           	moveq #0,%d0
    63f6:	4cdf 7cfc      	moveml %sp@+,%d2-%d7/%a2-%fp
    63fa:	4e75           	rts
    63fc:	2f0a           	movel %a2,%sp@-
    63fe:	2f0e           	movel %fp,%sp@-
    6400:	4eb9 0000 669c 	jsr 669c <__swsetup_r>
    6406:	508f           	addql #8,%sp
    6408:	4a80           	tstl %d0
    640a:	6620           	bnes 642c <__sfvwrite_r+0x148>
    640c:	302a 000c      	movew %a2@(12),%d0
    6410:	6000 fefe      	braw 6310 <__sfvwrite_r+0x2c>
    6414:	2f0a           	movel %a2,%sp@-
    6416:	2f0e           	movel %fp,%sp@-
    6418:	4e94           	jsr %a4@
    641a:	508f           	addql #8,%sp
    641c:	4a80           	tstl %d0
    641e:	67c4           	beqs 63e4 <__sfvwrite_r+0x100>
    6420:	302a 000c      	movew %a2@(12),%d0
    6424:	0040 0040      	oriw #64,%d0
    6428:	3540 000c      	movew %d0,%a2@(12)
    642c:	70ff           	moveq #-1,%d0
    642e:	4cdf 7cfc      	moveml %sp@+,%d2-%d7/%a2-%fp
    6432:	4e75           	rts
    6434:	2e2b 0004      	movel %a3@(4),%d7
    6438:	204b           	moveal %a3,%a0
    643a:	508b           	addql #8,%a3
    643c:	67f6           	beqs 6434 <__sfvwrite_r+0x150>
    643e:	2810           	movel %a0@,%d4
    6440:	2f07           	movel %d7,%sp@-
    6442:	4878 000a      	pea a <DUART_IMR>
    6446:	2f04           	movel %d4,%sp@-
    6448:	4eb9 0000 67c4 	jsr 67c4 <memchr>
    644e:	4fef 000c      	lea %sp@(12),%sp
    6452:	4a80           	tstl %d0
    6454:	6700 0226      	beqw 667c <__sfvwrite_r+0x398>
    6458:	5280           	addql #1,%d0
    645a:	2600           	movel %d0,%d3
    645c:	9684           	subl %d4,%d3
    645e:	2003           	movel %d3,%d0
    6460:	6000 ff3e      	braw 63a0 <__sfvwrite_r+0xbc>
    6464:	2f02           	movel %d2,%sp@-
    6466:	2f04           	movel %d4,%sp@-
    6468:	2f01           	movel %d1,%sp@-
    646a:	2045           	moveal %d5,%a0
    646c:	4e90           	jsr %a0@
    646e:	d592           	addl %d2,%a2@
    6470:	2f0a           	movel %a2,%sp@-
    6472:	2f0e           	movel %fp,%sp@-
    6474:	4e94           	jsr %a4@
    6476:	4fef 0014      	lea %sp@(20),%sp
    647a:	4a80           	tstl %d0
    647c:	6700 ff60      	beqw 63de <__sfvwrite_r+0xfa>
    6480:	302a 000c      	movew %a2@(12),%d0
    6484:	609e           	bras 6424 <__sfvwrite_r+0x140>
    6486:	99cc           	subal %a4,%a4
    6488:	2212           	movel %a2@,%d1
    648a:	242a 0008      	movel %a2@(8),%d2
    648e:	283c 0000 6860 	movel #26720,%d4
    6494:	2a3c 0000 fee0 	movel #65248,%d5
    649a:	2041           	moveal %d1,%a0
    649c:	2c02           	movel %d2,%d6
    649e:	b8fc 0000      	cmpaw #0,%a4
    64a2:	6700 00d2      	beqw 6576 <__sfvwrite_r+0x292>
    64a6:	0800 0009      	btst #9,%d0
    64aa:	6700 00d6      	beqw 6582 <__sfvwrite_r+0x29e>
    64ae:	b9c2           	cmpal %d2,%a4
    64b0:	6500 0154      	bcsw 6606 <__sfvwrite_r+0x322>
    64b4:	3e00           	movew %d0,%d7
    64b6:	0247 0480      	andiw #1152,%d7
    64ba:	677c           	beqs 6538 <__sfvwrite_r+0x254>
    64bc:	206a 0010      	moveal %a2@(16),%a0
    64c0:	2401           	movel %d1,%d2
    64c2:	9488           	subl %a0,%d2
    64c4:	222a 0014      	movel %a2@(20),%d1
    64c8:	2e01           	movel %d1,%d7
    64ca:	de81           	addl %d1,%d7
    64cc:	de81           	addl %d1,%d7
    64ce:	2e07           	movel %d7,%d7
    64d0:	6a02           	bpls 64d4 <__sfvwrite_r+0x1f0>
    64d2:	5287           	addql #1,%d7
    64d4:	e287           	asrl #1,%d7
    64d6:	43f4 2801      	lea %a4@(1,%d2:l),%a1
    64da:	2207           	movel %d7,%d1
    64dc:	be89           	cmpl %a1,%d7
    64de:	6404           	bccs 64e4 <__sfvwrite_r+0x200>
    64e0:	2e09           	movel %a1,%d7
    64e2:	2209           	movel %a1,%d1
    64e4:	0800 000a      	btst #10,%d0
    64e8:	6700 0156      	beqw 6640 <__sfvwrite_r+0x35c>
    64ec:	2f01           	movel %d1,%sp@-
    64ee:	2f0e           	movel %fp,%sp@-
    64f0:	4eb9 0000 3828 	jsr 3828 <_malloc_r>
    64f6:	2c00           	movel %d0,%d6
    64f8:	508f           	addql #8,%sp
    64fa:	6700 018a      	beqw 6686 <__sfvwrite_r+0x3a2>
    64fe:	2f02           	movel %d2,%sp@-
    6500:	2f2a 0010      	movel %a2@(16),%sp@-
    6504:	2f00           	movel %d0,%sp@-
    6506:	4eb9 0000 6b34 	jsr 6b34 <memcpy>
    650c:	302a 000c      	movew %a2@(12),%d0
    6510:	0240 fb7f      	andiw #-1153,%d0
    6514:	0040 0080      	oriw #128,%d0
    6518:	3540 000c      	movew %d0,%a2@(12)
    651c:	4fef 000c      	lea %sp@(12),%sp
    6520:	2546 0010      	movel %d6,%a2@(16)
    6524:	2046           	moveal %d6,%a0
    6526:	d1c2           	addal %d2,%a0
    6528:	2488           	movel %a0,%a2@
    652a:	2547 0014      	movel %d7,%a2@(20)
    652e:	2c0c           	movel %a4,%d6
    6530:	9e82           	subl %d2,%d7
    6532:	2547 0008      	movel %d7,%a2@(8)
    6536:	240c           	movel %a4,%d2
    6538:	2f02           	movel %d2,%sp@-
    653a:	2f03           	movel %d3,%sp@-
    653c:	2f08           	movel %a0,%sp@-
    653e:	2044           	moveal %d4,%a0
    6540:	4e90           	jsr %a0@
    6542:	9daa 0008      	subl %d6,%a2@(8)
    6546:	d592           	addl %d2,%a2@
    6548:	4fef 000c      	lea %sp@(12),%sp
    654c:	240c           	movel %a4,%d2
    654e:	99cc           	subal %a4,%a4
    6550:	d682           	addl %d2,%d3
    6552:	202d 0008      	movel %a5@(8),%d0
    6556:	9082           	subl %d2,%d0
    6558:	2b40 0008      	movel %d0,%a5@(8)
    655c:	6700 fe96      	beqw 63f4 <__sfvwrite_r+0x110>
    6560:	302a 000c      	movew %a2@(12),%d0
    6564:	2212           	movel %a2@,%d1
    6566:	242a 0008      	movel %a2@(8),%d2
    656a:	2041           	moveal %d1,%a0
    656c:	2c02           	movel %d2,%d6
    656e:	b8fc 0000      	cmpaw #0,%a4
    6572:	6600 ff32      	bnew 64a6 <__sfvwrite_r+0x1c2>
    6576:	2613           	movel %a3@,%d3
    6578:	286b 0004      	moveal %a3@(4),%a4
    657c:	508b           	addql #8,%a3
    657e:	6000 ff1a      	braw 649a <__sfvwrite_r+0x1b6>
    6582:	b2aa 0010      	cmpl %a2@(16),%d1
    6586:	6242           	bhis 65ca <__sfvwrite_r+0x2e6>
    6588:	202a 0014      	movel %a2@(20),%d0
    658c:	b9c0           	cmpal %d0,%a4
    658e:	653a           	bcss 65ca <__sfvwrite_r+0x2e6>
    6590:	240c           	movel %a4,%d2
    6592:	b9fc 7fff ffff 	cmpal #2147483647,%a4
    6598:	6306           	blss 65a0 <__sfvwrite_r+0x2bc>
    659a:	243c 7fff ffff 	movel #2147483647,%d2
    65a0:	2f00           	movel %d0,%sp@-
    65a2:	2f02           	movel %d2,%sp@-
    65a4:	2045           	moveal %d5,%a0
    65a6:	4e90           	jsr %a0@
    65a8:	508f           	addql #8,%sp
    65aa:	9480           	subl %d0,%d2
    65ac:	2f02           	movel %d2,%sp@-
    65ae:	2f03           	movel %d3,%sp@-
    65b0:	2f2a 001c      	movel %a2@(28),%sp@-
    65b4:	2f0e           	movel %fp,%sp@-
    65b6:	206a 0024      	moveal %a2@(36),%a0
    65ba:	4e90           	jsr %a0@
    65bc:	2400           	movel %d0,%d2
    65be:	4fef 0010      	lea %sp@(16),%sp
    65c2:	6f00 fe5c      	blew 6420 <__sfvwrite_r+0x13c>
    65c6:	99c2           	subal %d2,%a4
    65c8:	6086           	bras 6550 <__sfvwrite_r+0x26c>
    65ca:	b9c2           	cmpal %d2,%a4
    65cc:	6402           	bccs 65d0 <__sfvwrite_r+0x2ec>
    65ce:	240c           	movel %a4,%d2
    65d0:	2f02           	movel %d2,%sp@-
    65d2:	2f03           	movel %d3,%sp@-
    65d4:	2f01           	movel %d1,%sp@-
    65d6:	2044           	moveal %d4,%a0
    65d8:	4e90           	jsr %a0@
    65da:	202a 0008      	movel %a2@(8),%d0
    65de:	9082           	subl %d2,%d0
    65e0:	2540 0008      	movel %d0,%a2@(8)
    65e4:	d592           	addl %d2,%a2@
    65e6:	4fef 000c      	lea %sp@(12),%sp
    65ea:	4a80           	tstl %d0
    65ec:	66d8           	bnes 65c6 <__sfvwrite_r+0x2e2>
    65ee:	2f0a           	movel %a2,%sp@-
    65f0:	2f0e           	movel %fp,%sp@-
    65f2:	4eb9 0000 6116 	jsr 6116 <_fflush_r>
    65f8:	508f           	addql #8,%sp
    65fa:	4a80           	tstl %d0
    65fc:	6600 fe22      	bnew 6420 <__sfvwrite_r+0x13c>
